ARM GAS  C:\Users\enes_\AppData\Local\Temp\cc6x7RJg.s 			page 1


   1              		.syntax unified
   2              		.cpu cortex-m0plus
   3              		.fpu softvfp
   4              		.eabi_attribute 20, 1
   5              		.eabi_attribute 21, 1
   6              		.eabi_attribute 23, 3
   7              		.eabi_attribute 24, 1
   8              		.eabi_attribute 25, 1
   9              		.eabi_attribute 26, 1
  10              		.eabi_attribute 30, 1
  11              		.eabi_attribute 34, 0
  12              		.eabi_attribute 18, 4
  13              		.thumb
  14              		.syntax unified
  15              		.file	"CapSense_1_Structure.c"
  16              		.text
  17              	.Ltext0:
  18              		.cfi_sections	.debug_frame
  19              		.section	.text.DsParseParamId,"ax",%progbits
  20              		.align	2
  21              		.code	16
  22              		.thumb_func
  23              		.type	DsParseParamId, %function
  24              	DsParseParamId:
  25              	.LFB46:
  26              		.file 1 "Generated_Source\\PSoC6\\CapSense_1_Structure.c"
   1:Generated_Source\PSoC6/CapSense_1_Structure.c **** /***************************************************************************//**
   2:Generated_Source\PSoC6/CapSense_1_Structure.c **** * \file CapSense_1_Structure.c
   3:Generated_Source\PSoC6/CapSense_1_Structure.c **** * \version 3.0
   4:Generated_Source\PSoC6/CapSense_1_Structure.c **** *
   5:Generated_Source\PSoC6/CapSense_1_Structure.c **** * \brief
   6:Generated_Source\PSoC6/CapSense_1_Structure.c **** *   This file defines the data structure global variables and provides implementation
   7:Generated_Source\PSoC6/CapSense_1_Structure.c **** *   for the high-level and low-level APIs of the Data Structure module.
   8:Generated_Source\PSoC6/CapSense_1_Structure.c **** *
   9:Generated_Source\PSoC6/CapSense_1_Structure.c **** * \see CapSense_1 v3.0 Datasheet
  10:Generated_Source\PSoC6/CapSense_1_Structure.c **** *
  11:Generated_Source\PSoC6/CapSense_1_Structure.c **** *//*****************************************************************************
  12:Generated_Source\PSoC6/CapSense_1_Structure.c **** * Copyright (2016-2017), Cypress Semiconductor Corporation.
  13:Generated_Source\PSoC6/CapSense_1_Structure.c **** ********************************************************************************
  14:Generated_Source\PSoC6/CapSense_1_Structure.c **** * This software is owned by Cypress Semiconductor Corporation (Cypress) and is
  15:Generated_Source\PSoC6/CapSense_1_Structure.c **** * protected by and subject to worldwide patent protection (United States and
  16:Generated_Source\PSoC6/CapSense_1_Structure.c **** * foreign), United States copyright laws and international treaty provisions.
  17:Generated_Source\PSoC6/CapSense_1_Structure.c **** * Cypress hereby grants to licensee a personal, non-exclusive, non-transferable
  18:Generated_Source\PSoC6/CapSense_1_Structure.c **** * license to copy, use, modify, create derivative works of, and compile the
  19:Generated_Source\PSoC6/CapSense_1_Structure.c **** * Cypress Source Code and derivative works for the sole purpose of creating
  20:Generated_Source\PSoC6/CapSense_1_Structure.c **** * custom software in support of licensee product to be used only in conjunction
  21:Generated_Source\PSoC6/CapSense_1_Structure.c **** * with a Cypress integrated circuit as specified in the applicable agreement.
  22:Generated_Source\PSoC6/CapSense_1_Structure.c **** * Any reproduction, modification, translation, compilation, or representation of
  23:Generated_Source\PSoC6/CapSense_1_Structure.c **** * this software except as specified above is prohibited without the express
  24:Generated_Source\PSoC6/CapSense_1_Structure.c **** * written permission of Cypress.
  25:Generated_Source\PSoC6/CapSense_1_Structure.c **** *
  26:Generated_Source\PSoC6/CapSense_1_Structure.c **** * Disclaimer: CYPRESS MAKES NO WARRANTY OF ANY KIND, EXPRESS OR IMPLIED, WITH
  27:Generated_Source\PSoC6/CapSense_1_Structure.c **** * REGARD TO THIS MATERIAL, INCLUDING, BUT NOT LIMITED TO, THE IMPLIED
  28:Generated_Source\PSoC6/CapSense_1_Structure.c **** * WARRANTIES OF MERCHANTABILITY AND FITNESS FOR A PARTICULAR PURPOSE.
  29:Generated_Source\PSoC6/CapSense_1_Structure.c **** * Cypress reserves the right to make changes without further notice to the
  30:Generated_Source\PSoC6/CapSense_1_Structure.c **** * materials described herein. Cypress does not assume any liability arising out
  31:Generated_Source\PSoC6/CapSense_1_Structure.c **** * of the application or use of any product or circuit described herein. Cypress
ARM GAS  C:\Users\enes_\AppData\Local\Temp\cc6x7RJg.s 			page 2


  32:Generated_Source\PSoC6/CapSense_1_Structure.c **** * does not authorize its products for use as critical components in life-support
  33:Generated_Source\PSoC6/CapSense_1_Structure.c **** * systems where a malfunction or failure may reasonably be expected to result in
  34:Generated_Source\PSoC6/CapSense_1_Structure.c **** * significant injury to the user. The inclusion of Cypress' product in a life-
  35:Generated_Source\PSoC6/CapSense_1_Structure.c **** * support systems application implies that the manufacturer assumes all risk of
  36:Generated_Source\PSoC6/CapSense_1_Structure.c **** * such use and in doing so indemnifies Cypress against all charges. Use may be
  37:Generated_Source\PSoC6/CapSense_1_Structure.c **** * limited by and subject to the applicable Cypress software license agreement.
  38:Generated_Source\PSoC6/CapSense_1_Structure.c **** *******************************************************************************/
  39:Generated_Source\PSoC6/CapSense_1_Structure.c **** 
  40:Generated_Source\PSoC6/CapSense_1_Structure.c **** #include "syslib/cy_syslib.h"
  41:Generated_Source\PSoC6/CapSense_1_Structure.c **** #include <stddef.h>
  42:Generated_Source\PSoC6/CapSense_1_Structure.c **** #include <string.h>
  43:Generated_Source\PSoC6/CapSense_1_Structure.c **** #include "cyfitter_gpio.h"
  44:Generated_Source\PSoC6/CapSense_1_Structure.c **** 
  45:Generated_Source\PSoC6/CapSense_1_Structure.c **** #include "CapSense_1_Structure.h"
  46:Generated_Source\PSoC6/CapSense_1_Structure.c **** #include "CapSense_1_Configuration.h"
  47:Generated_Source\PSoC6/CapSense_1_Structure.c **** 
  48:Generated_Source\PSoC6/CapSense_1_Structure.c **** #if (0u != CapSense_1_ADC_EN)
  49:Generated_Source\PSoC6/CapSense_1_Structure.c ****     #include "CapSense_1_Adc.h"
  50:Generated_Source\PSoC6/CapSense_1_Structure.c **** #endif /* (0u != CapSense_1_ADC_EN) */
  51:Generated_Source\PSoC6/CapSense_1_Structure.c **** 
  52:Generated_Source\PSoC6/CapSense_1_Structure.c **** #if (CapSense_1_ENABLE == CapSense_1_SELF_TEST_EN)
  53:Generated_Source\PSoC6/CapSense_1_Structure.c ****     #include "CapSense_1_SelfTest.h"
  54:Generated_Source\PSoC6/CapSense_1_Structure.c **** #endif
  55:Generated_Source\PSoC6/CapSense_1_Structure.c **** 
  56:Generated_Source\PSoC6/CapSense_1_Structure.c **** #if (CapSense_1_ENABLE == CapSense_1_CENTROID_5X5_CSD_EN)
  57:Generated_Source\PSoC6/CapSense_1_Structure.c ****     #include "CapSense_1_AdvancedCentroid_LL.h"
  58:Generated_Source\PSoC6/CapSense_1_Structure.c **** #endif
  59:Generated_Source\PSoC6/CapSense_1_Structure.c **** 
  60:Generated_Source\PSoC6/CapSense_1_Structure.c **** #if (CapSense_1_ENABLE == CapSense_1_GES_GLOBAL_EN)
  61:Generated_Source\PSoC6/CapSense_1_Structure.c ****     #include "CapSense_1_Gesture.h"
  62:Generated_Source\PSoC6/CapSense_1_Structure.c **** #endif /* (CapSense_1_ENABLE == CapSense_1_GES_GLOBAL_EN) */
  63:Generated_Source\PSoC6/CapSense_1_Structure.c **** 
  64:Generated_Source\PSoC6/CapSense_1_Structure.c **** /*******************************************************************************
  65:Generated_Source\PSoC6/CapSense_1_Structure.c **** * Defines the RAM Data Structure variables and their init data in flash
  66:Generated_Source\PSoC6/CapSense_1_Structure.c **** *******************************************************************************/
  67:Generated_Source\PSoC6/CapSense_1_Structure.c **** /**
  68:Generated_Source\PSoC6/CapSense_1_Structure.c **** * \cond SECTION_GLOBAL_VARIABLES
  69:Generated_Source\PSoC6/CapSense_1_Structure.c **** * \addtogroup group_global_variables
  70:Generated_Source\PSoC6/CapSense_1_Structure.c **** * \{
  71:Generated_Source\PSoC6/CapSense_1_Structure.c **** */
  72:Generated_Source\PSoC6/CapSense_1_Structure.c **** 
  73:Generated_Source\PSoC6/CapSense_1_Structure.c **** /**
  74:Generated_Source\PSoC6/CapSense_1_Structure.c **** * The variable that contains the CapSense_1 configuration, settings and
  75:Generated_Source\PSoC6/CapSense_1_Structure.c **** * scanning results. CapSense_1_dsRam represents RAM Data Structure.
  76:Generated_Source\PSoC6/CapSense_1_Structure.c **** */
  77:Generated_Source\PSoC6/CapSense_1_Structure.c **** CapSense_1_RAM_STRUCT CapSense_1_dsRam;
  78:Generated_Source\PSoC6/CapSense_1_Structure.c **** /** \}
  79:Generated_Source\PSoC6/CapSense_1_Structure.c **** * \endcond */
  80:Generated_Source\PSoC6/CapSense_1_Structure.c **** 
  81:Generated_Source\PSoC6/CapSense_1_Structure.c **** /*******************************************************************************
  82:Generated_Source\PSoC6/CapSense_1_Structure.c **** * Declares Widget's De-bounce Counters
  83:Generated_Source\PSoC6/CapSense_1_Structure.c **** *******************************************************************************/
  84:Generated_Source\PSoC6/CapSense_1_Structure.c **** static uint8 CapSense_1_debounceLinearSlider0[1u];
  85:Generated_Source\PSoC6/CapSense_1_Structure.c **** static uint8 CapSense_1_debounceButton0[CapSense_1_BUTTON0_NUM_SENSORS];
  86:Generated_Source\PSoC6/CapSense_1_Structure.c **** static uint8 CapSense_1_debounceButton1[CapSense_1_BUTTON1_NUM_SENSORS];
  87:Generated_Source\PSoC6/CapSense_1_Structure.c **** 
  88:Generated_Source\PSoC6/CapSense_1_Structure.c **** 
ARM GAS  C:\Users\enes_\AppData\Local\Temp\cc6x7RJg.s 			page 3


  89:Generated_Source\PSoC6/CapSense_1_Structure.c **** /***************************************************************************//**
  90:Generated_Source\PSoC6/CapSense_1_Structure.c **** * Declares Noise Envelope data structures
  91:Generated_Source\PSoC6/CapSense_1_Structure.c **** *******************************************************************************/
  92:Generated_Source\PSoC6/CapSense_1_Structure.c **** static SMARTSENSE_CSD_NOISE_ENVELOPE_STRUCT CapSense_1_noiseEnvlpLinearSlider0[CapSense_1_LINEARSLI
  93:Generated_Source\PSoC6/CapSense_1_Structure.c **** 
  94:Generated_Source\PSoC6/CapSense_1_Structure.c **** /*******************************************************************************
  95:Generated_Source\PSoC6/CapSense_1_Structure.c **** * Defines and initializes the Flash Data Structure
  96:Generated_Source\PSoC6/CapSense_1_Structure.c **** *******************************************************************************/
  97:Generated_Source\PSoC6/CapSense_1_Structure.c **** 
  98:Generated_Source\PSoC6/CapSense_1_Structure.c **** 
  99:Generated_Source\PSoC6/CapSense_1_Structure.c **** 
 100:Generated_Source\PSoC6/CapSense_1_Structure.c **** /**
 101:Generated_Source\PSoC6/CapSense_1_Structure.c **** * \cond SECTION_API_CONSTANTS
 102:Generated_Source\PSoC6/CapSense_1_Structure.c **** * \addtogroup group_api_constants
 103:Generated_Source\PSoC6/CapSense_1_Structure.c **** * \{
 104:Generated_Source\PSoC6/CapSense_1_Structure.c **** */
 105:Generated_Source\PSoC6/CapSense_1_Structure.c **** /**
 106:Generated_Source\PSoC6/CapSense_1_Structure.c **** * Constant for the FLASH Data Structure
 107:Generated_Source\PSoC6/CapSense_1_Structure.c **** */
 108:Generated_Source\PSoC6/CapSense_1_Structure.c **** const CapSense_1_FLASH_STRUCT CapSense_1_dsFlash =
 109:Generated_Source\PSoC6/CapSense_1_Structure.c **** {
 110:Generated_Source\PSoC6/CapSense_1_Structure.c ****     /* Flash Widget Initialization Data */
 111:Generated_Source\PSoC6/CapSense_1_Structure.c ****     {
 112:Generated_Source\PSoC6/CapSense_1_Structure.c ****         { /* LinearSlider0 */
 113:Generated_Source\PSoC6/CapSense_1_Structure.c ****             &CapSense_1_ioList[0u],
 114:Generated_Source\PSoC6/CapSense_1_Structure.c ****             (void *)&CapSense_1_dsRam.wdgtList.linearslider0,
 115:Generated_Source\PSoC6/CapSense_1_Structure.c ****             CapSense_1_dsRam.snsList.linearslider0,
 116:Generated_Source\PSoC6/CapSense_1_Structure.c ****             (void *)0u,
 117:Generated_Source\PSoC6/CapSense_1_Structure.c ****             CapSense_1_debounceLinearSlider0,
 118:Generated_Source\PSoC6/CapSense_1_Structure.c ****             CapSense_1_LINEARSLIDER0_STATIC_CONFIG,
 119:Generated_Source\PSoC6/CapSense_1_Structure.c ****             CapSense_1_LINEARSLIDER0_NUM_SENSORS,
 120:Generated_Source\PSoC6/CapSense_1_Structure.c ****             (uint8)CapSense_1_WD_LINEAR_SLIDER_E,
 121:Generated_Source\PSoC6/CapSense_1_Structure.c ****             (uint8)CapSense_1_SENSE_METHOD_CSD_E,
 122:Generated_Source\PSoC6/CapSense_1_Structure.c ****             CapSense_1_LINEARSLIDER0_NUM_SENSORS,
 123:Generated_Source\PSoC6/CapSense_1_Structure.c ****             0u,
 124:Generated_Source\PSoC6/CapSense_1_Structure.c ****             CapSense_1_LINEARSLIDER0_X_RESOLUTION,
 125:Generated_Source\PSoC6/CapSense_1_Structure.c ****             CapSense_1_LINEARSLIDER0_X_CENT_MULT,
 126:Generated_Source\PSoC6/CapSense_1_Structure.c ****             CapSense_1_noiseEnvlpLinearSlider0,
 127:Generated_Source\PSoC6/CapSense_1_Structure.c ****             CapSense_1_LINEARSLIDER0_IIR_FILTER_COEFF,
 128:Generated_Source\PSoC6/CapSense_1_Structure.c ****         },
 129:Generated_Source\PSoC6/CapSense_1_Structure.c ****         { /* Button0 */
 130:Generated_Source\PSoC6/CapSense_1_Structure.c ****             &CapSense_1_ioList[5u],
 131:Generated_Source\PSoC6/CapSense_1_Structure.c ****             (void *)&CapSense_1_dsRam.wdgtList.button0,
 132:Generated_Source\PSoC6/CapSense_1_Structure.c ****             CapSense_1_dsRam.snsList.button0,
 133:Generated_Source\PSoC6/CapSense_1_Structure.c ****             (void *)0u,
 134:Generated_Source\PSoC6/CapSense_1_Structure.c ****             CapSense_1_debounceButton0,
 135:Generated_Source\PSoC6/CapSense_1_Structure.c ****             CapSense_1_BUTTON0_STATIC_CONFIG,
 136:Generated_Source\PSoC6/CapSense_1_Structure.c ****             CapSense_1_BUTTON0_NUM_SENSORS,
 137:Generated_Source\PSoC6/CapSense_1_Structure.c ****             (uint8)CapSense_1_WD_BUTTON_E,
 138:Generated_Source\PSoC6/CapSense_1_Structure.c ****             (uint8)CapSense_1_SENSE_METHOD_CSX_E,
 139:Generated_Source\PSoC6/CapSense_1_Structure.c ****             CapSense_1_BUTTON0_NUM_SENSORS,
 140:Generated_Source\PSoC6/CapSense_1_Structure.c ****             1u,
 141:Generated_Source\PSoC6/CapSense_1_Structure.c ****             0u,
 142:Generated_Source\PSoC6/CapSense_1_Structure.c ****             0u,
 143:Generated_Source\PSoC6/CapSense_1_Structure.c ****             (SMARTSENSE_CSD_NOISE_ENVELOPE_STRUCT *)0u,
 144:Generated_Source\PSoC6/CapSense_1_Structure.c ****             0u,
 145:Generated_Source\PSoC6/CapSense_1_Structure.c ****         },
ARM GAS  C:\Users\enes_\AppData\Local\Temp\cc6x7RJg.s 			page 4


 146:Generated_Source\PSoC6/CapSense_1_Structure.c ****         { /* Button1 */
 147:Generated_Source\PSoC6/CapSense_1_Structure.c ****             &CapSense_1_ioList[7u],
 148:Generated_Source\PSoC6/CapSense_1_Structure.c ****             (void *)&CapSense_1_dsRam.wdgtList.button1,
 149:Generated_Source\PSoC6/CapSense_1_Structure.c ****             CapSense_1_dsRam.snsList.button1,
 150:Generated_Source\PSoC6/CapSense_1_Structure.c ****             (void *)0u,
 151:Generated_Source\PSoC6/CapSense_1_Structure.c ****             CapSense_1_debounceButton1,
 152:Generated_Source\PSoC6/CapSense_1_Structure.c ****             CapSense_1_BUTTON1_STATIC_CONFIG,
 153:Generated_Source\PSoC6/CapSense_1_Structure.c ****             CapSense_1_BUTTON1_NUM_SENSORS,
 154:Generated_Source\PSoC6/CapSense_1_Structure.c ****             (uint8)CapSense_1_WD_BUTTON_E,
 155:Generated_Source\PSoC6/CapSense_1_Structure.c ****             (uint8)CapSense_1_SENSE_METHOD_CSX_E,
 156:Generated_Source\PSoC6/CapSense_1_Structure.c ****             CapSense_1_BUTTON1_NUM_SENSORS,
 157:Generated_Source\PSoC6/CapSense_1_Structure.c ****             1u,
 158:Generated_Source\PSoC6/CapSense_1_Structure.c ****             0u,
 159:Generated_Source\PSoC6/CapSense_1_Structure.c ****             0u,
 160:Generated_Source\PSoC6/CapSense_1_Structure.c ****             (SMARTSENSE_CSD_NOISE_ENVELOPE_STRUCT *)0u,
 161:Generated_Source\PSoC6/CapSense_1_Structure.c ****             0u,
 162:Generated_Source\PSoC6/CapSense_1_Structure.c ****         },
 163:Generated_Source\PSoC6/CapSense_1_Structure.c ****     },
 164:Generated_Source\PSoC6/CapSense_1_Structure.c **** };
 165:Generated_Source\PSoC6/CapSense_1_Structure.c **** 
 166:Generated_Source\PSoC6/CapSense_1_Structure.c **** /**
 167:Generated_Source\PSoC6/CapSense_1_Structure.c **** * The array of the pointers to the electrode specific register.
 168:Generated_Source\PSoC6/CapSense_1_Structure.c **** */
 169:Generated_Source\PSoC6/CapSense_1_Structure.c **** const CapSense_1_FLASH_IO_STRUCT CapSense_1_ioList[CapSense_1_TOTAL_ELECTRODES] =
 170:Generated_Source\PSoC6/CapSense_1_Structure.c **** {
 171:Generated_Source\PSoC6/CapSense_1_Structure.c ****     { /* 0: LinearSlider0_Sns0 */
 172:Generated_Source\PSoC6/CapSense_1_Structure.c ****         CapSense_1_Sns_0_PORT,
 173:Generated_Source\PSoC6/CapSense_1_Structure.c ****         (uint8)CapSense_1_Sns_0_NUM,
 174:Generated_Source\PSoC6/CapSense_1_Structure.c ****     },
 175:Generated_Source\PSoC6/CapSense_1_Structure.c ****     { /* 1: LinearSlider0_Sns1 */
 176:Generated_Source\PSoC6/CapSense_1_Structure.c ****         CapSense_1_Sns_1_PORT,
 177:Generated_Source\PSoC6/CapSense_1_Structure.c ****         (uint8)CapSense_1_Sns_1_NUM,
 178:Generated_Source\PSoC6/CapSense_1_Structure.c ****     },
 179:Generated_Source\PSoC6/CapSense_1_Structure.c ****     { /* 2: LinearSlider0_Sns2 */
 180:Generated_Source\PSoC6/CapSense_1_Structure.c ****         CapSense_1_Sns_2_PORT,
 181:Generated_Source\PSoC6/CapSense_1_Structure.c ****         (uint8)CapSense_1_Sns_2_NUM,
 182:Generated_Source\PSoC6/CapSense_1_Structure.c ****     },
 183:Generated_Source\PSoC6/CapSense_1_Structure.c ****     { /* 3: LinearSlider0_Sns3 */
 184:Generated_Source\PSoC6/CapSense_1_Structure.c ****         CapSense_1_Sns_3_PORT,
 185:Generated_Source\PSoC6/CapSense_1_Structure.c ****         (uint8)CapSense_1_Sns_3_NUM,
 186:Generated_Source\PSoC6/CapSense_1_Structure.c ****     },
 187:Generated_Source\PSoC6/CapSense_1_Structure.c ****     { /* 4: LinearSlider0_Sns4 */
 188:Generated_Source\PSoC6/CapSense_1_Structure.c ****         CapSense_1_Sns_4_PORT,
 189:Generated_Source\PSoC6/CapSense_1_Structure.c ****         (uint8)CapSense_1_Sns_4_NUM,
 190:Generated_Source\PSoC6/CapSense_1_Structure.c ****     },
 191:Generated_Source\PSoC6/CapSense_1_Structure.c ****     { /* 5: Button0_Rx0 */
 192:Generated_Source\PSoC6/CapSense_1_Structure.c ****         CapSense_1_Rx_0_PORT,
 193:Generated_Source\PSoC6/CapSense_1_Structure.c ****         (uint8)CapSense_1_Rx_0_NUM,
 194:Generated_Source\PSoC6/CapSense_1_Structure.c ****     },
 195:Generated_Source\PSoC6/CapSense_1_Structure.c ****     { /* 6: Button0_Tx */
 196:Generated_Source\PSoC6/CapSense_1_Structure.c ****         CapSense_1_Tx_0_PORT,
 197:Generated_Source\PSoC6/CapSense_1_Structure.c ****         (uint8)CapSense_1_Tx_0_NUM,
 198:Generated_Source\PSoC6/CapSense_1_Structure.c ****     },
 199:Generated_Source\PSoC6/CapSense_1_Structure.c ****     { /* 7: Button1_Rx0 */
 200:Generated_Source\PSoC6/CapSense_1_Structure.c ****         CapSense_1_Rx_1_PORT,
 201:Generated_Source\PSoC6/CapSense_1_Structure.c ****         (uint8)CapSense_1_Rx_1_NUM,
 202:Generated_Source\PSoC6/CapSense_1_Structure.c ****     },
ARM GAS  C:\Users\enes_\AppData\Local\Temp\cc6x7RJg.s 			page 5


 203:Generated_Source\PSoC6/CapSense_1_Structure.c ****     { /* 8: Button0_Tx ganged to Button1_Tx */
 204:Generated_Source\PSoC6/CapSense_1_Structure.c ****         CapSense_1_Tx_0_PORT,
 205:Generated_Source\PSoC6/CapSense_1_Structure.c ****         (uint8)CapSense_1_Tx_0_NUM,
 206:Generated_Source\PSoC6/CapSense_1_Structure.c ****     },
 207:Generated_Source\PSoC6/CapSense_1_Structure.c **** };
 208:Generated_Source\PSoC6/CapSense_1_Structure.c **** 
 209:Generated_Source\PSoC6/CapSense_1_Structure.c **** 
 210:Generated_Source\PSoC6/CapSense_1_Structure.c **** 
 211:Generated_Source\PSoC6/CapSense_1_Structure.c **** /** \}
 212:Generated_Source\PSoC6/CapSense_1_Structure.c **** * \endcond */
 213:Generated_Source\PSoC6/CapSense_1_Structure.c **** 
 214:Generated_Source\PSoC6/CapSense_1_Structure.c **** /* Initialization data for RAM widget list */
 215:Generated_Source\PSoC6/CapSense_1_Structure.c **** const CapSense_1_RAM_WD_LIST_STRUCT CapSense_1_ramWidgetInit =
 216:Generated_Source\PSoC6/CapSense_1_Structure.c **** {
 217:Generated_Source\PSoC6/CapSense_1_Structure.c ****     { /* LinearSlider0 */
 218:Generated_Source\PSoC6/CapSense_1_Structure.c ****         CapSense_1_LINEARSLIDER0_RESOLUTION,
 219:Generated_Source\PSoC6/CapSense_1_Structure.c ****         CapSense_1_LINEARSLIDER0_FINGER_TH,
 220:Generated_Source\PSoC6/CapSense_1_Structure.c ****         CapSense_1_LINEARSLIDER0_NOISE_TH,
 221:Generated_Source\PSoC6/CapSense_1_Structure.c ****         CapSense_1_LINEARSLIDER0_NNOISE_TH,
 222:Generated_Source\PSoC6/CapSense_1_Structure.c ****         CapSense_1_LINEARSLIDER0_HYSTERESIS,
 223:Generated_Source\PSoC6/CapSense_1_Structure.c ****         CapSense_1_LINEARSLIDER0_ON_DEBOUNCE,
 224:Generated_Source\PSoC6/CapSense_1_Structure.c ****         CapSense_1_LINEARSLIDER0_LOW_BSLN_RST,
 225:Generated_Source\PSoC6/CapSense_1_Structure.c ****         {
 226:Generated_Source\PSoC6/CapSense_1_Structure.c ****             CapSense_1_LINEARSLIDER0_IDAC_MOD0,
 227:Generated_Source\PSoC6/CapSense_1_Structure.c ****         },
 228:Generated_Source\PSoC6/CapSense_1_Structure.c ****         CapSense_1_LINEARSLIDER0_SNS_CLK,
 229:Generated_Source\PSoC6/CapSense_1_Structure.c ****         CapSense_1_LINEARSLIDER0_SNS_CLK_SOURCE,
 230:Generated_Source\PSoC6/CapSense_1_Structure.c ****         CapSense_1_LINEARSLIDER0_FINGER_CAP,
 231:Generated_Source\PSoC6/CapSense_1_Structure.c ****         CapSense_1_LINEARSLIDER0_SIGPFC,
 232:Generated_Source\PSoC6/CapSense_1_Structure.c ****         {
 233:Generated_Source\PSoC6/CapSense_1_Structure.c ****             CapSense_1_LINEARSLIDER0_POSITION,
 234:Generated_Source\PSoC6/CapSense_1_Structure.c ****         },
 235:Generated_Source\PSoC6/CapSense_1_Structure.c ****     },
 236:Generated_Source\PSoC6/CapSense_1_Structure.c ****     { /* Button0 */
 237:Generated_Source\PSoC6/CapSense_1_Structure.c ****         CapSense_1_BUTTON0_RESOLUTION,
 238:Generated_Source\PSoC6/CapSense_1_Structure.c ****         CapSense_1_BUTTON0_FINGER_TH,
 239:Generated_Source\PSoC6/CapSense_1_Structure.c ****         CapSense_1_BUTTON0_NOISE_TH,
 240:Generated_Source\PSoC6/CapSense_1_Structure.c ****         CapSense_1_BUTTON0_NNOISE_TH,
 241:Generated_Source\PSoC6/CapSense_1_Structure.c ****         CapSense_1_BUTTON0_HYSTERESIS,
 242:Generated_Source\PSoC6/CapSense_1_Structure.c ****         CapSense_1_BUTTON0_ON_DEBOUNCE,
 243:Generated_Source\PSoC6/CapSense_1_Structure.c ****         CapSense_1_BUTTON0_LOW_BSLN_RST,
 244:Generated_Source\PSoC6/CapSense_1_Structure.c ****         {
 245:Generated_Source\PSoC6/CapSense_1_Structure.c ****             CapSense_1_BUTTON0_IDAC_MOD0,
 246:Generated_Source\PSoC6/CapSense_1_Structure.c ****         },
 247:Generated_Source\PSoC6/CapSense_1_Structure.c ****         CapSense_1_BUTTON0_SNS_CLK,
 248:Generated_Source\PSoC6/CapSense_1_Structure.c ****         CapSense_1_BUTTON0_SNS_CLK_SOURCE,
 249:Generated_Source\PSoC6/CapSense_1_Structure.c ****         CapSense_1_BUTTON0_FINGER_CAP,
 250:Generated_Source\PSoC6/CapSense_1_Structure.c ****         CapSense_1_BUTTON0_SIGPFC,
 251:Generated_Source\PSoC6/CapSense_1_Structure.c ****     },
 252:Generated_Source\PSoC6/CapSense_1_Structure.c ****     { /* Button1 */
 253:Generated_Source\PSoC6/CapSense_1_Structure.c ****         CapSense_1_BUTTON1_RESOLUTION,
 254:Generated_Source\PSoC6/CapSense_1_Structure.c ****         CapSense_1_BUTTON1_FINGER_TH,
 255:Generated_Source\PSoC6/CapSense_1_Structure.c ****         CapSense_1_BUTTON1_NOISE_TH,
 256:Generated_Source\PSoC6/CapSense_1_Structure.c ****         CapSense_1_BUTTON1_NNOISE_TH,
 257:Generated_Source\PSoC6/CapSense_1_Structure.c ****         CapSense_1_BUTTON1_HYSTERESIS,
 258:Generated_Source\PSoC6/CapSense_1_Structure.c ****         CapSense_1_BUTTON1_ON_DEBOUNCE,
 259:Generated_Source\PSoC6/CapSense_1_Structure.c ****         CapSense_1_BUTTON1_LOW_BSLN_RST,
ARM GAS  C:\Users\enes_\AppData\Local\Temp\cc6x7RJg.s 			page 6


 260:Generated_Source\PSoC6/CapSense_1_Structure.c ****         {
 261:Generated_Source\PSoC6/CapSense_1_Structure.c ****             CapSense_1_BUTTON1_IDAC_MOD0,
 262:Generated_Source\PSoC6/CapSense_1_Structure.c ****         },
 263:Generated_Source\PSoC6/CapSense_1_Structure.c ****         CapSense_1_BUTTON1_SNS_CLK,
 264:Generated_Source\PSoC6/CapSense_1_Structure.c ****         CapSense_1_BUTTON1_SNS_CLK_SOURCE,
 265:Generated_Source\PSoC6/CapSense_1_Structure.c ****         CapSense_1_BUTTON1_FINGER_CAP,
 266:Generated_Source\PSoC6/CapSense_1_Structure.c ****         CapSense_1_BUTTON1_SIGPFC,
 267:Generated_Source\PSoC6/CapSense_1_Structure.c ****     },
 268:Generated_Source\PSoC6/CapSense_1_Structure.c **** };
 269:Generated_Source\PSoC6/CapSense_1_Structure.c **** 
 270:Generated_Source\PSoC6/CapSense_1_Structure.c **** 
 271:Generated_Source\PSoC6/CapSense_1_Structure.c **** /* IDAC Initialization Data */
 272:Generated_Source\PSoC6/CapSense_1_Structure.c **** const uint8 CapSense_1_ramIdacInit[CapSense_1_TOTAL_SENSORS] =
 273:Generated_Source\PSoC6/CapSense_1_Structure.c **** {
 274:Generated_Source\PSoC6/CapSense_1_Structure.c ****     /* LinearSlider0 */
 275:Generated_Source\PSoC6/CapSense_1_Structure.c ****     CapSense_1_LINEARSLIDER0_SNS0_IDAC_COMP0,
 276:Generated_Source\PSoC6/CapSense_1_Structure.c ****     CapSense_1_LINEARSLIDER0_SNS1_IDAC_COMP0,
 277:Generated_Source\PSoC6/CapSense_1_Structure.c ****     CapSense_1_LINEARSLIDER0_SNS2_IDAC_COMP0,
 278:Generated_Source\PSoC6/CapSense_1_Structure.c ****     CapSense_1_LINEARSLIDER0_SNS3_IDAC_COMP0,
 279:Generated_Source\PSoC6/CapSense_1_Structure.c ****     CapSense_1_LINEARSLIDER0_SNS4_IDAC_COMP0,
 280:Generated_Source\PSoC6/CapSense_1_Structure.c **** 
 281:Generated_Source\PSoC6/CapSense_1_Structure.c ****     /* Button0 */
 282:Generated_Source\PSoC6/CapSense_1_Structure.c ****     CapSense_1_BUTTON0_RX0_IDAC_COMP0,
 283:Generated_Source\PSoC6/CapSense_1_Structure.c **** 
 284:Generated_Source\PSoC6/CapSense_1_Structure.c ****     /* Button1 */
 285:Generated_Source\PSoC6/CapSense_1_Structure.c ****     CapSense_1_BUTTON1_RX0_IDAC_COMP0,
 286:Generated_Source\PSoC6/CapSense_1_Structure.c **** };
 287:Generated_Source\PSoC6/CapSense_1_Structure.c **** 
 288:Generated_Source\PSoC6/CapSense_1_Structure.c **** 
 289:Generated_Source\PSoC6/CapSense_1_Structure.c **** 
 290:Generated_Source\PSoC6/CapSense_1_Structure.c **** /*******************************************************************************
 291:Generated_Source\PSoC6/CapSense_1_Structure.c **** * Defines internal data types and statements
 292:Generated_Source\PSoC6/CapSense_1_Structure.c **** *******************************************************************************/
 293:Generated_Source\PSoC6/CapSense_1_Structure.c **** #define PARAM_TYPE_OFFSET       (30u)
 294:Generated_Source\PSoC6/CapSense_1_Structure.c **** #define PARAM_TYPE_MASK         (3Lu << PARAM_TYPE_OFFSET)
 295:Generated_Source\PSoC6/CapSense_1_Structure.c **** #define PARAM_RWBIT_OFFSET      (29u)
 296:Generated_Source\PSoC6/CapSense_1_Structure.c **** #define PARAM_RWBIT_MASK        (1Lu << PARAM_RWBIT_OFFSET)
 297:Generated_Source\PSoC6/CapSense_1_Structure.c **** #define PARAM_FBIT_OFFSET       (28u)
 298:Generated_Source\PSoC6/CapSense_1_Structure.c **** #define PARAM_FBIT_MASK         (1Lu << PARAM_FBIT_OFFSET)
 299:Generated_Source\PSoC6/CapSense_1_Structure.c **** #define PARAM_UBIT_OFFSET       (23u)
 300:Generated_Source\PSoC6/CapSense_1_Structure.c **** #define PARAM_UBIT_MASK         (1Lu << PARAM_UBIT_OFFSET)
 301:Generated_Source\PSoC6/CapSense_1_Structure.c **** #define PARAM_WDID_OFFSET       (16u)
 302:Generated_Source\PSoC6/CapSense_1_Structure.c **** #define PARAM_WDID_MASK         (0x7FLu << PARAM_WDID_OFFSET)
 303:Generated_Source\PSoC6/CapSense_1_Structure.c **** #define PARAM_CRC_OFFSET        (24u)
 304:Generated_Source\PSoC6/CapSense_1_Structure.c **** #define PARAM_CRC_MASK          (0x0FLu << PARAM_CRC_OFFSET)
 305:Generated_Source\PSoC6/CapSense_1_Structure.c **** 
 306:Generated_Source\PSoC6/CapSense_1_Structure.c **** /* Defines align masks for uint16 and uint32 */
 307:Generated_Source\PSoC6/CapSense_1_Structure.c **** #define UINT16_ALIGN_MASK       (1Lu)
 308:Generated_Source\PSoC6/CapSense_1_Structure.c **** #define UINT32_ALIGN_MASK       (3Lu)
 309:Generated_Source\PSoC6/CapSense_1_Structure.c **** 
 310:Generated_Source\PSoC6/CapSense_1_Structure.c **** /* Defines supported parameter types */
 311:Generated_Source\PSoC6/CapSense_1_Structure.c **** #define DS_PARAM_TYPE_UINT8     (0x01u)
 312:Generated_Source\PSoC6/CapSense_1_Structure.c **** #define DS_PARAM_TYPE_UINT16    (0x02u)
 313:Generated_Source\PSoC6/CapSense_1_Structure.c **** #define DS_PARAM_TYPE_UINT32    (0x03u)
 314:Generated_Source\PSoC6/CapSense_1_Structure.c **** 
 315:Generated_Source\PSoC6/CapSense_1_Structure.c **** 
 316:Generated_Source\PSoC6/CapSense_1_Structure.c **** /* Defines PARAM_ID structure */
ARM GAS  C:\Users\enes_\AppData\Local\Temp\cc6x7RJg.s 			page 7


 317:Generated_Source\PSoC6/CapSense_1_Structure.c **** typedef struct
 318:Generated_Source\PSoC6/CapSense_1_Structure.c **** {
 319:Generated_Source\PSoC6/CapSense_1_Structure.c ****     uint16 offset;      /* parameter offset */
 320:Generated_Source\PSoC6/CapSense_1_Structure.c ****     uint8  widgetId;    /* widget Id parameter belongs to */
 321:Generated_Source\PSoC6/CapSense_1_Structure.c ****     uint8  affectsCrc;  /* parameter affects widget CRC */
 322:Generated_Source\PSoC6/CapSense_1_Structure.c ****     uint8  crc;         /* parameter CRC */
 323:Generated_Source\PSoC6/CapSense_1_Structure.c ****     uint8  flash;       /* parameter located in FLASH flag */
 324:Generated_Source\PSoC6/CapSense_1_Structure.c ****     uint8  rw;          /* parameter is read/write flag */
 325:Generated_Source\PSoC6/CapSense_1_Structure.c ****     uint8  type;        /* parameter type: uint8/uint16/uint32 */
 326:Generated_Source\PSoC6/CapSense_1_Structure.c **** } PARAM_ID_STRUCT;
 327:Generated_Source\PSoC6/CapSense_1_Structure.c **** 
 328:Generated_Source\PSoC6/CapSense_1_Structure.c **** 
 329:Generated_Source\PSoC6/CapSense_1_Structure.c **** /*******************************************************************************
 330:Generated_Source\PSoC6/CapSense_1_Structure.c **** * Static Function Prototypes
 331:Generated_Source\PSoC6/CapSense_1_Structure.c **** *******************************************************************************/
 332:Generated_Source\PSoC6/CapSense_1_Structure.c **** /**
 333:Generated_Source\PSoC6/CapSense_1_Structure.c **** * \cond SECTION_CYSENSE_INTERNAL
 334:Generated_Source\PSoC6/CapSense_1_Structure.c **** * \addtogroup group_cysense_internal
 335:Generated_Source\PSoC6/CapSense_1_Structure.c **** * \{
 336:Generated_Source\PSoC6/CapSense_1_Structure.c **** */
 337:Generated_Source\PSoC6/CapSense_1_Structure.c **** 
 338:Generated_Source\PSoC6/CapSense_1_Structure.c **** 
 339:Generated_Source\PSoC6/CapSense_1_Structure.c **** 
 340:Generated_Source\PSoC6/CapSense_1_Structure.c **** static cy_status DsParseParamId(uint32 paramId, PARAM_ID_STRUCT *pData);
 341:Generated_Source\PSoC6/CapSense_1_Structure.c **** 
 342:Generated_Source\PSoC6/CapSense_1_Structure.c **** /** \}
 343:Generated_Source\PSoC6/CapSense_1_Structure.c **** * \endcond */
 344:Generated_Source\PSoC6/CapSense_1_Structure.c **** 
 345:Generated_Source\PSoC6/CapSense_1_Structure.c **** 
 346:Generated_Source\PSoC6/CapSense_1_Structure.c **** /*******************************************************************************
 347:Generated_Source\PSoC6/CapSense_1_Structure.c **** * Function Name: CapSense_1_DsInitialize
 348:Generated_Source\PSoC6/CapSense_1_Structure.c **** ****************************************************************************//**
 349:Generated_Source\PSoC6/CapSense_1_Structure.c **** *
 350:Generated_Source\PSoC6/CapSense_1_Structure.c **** * \brief
 351:Generated_Source\PSoC6/CapSense_1_Structure.c **** *   This function initializes the Data Structure storage.
 352:Generated_Source\PSoC6/CapSense_1_Structure.c **** *
 353:Generated_Source\PSoC6/CapSense_1_Structure.c **** * \details
 354:Generated_Source\PSoC6/CapSense_1_Structure.c **** *   This function copies the default widget configuration parameters
 355:Generated_Source\PSoC6/CapSense_1_Structure.c **** *   from the Flash storage into the RAM Data Structure.
 356:Generated_Source\PSoC6/CapSense_1_Structure.c **** *
 357:Generated_Source\PSoC6/CapSense_1_Structure.c **** *******************************************************************************/
 358:Generated_Source\PSoC6/CapSense_1_Structure.c **** void CapSense_1_DsInitialize(void)
 359:Generated_Source\PSoC6/CapSense_1_Structure.c **** {
 360:Generated_Source\PSoC6/CapSense_1_Structure.c ****     #if ((CapSense_1_ENABLE == CapSense_1_CSX_EN) || \
 361:Generated_Source\PSoC6/CapSense_1_Structure.c ****          (CapSense_1_ENABLE == CapSense_1_CSD_IDAC_COMP_EN) || \
 362:Generated_Source\PSoC6/CapSense_1_Structure.c ****         ((CapSense_1_ENABLE == CapSense_1_CSX_EN) && \
 363:Generated_Source\PSoC6/CapSense_1_Structure.c ****          (CapSense_1_ENABLE == CapSense_1_CSX_SKIP_OVSMPL_SPECIFIC_NODES)))
 364:Generated_Source\PSoC6/CapSense_1_Structure.c ****         uint32 snsId;
 365:Generated_Source\PSoC6/CapSense_1_Structure.c ****         uint32 wdgtId;
 366:Generated_Source\PSoC6/CapSense_1_Structure.c ****         CapSense_1_RAM_SNS_STRUCT * ptrSnsTmp;
 367:Generated_Source\PSoC6/CapSense_1_Structure.c ****         CapSense_1_FLASH_WD_STRUCT const * ptrFlashWdgt;
 368:Generated_Source\PSoC6/CapSense_1_Structure.c ****     #endif
 369:Generated_Source\PSoC6/CapSense_1_Structure.c **** 
 370:Generated_Source\PSoC6/CapSense_1_Structure.c ****     #if ((CapSense_1_ENABLE == CapSense_1_CSX_EN) && \
 371:Generated_Source\PSoC6/CapSense_1_Structure.c ****          (CapSense_1_ENABLE == CapSense_1_CSX_SKIP_OVSMPL_SPECIFIC_NODES))
 372:Generated_Source\PSoC6/CapSense_1_Structure.c ****         uint16 subConvNumber;
 373:Generated_Source\PSoC6/CapSense_1_Structure.c ****     #endif
ARM GAS  C:\Users\enes_\AppData\Local\Temp\cc6x7RJg.s 			page 8


 374:Generated_Source\PSoC6/CapSense_1_Structure.c **** 
 375:Generated_Source\PSoC6/CapSense_1_Structure.c ****     #if (0u != CapSense_1_CSX_EN) || (0 != CapSense_1_CSD_IDAC_COMP_EN)
 376:Generated_Source\PSoC6/CapSense_1_Structure.c ****         uint8 const * ptrIdacInit = CapSense_1_ramIdacInit;
 377:Generated_Source\PSoC6/CapSense_1_Structure.c ****     #endif
 378:Generated_Source\PSoC6/CapSense_1_Structure.c **** 
 379:Generated_Source\PSoC6/CapSense_1_Structure.c ****     /* Reset RAM data structure content */
 380:Generated_Source\PSoC6/CapSense_1_Structure.c ****     (void)memset(&CapSense_1_dsRam, 0, sizeof(CapSense_1_dsRam));
 381:Generated_Source\PSoC6/CapSense_1_Structure.c **** 
 382:Generated_Source\PSoC6/CapSense_1_Structure.c ****     /* Initialize configId, deviceId and hwClock registers */
 383:Generated_Source\PSoC6/CapSense_1_Structure.c ****     CapSense_1_dsRam.configId = CapSense_1_CONFIG_ID;
 384:Generated_Source\PSoC6/CapSense_1_Structure.c ****     CapSense_1_dsRam.deviceId = CapSense_1_DEVICE_ID;
 385:Generated_Source\PSoC6/CapSense_1_Structure.c ****     CapSense_1_dsRam.hwClock = CapSense_1_HW_CLOCK;
 386:Generated_Source\PSoC6/CapSense_1_Structure.c **** 
 387:Generated_Source\PSoC6/CapSense_1_Structure.c ****     /* Initialize global RAM data */
 388:Generated_Source\PSoC6/CapSense_1_Structure.c ****     CapSense_1_dsRam.csd0Config = CapSense_1_CSD0_CONFIG;
 389:Generated_Source\PSoC6/CapSense_1_Structure.c **** 
 390:Generated_Source\PSoC6/CapSense_1_Structure.c ****     #if (0u != CapSense_1_TOTAL_CSD_WIDGETS)
 391:Generated_Source\PSoC6/CapSense_1_Structure.c ****         CapSense_1_dsRam.modCsdClk = CapSense_1_CSD_SCANSPEED_DIVIDER;
 392:Generated_Source\PSoC6/CapSense_1_Structure.c **** 
 393:Generated_Source\PSoC6/CapSense_1_Structure.c ****         #if (0u != CapSense_1_CSD_COMMON_SNS_CLK_EN)
 394:Generated_Source\PSoC6/CapSense_1_Structure.c ****             CapSense_1_dsRam.snsCsdClk = CapSense_1_CSD_SNS_CLK_DIVIDER;
 395:Generated_Source\PSoC6/CapSense_1_Structure.c ****         #endif /* #if (0u != CapSense_1_CSD_COMMON_SNS_CLK_EN) */
 396:Generated_Source\PSoC6/CapSense_1_Structure.c ****     #endif /* #if (0u != CapSense_1_TOTAL_CSD_WIDGETS) */
 397:Generated_Source\PSoC6/CapSense_1_Structure.c **** 
 398:Generated_Source\PSoC6/CapSense_1_Structure.c ****     #if (0u != CapSense_1_CSX_EN)
 399:Generated_Source\PSoC6/CapSense_1_Structure.c ****         CapSense_1_dsRam.modCsxClk = CapSense_1_CSX_SCANSPEED_DIVIDER;
 400:Generated_Source\PSoC6/CapSense_1_Structure.c **** 
 401:Generated_Source\PSoC6/CapSense_1_Structure.c ****         #if (0u != CapSense_1_CSX_COMMON_TX_CLK_EN)
 402:Generated_Source\PSoC6/CapSense_1_Structure.c ****             CapSense_1_dsRam.snsCsxClk = CapSense_1_CSX_TX_CLK_DIVIDER;
 403:Generated_Source\PSoC6/CapSense_1_Structure.c ****         #endif /* #if (0u != CapSense_1_CSX_COMMON_TX_CLK_EN) */
 404:Generated_Source\PSoC6/CapSense_1_Structure.c ****     #endif /* #if (0u != CapSense_1_CSX_EN) */
 405:Generated_Source\PSoC6/CapSense_1_Structure.c **** 
 406:Generated_Source\PSoC6/CapSense_1_Structure.c ****     #if (0u != CapSense_1_SELF_TEST_EN)
 407:Generated_Source\PSoC6/CapSense_1_Structure.c ****         CapSense_1_dsRam.glbCrc = CapSense_1_GLB_CRC;
 408:Generated_Source\PSoC6/CapSense_1_Structure.c ****     #endif /* #if (0u != CapSense_1_SELF_TEST_EN) */
 409:Generated_Source\PSoC6/CapSense_1_Structure.c **** 
 410:Generated_Source\PSoC6/CapSense_1_Structure.c ****     /* Initialize RAM widget data */
 411:Generated_Source\PSoC6/CapSense_1_Structure.c ****     CapSense_1_dsRam.wdgtList = CapSense_1_ramWidgetInit;
 412:Generated_Source\PSoC6/CapSense_1_Structure.c **** 
 413:Generated_Source\PSoC6/CapSense_1_Structure.c ****     /* Initialize Gesture configuration structure */
 414:Generated_Source\PSoC6/CapSense_1_Structure.c ****     #if ((0u != CapSense_1_GES_GLOBAL_EN) || (0u != CapSense_1_BALLISTIC_MULTIPLIER_EN))
 415:Generated_Source\PSoC6/CapSense_1_Structure.c ****         CapSense_1_dsRam.timestampInterval = CapSense_1_TIMESTAMP_INTERVAL;
 416:Generated_Source\PSoC6/CapSense_1_Structure.c ****     #endif /* ((0u != CapSense_1_GES_GLOBAL_EN) || (0u != CapSense_1_BALLISTIC_MULTIPLIER_EN)) */
 417:Generated_Source\PSoC6/CapSense_1_Structure.c **** 
 418:Generated_Source\PSoC6/CapSense_1_Structure.c ****     #if (0u != CapSense_1_GES_GLOBAL_EN)
 419:Generated_Source\PSoC6/CapSense_1_Structure.c ****         CapSense_1_dsRam.gestures = CapSense_1_ramGesturesInit;
 420:Generated_Source\PSoC6/CapSense_1_Structure.c ****     #endif /* (0u != CapSense_1_GES_GLOBAL_EN) */
 421:Generated_Source\PSoC6/CapSense_1_Structure.c **** 
 422:Generated_Source\PSoC6/CapSense_1_Structure.c ****     #if (0u != CapSense_1_BALLISTIC_MULTIPLIER_EN)
 423:Generated_Source\PSoC6/CapSense_1_Structure.c ****         CapSense_1_dsRam.ballisticConfig = CapSense_1_ramBallisticInit;
 424:Generated_Source\PSoC6/CapSense_1_Structure.c ****     #endif /* (0u != CapSense_1_BALLISTIC_MULTIPLIER_EN) */
 425:Generated_Source\PSoC6/CapSense_1_Structure.c **** 
 426:Generated_Source\PSoC6/CapSense_1_Structure.c ****     #if (0u != CapSense_1_CSX_EN) || (0 != CapSense_1_CSD_IDAC_COMP_EN)
 427:Generated_Source\PSoC6/CapSense_1_Structure.c ****         /* Initialize IDAC data */
 428:Generated_Source\PSoC6/CapSense_1_Structure.c ****         ptrFlashWdgt = CapSense_1_dsFlash.wdgtArray;
 429:Generated_Source\PSoC6/CapSense_1_Structure.c **** 
 430:Generated_Source\PSoC6/CapSense_1_Structure.c ****         for (wdgtId = CapSense_1_TOTAL_WIDGETS; wdgtId-- > 0u; )
ARM GAS  C:\Users\enes_\AppData\Local\Temp\cc6x7RJg.s 			page 9


 431:Generated_Source\PSoC6/CapSense_1_Structure.c ****         {
 432:Generated_Source\PSoC6/CapSense_1_Structure.c ****             ptrSnsTmp = ptrFlashWdgt->ptr2SnsRam;
 433:Generated_Source\PSoC6/CapSense_1_Structure.c **** 
 434:Generated_Source\PSoC6/CapSense_1_Structure.c ****             for (snsId = CapSense_1_GET_SNS_CNT_BY_PTR(ptrFlashWdgt); snsId-- > 0u;)
 435:Generated_Source\PSoC6/CapSense_1_Structure.c ****             {
 436:Generated_Source\PSoC6/CapSense_1_Structure.c ****                 ptrSnsTmp->idacComp[0u] = *ptrIdacInit;
 437:Generated_Source\PSoC6/CapSense_1_Structure.c ****                 ptrIdacInit++;
 438:Generated_Source\PSoC6/CapSense_1_Structure.c **** 
 439:Generated_Source\PSoC6/CapSense_1_Structure.c ****                 #if (0u != CapSense_1_MULTI_FREQ_SCAN_EN)
 440:Generated_Source\PSoC6/CapSense_1_Structure.c ****                     ptrSnsTmp->idacComp[1u] = *ptrIdacInit;
 441:Generated_Source\PSoC6/CapSense_1_Structure.c ****                     ptrIdacInit++;
 442:Generated_Source\PSoC6/CapSense_1_Structure.c **** 
 443:Generated_Source\PSoC6/CapSense_1_Structure.c ****                     ptrSnsTmp->idacComp[2u] = *ptrIdacInit;
 444:Generated_Source\PSoC6/CapSense_1_Structure.c ****                     ptrIdacInit++;
 445:Generated_Source\PSoC6/CapSense_1_Structure.c ****                 #endif /* #if (0u != CapSense_1_MULTI_FREQ_SCAN_EN) */
 446:Generated_Source\PSoC6/CapSense_1_Structure.c **** 
 447:Generated_Source\PSoC6/CapSense_1_Structure.c ****                 ptrSnsTmp++;
 448:Generated_Source\PSoC6/CapSense_1_Structure.c ****             }
 449:Generated_Source\PSoC6/CapSense_1_Structure.c **** 
 450:Generated_Source\PSoC6/CapSense_1_Structure.c ****             ptrFlashWdgt++; /* Move to next widget */
 451:Generated_Source\PSoC6/CapSense_1_Structure.c ****         }
 452:Generated_Source\PSoC6/CapSense_1_Structure.c ****     #endif /*(0u != CapSense_1_CSX_EN) || (0 != CapSense_1_CSD_IDAC_COMP_EN)*/
 453:Generated_Source\PSoC6/CapSense_1_Structure.c **** 
 454:Generated_Source\PSoC6/CapSense_1_Structure.c ****     #if ((CapSense_1_ENABLE == CapSense_1_CSX_EN) && \
 455:Generated_Source\PSoC6/CapSense_1_Structure.c ****          (CapSense_1_ENABLE == CapSense_1_CSX_SKIP_OVSMPL_SPECIFIC_NODES))
 456:Generated_Source\PSoC6/CapSense_1_Structure.c ****         /* Initialize Sub-Conversion Number for each node of each CSX widget */
 457:Generated_Source\PSoC6/CapSense_1_Structure.c ****         ptrFlashWdgt = CapSense_1_dsFlash.wdgtArray;
 458:Generated_Source\PSoC6/CapSense_1_Structure.c ****         for (wdgtId = CapSense_1_TOTAL_WIDGETS; wdgtId-- > 0u;)
 459:Generated_Source\PSoC6/CapSense_1_Structure.c ****         {
 460:Generated_Source\PSoC6/CapSense_1_Structure.c ****             /* Check for widget sense method */
 461:Generated_Source\PSoC6/CapSense_1_Structure.c ****             if (CapSense_1_SENSE_METHOD_CSX_E == CapSense_1_GET_SENSE_METHOD(ptrFlashWdgt))
 462:Generated_Source\PSoC6/CapSense_1_Structure.c ****             {
 463:Generated_Source\PSoC6/CapSense_1_Structure.c ****                 /* Take the sub-convesion number of a CSX widget and initialize each node of this w
 464:Generated_Source\PSoC6/CapSense_1_Structure.c ****                 subConvNumber = ((CapSense_1_RAM_WD_BASE_STRUCT *)(ptrFlashWdgt->ptr2WdgtRam))->res
 465:Generated_Source\PSoC6/CapSense_1_Structure.c ****                 ptrSnsTmp = ptrFlashWdgt->ptr2SnsRam;
 466:Generated_Source\PSoC6/CapSense_1_Structure.c ****                 for (snsId = CapSense_1_GET_SNS_CNT_BY_PTR(ptrFlashWdgt); snsId-- > 0u;)
 467:Generated_Source\PSoC6/CapSense_1_Structure.c ****                 {
 468:Generated_Source\PSoC6/CapSense_1_Structure.c ****                     ptrSnsTmp->subConvNum = subConvNumber;
 469:Generated_Source\PSoC6/CapSense_1_Structure.c ****                     ptrSnsTmp++;
 470:Generated_Source\PSoC6/CapSense_1_Structure.c ****                 }
 471:Generated_Source\PSoC6/CapSense_1_Structure.c ****             }
 472:Generated_Source\PSoC6/CapSense_1_Structure.c ****             /* Move to the next widget */
 473:Generated_Source\PSoC6/CapSense_1_Structure.c ****             ptrFlashWdgt++;
 474:Generated_Source\PSoC6/CapSense_1_Structure.c ****         }
 475:Generated_Source\PSoC6/CapSense_1_Structure.c ****     #endif /* ((CapSense_1_ENABLE == CapSense_1_CSX_EN) && \
 476:Generated_Source\PSoC6/CapSense_1_Structure.c ****                (CapSense_1_ENABLE == CapSense_1_CSX_SKIP_OVSMPL_SPECIFIC_NODES)) */
 477:Generated_Source\PSoC6/CapSense_1_Structure.c **** 
 478:Generated_Source\PSoC6/CapSense_1_Structure.c ****     #if (0u != CapSense_1_ADC_EN)
 479:Generated_Source\PSoC6/CapSense_1_Structure.c ****         CapSense_1_AdcDsInitialize();
 480:Generated_Source\PSoC6/CapSense_1_Structure.c ****     #endif /* (0u != CapSense_1_ADC_EN) */
 481:Generated_Source\PSoC6/CapSense_1_Structure.c **** }
 482:Generated_Source\PSoC6/CapSense_1_Structure.c **** 
 483:Generated_Source\PSoC6/CapSense_1_Structure.c **** 
 484:Generated_Source\PSoC6/CapSense_1_Structure.c **** #if (0u != CapSense_1_ADC_EN)
 485:Generated_Source\PSoC6/CapSense_1_Structure.c ****     /*******************************************************************************
 486:Generated_Source\PSoC6/CapSense_1_Structure.c ****     * Function Name: CapSense_1_AdcDsInitialize
 487:Generated_Source\PSoC6/CapSense_1_Structure.c ****     ****************************************************************************//**
ARM GAS  C:\Users\enes_\AppData\Local\Temp\cc6x7RJg.s 			page 10


 488:Generated_Source\PSoC6/CapSense_1_Structure.c ****     *
 489:Generated_Source\PSoC6/CapSense_1_Structure.c ****     * \brief
 490:Generated_Source\PSoC6/CapSense_1_Structure.c ****     *   Configures the initial Adc datastructure members.
 491:Generated_Source\PSoC6/CapSense_1_Structure.c ****     *
 492:Generated_Source\PSoC6/CapSense_1_Structure.c ****     *******************************************************************************/
 493:Generated_Source\PSoC6/CapSense_1_Structure.c ****     void CapSense_1_AdcDsInitialize(void)
 494:Generated_Source\PSoC6/CapSense_1_Structure.c ****     {
 495:Generated_Source\PSoC6/CapSense_1_Structure.c ****         CapSense_1_dsRam.adcResolution = CapSense_1_ADC_RESOLUTION;
 496:Generated_Source\PSoC6/CapSense_1_Structure.c ****         CapSense_1_dsRam.adcIdac = (uint8)(CapSense_1_ADC_IDAC_DEFAULT);
 497:Generated_Source\PSoC6/CapSense_1_Structure.c ****         CapSense_1_dsRam.adcActiveCh = CapSense_1_AdcNO_CHANNEL;
 498:Generated_Source\PSoC6/CapSense_1_Structure.c ****     }
 499:Generated_Source\PSoC6/CapSense_1_Structure.c **** #endif /* (0u != CapSense_1_ADC_EN) */
 500:Generated_Source\PSoC6/CapSense_1_Structure.c **** 
 501:Generated_Source\PSoC6/CapSense_1_Structure.c **** 
 502:Generated_Source\PSoC6/CapSense_1_Structure.c **** /*******************************************************************************
 503:Generated_Source\PSoC6/CapSense_1_Structure.c **** * Function Name: DsParseParamId
 504:Generated_Source\PSoC6/CapSense_1_Structure.c **** ****************************************************************************//**
 505:Generated_Source\PSoC6/CapSense_1_Structure.c **** *
 506:Generated_Source\PSoC6/CapSense_1_Structure.c **** * \brief
 507:Generated_Source\PSoC6/CapSense_1_Structure.c **** *   This function parses the parameter ID and checks its correctness.
 508:Generated_Source\PSoC6/CapSense_1_Structure.c **** *
 509:Generated_Source\PSoC6/CapSense_1_Structure.c **** * \details
 510:Generated_Source\PSoC6/CapSense_1_Structure.c **** *   This function checks the parameter CRC if the self-test is enabled,
 511:Generated_Source\PSoC6/CapSense_1_Structure.c **** *   validates the offset value and parameter type.
 512:Generated_Source\PSoC6/CapSense_1_Structure.c **** *
 513:Generated_Source\PSoC6/CapSense_1_Structure.c **** * \param paramId The parameter to parse.
 514:Generated_Source\PSoC6/CapSense_1_Structure.c **** * \param pData   The pointer to the structure that will hold parsed data.
 515:Generated_Source\PSoC6/CapSense_1_Structure.c **** *
 516:Generated_Source\PSoC6/CapSense_1_Structure.c **** * \return CY_RET_SUCCESS     If the parameter is valid
 517:Generated_Source\PSoC6/CapSense_1_Structure.c **** *         CY_RET_BAD_PARAM   If  the parameter is invalid
 518:Generated_Source\PSoC6/CapSense_1_Structure.c **** *
 519:Generated_Source\PSoC6/CapSense_1_Structure.c **** *******************************************************************************/
 520:Generated_Source\PSoC6/CapSense_1_Structure.c **** static cy_status DsParseParamId(uint32 paramId, PARAM_ID_STRUCT *pData)
 521:Generated_Source\PSoC6/CapSense_1_Structure.c **** {
  27              		.loc 1 521 0
  28              		.cfi_startproc
  29              		@ args = 0, pretend = 0, frame = 0
  30              		@ frame_needed = 0, uses_anonymous_args = 0
  31              	.LVL0:
  32 0000 70B5     		push	{r4, r5, r6, lr}
  33              		.cfi_def_cfa_offset 16
  34              		.cfi_offset 4, -16
  35              		.cfi_offset 5, -12
  36              		.cfi_offset 6, -8
  37              		.cfi_offset 14, -4
  38              	.LVL1:
 522:Generated_Source\PSoC6/CapSense_1_Structure.c ****     cy_status result = CY_RET_SUCCESS;
 523:Generated_Source\PSoC6/CapSense_1_Structure.c **** 
 524:Generated_Source\PSoC6/CapSense_1_Structure.c ****     #if (0u != CapSense_1_SELF_TEST_EN)
 525:Generated_Source\PSoC6/CapSense_1_Structure.c ****         const uint8 crcTable[] =
 526:Generated_Source\PSoC6/CapSense_1_Structure.c ****         {
 527:Generated_Source\PSoC6/CapSense_1_Structure.c ****             0x00u, 0x09u, 0x0Bu, 0x02u, 0x0Fu, 0x06u, 0x04u, 0x0Du,
 528:Generated_Source\PSoC6/CapSense_1_Structure.c ****             0x07u, 0x0Eu, 0x0Cu, 0x05u, 0x08u, 0x01u, 0x03u, 0x0Au
 529:Generated_Source\PSoC6/CapSense_1_Structure.c ****         };
 530:Generated_Source\PSoC6/CapSense_1_Structure.c **** 
 531:Generated_Source\PSoC6/CapSense_1_Structure.c ****         uint32 i;
 532:Generated_Source\PSoC6/CapSense_1_Structure.c ****         uint32 actualCrc = 0u;
ARM GAS  C:\Users\enes_\AppData\Local\Temp\cc6x7RJg.s 			page 11


 533:Generated_Source\PSoC6/CapSense_1_Structure.c ****         uint32 crcIndex;
 534:Generated_Source\PSoC6/CapSense_1_Structure.c ****     #endif /* #if (0u != CapSense_1_SELF_TEST_EN) */
 535:Generated_Source\PSoC6/CapSense_1_Structure.c **** 
 536:Generated_Source\PSoC6/CapSense_1_Structure.c ****     /* Extract parameter data */
 537:Generated_Source\PSoC6/CapSense_1_Structure.c ****     pData->offset     = CY_LO16(paramId);
  39              		.loc 1 537 0
  40 0002 85B2     		uxth	r5, r0
  41 0004 0D80     		strh	r5, [r1]
 538:Generated_Source\PSoC6/CapSense_1_Structure.c ****     pData->affectsCrc = CY_LO8((paramId & PARAM_UBIT_MASK)  >> PARAM_UBIT_OFFSET);
  42              		.loc 1 538 0
  43 0006 C30D     		lsrs	r3, r0, #23
  44 0008 0124     		movs	r4, #1
  45 000a 2340     		ands	r3, r4
  46 000c CB70     		strb	r3, [r1, #3]
 539:Generated_Source\PSoC6/CapSense_1_Structure.c ****     pData->widgetId   = CY_LO8((paramId & PARAM_WDID_MASK)  >> PARAM_WDID_OFFSET);
  47              		.loc 1 539 0
  48 000e 030C     		lsrs	r3, r0, #16
  49 0010 7F22     		movs	r2, #127
  50 0012 1340     		ands	r3, r2
  51 0014 8B70     		strb	r3, [r1, #2]
 540:Generated_Source\PSoC6/CapSense_1_Structure.c ****     pData->type       = CY_LO8((paramId & PARAM_TYPE_MASK)  >> PARAM_TYPE_OFFSET);
  52              		.loc 1 540 0
  53 0016 860F     		lsrs	r6, r0, #30
  54 0018 CE71     		strb	r6, [r1, #7]
 541:Generated_Source\PSoC6/CapSense_1_Structure.c ****     pData->flash      = CY_LO8((paramId & PARAM_FBIT_MASK)  >> PARAM_FBIT_OFFSET);
  55              		.loc 1 541 0
  56 001a 030F     		lsrs	r3, r0, #28
  57 001c 2340     		ands	r3, r4
  58 001e 4B71     		strb	r3, [r1, #5]
 542:Generated_Source\PSoC6/CapSense_1_Structure.c ****     pData->rw         = CY_LO8((paramId & PARAM_RWBIT_MASK) >> PARAM_RWBIT_OFFSET);
  59              		.loc 1 542 0
  60 0020 420F     		lsrs	r2, r0, #29
  61 0022 2240     		ands	r2, r4
  62 0024 8A71     		strb	r2, [r1, #6]
 543:Generated_Source\PSoC6/CapSense_1_Structure.c ****     pData->crc        = CY_LO8((paramId & PARAM_CRC_MASK)   >> PARAM_CRC_OFFSET);
  63              		.loc 1 543 0
  64 0026 000E     		lsrs	r0, r0, #24
  65              	.LVL2:
  66 0028 0E34     		adds	r4, r4, #14
  67 002a 2040     		ands	r0, r4
  68 002c 0871     		strb	r0, [r1, #4]
 544:Generated_Source\PSoC6/CapSense_1_Structure.c **** 
 545:Generated_Source\PSoC6/CapSense_1_Structure.c ****     /* Check parameter CRC if self-test is enabled */
 546:Generated_Source\PSoC6/CapSense_1_Structure.c ****     #if (0u != CapSense_1_SELF_TEST_EN)
 547:Generated_Source\PSoC6/CapSense_1_Structure.c **** 
 548:Generated_Source\PSoC6/CapSense_1_Structure.c ****         /* Calculate CRC for bits 0..24.
 549:Generated_Source\PSoC6/CapSense_1_Structure.c ****          * The CRC is calculated using nibbles (4-bits).
 550:Generated_Source\PSoC6/CapSense_1_Structure.c ****          * So for 0..24 bits there are in total 6 nibbles. */
 551:Generated_Source\PSoC6/CapSense_1_Structure.c ****         for (i = 6u; i > 0u; i--)
 552:Generated_Source\PSoC6/CapSense_1_Structure.c ****         {
 553:Generated_Source\PSoC6/CapSense_1_Structure.c ****             crcIndex = actualCrc ^ (paramId & 0x0Fu);
 554:Generated_Source\PSoC6/CapSense_1_Structure.c ****             actualCrc = crcTable[crcIndex];
 555:Generated_Source\PSoC6/CapSense_1_Structure.c ****             paramId >>= 4u;
 556:Generated_Source\PSoC6/CapSense_1_Structure.c ****         }
 557:Generated_Source\PSoC6/CapSense_1_Structure.c **** 
 558:Generated_Source\PSoC6/CapSense_1_Structure.c ****         /* Add bits 28..32 */
 559:Generated_Source\PSoC6/CapSense_1_Structure.c ****         crcIndex = actualCrc ^ ((paramId >> 4u) & 0x0Fu);
ARM GAS  C:\Users\enes_\AppData\Local\Temp\cc6x7RJg.s 			page 12


 560:Generated_Source\PSoC6/CapSense_1_Structure.c ****         actualCrc = crcTable[crcIndex];
 561:Generated_Source\PSoC6/CapSense_1_Structure.c **** 
 562:Generated_Source\PSoC6/CapSense_1_Structure.c ****         /* Add bits 24..28 (CRC) */
 563:Generated_Source\PSoC6/CapSense_1_Structure.c ****         crcIndex = actualCrc ^ (paramId & 0x0Fu);
 564:Generated_Source\PSoC6/CapSense_1_Structure.c ****         actualCrc = crcTable[crcIndex];
 565:Generated_Source\PSoC6/CapSense_1_Structure.c **** 
 566:Generated_Source\PSoC6/CapSense_1_Structure.c ****         if (0u != actualCrc)
 567:Generated_Source\PSoC6/CapSense_1_Structure.c ****         {
 568:Generated_Source\PSoC6/CapSense_1_Structure.c ****             /* CRC mismatch */
 569:Generated_Source\PSoC6/CapSense_1_Structure.c ****             result = CY_RET_BAD_PARAM;
 570:Generated_Source\PSoC6/CapSense_1_Structure.c ****         }
 571:Generated_Source\PSoC6/CapSense_1_Structure.c **** 
 572:Generated_Source\PSoC6/CapSense_1_Structure.c ****         if ((CY_RET_SUCCESS == result) &&
 573:Generated_Source\PSoC6/CapSense_1_Structure.c ****             (0u != pData->affectsCrc) && (pData->widgetId >= CapSense_1_TOTAL_WIDGETS ))
 574:Generated_Source\PSoC6/CapSense_1_Structure.c ****         {
 575:Generated_Source\PSoC6/CapSense_1_Structure.c ****             /* Wrong widgetId for protected parameter */
 576:Generated_Source\PSoC6/CapSense_1_Structure.c ****             result = CY_RET_BAD_PARAM;
 577:Generated_Source\PSoC6/CapSense_1_Structure.c ****         }
 578:Generated_Source\PSoC6/CapSense_1_Structure.c **** 
 579:Generated_Source\PSoC6/CapSense_1_Structure.c ****         /* Check offset value range */
 580:Generated_Source\PSoC6/CapSense_1_Structure.c ****         if (CY_RET_SUCCESS == result)
 581:Generated_Source\PSoC6/CapSense_1_Structure.c ****         {
 582:Generated_Source\PSoC6/CapSense_1_Structure.c ****             if (0u == pData->flash)
 583:Generated_Source\PSoC6/CapSense_1_Structure.c ****             {
 584:Generated_Source\PSoC6/CapSense_1_Structure.c ****                 /* Check offset for RAM Data Structure range */
 585:Generated_Source\PSoC6/CapSense_1_Structure.c ****                 if (pData->offset >= sizeof(CapSense_1_dsRam))
 586:Generated_Source\PSoC6/CapSense_1_Structure.c ****                 {
 587:Generated_Source\PSoC6/CapSense_1_Structure.c ****                     result = CY_RET_BAD_PARAM;
 588:Generated_Source\PSoC6/CapSense_1_Structure.c ****                 }
 589:Generated_Source\PSoC6/CapSense_1_Structure.c ****             }
 590:Generated_Source\PSoC6/CapSense_1_Structure.c ****             else
 591:Generated_Source\PSoC6/CapSense_1_Structure.c ****             {
 592:Generated_Source\PSoC6/CapSense_1_Structure.c ****                 /* Check offset for Flash Data Structure range */
 593:Generated_Source\PSoC6/CapSense_1_Structure.c ****                 if (pData->offset >= sizeof(CapSense_1_dsFlash))
 594:Generated_Source\PSoC6/CapSense_1_Structure.c ****                 {
 595:Generated_Source\PSoC6/CapSense_1_Structure.c ****                     result = CY_RET_BAD_PARAM;
 596:Generated_Source\PSoC6/CapSense_1_Structure.c ****                 }
 597:Generated_Source\PSoC6/CapSense_1_Structure.c **** 
 598:Generated_Source\PSoC6/CapSense_1_Structure.c ****                 /* Check if it is marked as Read Only */
 599:Generated_Source\PSoC6/CapSense_1_Structure.c ****                 if (0u != pData->rw)
 600:Generated_Source\PSoC6/CapSense_1_Structure.c ****                 {
 601:Generated_Source\PSoC6/CapSense_1_Structure.c ****                     result = CY_RET_BAD_PARAM;
 602:Generated_Source\PSoC6/CapSense_1_Structure.c ****                 }
 603:Generated_Source\PSoC6/CapSense_1_Structure.c ****             }
 604:Generated_Source\PSoC6/CapSense_1_Structure.c ****         }
 605:Generated_Source\PSoC6/CapSense_1_Structure.c ****     #else /* #if (0u != CapSense_1_SELF_TEST_EN) */
 606:Generated_Source\PSoC6/CapSense_1_Structure.c ****         /* Check offset value range */
 607:Generated_Source\PSoC6/CapSense_1_Structure.c ****         if (0u == pData->flash)
  69              		.loc 1 607 0
  70 002e 002B     		cmp	r3, #0
  71 0030 03D1     		bne	.L2
 608:Generated_Source\PSoC6/CapSense_1_Structure.c ****         {
 609:Generated_Source\PSoC6/CapSense_1_Structure.c ****             /* Check offset for RAM Data Structure range */
 610:Generated_Source\PSoC6/CapSense_1_Structure.c ****             if (pData->offset >= sizeof(CapSense_1_dsRam))
  72              		.loc 1 610 0
  73 0032 A32D     		cmp	r5, #163
  74 0034 09D8     		bhi	.L9
ARM GAS  C:\Users\enes_\AppData\Local\Temp\cc6x7RJg.s 			page 13


 522:Generated_Source\PSoC6/CapSense_1_Structure.c **** 
  75              		.loc 1 522 0
  76 0036 0020     		movs	r0, #0
  77 0038 0AE0     		b	.L3
  78              	.L2:
 611:Generated_Source\PSoC6/CapSense_1_Structure.c ****             {
 612:Generated_Source\PSoC6/CapSense_1_Structure.c ****                 result = CY_RET_BAD_PARAM;
 613:Generated_Source\PSoC6/CapSense_1_Structure.c ****             }
 614:Generated_Source\PSoC6/CapSense_1_Structure.c ****         }
 615:Generated_Source\PSoC6/CapSense_1_Structure.c ****         else
 616:Generated_Source\PSoC6/CapSense_1_Structure.c ****         {
 617:Generated_Source\PSoC6/CapSense_1_Structure.c ****             /* Check offset for Flash Data Structure range */
 618:Generated_Source\PSoC6/CapSense_1_Structure.c ****             if (pData->offset >= sizeof(CapSense_1_dsFlash))
  79              		.loc 1 618 0
  80 003a 832D     		cmp	r5, #131
  81 003c 01D8     		bhi	.L10
 522:Generated_Source\PSoC6/CapSense_1_Structure.c **** 
  82              		.loc 1 522 0
  83 003e 0020     		movs	r0, #0
  84 0040 00E0     		b	.L4
  85              	.L10:
 619:Generated_Source\PSoC6/CapSense_1_Structure.c ****             {
 620:Generated_Source\PSoC6/CapSense_1_Structure.c ****                 result = CY_RET_BAD_PARAM;
  86              		.loc 1 620 0
  87 0042 0120     		movs	r0, #1
  88              	.L4:
  89              	.LVL3:
 621:Generated_Source\PSoC6/CapSense_1_Structure.c ****             }
 622:Generated_Source\PSoC6/CapSense_1_Structure.c **** 
 623:Generated_Source\PSoC6/CapSense_1_Structure.c ****             /* Check if it is marked as Read Only */
 624:Generated_Source\PSoC6/CapSense_1_Structure.c ****             if (0u != pData->rw)
  90              		.loc 1 624 0
  91 0044 002A     		cmp	r2, #0
  92 0046 02D1     		bne	.L11
  93 0048 02E0     		b	.L3
  94              	.LVL4:
  95              	.L9:
 612:Generated_Source\PSoC6/CapSense_1_Structure.c ****             }
  96              		.loc 1 612 0
  97 004a 0120     		movs	r0, #1
  98 004c 00E0     		b	.L3
  99              	.LVL5:
 100              	.L11:
 625:Generated_Source\PSoC6/CapSense_1_Structure.c ****             {
 626:Generated_Source\PSoC6/CapSense_1_Structure.c ****                 result = CY_RET_BAD_PARAM;
 101              		.loc 1 626 0
 102 004e 0120     		movs	r0, #1
 103              	.LVL6:
 104              	.L3:
 627:Generated_Source\PSoC6/CapSense_1_Structure.c ****             }
 628:Generated_Source\PSoC6/CapSense_1_Structure.c ****         }
 629:Generated_Source\PSoC6/CapSense_1_Structure.c ****     #endif /* #if (0u != CapSense_1_SELF_TEST_EN) */
 630:Generated_Source\PSoC6/CapSense_1_Structure.c **** 
 631:Generated_Source\PSoC6/CapSense_1_Structure.c ****     if (CY_RET_SUCCESS == result)
 105              		.loc 1 631 0
 106 0050 0028     		cmp	r0, #0
 107 0052 11D1     		bne	.L5
ARM GAS  C:\Users\enes_\AppData\Local\Temp\cc6x7RJg.s 			page 14


 632:Generated_Source\PSoC6/CapSense_1_Structure.c ****     {
 633:Generated_Source\PSoC6/CapSense_1_Structure.c ****         /* Check parameter type, offset alignment */
 634:Generated_Source\PSoC6/CapSense_1_Structure.c ****         switch (pData->type)
 108              		.loc 1 634 0
 109 0054 022E     		cmp	r6, #2
 110 0056 04D0     		beq	.L6
 111 0058 032E     		cmp	r6, #3
 112 005a 05D0     		beq	.L7
 113 005c 012E     		cmp	r6, #1
 114 005e 06D1     		bne	.L15
 115 0060 0AE0     		b	.L5
 116              	.L6:
 635:Generated_Source\PSoC6/CapSense_1_Structure.c ****         {
 636:Generated_Source\PSoC6/CapSense_1_Structure.c ****         case DS_PARAM_TYPE_UINT16:
 637:Generated_Source\PSoC6/CapSense_1_Structure.c ****             if (0u != (pData->offset & UINT16_ALIGN_MASK))
 117              		.loc 1 637 0
 118 0062 EB07     		lsls	r3, r5, #31
 119 0064 05D4     		bmi	.L13
 120 0066 07E0     		b	.L5
 121              	.L7:
 638:Generated_Source\PSoC6/CapSense_1_Structure.c ****             {
 639:Generated_Source\PSoC6/CapSense_1_Structure.c ****                 result = CY_RET_BAD_PARAM;
 640:Generated_Source\PSoC6/CapSense_1_Structure.c ****             }
 641:Generated_Source\PSoC6/CapSense_1_Structure.c ****             break;
 642:Generated_Source\PSoC6/CapSense_1_Structure.c **** 
 643:Generated_Source\PSoC6/CapSense_1_Structure.c ****         case DS_PARAM_TYPE_UINT32:
 644:Generated_Source\PSoC6/CapSense_1_Structure.c ****             if (0u != (pData->offset & UINT32_ALIGN_MASK))
 122              		.loc 1 644 0
 123 0068 AB07     		lsls	r3, r5, #30
 124 006a 04D1     		bne	.L14
 125 006c 04E0     		b	.L5
 126              	.L15:
 645:Generated_Source\PSoC6/CapSense_1_Structure.c ****             {
 646:Generated_Source\PSoC6/CapSense_1_Structure.c ****                 result = CY_RET_BAD_PARAM;
 647:Generated_Source\PSoC6/CapSense_1_Structure.c ****             }
 648:Generated_Source\PSoC6/CapSense_1_Structure.c ****             break;
 649:Generated_Source\PSoC6/CapSense_1_Structure.c **** 
 650:Generated_Source\PSoC6/CapSense_1_Structure.c ****         case DS_PARAM_TYPE_UINT8:
 651:Generated_Source\PSoC6/CapSense_1_Structure.c ****             break;
 652:Generated_Source\PSoC6/CapSense_1_Structure.c **** 
 653:Generated_Source\PSoC6/CapSense_1_Structure.c ****         default:
 654:Generated_Source\PSoC6/CapSense_1_Structure.c ****             result = CY_RET_BAD_PARAM;
 127              		.loc 1 654 0
 128 006e 0120     		movs	r0, #1
 129              	.LVL7:
 130 0070 02E0     		b	.L5
 131              	.LVL8:
 132              	.L13:
 639:Generated_Source\PSoC6/CapSense_1_Structure.c ****             }
 133              		.loc 1 639 0
 134 0072 0120     		movs	r0, #1
 135              	.LVL9:
 136 0074 00E0     		b	.L5
 137              	.LVL10:
 138              	.L14:
 646:Generated_Source\PSoC6/CapSense_1_Structure.c ****             }
 139              		.loc 1 646 0
ARM GAS  C:\Users\enes_\AppData\Local\Temp\cc6x7RJg.s 			page 15


 140 0076 0120     		movs	r0, #1
 141              	.LVL11:
 142              	.L5:
 655:Generated_Source\PSoC6/CapSense_1_Structure.c ****             break;
 656:Generated_Source\PSoC6/CapSense_1_Structure.c ****         }
 657:Generated_Source\PSoC6/CapSense_1_Structure.c ****     }
 658:Generated_Source\PSoC6/CapSense_1_Structure.c **** 
 659:Generated_Source\PSoC6/CapSense_1_Structure.c ****     return result;
 660:Generated_Source\PSoC6/CapSense_1_Structure.c **** }
 143              		.loc 1 660 0
 144              		@ sp needed
 145 0078 70BD     		pop	{r4, r5, r6, pc}
 146              		.cfi_endproc
 147              	.LFE46:
 148              		.size	DsParseParamId, .-DsParseParamId
 149 007a C046     		.section	.text.CapSense_1_DsInitialize,"ax",%progbits
 150              		.align	2
 151              		.global	CapSense_1_DsInitialize
 152              		.code	16
 153              		.thumb_func
 154              		.type	CapSense_1_DsInitialize, %function
 155              	CapSense_1_DsInitialize:
 156              	.LFB45:
 359:Generated_Source\PSoC6/CapSense_1_Structure.c ****     #if ((CapSense_1_ENABLE == CapSense_1_CSX_EN) || \
 157              		.loc 1 359 0
 158              		.cfi_startproc
 159              		@ args = 0, pretend = 0, frame = 0
 160              		@ frame_needed = 0, uses_anonymous_args = 0
 161 0000 70B5     		push	{r4, r5, r6, lr}
 162              		.cfi_def_cfa_offset 16
 163              		.cfi_offset 4, -16
 164              		.cfi_offset 5, -12
 165              		.cfi_offset 6, -8
 166              		.cfi_offset 14, -4
 167              	.LVL12:
 380:Generated_Source\PSoC6/CapSense_1_Structure.c **** 
 168              		.loc 1 380 0
 169 0002 174C     		ldr	r4, .L21
 170 0004 A422     		movs	r2, #164
 171 0006 0021     		movs	r1, #0
 172 0008 2000     		movs	r0, r4
 173 000a FFF7FEFF 		bl	memset
 174              	.LVL13:
 383:Generated_Source\PSoC6/CapSense_1_Structure.c ****     CapSense_1_dsRam.deviceId = CapSense_1_DEVICE_ID;
 175              		.loc 1 383 0
 176 000e 154B     		ldr	r3, .L21+4
 177 0010 2380     		strh	r3, [r4]
 384:Generated_Source\PSoC6/CapSense_1_Structure.c ****     CapSense_1_dsRam.hwClock = CapSense_1_HW_CLOCK;
 178              		.loc 1 384 0
 179 0012 9023     		movs	r3, #144
 180 0014 1B01     		lsls	r3, r3, #4
 181 0016 6380     		strh	r3, [r4, #2]
 385:Generated_Source\PSoC6/CapSense_1_Structure.c **** 
 182              		.loc 1 385 0
 183 0018 134B     		ldr	r3, .L21+8
 184 001a A380     		strh	r3, [r4, #4]
 388:Generated_Source\PSoC6/CapSense_1_Structure.c **** 
ARM GAS  C:\Users\enes_\AppData\Local\Temp\cc6x7RJg.s 			page 16


 185              		.loc 1 388 0
 186 001c 0823     		movs	r3, #8
 187 001e A383     		strh	r3, [r4, #28]
 391:Generated_Source\PSoC6/CapSense_1_Structure.c **** 
 188              		.loc 1 391 0
 189 0020 073B     		subs	r3, r3, #7
 190 0022 A377     		strb	r3, [r4, #30]
 399:Generated_Source\PSoC6/CapSense_1_Structure.c **** 
 191              		.loc 1 399 0
 192 0024 E377     		strb	r3, [r4, #31]
 411:Generated_Source\PSoC6/CapSense_1_Structure.c **** 
 193              		.loc 1 411 0
 194 0026 2000     		movs	r0, r4
 195 0028 2030     		adds	r0, r0, #32
 196 002a 3822     		movs	r2, #56
 197 002c 0F49     		ldr	r1, .L21+12
 198 002e 0C31     		adds	r1, r1, #12
 199 0030 FFF7FEFF 		bl	memcpy
 200              	.LVL14:
 376:Generated_Source\PSoC6/CapSense_1_Structure.c ****     #endif
 201              		.loc 1 376 0
 202 0034 0E49     		ldr	r1, .L21+16
 428:Generated_Source\PSoC6/CapSense_1_Structure.c **** 
 203              		.loc 1 428 0
 204 0036 0C00     		movs	r4, r1
 205 0038 0834     		adds	r4, r4, #8
 430:Generated_Source\PSoC6/CapSense_1_Structure.c ****         {
 206              		.loc 1 430 0
 207 003a 0323     		movs	r3, #3
 208 003c 0CE0     		b	.L17
 209              	.LVL15:
 210              	.L20:
 432:Generated_Source\PSoC6/CapSense_1_Structure.c **** 
 211              		.loc 1 432 0
 212 003e A268     		ldr	r2, [r4, #8]
 213              	.LVL16:
 434:Generated_Source\PSoC6/CapSense_1_Structure.c ****             {
 214              		.loc 1 434 0
 215 0040 238B     		ldrh	r3, [r4, #24]
 216              	.LVL17:
 217 0042 04E0     		b	.L18
 218              	.LVL18:
 219              	.L19:
 436:Generated_Source\PSoC6/CapSense_1_Structure.c ****                 ptrIdacInit++;
 220              		.loc 1 436 0
 221 0044 0B78     		ldrb	r3, [r1]
 222 0046 5372     		strb	r3, [r2, #9]
 437:Generated_Source\PSoC6/CapSense_1_Structure.c **** 
 223              		.loc 1 437 0
 224 0048 0131     		adds	r1, r1, #1
 225              	.LVL19:
 447:Generated_Source\PSoC6/CapSense_1_Structure.c ****             }
 226              		.loc 1 447 0
 227 004a 0A32     		adds	r2, r2, #10
 228              	.LVL20:
 434:Generated_Source\PSoC6/CapSense_1_Structure.c ****             {
 229              		.loc 1 434 0
ARM GAS  C:\Users\enes_\AppData\Local\Temp\cc6x7RJg.s 			page 17


 230 004c 0300     		movs	r3, r0
 231              	.LVL21:
 232              	.L18:
 434:Generated_Source\PSoC6/CapSense_1_Structure.c ****             {
 233              		.loc 1 434 0 is_stmt 0 discriminator 1
 234 004e 581E     		subs	r0, r3, #1
 235              	.LVL22:
 236 0050 002B     		cmp	r3, #0
 237 0052 F7D1     		bne	.L19
 450:Generated_Source\PSoC6/CapSense_1_Structure.c ****         }
 238              		.loc 1 450 0 is_stmt 1
 239 0054 2C34     		adds	r4, r4, #44
 240              	.LVL23:
 430:Generated_Source\PSoC6/CapSense_1_Structure.c ****         {
 241              		.loc 1 430 0
 242 0056 2B00     		movs	r3, r5
 243              	.LVL24:
 244              	.L17:
 430:Generated_Source\PSoC6/CapSense_1_Structure.c ****         {
 245              		.loc 1 430 0 is_stmt 0 discriminator 1
 246 0058 5D1E     		subs	r5, r3, #1
 247              	.LVL25:
 248 005a 002B     		cmp	r3, #0
 249 005c EFD1     		bne	.L20
 481:Generated_Source\PSoC6/CapSense_1_Structure.c **** 
 250              		.loc 1 481 0 is_stmt 1
 251              		@ sp needed
 252              	.LVL26:
 253              	.LVL27:
 254 005e 70BD     		pop	{r4, r5, r6, pc}
 255              	.L22:
 256              		.align	2
 257              	.L21:
 258 0060 00000000 		.word	CapSense_1_dsRam
 259 0064 3A520000 		.word	21050
 260 0068 6A180000 		.word	6250
 261 006c 80000000 		.word	.LANCHOR1
 262 0070 00000000 		.word	.LANCHOR0
 263              		.cfi_endproc
 264              	.LFE45:
 265              		.size	CapSense_1_DsInitialize, .-CapSense_1_DsInitialize
 266              		.section	.text.CapSense_1_GetParam,"ax",%progbits
 267              		.align	2
 268              		.global	CapSense_1_GetParam
 269              		.code	16
 270              		.thumb_func
 271              		.type	CapSense_1_GetParam, %function
 272              	CapSense_1_GetParam:
 273              	.LFB47:
 661:Generated_Source\PSoC6/CapSense_1_Structure.c **** 
 662:Generated_Source\PSoC6/CapSense_1_Structure.c **** /*******************************************************************************
 663:Generated_Source\PSoC6/CapSense_1_Structure.c **** * Function Name: CapSense_1_GetParam
 664:Generated_Source\PSoC6/CapSense_1_Structure.c **** ****************************************************************************//**
 665:Generated_Source\PSoC6/CapSense_1_Structure.c **** *
 666:Generated_Source\PSoC6/CapSense_1_Structure.c **** * \brief
 667:Generated_Source\PSoC6/CapSense_1_Structure.c **** *  Gets the specified parameter value from the \ref group_structures.
 668:Generated_Source\PSoC6/CapSense_1_Structure.c **** *
ARM GAS  C:\Users\enes_\AppData\Local\Temp\cc6x7RJg.s 			page 18


 669:Generated_Source\PSoC6/CapSense_1_Structure.c **** * \details
 670:Generated_Source\PSoC6/CapSense_1_Structure.c **** *  This function gets the value of the specified parameter by the paramId
 671:Generated_Source\PSoC6/CapSense_1_Structure.c **** *  argument. The paramId for each register is available in the
 672:Generated_Source\PSoC6/CapSense_1_Structure.c **** *  CapSense_1 RegisterMap header file as
 673:Generated_Source\PSoC6/CapSense_1_Structure.c **** *  CapSense_1_<ParameterName>_PARAM_ID. The paramId is a special
 674:Generated_Source\PSoC6/CapSense_1_Structure.c **** *  enumerated value generated by the customizer. The format of paramId is as
 675:Generated_Source\PSoC6/CapSense_1_Structure.c **** *  follows:
 676:Generated_Source\PSoC6/CapSense_1_Structure.c **** *    1. [ byte 3 byte 2 byte 1 byte 0 ]
 677:Generated_Source\PSoC6/CapSense_1_Structure.c **** *    2. [ TTWFCCCC UIIIIIII MMMMMMMM LLLLLLLL ]
 678:Generated_Source\PSoC6/CapSense_1_Structure.c **** *    3. T - encodes the parameter type:
 679:Generated_Source\PSoC6/CapSense_1_Structure.c **** *      - 01b: uint8
 680:Generated_Source\PSoC6/CapSense_1_Structure.c **** *      - 10b: uint16
 681:Generated_Source\PSoC6/CapSense_1_Structure.c **** *      - 11b: uint32
 682:Generated_Source\PSoC6/CapSense_1_Structure.c **** *    4. W - indicates whether the parameter is writable:
 683:Generated_Source\PSoC6/CapSense_1_Structure.c **** *      - 0: ReadOnly
 684:Generated_Source\PSoC6/CapSense_1_Structure.c **** *      - 1: Read/Write
 685:Generated_Source\PSoC6/CapSense_1_Structure.c **** *    5. C - 4 bit CRC (X^3 + 1) of the whole paramId word, the C bits are
 686:Generated_Source\PSoC6/CapSense_1_Structure.c **** *       filled with 0s when the CRC is calculated.
 687:Generated_Source\PSoC6/CapSense_1_Structure.c **** *    6. U - indicates if the parameter affects the RAM Widget Object CRC.
 688:Generated_Source\PSoC6/CapSense_1_Structure.c **** *    7. I - specifies that the widgetId parameter belongs to
 689:Generated_Source\PSoC6/CapSense_1_Structure.c **** *    8. M,L - the parameter offset MSB and LSB accordingly in:
 690:Generated_Source\PSoC6/CapSense_1_Structure.c **** *      - Flash Data Structure if W bit is 0.
 691:Generated_Source\PSoC6/CapSense_1_Structure.c **** *      - RAM Data Structure if W bit is 1.
 692:Generated_Source\PSoC6/CapSense_1_Structure.c **** *
 693:Generated_Source\PSoC6/CapSense_1_Structure.c **** *  Refer to the \ref group_structures section for details of the data structure
 694:Generated_Source\PSoC6/CapSense_1_Structure.c **** *  organization and examples of its register access.
 695:Generated_Source\PSoC6/CapSense_1_Structure.c **** *
 696:Generated_Source\PSoC6/CapSense_1_Structure.c **** * \param paramId
 697:Generated_Source\PSoC6/CapSense_1_Structure.c **** *  Specifies the ID of parameter to get its value.
 698:Generated_Source\PSoC6/CapSense_1_Structure.c **** *  A macro for the parameter ID can be found in the CapSense_1 RegisterMap header
 699:Generated_Source\PSoC6/CapSense_1_Structure.c **** *  file defined as CapSense_1_<ParameterName>_PARAM_ID.
 700:Generated_Source\PSoC6/CapSense_1_Structure.c **** *
 701:Generated_Source\PSoC6/CapSense_1_Structure.c **** * \param  value
 702:Generated_Source\PSoC6/CapSense_1_Structure.c **** *  The pointer to a variable to be updated with the obtained value.
 703:Generated_Source\PSoC6/CapSense_1_Structure.c **** *
 704:Generated_Source\PSoC6/CapSense_1_Structure.c **** * \return
 705:Generated_Source\PSoC6/CapSense_1_Structure.c **** *  Returns the status of the operation:
 706:Generated_Source\PSoC6/CapSense_1_Structure.c **** *    - CY_RET_SUCCESS - The operation is successfully completed.
 707:Generated_Source\PSoC6/CapSense_1_Structure.c **** *    - CY_RET_BAD_PARAM - The input parameter is invalid.
 708:Generated_Source\PSoC6/CapSense_1_Structure.c **** *
 709:Generated_Source\PSoC6/CapSense_1_Structure.c **** *******************************************************************************/
 710:Generated_Source\PSoC6/CapSense_1_Structure.c **** cy_status CapSense_1_GetParam(uint32 paramId, uint32 *value)
 711:Generated_Source\PSoC6/CapSense_1_Structure.c **** {
 274              		.loc 1 711 0
 275              		.cfi_startproc
 276              		@ args = 0, pretend = 0, frame = 8
 277              		@ frame_needed = 0, uses_anonymous_args = 0
 278              	.LVL28:
 279 0000 30B5     		push	{r4, r5, lr}
 280              		.cfi_def_cfa_offset 12
 281              		.cfi_offset 4, -12
 282              		.cfi_offset 5, -8
 283              		.cfi_offset 14, -4
 284 0002 83B0     		sub	sp, sp, #12
 285              		.cfi_def_cfa_offset 24
 286 0004 0D00     		movs	r5, r1
 712:Generated_Source\PSoC6/CapSense_1_Structure.c ****     PARAM_ID_STRUCT pData;
ARM GAS  C:\Users\enes_\AppData\Local\Temp\cc6x7RJg.s 			page 19


 713:Generated_Source\PSoC6/CapSense_1_Structure.c ****     cy_status result;
 714:Generated_Source\PSoC6/CapSense_1_Structure.c **** 
 715:Generated_Source\PSoC6/CapSense_1_Structure.c ****     union
 716:Generated_Source\PSoC6/CapSense_1_Structure.c ****     {
 717:Generated_Source\PSoC6/CapSense_1_Structure.c ****         volatile void   const * ptr;
 718:Generated_Source\PSoC6/CapSense_1_Structure.c ****         volatile uint8  const * ptrUint8;
 719:Generated_Source\PSoC6/CapSense_1_Structure.c ****         volatile uint16 const * ptrUint16;
 720:Generated_Source\PSoC6/CapSense_1_Structure.c ****         volatile uint32 const * ptrUint32;
 721:Generated_Source\PSoC6/CapSense_1_Structure.c ****     } ptrData;
 722:Generated_Source\PSoC6/CapSense_1_Structure.c **** 
 723:Generated_Source\PSoC6/CapSense_1_Structure.c ****     result = DsParseParamId(paramId, &pData);
 287              		.loc 1 723 0
 288 0006 6946     		mov	r1, sp
 289              	.LVL29:
 290 0008 FFF7FEFF 		bl	DsParseParamId
 291              	.LVL30:
 292 000c 041E     		subs	r4, r0, #0
 293              	.LVL31:
 724:Generated_Source\PSoC6/CapSense_1_Structure.c **** 
 725:Generated_Source\PSoC6/CapSense_1_Structure.c ****     /* Parse and validate paramId */
 726:Generated_Source\PSoC6/CapSense_1_Structure.c ****     if (CY_RET_SUCCESS == result)
 294              		.loc 1 726 0
 295 000e 20D1     		bne	.L24
 727:Generated_Source\PSoC6/CapSense_1_Structure.c ****     {
 728:Generated_Source\PSoC6/CapSense_1_Structure.c ****         /* Get base address of parameter */
 729:Generated_Source\PSoC6/CapSense_1_Structure.c ****         if (0u == pData.flash)
 296              		.loc 1 729 0
 297 0010 6B46     		mov	r3, sp
 298 0012 5B79     		ldrb	r3, [r3, #5]
 299 0014 002B     		cmp	r3, #0
 300 0016 01D1     		bne	.L25
 730:Generated_Source\PSoC6/CapSense_1_Structure.c ****         {
 731:Generated_Source\PSoC6/CapSense_1_Structure.c ****             ptrData.ptr = &CapSense_1_dsRam;
 301              		.loc 1 731 0
 302 0018 0F4A     		ldr	r2, .L30
 303              	.LVL32:
 304 001a 02E0     		b	.L26
 305              	.L25:
 732:Generated_Source\PSoC6/CapSense_1_Structure.c ****         }
 733:Generated_Source\PSoC6/CapSense_1_Structure.c ****         else
 734:Generated_Source\PSoC6/CapSense_1_Structure.c ****         {
 735:Generated_Source\PSoC6/CapSense_1_Structure.c ****             ptrData.ptr = &CapSense_1_dsFlash;
 306              		.loc 1 735 0
 307 001c 0F4B     		ldr	r3, .L30+4
 308 001e 0833     		adds	r3, r3, #8
 309 0020 1A00     		movs	r2, r3
 310              	.L26:
 736:Generated_Source\PSoC6/CapSense_1_Structure.c ****         }
 737:Generated_Source\PSoC6/CapSense_1_Structure.c **** 
 738:Generated_Source\PSoC6/CapSense_1_Structure.c ****         /* Add offset to base address */
 739:Generated_Source\PSoC6/CapSense_1_Structure.c ****         ptrData.ptrUint8 += pData.offset;
 311              		.loc 1 739 0
 312 0022 6B46     		mov	r3, sp
 313 0024 1B88     		ldrh	r3, [r3]
 314              	.LVL33:
 315 0026 D318     		adds	r3, r2, r3
 740:Generated_Source\PSoC6/CapSense_1_Structure.c **** 
ARM GAS  C:\Users\enes_\AppData\Local\Temp\cc6x7RJg.s 			page 20


 741:Generated_Source\PSoC6/CapSense_1_Structure.c ****         /* Read data */
 742:Generated_Source\PSoC6/CapSense_1_Structure.c ****         if (DS_PARAM_TYPE_UINT8 == pData.type)
 316              		.loc 1 742 0
 317 0028 6A46     		mov	r2, sp
 318              	.LVL34:
 319 002a D279     		ldrb	r2, [r2, #7]
 320 002c 012A     		cmp	r2, #1
 321 002e 02D1     		bne	.L27
 743:Generated_Source\PSoC6/CapSense_1_Structure.c ****         {
 744:Generated_Source\PSoC6/CapSense_1_Structure.c ****             *value = (uint32) (*ptrData.ptrUint8);
 322              		.loc 1 744 0
 323 0030 1B78     		ldrb	r3, [r3]
 324 0032 2B60     		str	r3, [r5]
 325 0034 0DE0     		b	.L24
 326              	.L27:
 745:Generated_Source\PSoC6/CapSense_1_Structure.c ****         }
 746:Generated_Source\PSoC6/CapSense_1_Structure.c ****         else if (DS_PARAM_TYPE_UINT16 == pData.type)
 327              		.loc 1 746 0
 328 0036 022A     		cmp	r2, #2
 329 0038 02D1     		bne	.L28
 747:Generated_Source\PSoC6/CapSense_1_Structure.c ****         {
 748:Generated_Source\PSoC6/CapSense_1_Structure.c ****             *value = (uint32) (*ptrData.ptrUint16);
 330              		.loc 1 748 0
 331 003a 1B88     		ldrh	r3, [r3]
 332 003c 2B60     		str	r3, [r5]
 333 003e 08E0     		b	.L24
 334              	.L28:
 749:Generated_Source\PSoC6/CapSense_1_Structure.c ****         }
 750:Generated_Source\PSoC6/CapSense_1_Structure.c ****         else if (DS_PARAM_TYPE_UINT32 == pData.type)
 335              		.loc 1 750 0
 336 0040 032A     		cmp	r2, #3
 337 0042 02D1     		bne	.L29
 751:Generated_Source\PSoC6/CapSense_1_Structure.c ****         {
 752:Generated_Source\PSoC6/CapSense_1_Structure.c ****             *value = *ptrData.ptrUint32;
 338              		.loc 1 752 0
 339 0044 1B68     		ldr	r3, [r3]
 340 0046 2B60     		str	r3, [r5]
 341 0048 03E0     		b	.L24
 342              	.L29:
 753:Generated_Source\PSoC6/CapSense_1_Structure.c ****         }
 754:Generated_Source\PSoC6/CapSense_1_Structure.c ****         else
 755:Generated_Source\PSoC6/CapSense_1_Structure.c ****         {
 756:Generated_Source\PSoC6/CapSense_1_Structure.c ****             /* Parameter comes here already validated. */
 757:Generated_Source\PSoC6/CapSense_1_Structure.c ****             CY_ASSERT(0 != 0);
 343              		.loc 1 757 0 discriminator 1
 344 004a 0549     		ldr	r1, .L30+8
 345 004c 0548     		ldr	r0, .L30+12
 346              	.LVL35:
 347 004e FFF7FEFF 		bl	Cy_SysLib_AssertFailed
 348              	.LVL36:
 349              	.L24:
 758:Generated_Source\PSoC6/CapSense_1_Structure.c ****         }
 759:Generated_Source\PSoC6/CapSense_1_Structure.c ****     }
 760:Generated_Source\PSoC6/CapSense_1_Structure.c **** 
 761:Generated_Source\PSoC6/CapSense_1_Structure.c ****     return result;
 762:Generated_Source\PSoC6/CapSense_1_Structure.c **** }
 350              		.loc 1 762 0
ARM GAS  C:\Users\enes_\AppData\Local\Temp\cc6x7RJg.s 			page 21


 351 0052 2000     		movs	r0, r4
 352 0054 03B0     		add	sp, sp, #12
 353              		@ sp needed
 354              	.LVL37:
 355              	.LVL38:
 356 0056 30BD     		pop	{r4, r5, pc}
 357              	.L31:
 358              		.align	2
 359              	.L30:
 360 0058 00000000 		.word	CapSense_1_dsRam
 361 005c 00000000 		.word	.LANCHOR0
 362 0060 F5020000 		.word	757
 363 0064 00000000 		.word	.LC6
 364              		.cfi_endproc
 365              	.LFE47:
 366              		.size	CapSense_1_GetParam, .-CapSense_1_GetParam
 367              		.section	.text.CapSense_1_SetParam,"ax",%progbits
 368              		.align	2
 369              		.global	CapSense_1_SetParam
 370              		.code	16
 371              		.thumb_func
 372              		.type	CapSense_1_SetParam, %function
 373              	CapSense_1_SetParam:
 374              	.LFB48:
 763:Generated_Source\PSoC6/CapSense_1_Structure.c **** 
 764:Generated_Source\PSoC6/CapSense_1_Structure.c **** 
 765:Generated_Source\PSoC6/CapSense_1_Structure.c **** /*******************************************************************************
 766:Generated_Source\PSoC6/CapSense_1_Structure.c **** * Function Name: CapSense_1_SetParam
 767:Generated_Source\PSoC6/CapSense_1_Structure.c **** ****************************************************************************//**
 768:Generated_Source\PSoC6/CapSense_1_Structure.c **** *
 769:Generated_Source\PSoC6/CapSense_1_Structure.c **** * \brief
 770:Generated_Source\PSoC6/CapSense_1_Structure.c **** *  Sets a new value for the specified parameter in the \ref group_structures.
 771:Generated_Source\PSoC6/CapSense_1_Structure.c **** *
 772:Generated_Source\PSoC6/CapSense_1_Structure.c **** * \details
 773:Generated_Source\PSoC6/CapSense_1_Structure.c **** *  This function sets the value of the specified parameter by the paramId
 774:Generated_Source\PSoC6/CapSense_1_Structure.c **** *  argument. The paramId for each register is available in the
 775:Generated_Source\PSoC6/CapSense_1_Structure.c **** *  CapSense_1 RegisterMap header file as
 776:Generated_Source\PSoC6/CapSense_1_Structure.c **** *  CapSense_1_<ParameterName>_PARAM_ID. The paramId is a special
 777:Generated_Source\PSoC6/CapSense_1_Structure.c **** *  enumerated value generated by the customizer. The format of paramId is as
 778:Generated_Source\PSoC6/CapSense_1_Structure.c **** *  follows:
 779:Generated_Source\PSoC6/CapSense_1_Structure.c **** *    1. [ byte 3 byte 2 byte 1 byte 0 ]
 780:Generated_Source\PSoC6/CapSense_1_Structure.c **** *    2. [ TTWFCCCC UIIIIIII MMMMMMMM LLLLLLLL ]
 781:Generated_Source\PSoC6/CapSense_1_Structure.c **** *    3. T - encodes the parameter type:
 782:Generated_Source\PSoC6/CapSense_1_Structure.c **** *      - 01b: uint8
 783:Generated_Source\PSoC6/CapSense_1_Structure.c **** *      - 10b: uint16
 784:Generated_Source\PSoC6/CapSense_1_Structure.c **** *      - 11b: uint32
 785:Generated_Source\PSoC6/CapSense_1_Structure.c **** *    4. W - indicates whether the parameter is writable:
 786:Generated_Source\PSoC6/CapSense_1_Structure.c **** *      - 0: ReadOnly
 787:Generated_Source\PSoC6/CapSense_1_Structure.c **** *      - 1: Read/Write
 788:Generated_Source\PSoC6/CapSense_1_Structure.c **** *    5. C - 4 bit CRC (X^3 + 1) of the whole paramId word, the C bits are
 789:Generated_Source\PSoC6/CapSense_1_Structure.c **** *       filled with 0s when the CRC is calculated.
 790:Generated_Source\PSoC6/CapSense_1_Structure.c **** *    6. U - indicates if the parameter affects the RAM Widget Object CRC.
 791:Generated_Source\PSoC6/CapSense_1_Structure.c **** *    7. I - specifies that the widgetId parameter belongs to
 792:Generated_Source\PSoC6/CapSense_1_Structure.c **** *    8. M,L - the parameter offset MSB and LSB accordingly in:
 793:Generated_Source\PSoC6/CapSense_1_Structure.c **** *      - Flash Data Structure if W bit is 0.
 794:Generated_Source\PSoC6/CapSense_1_Structure.c **** *      - RAM Data Structure if W bit is 1.
 795:Generated_Source\PSoC6/CapSense_1_Structure.c **** *
ARM GAS  C:\Users\enes_\AppData\Local\Temp\cc6x7RJg.s 			page 22


 796:Generated_Source\PSoC6/CapSense_1_Structure.c **** *  Refer to the \ref group_structures section for details of the data structure
 797:Generated_Source\PSoC6/CapSense_1_Structure.c **** *  organization and examples of its register access.
 798:Generated_Source\PSoC6/CapSense_1_Structure.c **** *
 799:Generated_Source\PSoC6/CapSense_1_Structure.c **** *  This function writes specified value into the desired register without
 800:Generated_Source\PSoC6/CapSense_1_Structure.c **** *  other registers update. It is application layer responsibility to keep all
 801:Generated_Source\PSoC6/CapSense_1_Structure.c **** *  the data structure registers aligned. Repeated call of
 802:Generated_Source\PSoC6/CapSense_1_Structure.c **** *  CapSense_1_Start() function helps aligning dependent register values.
 803:Generated_Source\PSoC6/CapSense_1_Structure.c **** *
 804:Generated_Source\PSoC6/CapSense_1_Structure.c **** * \param paramId
 805:Generated_Source\PSoC6/CapSense_1_Structure.c **** *  Specifies the ID of parameter to set its value.
 806:Generated_Source\PSoC6/CapSense_1_Structure.c **** *  A macro for the parameter ID can be found in the CapSense_1 RegisterMap header
 807:Generated_Source\PSoC6/CapSense_1_Structure.c **** *  file defined as CapSense_1_<ParameterName>_PARAM_ID.
 808:Generated_Source\PSoC6/CapSense_1_Structure.c **** 
 809:Generated_Source\PSoC6/CapSense_1_Structure.c **** * \param value
 810:Generated_Source\PSoC6/CapSense_1_Structure.c **** *  Specifies the new parameter's value.
 811:Generated_Source\PSoC6/CapSense_1_Structure.c **** *
 812:Generated_Source\PSoC6/CapSense_1_Structure.c **** * \return
 813:Generated_Source\PSoC6/CapSense_1_Structure.c **** *  Returns the status of the operation:
 814:Generated_Source\PSoC6/CapSense_1_Structure.c **** *    - CY_RET_SUCCESS - The operation is successfully completed.
 815:Generated_Source\PSoC6/CapSense_1_Structure.c **** *    - CY_RET_BAD_PARAM - The input parameter is invalid.
 816:Generated_Source\PSoC6/CapSense_1_Structure.c **** *
 817:Generated_Source\PSoC6/CapSense_1_Structure.c **** *******************************************************************************/
 818:Generated_Source\PSoC6/CapSense_1_Structure.c **** cy_status CapSense_1_SetParam(uint32 paramId, uint32 value)
 819:Generated_Source\PSoC6/CapSense_1_Structure.c **** {
 375              		.loc 1 819 0
 376              		.cfi_startproc
 377              		@ args = 0, pretend = 0, frame = 8
 378              		@ frame_needed = 0, uses_anonymous_args = 0
 379              	.LVL39:
 380 0000 30B5     		push	{r4, r5, lr}
 381              		.cfi_def_cfa_offset 12
 382              		.cfi_offset 4, -12
 383              		.cfi_offset 5, -8
 384              		.cfi_offset 14, -4
 385 0002 83B0     		sub	sp, sp, #12
 386              		.cfi_def_cfa_offset 24
 387 0004 0D00     		movs	r5, r1
 820:Generated_Source\PSoC6/CapSense_1_Structure.c ****     cy_status result;
 821:Generated_Source\PSoC6/CapSense_1_Structure.c ****     PARAM_ID_STRUCT pData;
 822:Generated_Source\PSoC6/CapSense_1_Structure.c **** 
 823:Generated_Source\PSoC6/CapSense_1_Structure.c ****     union
 824:Generated_Source\PSoC6/CapSense_1_Structure.c ****     {
 825:Generated_Source\PSoC6/CapSense_1_Structure.c ****         volatile void   * ptr;
 826:Generated_Source\PSoC6/CapSense_1_Structure.c ****         volatile uint8  * ptrUint8;
 827:Generated_Source\PSoC6/CapSense_1_Structure.c ****         volatile uint16 * ptrUint16;
 828:Generated_Source\PSoC6/CapSense_1_Structure.c ****         volatile uint32 * ptrUint32;
 829:Generated_Source\PSoC6/CapSense_1_Structure.c ****     } ptrData;
 830:Generated_Source\PSoC6/CapSense_1_Structure.c **** 
 831:Generated_Source\PSoC6/CapSense_1_Structure.c ****     result = DsParseParamId(paramId, &pData);
 388              		.loc 1 831 0
 389 0006 6946     		mov	r1, sp
 390              	.LVL40:
 391 0008 FFF7FEFF 		bl	DsParseParamId
 392              	.LVL41:
 393 000c 041E     		subs	r4, r0, #0
 394              	.LVL42:
 832:Generated_Source\PSoC6/CapSense_1_Structure.c **** 
ARM GAS  C:\Users\enes_\AppData\Local\Temp\cc6x7RJg.s 			page 23


 833:Generated_Source\PSoC6/CapSense_1_Structure.c ****     /* verify if parameter is writable */
 834:Generated_Source\PSoC6/CapSense_1_Structure.c ****     if (CY_RET_SUCCESS == result)
 395              		.loc 1 834 0
 396 000e 04D1     		bne	.L33
 835:Generated_Source\PSoC6/CapSense_1_Structure.c ****     {
 836:Generated_Source\PSoC6/CapSense_1_Structure.c ****         if (0u == pData.rw)
 397              		.loc 1 836 0
 398 0010 6B46     		mov	r3, sp
 399 0012 9B79     		ldrb	r3, [r3, #6]
 400 0014 002B     		cmp	r3, #0
 401 0016 00D1     		bne	.L33
 837:Generated_Source\PSoC6/CapSense_1_Structure.c ****         {
 838:Generated_Source\PSoC6/CapSense_1_Structure.c ****             result = CY_RET_BAD_PARAM;
 402              		.loc 1 838 0
 403 0018 0134     		adds	r4, r4, #1
 404              	.L33:
 405              	.LVL43:
 839:Generated_Source\PSoC6/CapSense_1_Structure.c ****         }
 840:Generated_Source\PSoC6/CapSense_1_Structure.c ****     }
 841:Generated_Source\PSoC6/CapSense_1_Structure.c **** 
 842:Generated_Source\PSoC6/CapSense_1_Structure.c ****     /* Parse and validate paramId */
 843:Generated_Source\PSoC6/CapSense_1_Structure.c ****     if (CY_RET_SUCCESS == result)
 406              		.loc 1 843 0
 407 001a 002C     		cmp	r4, #0
 408 001c 17D1     		bne	.L34
 844:Generated_Source\PSoC6/CapSense_1_Structure.c ****     {
 845:Generated_Source\PSoC6/CapSense_1_Structure.c ****         /* Get base address of parameter */
 846:Generated_Source\PSoC6/CapSense_1_Structure.c ****         ptrData.ptr = &CapSense_1_dsRam;
 847:Generated_Source\PSoC6/CapSense_1_Structure.c **** 
 848:Generated_Source\PSoC6/CapSense_1_Structure.c ****         /* Add offset to base address */
 849:Generated_Source\PSoC6/CapSense_1_Structure.c ****         ptrData.ptrUint8 += pData.offset;
 409              		.loc 1 849 0
 410 001e 6B46     		mov	r3, sp
 411 0020 1A88     		ldrh	r2, [r3]
 412 0022 0C4B     		ldr	r3, .L39
 413 0024 D318     		adds	r3, r2, r3
 850:Generated_Source\PSoC6/CapSense_1_Structure.c **** 
 851:Generated_Source\PSoC6/CapSense_1_Structure.c ****         /* Write data */
 852:Generated_Source\PSoC6/CapSense_1_Structure.c ****         if (DS_PARAM_TYPE_UINT8 == pData.type)
 414              		.loc 1 852 0
 415 0026 6A46     		mov	r2, sp
 416 0028 D279     		ldrb	r2, [r2, #7]
 417 002a 012A     		cmp	r2, #1
 418 002c 02D1     		bne	.L35
 853:Generated_Source\PSoC6/CapSense_1_Structure.c ****         {
 854:Generated_Source\PSoC6/CapSense_1_Structure.c ****             *ptrData.ptrUint8 = CY_LO8(value);
 419              		.loc 1 854 0
 420 002e EDB2     		uxtb	r5, r5
 421              	.LVL44:
 422 0030 1D70     		strb	r5, [r3]
 423 0032 0CE0     		b	.L34
 424              	.LVL45:
 425              	.L35:
 855:Generated_Source\PSoC6/CapSense_1_Structure.c ****         }
 856:Generated_Source\PSoC6/CapSense_1_Structure.c ****         else if (DS_PARAM_TYPE_UINT16 == pData.type)
 426              		.loc 1 856 0
 427 0034 022A     		cmp	r2, #2
ARM GAS  C:\Users\enes_\AppData\Local\Temp\cc6x7RJg.s 			page 24


 428 0036 02D1     		bne	.L36
 857:Generated_Source\PSoC6/CapSense_1_Structure.c ****         {
 858:Generated_Source\PSoC6/CapSense_1_Structure.c ****             *ptrData.ptrUint16 = CY_LO16(value);
 429              		.loc 1 858 0
 430 0038 ADB2     		uxth	r5, r5
 431              	.LVL46:
 432 003a 1D80     		strh	r5, [r3]
 433 003c 07E0     		b	.L34
 434              	.LVL47:
 435              	.L36:
 859:Generated_Source\PSoC6/CapSense_1_Structure.c ****         }
 860:Generated_Source\PSoC6/CapSense_1_Structure.c ****         else if (DS_PARAM_TYPE_UINT32 == pData.type)
 436              		.loc 1 860 0
 437 003e 032A     		cmp	r2, #3
 438 0040 01D1     		bne	.L37
 861:Generated_Source\PSoC6/CapSense_1_Structure.c ****         {
 862:Generated_Source\PSoC6/CapSense_1_Structure.c ****             *ptrData.ptrUint32 = value;
 439              		.loc 1 862 0
 440 0042 1D60     		str	r5, [r3]
 441 0044 03E0     		b	.L34
 442              	.L37:
 863:Generated_Source\PSoC6/CapSense_1_Structure.c ****         }
 864:Generated_Source\PSoC6/CapSense_1_Structure.c ****         else
 865:Generated_Source\PSoC6/CapSense_1_Structure.c ****         {
 866:Generated_Source\PSoC6/CapSense_1_Structure.c ****             /* Parameter comes here already validated. */
 867:Generated_Source\PSoC6/CapSense_1_Structure.c ****             CY_ASSERT(0 != 0);
 443              		.loc 1 867 0 discriminator 1
 444 0046 0449     		ldr	r1, .L39+4
 445 0048 0448     		ldr	r0, .L39+8
 446 004a FFF7FEFF 		bl	Cy_SysLib_AssertFailed
 447              	.LVL48:
 448              	.L34:
 868:Generated_Source\PSoC6/CapSense_1_Structure.c ****         }
 869:Generated_Source\PSoC6/CapSense_1_Structure.c **** 
 870:Generated_Source\PSoC6/CapSense_1_Structure.c ****         #if (CapSense_1_ENABLE == (CapSense_1_TST_WDGT_CRC_EN || CapSense_1_TST_GLOBAL_CRC_EN))
 871:Generated_Source\PSoC6/CapSense_1_Structure.c ****             /* Update widget or global CRC if self-test is enabled and parameter affects it */
 872:Generated_Source\PSoC6/CapSense_1_Structure.c ****             if (0u != pData.affectsCrc)
 873:Generated_Source\PSoC6/CapSense_1_Structure.c ****             {
 874:Generated_Source\PSoC6/CapSense_1_Structure.c ****                 if ((ptrData.ptrUint16 >= &CapSense_1_dsRam.csd0Config) &&
 875:Generated_Source\PSoC6/CapSense_1_Structure.c ****                     (ptrData.ptrUint16 <  &CapSense_1_dsRam.glbCrc))
 876:Generated_Source\PSoC6/CapSense_1_Structure.c ****                 {
 877:Generated_Source\PSoC6/CapSense_1_Structure.c **** 
 878:Generated_Source\PSoC6/CapSense_1_Structure.c ****                     #if (CapSense_1_ENABLE == CapSense_1_TST_GLOBAL_CRC_EN)
 879:Generated_Source\PSoC6/CapSense_1_Structure.c ****                         CapSense_1_DsUpdateGlobalCrc();
 880:Generated_Source\PSoC6/CapSense_1_Structure.c ****                     #endif /* (CapSense_1_ENABLE == CapSense_1_TST_GLOBAL_CRC_EN) */
 881:Generated_Source\PSoC6/CapSense_1_Structure.c **** 
 882:Generated_Source\PSoC6/CapSense_1_Structure.c ****                 }
 883:Generated_Source\PSoC6/CapSense_1_Structure.c ****                 else
 884:Generated_Source\PSoC6/CapSense_1_Structure.c ****                 {
 885:Generated_Source\PSoC6/CapSense_1_Structure.c ****                     #if (CapSense_1_ENABLE == CapSense_1_TST_WDGT_CRC_EN)
 886:Generated_Source\PSoC6/CapSense_1_Structure.c ****                         CapSense_1_DsUpdateWidgetCrc((uint32)pData.widgetId);
 887:Generated_Source\PSoC6/CapSense_1_Structure.c ****                     #endif /* (CapSense_1_ENABLE == CapSense_1_TST_WDGT_CRC_EN) */
 888:Generated_Source\PSoC6/CapSense_1_Structure.c ****                 }
 889:Generated_Source\PSoC6/CapSense_1_Structure.c ****             }
 890:Generated_Source\PSoC6/CapSense_1_Structure.c ****         #endif /* (CapSense_1_ENABLE == (CapSense_1_TST_WDGT_CRC_EN || CapSense_1_TST_GLOBAL_CRC_EN
 891:Generated_Source\PSoC6/CapSense_1_Structure.c ****     }
 892:Generated_Source\PSoC6/CapSense_1_Structure.c **** 
ARM GAS  C:\Users\enes_\AppData\Local\Temp\cc6x7RJg.s 			page 25


 893:Generated_Source\PSoC6/CapSense_1_Structure.c ****     return result;
 894:Generated_Source\PSoC6/CapSense_1_Structure.c **** }
 449              		.loc 1 894 0
 450 004e 2000     		movs	r0, r4
 451 0050 03B0     		add	sp, sp, #12
 452              		@ sp needed
 453              	.LVL49:
 454 0052 30BD     		pop	{r4, r5, pc}
 455              	.L40:
 456              		.align	2
 457              	.L39:
 458 0054 00000000 		.word	CapSense_1_dsRam
 459 0058 63030000 		.word	867
 460 005c 00000000 		.word	.LC6
 461              		.cfi_endproc
 462              	.LFE48:
 463              		.size	CapSense_1_SetParam, .-CapSense_1_SetParam
 464              		.section	.text.CapSense_1_IsAnyWidgetActive,"ax",%progbits
 465              		.align	2
 466              		.global	CapSense_1_IsAnyWidgetActive
 467              		.code	16
 468              		.thumb_func
 469              		.type	CapSense_1_IsAnyWidgetActive, %function
 470              	CapSense_1_IsAnyWidgetActive:
 471              	.LFB49:
 895:Generated_Source\PSoC6/CapSense_1_Structure.c **** 
 896:Generated_Source\PSoC6/CapSense_1_Structure.c **** /*******************************************************************************
 897:Generated_Source\PSoC6/CapSense_1_Structure.c **** * Function Name: CapSense_1_IsAnyWidgetActive
 898:Generated_Source\PSoC6/CapSense_1_Structure.c **** ****************************************************************************//**
 899:Generated_Source\PSoC6/CapSense_1_Structure.c **** *
 900:Generated_Source\PSoC6/CapSense_1_Structure.c **** * \brief
 901:Generated_Source\PSoC6/CapSense_1_Structure.c **** *  Reports if any widget has detected a touch.
 902:Generated_Source\PSoC6/CapSense_1_Structure.c **** *
 903:Generated_Source\PSoC6/CapSense_1_Structure.c **** * \details
 904:Generated_Source\PSoC6/CapSense_1_Structure.c **** *  This function reports if any widget has detected a touch or not by extracting
 905:Generated_Source\PSoC6/CapSense_1_Structure.c **** *  information from the wdgtStatus registers
 906:Generated_Source\PSoC6/CapSense_1_Structure.c **** *  (CapSense_1_WDGT_STATUS<X>_VALUE). This function does not process a
 907:Generated_Source\PSoC6/CapSense_1_Structure.c **** *  widget but extracts processed results from the \ref group_structures.
 908:Generated_Source\PSoC6/CapSense_1_Structure.c **** *
 909:Generated_Source\PSoC6/CapSense_1_Structure.c **** * \return
 910:Generated_Source\PSoC6/CapSense_1_Structure.c **** *   Returns the touch detection status of all the widgets:
 911:Generated_Source\PSoC6/CapSense_1_Structure.c **** *     - Zero - No touch is detected in all the widgets or sensors.
 912:Generated_Source\PSoC6/CapSense_1_Structure.c **** *     - Non-zero - At least one widget or sensor detected a touch.
 913:Generated_Source\PSoC6/CapSense_1_Structure.c **** *
 914:Generated_Source\PSoC6/CapSense_1_Structure.c **** *******************************************************************************/
 915:Generated_Source\PSoC6/CapSense_1_Structure.c **** uint32 CapSense_1_IsAnyWidgetActive(void)
 916:Generated_Source\PSoC6/CapSense_1_Structure.c **** {
 472              		.loc 1 916 0
 473              		.cfi_startproc
 474              		@ args = 0, pretend = 0, frame = 0
 475              		@ frame_needed = 0, uses_anonymous_args = 0
 476              		@ link register save eliminated.
 477              	.LVL50:
 917:Generated_Source\PSoC6/CapSense_1_Structure.c ****     uint32 result = 0Lu;
 918:Generated_Source\PSoC6/CapSense_1_Structure.c ****     uint32 wdWord;
 919:Generated_Source\PSoC6/CapSense_1_Structure.c **** 
 920:Generated_Source\PSoC6/CapSense_1_Structure.c ****     for (wdWord = CapSense_1_WDGT_STATUS_WORDS; wdWord-- > 0u;)
ARM GAS  C:\Users\enes_\AppData\Local\Temp\cc6x7RJg.s 			page 26


 478              		.loc 1 920 0
 479 0000 0123     		movs	r3, #1
 917:Generated_Source\PSoC6/CapSense_1_Structure.c ****     uint32 result = 0Lu;
 480              		.loc 1 917 0
 481 0002 0020     		movs	r0, #0
 482              		.loc 1 920 0
 483 0004 06E0     		b	.L42
 484              	.LVL51:
 485              	.L43:
 921:Generated_Source\PSoC6/CapSense_1_Structure.c ****     {
 922:Generated_Source\PSoC6/CapSense_1_Structure.c ****         result |= CapSense_1_dsRam.wdgtStatus[wdWord];
 486              		.loc 1 922 0
 487 0006 131D     		adds	r3, r2, #4
 488 0008 9B00     		lsls	r3, r3, #2
 489 000a 0449     		ldr	r1, .L44
 490 000c CB18     		adds	r3, r1, r3
 491 000e 5B68     		ldr	r3, [r3, #4]
 492 0010 1843     		orrs	r0, r3
 493              	.LVL52:
 920:Generated_Source\PSoC6/CapSense_1_Structure.c ****     {
 494              		.loc 1 920 0
 495 0012 1300     		movs	r3, r2
 496              	.LVL53:
 497              	.L42:
 920:Generated_Source\PSoC6/CapSense_1_Structure.c ****     {
 498              		.loc 1 920 0 is_stmt 0 discriminator 1
 499 0014 5A1E     		subs	r2, r3, #1
 500              	.LVL54:
 501 0016 002B     		cmp	r3, #0
 502 0018 F5D1     		bne	.L43
 923:Generated_Source\PSoC6/CapSense_1_Structure.c ****     }
 924:Generated_Source\PSoC6/CapSense_1_Structure.c **** 
 925:Generated_Source\PSoC6/CapSense_1_Structure.c ****     return result;
 926:Generated_Source\PSoC6/CapSense_1_Structure.c **** }
 503              		.loc 1 926 0 is_stmt 1
 504              		@ sp needed
 505 001a 7047     		bx	lr
 506              	.L45:
 507              		.align	2
 508              	.L44:
 509 001c 00000000 		.word	CapSense_1_dsRam
 510              		.cfi_endproc
 511              	.LFE49:
 512              		.size	CapSense_1_IsAnyWidgetActive, .-CapSense_1_IsAnyWidgetActive
 513              		.section	.text.CapSense_1_IsWidgetActive,"ax",%progbits
 514              		.align	2
 515              		.global	CapSense_1_IsWidgetActive
 516              		.code	16
 517              		.thumb_func
 518              		.type	CapSense_1_IsWidgetActive, %function
 519              	CapSense_1_IsWidgetActive:
 520              	.LFB50:
 927:Generated_Source\PSoC6/CapSense_1_Structure.c **** 
 928:Generated_Source\PSoC6/CapSense_1_Structure.c **** 
 929:Generated_Source\PSoC6/CapSense_1_Structure.c **** /*******************************************************************************
 930:Generated_Source\PSoC6/CapSense_1_Structure.c **** * Function Name: CapSense_1_IsWidgetActive
 931:Generated_Source\PSoC6/CapSense_1_Structure.c **** ****************************************************************************//**
ARM GAS  C:\Users\enes_\AppData\Local\Temp\cc6x7RJg.s 			page 27


 932:Generated_Source\PSoC6/CapSense_1_Structure.c **** *
 933:Generated_Source\PSoC6/CapSense_1_Structure.c **** * \brief
 934:Generated_Source\PSoC6/CapSense_1_Structure.c **** *  Reports if the specified widget detects a touch on any of its sensors.
 935:Generated_Source\PSoC6/CapSense_1_Structure.c **** *
 936:Generated_Source\PSoC6/CapSense_1_Structure.c **** * \details
 937:Generated_Source\PSoC6/CapSense_1_Structure.c **** *  This function reports if the specified widget has detected a touch or not by
 938:Generated_Source\PSoC6/CapSense_1_Structure.c **** *  extracting information from the wdgtStatus registers
 939:Generated_Source\PSoC6/CapSense_1_Structure.c **** *  (CapSense_1_WDGT_STATUS<X>_VALUE). This function does not process the
 940:Generated_Source\PSoC6/CapSense_1_Structure.c **** *  widget but extracts processed results from the \ref group_structures.
 941:Generated_Source\PSoC6/CapSense_1_Structure.c **** *
 942:Generated_Source\PSoC6/CapSense_1_Structure.c **** * \param widgetId
 943:Generated_Source\PSoC6/CapSense_1_Structure.c **** *  Specifies the ID number of the widget to get its status.
 944:Generated_Source\PSoC6/CapSense_1_Structure.c **** *  A macro for the widget ID can be found in the CapSense_1 Configuration header
 945:Generated_Source\PSoC6/CapSense_1_Structure.c **** *  file defined as CapSense_1_<WidgetName>_WDGT_ID.
 946:Generated_Source\PSoC6/CapSense_1_Structure.c **** *
 947:Generated_Source\PSoC6/CapSense_1_Structure.c **** * \return
 948:Generated_Source\PSoC6/CapSense_1_Structure.c **** *  Returns the touch detection status of the specified widgets:
 949:Generated_Source\PSoC6/CapSense_1_Structure.c **** *    - Zero - No touch is detected in the specified widget or a wrong widgetId
 950:Generated_Source\PSoC6/CapSense_1_Structure.c **** *      is specified.
 951:Generated_Source\PSoC6/CapSense_1_Structure.c **** *    - Non-zero if at least one sensor of the specified widget is active, i.e.
 952:Generated_Source\PSoC6/CapSense_1_Structure.c **** *      a touch is detected.
 953:Generated_Source\PSoC6/CapSense_1_Structure.c **** *
 954:Generated_Source\PSoC6/CapSense_1_Structure.c **** *******************************************************************************/
 955:Generated_Source\PSoC6/CapSense_1_Structure.c **** uint32 CapSense_1_IsWidgetActive(uint32 widgetId)
 956:Generated_Source\PSoC6/CapSense_1_Structure.c **** {
 521              		.loc 1 956 0
 522              		.cfi_startproc
 523              		@ args = 0, pretend = 0, frame = 0
 524              		@ frame_needed = 0, uses_anonymous_args = 0
 525              		@ link register save eliminated.
 526              	.LVL55:
 957:Generated_Source\PSoC6/CapSense_1_Structure.c ****     uint32 result = 0Lu;
 958:Generated_Source\PSoC6/CapSense_1_Structure.c **** 
 959:Generated_Source\PSoC6/CapSense_1_Structure.c ****     if (widgetId < CapSense_1_TOTAL_WIDGETS)
 527              		.loc 1 959 0
 528 0000 0228     		cmp	r0, #2
 529 0002 0BD8     		bhi	.L48
 960:Generated_Source\PSoC6/CapSense_1_Structure.c ****     {
 961:Generated_Source\PSoC6/CapSense_1_Structure.c ****         result = CapSense_1_GET_WIDGET_ACTIVE_STATUS(widgetId);
 530              		.loc 1 961 0
 531 0004 1F23     		movs	r3, #31
 532 0006 0340     		ands	r3, r0
 533 0008 0122     		movs	r2, #1
 534 000a 9A40     		lsls	r2, r2, r3
 535 000c 4009     		lsrs	r0, r0, #5
 536              	.LVL56:
 537 000e 031D     		adds	r3, r0, #4
 538 0010 9B00     		lsls	r3, r3, #2
 539 0012 0348     		ldr	r0, .L49
 540 0014 C318     		adds	r3, r0, r3
 541 0016 5868     		ldr	r0, [r3, #4]
 542 0018 1040     		ands	r0, r2
 543              	.LVL57:
 544 001a 00E0     		b	.L47
 545              	.LVL58:
 546              	.L48:
 957:Generated_Source\PSoC6/CapSense_1_Structure.c ****     uint32 result = 0Lu;
ARM GAS  C:\Users\enes_\AppData\Local\Temp\cc6x7RJg.s 			page 28


 547              		.loc 1 957 0
 548 001c 0020     		movs	r0, #0
 549              	.LVL59:
 550              	.L47:
 962:Generated_Source\PSoC6/CapSense_1_Structure.c ****     }
 963:Generated_Source\PSoC6/CapSense_1_Structure.c ****     return result;
 964:Generated_Source\PSoC6/CapSense_1_Structure.c **** }
 551              		.loc 1 964 0
 552              		@ sp needed
 553 001e 7047     		bx	lr
 554              	.L50:
 555              		.align	2
 556              	.L49:
 557 0020 00000000 		.word	CapSense_1_dsRam
 558              		.cfi_endproc
 559              	.LFE50:
 560              		.size	CapSense_1_IsWidgetActive, .-CapSense_1_IsWidgetActive
 561              		.section	.text.CapSense_1_IsSensorActive,"ax",%progbits
 562              		.align	2
 563              		.global	CapSense_1_IsSensorActive
 564              		.code	16
 565              		.thumb_func
 566              		.type	CapSense_1_IsSensorActive, %function
 567              	CapSense_1_IsSensorActive:
 568              	.LFB51:
 965:Generated_Source\PSoC6/CapSense_1_Structure.c **** 
 966:Generated_Source\PSoC6/CapSense_1_Structure.c **** 
 967:Generated_Source\PSoC6/CapSense_1_Structure.c **** /*******************************************************************************
 968:Generated_Source\PSoC6/CapSense_1_Structure.c **** * Function Name: CapSense_1_IsSensorActive
 969:Generated_Source\PSoC6/CapSense_1_Structure.c **** ****************************************************************************//**
 970:Generated_Source\PSoC6/CapSense_1_Structure.c **** *
 971:Generated_Source\PSoC6/CapSense_1_Structure.c **** * \brief
 972:Generated_Source\PSoC6/CapSense_1_Structure.c **** *  Reports if the specified sensor in the widget detects a touch.
 973:Generated_Source\PSoC6/CapSense_1_Structure.c **** *
 974:Generated_Source\PSoC6/CapSense_1_Structure.c **** * \details
 975:Generated_Source\PSoC6/CapSense_1_Structure.c **** *  This function reports if the specified sensor in the widget has detected a
 976:Generated_Source\PSoC6/CapSense_1_Structure.c **** *  touch or not by extracting information from the wdgtStatus registers
 977:Generated_Source\PSoC6/CapSense_1_Structure.c **** *  (CapSense_1_WDGT_STATUS<X>_VALUE). This function does not process the
 978:Generated_Source\PSoC6/CapSense_1_Structure.c **** *  widget or sensor but extracts processed results from the \ref group_structures.
 979:Generated_Source\PSoC6/CapSense_1_Structure.c **** *
 980:Generated_Source\PSoC6/CapSense_1_Structure.c **** *  For proximity sensors, this function returns the proximity detection status. To
 981:Generated_Source\PSoC6/CapSense_1_Structure.c **** *  get the finger touch status of proximity sensors, use the
 982:Generated_Source\PSoC6/CapSense_1_Structure.c **** *  CapSense_1_IsProximitySensorActive() function.
 983:Generated_Source\PSoC6/CapSense_1_Structure.c **** *
 984:Generated_Source\PSoC6/CapSense_1_Structure.c **** * \param widgetId
 985:Generated_Source\PSoC6/CapSense_1_Structure.c **** *  Specifies the ID number of the widget.
 986:Generated_Source\PSoC6/CapSense_1_Structure.c **** *  A macro for the widget ID can be found in the CapSense_1 Configuration header
 987:Generated_Source\PSoC6/CapSense_1_Structure.c **** *  file defined as CapSense_1_<WidgetName>_WDGT_ID.
 988:Generated_Source\PSoC6/CapSense_1_Structure.c **** 
 989:Generated_Source\PSoC6/CapSense_1_Structure.c **** * \param sensorId
 990:Generated_Source\PSoC6/CapSense_1_Structure.c **** *  Specifies the ID number of the sensor within the widget to get its touch
 991:Generated_Source\PSoC6/CapSense_1_Structure.c **** *  detection status.
 992:Generated_Source\PSoC6/CapSense_1_Structure.c **** *  A macro for the sensor ID within the specified widget can be found in the
 993:Generated_Source\PSoC6/CapSense_1_Structure.c **** *  CapSense_1 Configuration header file defined as
 994:Generated_Source\PSoC6/CapSense_1_Structure.c **** *  CapSense_1_<WidgetName>_SNS<SensorNumber>_ID.
 995:Generated_Source\PSoC6/CapSense_1_Structure.c **** *
 996:Generated_Source\PSoC6/CapSense_1_Structure.c **** * \return
ARM GAS  C:\Users\enes_\AppData\Local\Temp\cc6x7RJg.s 			page 29


 997:Generated_Source\PSoC6/CapSense_1_Structure.c **** *  Returns the touch detection status of the specified sensor / widget:
 998:Generated_Source\PSoC6/CapSense_1_Structure.c **** *    - Zero if no touch is detected in the specified sensor / widget or a wrong
 999:Generated_Source\PSoC6/CapSense_1_Structure.c **** *      widget ID / sensor ID is specified.
1000:Generated_Source\PSoC6/CapSense_1_Structure.c **** *    - Non-zero if the specified sensor is active i.e. touch is detected. If the
1001:Generated_Source\PSoC6/CapSense_1_Structure.c **** *      specific sensor belongs to a proximity widget, the proximity detection
1002:Generated_Source\PSoC6/CapSense_1_Structure.c **** *      status is returned.
1003:Generated_Source\PSoC6/CapSense_1_Structure.c **** *
1004:Generated_Source\PSoC6/CapSense_1_Structure.c **** *******************************************************************************/
1005:Generated_Source\PSoC6/CapSense_1_Structure.c **** uint32 CapSense_1_IsSensorActive(uint32 widgetId, uint32 sensorId)
1006:Generated_Source\PSoC6/CapSense_1_Structure.c **** {
 569              		.loc 1 1006 0
 570              		.cfi_startproc
 571              		@ args = 0, pretend = 0, frame = 0
 572              		@ frame_needed = 0, uses_anonymous_args = 0
 573              		@ link register save eliminated.
 574              	.LVL60:
1007:Generated_Source\PSoC6/CapSense_1_Structure.c ****     uint32 result = 0Lu;
1008:Generated_Source\PSoC6/CapSense_1_Structure.c **** 
1009:Generated_Source\PSoC6/CapSense_1_Structure.c ****     if ((widgetId < CapSense_1_TOTAL_WIDGETS) &&
 575              		.loc 1 1009 0
 576 0000 0228     		cmp	r0, #2
 577 0002 0DD8     		bhi	.L53
1010:Generated_Source\PSoC6/CapSense_1_Structure.c ****         (sensorId < CapSense_1_GET_SENSOR_COUNT(widgetId)))
 578              		.loc 1 1010 0 discriminator 1
 579 0004 2C23     		movs	r3, #44
 580 0006 4343     		muls	r3, r0
 581 0008 074A     		ldr	r2, .L55
 582 000a D318     		adds	r3, r2, r3
 583 000c 1B8C     		ldrh	r3, [r3, #32]
1009:Generated_Source\PSoC6/CapSense_1_Structure.c ****         (sensorId < CapSense_1_GET_SENSOR_COUNT(widgetId)))
 584              		.loc 1 1009 0 discriminator 1
 585 000e 8B42     		cmp	r3, r1
 586 0010 08D9     		bls	.L54
1011:Generated_Source\PSoC6/CapSense_1_Structure.c ****     {
1012:Generated_Source\PSoC6/CapSense_1_Structure.c ****         #if (CapSense_1_ENABLE == CapSense_1_PROXIMITY_WIDGET_EN)
1013:Generated_Source\PSoC6/CapSense_1_Structure.c ****             if (CapSense_1_WD_PROXIMITY_E ==
1014:Generated_Source\PSoC6/CapSense_1_Structure.c ****                 (CapSense_1_WD_TYPE_ENUM)CapSense_1_dsFlash.wdgtArray[widgetId].wdgtType)
1015:Generated_Source\PSoC6/CapSense_1_Structure.c ****             {
1016:Generated_Source\PSoC6/CapSense_1_Structure.c ****                 sensorId = CapSense_1_PROX_STS_OFFSET(sensorId);
1017:Generated_Source\PSoC6/CapSense_1_Structure.c ****             }
1018:Generated_Source\PSoC6/CapSense_1_Structure.c ****         #endif /* (CapSense_1_ENABLE != CapSense_1_PROXIMITY_WIDGET_EN) */
1019:Generated_Source\PSoC6/CapSense_1_Structure.c ****         result = CapSense_1_dsRam.snsStatus[widgetId] & (1Lu << sensorId);
 587              		.loc 1 1019 0
 588 0012 064B     		ldr	r3, .L55+4
 589 0014 1818     		adds	r0, r3, r0
 590              	.LVL61:
 591 0016 037E     		ldrb	r3, [r0, #24]
 592 0018 0120     		movs	r0, #1
 593 001a 8840     		lsls	r0, r0, r1
 594 001c 1840     		ands	r0, r3
 595              	.LVL62:
 596 001e 02E0     		b	.L52
 597              	.LVL63:
 598              	.L53:
1007:Generated_Source\PSoC6/CapSense_1_Structure.c **** 
 599              		.loc 1 1007 0
 600 0020 0020     		movs	r0, #0
ARM GAS  C:\Users\enes_\AppData\Local\Temp\cc6x7RJg.s 			page 30


 601              	.LVL64:
 602 0022 00E0     		b	.L52
 603              	.LVL65:
 604              	.L54:
 605 0024 0020     		movs	r0, #0
 606              	.LVL66:
 607              	.L52:
1020:Generated_Source\PSoC6/CapSense_1_Structure.c ****     }
1021:Generated_Source\PSoC6/CapSense_1_Structure.c **** 
1022:Generated_Source\PSoC6/CapSense_1_Structure.c ****     return result;
1023:Generated_Source\PSoC6/CapSense_1_Structure.c **** }
 608              		.loc 1 1023 0
 609              		@ sp needed
 610 0026 7047     		bx	lr
 611              	.L56:
 612              		.align	2
 613              	.L55:
 614 0028 00000000 		.word	.LANCHOR0
 615 002c 00000000 		.word	CapSense_1_dsRam
 616              		.cfi_endproc
 617              	.LFE51:
 618              		.size	CapSense_1_IsSensorActive, .-CapSense_1_IsSensorActive
 619              		.section	.text.CapSense_1_GetCentroidPos,"ax",%progbits
 620              		.align	2
 621              		.global	CapSense_1_GetCentroidPos
 622              		.code	16
 623              		.thumb_func
 624              		.type	CapSense_1_GetCentroidPos, %function
 625              	CapSense_1_GetCentroidPos:
 626              	.LFB52:
1024:Generated_Source\PSoC6/CapSense_1_Structure.c **** 
1025:Generated_Source\PSoC6/CapSense_1_Structure.c **** #if (0u != CapSense_1_MATRIX_WIDGET_EN)
1026:Generated_Source\PSoC6/CapSense_1_Structure.c **** /*******************************************************************************
1027:Generated_Source\PSoC6/CapSense_1_Structure.c **** * Function Name: CapSense_1_IsMatrixButtonsActive
1028:Generated_Source\PSoC6/CapSense_1_Structure.c **** ****************************************************************************//**
1029:Generated_Source\PSoC6/CapSense_1_Structure.c **** *
1030:Generated_Source\PSoC6/CapSense_1_Structure.c **** * \brief
1031:Generated_Source\PSoC6/CapSense_1_Structure.c **** *  Reports the status of the specified matrix button widget.
1032:Generated_Source\PSoC6/CapSense_1_Structure.c **** *
1033:Generated_Source\PSoC6/CapSense_1_Structure.c **** * \details
1034:Generated_Source\PSoC6/CapSense_1_Structure.c **** *  This function reports if the specified matrix widget has detected a touch or
1035:Generated_Source\PSoC6/CapSense_1_Structure.c **** *  not by extracting information from the wdgtStatus registers
1036:Generated_Source\PSoC6/CapSense_1_Structure.c **** *  (CapSense_1_WDGT_STATUS<X>_VALUE for the CSD widgets and
1037:Generated_Source\PSoC6/CapSense_1_Structure.c **** *  CapSense_1_SNS_STATUS<WidgetId>_VALUE for CSX widget). In addition, the
1038:Generated_Source\PSoC6/CapSense_1_Structure.c **** *  function provides details of the active sensor including active rows/columns
1039:Generated_Source\PSoC6/CapSense_1_Structure.c **** *  for the CSD widgets. This function is used only with the matrix button
1040:Generated_Source\PSoC6/CapSense_1_Structure.c **** *  widgets. This function does not process the widget but extracts
1041:Generated_Source\PSoC6/CapSense_1_Structure.c **** *  processed results from the \ref group_structures.
1042:Generated_Source\PSoC6/CapSense_1_Structure.c **** *
1043:Generated_Source\PSoC6/CapSense_1_Structure.c **** * \param widgetId
1044:Generated_Source\PSoC6/CapSense_1_Structure.c **** *  Specifies the ID number of the matrix button widget to check the status of its
1045:Generated_Source\PSoC6/CapSense_1_Structure.c **** *  sensors.
1046:Generated_Source\PSoC6/CapSense_1_Structure.c **** *  A macro for the widget ID can be found in the CapSense_1 Configuration header file
1047:Generated_Source\PSoC6/CapSense_1_Structure.c **** *  defined as CapSense_1_<WidgetName>_WDGT_ID
1048:Generated_Source\PSoC6/CapSense_1_Structure.c **** *
1049:Generated_Source\PSoC6/CapSense_1_Structure.c **** * \return
1050:Generated_Source\PSoC6/CapSense_1_Structure.c **** *  Returns the touch detection status of the sensors in the specified matrix
ARM GAS  C:\Users\enes_\AppData\Local\Temp\cc6x7RJg.s 			page 31


1051:Generated_Source\PSoC6/CapSense_1_Structure.c **** *  buttons widget. Zero indicates that no touch is detected in the specified
1052:Generated_Source\PSoC6/CapSense_1_Structure.c **** *  widget or a wrong widgetId is specified.
1053:Generated_Source\PSoC6/CapSense_1_Structure.c **** *    1. For the matrix buttons widgets with the CSD sensing mode:
1054:Generated_Source\PSoC6/CapSense_1_Structure.c **** *      - Bit [31] if set, indicates that one or more sensors in the widget
1055:Generated_Source\PSoC6/CapSense_1_Structure.c **** *        detected a touch.
1056:Generated_Source\PSoC6/CapSense_1_Structure.c **** *      - Bits [30..24] are reserved
1057:Generated_Source\PSoC6/CapSense_1_Structure.c **** *      - Bits [23..16] indicate the logical sensor number of the sensor that
1058:Generated_Source\PSoC6/CapSense_1_Structure.c **** *        detected a touch. If more than one sensor detected a touch for the CSD
1059:Generated_Source\PSoC6/CapSense_1_Structure.c **** *        widget, no status is reported because more than one touch is invalid for the
1060:Generated_Source\PSoC6/CapSense_1_Structure.c **** *        CSD matrix buttons widgets.
1061:Generated_Source\PSoC6/CapSense_1_Structure.c **** *      - Bits [15..8] indicate the active row number.
1062:Generated_Source\PSoC6/CapSense_1_Structure.c **** *      - Bits [7..0] indicate the active column number.
1063:Generated_Source\PSoC6/CapSense_1_Structure.c **** *    2. For the matrix buttons widgets with the CSX widgets, each bit (31..0)
1064:Generated_Source\PSoC6/CapSense_1_Structure.c **** *      corresponds to the TX/RX intersection.
1065:Generated_Source\PSoC6/CapSense_1_Structure.c **** *
1066:Generated_Source\PSoC6/CapSense_1_Structure.c **** *******************************************************************************/
1067:Generated_Source\PSoC6/CapSense_1_Structure.c **** uint32 CapSense_1_IsMatrixButtonsActive(uint32 widgetId)
1068:Generated_Source\PSoC6/CapSense_1_Structure.c **** {
1069:Generated_Source\PSoC6/CapSense_1_Structure.c ****     uint32 result = 0Lu;
1070:Generated_Source\PSoC6/CapSense_1_Structure.c ****     cy_status state = CY_RET_SUCCESS;
1071:Generated_Source\PSoC6/CapSense_1_Structure.c ****     CapSense_1_FLASH_WD_STRUCT const *ptrFlashWdgt = 0u;
1072:Generated_Source\PSoC6/CapSense_1_Structure.c **** 
1073:Generated_Source\PSoC6/CapSense_1_Structure.c ****     #if (0u != CapSense_1_CSD_MATRIX_WIDGET_EN)
1074:Generated_Source\PSoC6/CapSense_1_Structure.c ****         CapSense_1_RAM_WD_CSD_MATRIX_STRUCT *wdCsdMatrix;
1075:Generated_Source\PSoC6/CapSense_1_Structure.c ****     #endif
1076:Generated_Source\PSoC6/CapSense_1_Structure.c **** 
1077:Generated_Source\PSoC6/CapSense_1_Structure.c ****     if (widgetId >= CapSense_1_TOTAL_WIDGETS)
1078:Generated_Source\PSoC6/CapSense_1_Structure.c ****     {
1079:Generated_Source\PSoC6/CapSense_1_Structure.c ****         state = CY_RET_BAD_PARAM;
1080:Generated_Source\PSoC6/CapSense_1_Structure.c ****     }
1081:Generated_Source\PSoC6/CapSense_1_Structure.c ****     else
1082:Generated_Source\PSoC6/CapSense_1_Structure.c ****     {
1083:Generated_Source\PSoC6/CapSense_1_Structure.c ****         ptrFlashWdgt = &CapSense_1_dsFlash.wdgtArray[widgetId];
1084:Generated_Source\PSoC6/CapSense_1_Structure.c **** 
1085:Generated_Source\PSoC6/CapSense_1_Structure.c ****         if ((CapSense_1_WD_TYPE_ENUM)ptrFlashWdgt->wdgtType != CapSense_1_WD_MATRIX_BUTTON_E)
1086:Generated_Source\PSoC6/CapSense_1_Structure.c ****         {
1087:Generated_Source\PSoC6/CapSense_1_Structure.c ****             state = CY_RET_BAD_PARAM;
1088:Generated_Source\PSoC6/CapSense_1_Structure.c ****         }
1089:Generated_Source\PSoC6/CapSense_1_Structure.c ****         else if (0u == CapSense_1_GET_WIDGET_ACTIVE_STATUS(widgetId))
1090:Generated_Source\PSoC6/CapSense_1_Structure.c ****         {
1091:Generated_Source\PSoC6/CapSense_1_Structure.c ****             state = CY_RET_BAD_PARAM;
1092:Generated_Source\PSoC6/CapSense_1_Structure.c ****         }
1093:Generated_Source\PSoC6/CapSense_1_Structure.c ****         else
1094:Generated_Source\PSoC6/CapSense_1_Structure.c ****         {
1095:Generated_Source\PSoC6/CapSense_1_Structure.c ****             /* input parameters are OK */
1096:Generated_Source\PSoC6/CapSense_1_Structure.c ****         }
1097:Generated_Source\PSoC6/CapSense_1_Structure.c ****     }
1098:Generated_Source\PSoC6/CapSense_1_Structure.c **** 
1099:Generated_Source\PSoC6/CapSense_1_Structure.c ****     if (CY_RET_SUCCESS == state)
1100:Generated_Source\PSoC6/CapSense_1_Structure.c ****     {
1101:Generated_Source\PSoC6/CapSense_1_Structure.c ****         switch(CapSense_1_GET_SENSE_METHOD(ptrFlashWdgt))
1102:Generated_Source\PSoC6/CapSense_1_Structure.c ****         {
1103:Generated_Source\PSoC6/CapSense_1_Structure.c ****         #if (0u != CapSense_1_CSD_MATRIX_WIDGET_EN)
1104:Generated_Source\PSoC6/CapSense_1_Structure.c ****             case CapSense_1_SENSE_METHOD_CSD_E:
1105:Generated_Source\PSoC6/CapSense_1_Structure.c ****                 wdCsdMatrix = ptrFlashWdgt->ptr2WdgtRam;
1106:Generated_Source\PSoC6/CapSense_1_Structure.c **** 
1107:Generated_Source\PSoC6/CapSense_1_Structure.c ****                 result = CapSense_1_MATRIX_BUTTONS_TOUCHED |
ARM GAS  C:\Users\enes_\AppData\Local\Temp\cc6x7RJg.s 			page 32


1108:Generated_Source\PSoC6/CapSense_1_Structure.c ****                          ((uint32)wdCsdMatrix->posSnsId << 16u)  |
1109:Generated_Source\PSoC6/CapSense_1_Structure.c ****                          ((uint32)wdCsdMatrix->posRow   << 8u)   |
1110:Generated_Source\PSoC6/CapSense_1_Structure.c ****                          (uint32)wdCsdMatrix->posCol;
1111:Generated_Source\PSoC6/CapSense_1_Structure.c ****                 break;
1112:Generated_Source\PSoC6/CapSense_1_Structure.c ****         #endif /* #if (0u != CapSense_1_CSD_MATRIX_WIDGET_EN) */
1113:Generated_Source\PSoC6/CapSense_1_Structure.c **** 
1114:Generated_Source\PSoC6/CapSense_1_Structure.c ****         #if (0u != CapSense_1_CSX_MATRIX_WIDGET_EN)
1115:Generated_Source\PSoC6/CapSense_1_Structure.c ****             case CapSense_1_SENSE_METHOD_CSX_E:
1116:Generated_Source\PSoC6/CapSense_1_Structure.c ****                 result = CapSense_1_dsRam.snsStatus[widgetId];
1117:Generated_Source\PSoC6/CapSense_1_Structure.c ****                 break;
1118:Generated_Source\PSoC6/CapSense_1_Structure.c ****         #endif /* #if (0u != CapSense_1_CSX_MATRIX_WIDGET_EN) */
1119:Generated_Source\PSoC6/CapSense_1_Structure.c **** 
1120:Generated_Source\PSoC6/CapSense_1_Structure.c ****         default:
1121:Generated_Source\PSoC6/CapSense_1_Structure.c ****             CY_ASSERT(0 != 0);
1122:Generated_Source\PSoC6/CapSense_1_Structure.c ****             break;
1123:Generated_Source\PSoC6/CapSense_1_Structure.c ****         }
1124:Generated_Source\PSoC6/CapSense_1_Structure.c ****     }
1125:Generated_Source\PSoC6/CapSense_1_Structure.c **** 
1126:Generated_Source\PSoC6/CapSense_1_Structure.c ****     return result;
1127:Generated_Source\PSoC6/CapSense_1_Structure.c **** }
1128:Generated_Source\PSoC6/CapSense_1_Structure.c **** #endif /* #if (0u != CapSense_1_MATRIX_WIDGET_EN) */
1129:Generated_Source\PSoC6/CapSense_1_Structure.c **** 
1130:Generated_Source\PSoC6/CapSense_1_Structure.c **** #if (0u != CapSense_1_PROXIMITY_WIDGET_EN)
1131:Generated_Source\PSoC6/CapSense_1_Structure.c **** /*******************************************************************************
1132:Generated_Source\PSoC6/CapSense_1_Structure.c **** * Function Name: CapSense_1_IsProximitySensorActive
1133:Generated_Source\PSoC6/CapSense_1_Structure.c **** ****************************************************************************//**
1134:Generated_Source\PSoC6/CapSense_1_Structure.c **** *
1135:Generated_Source\PSoC6/CapSense_1_Structure.c **** * \brief
1136:Generated_Source\PSoC6/CapSense_1_Structure.c **** *  Reports the finger detection status of the specified proximity widget/sensor.
1137:Generated_Source\PSoC6/CapSense_1_Structure.c **** *
1138:Generated_Source\PSoC6/CapSense_1_Structure.c **** * \details
1139:Generated_Source\PSoC6/CapSense_1_Structure.c **** *  This function reports if the specified proximity sensor has detected a touch
1140:Generated_Source\PSoC6/CapSense_1_Structure.c **** *  or not by extracting information from the wdgtStatus registers
1141:Generated_Source\PSoC6/CapSense_1_Structure.c **** *  (CapSense_1_SNS_STATUS<WidgetId>_VALUE). This function is used
1142:Generated_Source\PSoC6/CapSense_1_Structure.c **** *  only with proximity sensor widgets. This function does not process the
1143:Generated_Source\PSoC6/CapSense_1_Structure.c **** *  widget but extracts processed results from the \ref group_structures.
1144:Generated_Source\PSoC6/CapSense_1_Structure.c **** *
1145:Generated_Source\PSoC6/CapSense_1_Structure.c **** * \param widgetId
1146:Generated_Source\PSoC6/CapSense_1_Structure.c **** *  Specifies the ID number of the proximity widget.
1147:Generated_Source\PSoC6/CapSense_1_Structure.c **** *  A macro for the widget ID can be found in the CapSense_1 Configuration header
1148:Generated_Source\PSoC6/CapSense_1_Structure.c **** *  file defined as CapSense_1_<WidgetName>_WDGT_ID
1149:Generated_Source\PSoC6/CapSense_1_Structure.c **** *
1150:Generated_Source\PSoC6/CapSense_1_Structure.c **** * \param proxId
1151:Generated_Source\PSoC6/CapSense_1_Structure.c **** *  Specifies the ID number of the proximity sensor within the proximity widget to
1152:Generated_Source\PSoC6/CapSense_1_Structure.c **** *  get its touch detection status.
1153:Generated_Source\PSoC6/CapSense_1_Structure.c **** *  A macro for the proximity ID within a specified widget can be found in the
1154:Generated_Source\PSoC6/CapSense_1_Structure.c **** *  CapSense_1 Configuration header file defined as
1155:Generated_Source\PSoC6/CapSense_1_Structure.c **** *  CapSense_1_<WidgetName>_SNS<SensorNumber>_ID
1156:Generated_Source\PSoC6/CapSense_1_Structure.c **** *
1157:Generated_Source\PSoC6/CapSense_1_Structure.c **** * \return
1158:Generated_Source\PSoC6/CapSense_1_Structure.c **** *  Returns the status of the specified sensor of the proximity widget. Zero
1159:Generated_Source\PSoC6/CapSense_1_Structure.c **** *  indicates that no touch is detected in the specified sensor / widget or a
1160:Generated_Source\PSoC6/CapSense_1_Structure.c **** *  wrong widgetId / proxId is specified.
1161:Generated_Source\PSoC6/CapSense_1_Structure.c **** *    - Bits [31..2] are reserved.
1162:Generated_Source\PSoC6/CapSense_1_Structure.c **** *    - Bit [1] indicates that a touch is detected.
1163:Generated_Source\PSoC6/CapSense_1_Structure.c **** *    - Bit [0] indicates that a proximity is detected.
1164:Generated_Source\PSoC6/CapSense_1_Structure.c **** *
ARM GAS  C:\Users\enes_\AppData\Local\Temp\cc6x7RJg.s 			page 33


1165:Generated_Source\PSoC6/CapSense_1_Structure.c **** *******************************************************************************/
1166:Generated_Source\PSoC6/CapSense_1_Structure.c **** uint32 CapSense_1_IsProximitySensorActive(uint32 widgetId, uint32 proxId)
1167:Generated_Source\PSoC6/CapSense_1_Structure.c **** {
1168:Generated_Source\PSoC6/CapSense_1_Structure.c ****     uint32 result = 0Lu;
1169:Generated_Source\PSoC6/CapSense_1_Structure.c **** 
1170:Generated_Source\PSoC6/CapSense_1_Structure.c ****     if ((widgetId < CapSense_1_TOTAL_WIDGETS) && (proxId < CapSense_1_GET_SENSOR_COUNT(widgetId)) &
1171:Generated_Source\PSoC6/CapSense_1_Structure.c ****         (CapSense_1_WD_PROXIMITY_E ==
1172:Generated_Source\PSoC6/CapSense_1_Structure.c ****             (CapSense_1_WD_TYPE_ENUM)CapSense_1_dsFlash.wdgtArray[widgetId].wdgtType))
1173:Generated_Source\PSoC6/CapSense_1_Structure.c ****     {
1174:Generated_Source\PSoC6/CapSense_1_Structure.c ****         result = CapSense_1_dsRam.snsStatus[widgetId];
1175:Generated_Source\PSoC6/CapSense_1_Structure.c ****         result >>= CapSense_1_PROX_STS_OFFSET(proxId);
1176:Generated_Source\PSoC6/CapSense_1_Structure.c ****         result &=  CapSense_1_PROX_STS_MASK;
1177:Generated_Source\PSoC6/CapSense_1_Structure.c ****     }
1178:Generated_Source\PSoC6/CapSense_1_Structure.c **** 
1179:Generated_Source\PSoC6/CapSense_1_Structure.c ****     return result;
1180:Generated_Source\PSoC6/CapSense_1_Structure.c **** }
1181:Generated_Source\PSoC6/CapSense_1_Structure.c **** #endif /* #if (0u != CapSense_1_PROXIMITY_WIDGET_EN) */
1182:Generated_Source\PSoC6/CapSense_1_Structure.c **** 
1183:Generated_Source\PSoC6/CapSense_1_Structure.c **** 
1184:Generated_Source\PSoC6/CapSense_1_Structure.c **** #if (0u != CapSense_1_SLIDER_WIDGET_EN)
1185:Generated_Source\PSoC6/CapSense_1_Structure.c **** /*******************************************************************************
1186:Generated_Source\PSoC6/CapSense_1_Structure.c **** * Function Name: CapSense_1_GetCentroidPos
1187:Generated_Source\PSoC6/CapSense_1_Structure.c **** ****************************************************************************//**
1188:Generated_Source\PSoC6/CapSense_1_Structure.c **** *
1189:Generated_Source\PSoC6/CapSense_1_Structure.c **** * \brief
1190:Generated_Source\PSoC6/CapSense_1_Structure.c **** *  Reports the centroid position for the specified slider widget.
1191:Generated_Source\PSoC6/CapSense_1_Structure.c **** *
1192:Generated_Source\PSoC6/CapSense_1_Structure.c **** * \details
1193:Generated_Source\PSoC6/CapSense_1_Structure.c **** *  This function reports the centroid value of a specified radial or linear
1194:Generated_Source\PSoC6/CapSense_1_Structure.c **** *  slider widget by extracting information from the wdgtStatus registers
1195:Generated_Source\PSoC6/CapSense_1_Structure.c **** *  (CapSense_1_<WidgetName>_POSITION<X>_VALUE). This function is
1196:Generated_Source\PSoC6/CapSense_1_Structure.c **** *  used only with radial or linear slider widgets. This function does not
1197:Generated_Source\PSoC6/CapSense_1_Structure.c **** *  process the widget but extracts processed results from the \ref group_structures.
1198:Generated_Source\PSoC6/CapSense_1_Structure.c **** *
1199:Generated_Source\PSoC6/CapSense_1_Structure.c **** * \param widgetId
1200:Generated_Source\PSoC6/CapSense_1_Structure.c **** *  Specifies the ID number of a slider widget to get the centroid of the
1201:Generated_Source\PSoC6/CapSense_1_Structure.c **** *  detected touch.
1202:Generated_Source\PSoC6/CapSense_1_Structure.c **** *  A macro for the widget ID can be found in the
1203:Generated_Source\PSoC6/CapSense_1_Structure.c **** *  CapSense_1 Configuration header file defined as
1204:Generated_Source\PSoC6/CapSense_1_Structure.c **** *  CapSense_1_<WidgetName>_WDGT_ID
1205:Generated_Source\PSoC6/CapSense_1_Structure.c **** *
1206:Generated_Source\PSoC6/CapSense_1_Structure.c **** * \return
1207:Generated_Source\PSoC6/CapSense_1_Structure.c **** *  Returns the centroid position of a specified slider widget:
1208:Generated_Source\PSoC6/CapSense_1_Structure.c **** *    - The centroid position if a touch is detected.
1209:Generated_Source\PSoC6/CapSense_1_Structure.c **** *    - CapSense_1_SLIDER_NO_TOUCH - No touch is detected or a wrong
1210:Generated_Source\PSoC6/CapSense_1_Structure.c **** *      widgetId is specified.
1211:Generated_Source\PSoC6/CapSense_1_Structure.c **** *
1212:Generated_Source\PSoC6/CapSense_1_Structure.c **** *******************************************************************************/
1213:Generated_Source\PSoC6/CapSense_1_Structure.c **** uint32 CapSense_1_GetCentroidPos(uint32 widgetId)
1214:Generated_Source\PSoC6/CapSense_1_Structure.c **** {
 627              		.loc 1 1214 0
 628              		.cfi_startproc
 629              		@ args = 0, pretend = 0, frame = 0
 630              		@ frame_needed = 0, uses_anonymous_args = 0
 631              		@ link register save eliminated.
 632              	.LVL67:
1215:Generated_Source\PSoC6/CapSense_1_Structure.c ****     uint32 result = CapSense_1_SLIDER_NO_TOUCH;
ARM GAS  C:\Users\enes_\AppData\Local\Temp\cc6x7RJg.s 			page 34


1216:Generated_Source\PSoC6/CapSense_1_Structure.c ****     CapSense_1_RAM_WD_SLIDER_STRUCT *wdSlider;
1217:Generated_Source\PSoC6/CapSense_1_Structure.c **** 
1218:Generated_Source\PSoC6/CapSense_1_Structure.c ****     if ((widgetId < CapSense_1_TOTAL_WIDGETS) &&
 633              		.loc 1 1218 0
 634 0000 0228     		cmp	r0, #2
 635 0002 0FD8     		bhi	.L59
1219:Generated_Source\PSoC6/CapSense_1_Structure.c ****         ((CapSense_1_WD_LINEAR_SLIDER_E ==
1220:Generated_Source\PSoC6/CapSense_1_Structure.c ****             (CapSense_1_WD_TYPE_ENUM)CapSense_1_dsFlash.wdgtArray[widgetId].wdgtType) ||
 636              		.loc 1 1220 0 discriminator 1
 637 0004 2C23     		movs	r3, #44
 638 0006 4343     		muls	r3, r0
 639 0008 084A     		ldr	r2, .L61
 640 000a D318     		adds	r3, r2, r3
 641 000c 2233     		adds	r3, r3, #34
 642 000e 1B78     		ldrb	r3, [r3]
 643 0010 023B     		subs	r3, r3, #2
 644 0012 DBB2     		uxtb	r3, r3
1218:Generated_Source\PSoC6/CapSense_1_Structure.c ****         ((CapSense_1_WD_LINEAR_SLIDER_E ==
 645              		.loc 1 1218 0 discriminator 1
 646 0014 012B     		cmp	r3, #1
 647 0016 07D8     		bhi	.L60
1221:Generated_Source\PSoC6/CapSense_1_Structure.c ****          (CapSense_1_WD_RADIAL_SLIDER_E ==
1222:Generated_Source\PSoC6/CapSense_1_Structure.c ****             (CapSense_1_WD_TYPE_ENUM)CapSense_1_dsFlash.wdgtArray[widgetId].wdgtType)))
1223:Generated_Source\PSoC6/CapSense_1_Structure.c ****     {
1224:Generated_Source\PSoC6/CapSense_1_Structure.c ****         wdSlider = CapSense_1_dsFlash.wdgtArray[widgetId].ptr2WdgtRam;
 648              		.loc 1 1224 0
 649 0018 2C23     		movs	r3, #44
 650 001a 5843     		muls	r0, r3
 651              	.LVL68:
 652 001c 1018     		adds	r0, r2, r0
 653 001e C368     		ldr	r3, [r0, #12]
 654              	.LVL69:
1225:Generated_Source\PSoC6/CapSense_1_Structure.c ****         result = (uint32)wdSlider->position[0u];
 655              		.loc 1 1225 0
 656 0020 588A     		ldrh	r0, [r3, #18]
 657              	.LVL70:
 658 0022 02E0     		b	.L58
 659              	.LVL71:
 660              	.L59:
1215:Generated_Source\PSoC6/CapSense_1_Structure.c ****     CapSense_1_RAM_WD_SLIDER_STRUCT *wdSlider;
 661              		.loc 1 1215 0
 662 0024 0248     		ldr	r0, .L61+4
 663              	.LVL72:
 664 0026 00E0     		b	.L58
 665              	.LVL73:
 666              	.L60:
 667 0028 0148     		ldr	r0, .L61+4
 668              	.LVL74:
 669              	.L58:
1226:Generated_Source\PSoC6/CapSense_1_Structure.c ****     }
1227:Generated_Source\PSoC6/CapSense_1_Structure.c **** 
1228:Generated_Source\PSoC6/CapSense_1_Structure.c ****     return result;
1229:Generated_Source\PSoC6/CapSense_1_Structure.c **** }
 670              		.loc 1 1229 0
 671              		@ sp needed
 672 002a 7047     		bx	lr
 673              	.L62:
ARM GAS  C:\Users\enes_\AppData\Local\Temp\cc6x7RJg.s 			page 35


 674              		.align	2
 675              	.L61:
 676 002c 00000000 		.word	.LANCHOR0
 677 0030 FFFF0000 		.word	65535
 678              		.cfi_endproc
 679              	.LFE52:
 680              		.size	CapSense_1_GetCentroidPos, .-CapSense_1_GetCentroidPos
 681              		.global	CapSense_1_ramIdacInit
 682              		.global	CapSense_1_ramWidgetInit
 683              		.global	CapSense_1_ioList
 684              		.global	CapSense_1_dsFlash
 685              		.comm	CapSense_1_dsRam,164,4
 686              		.section	.rodata
 687              		.align	2
 688              		.set	.LANCHOR0,. + 0
 689              		.set	.LANCHOR1,. + 128
 690              		.type	CapSense_1_ramIdacInit, %object
 691              		.size	CapSense_1_ramIdacInit, 7
 692              	CapSense_1_ramIdacInit:
 693 0000 20       		.byte	32
 694 0001 20       		.byte	32
 695 0002 20       		.byte	32
 696 0003 20       		.byte	32
 697 0004 20       		.byte	32
 698 0005 20       		.byte	32
 699 0006 20       		.byte	32
 700 0007 00       		.space	1
 701              		.type	CapSense_1_dsFlash, %object
 702              		.size	CapSense_1_dsFlash, 132
 703              	CapSense_1_dsFlash:
 704 0008 00000000 		.word	CapSense_1_ioList
 705 000c 20000000 		.word	CapSense_1_dsRam+32
 706 0010 58000000 		.word	CapSense_1_dsRam+88
 707 0014 00000000 		.word	0
 708 0018 44000000 		.word	CapSense_1_debounceLinearSlider0
 709 001c 01280000 		.word	10241
 710 0020 0500     		.short	5
 711 0022 02       		.byte	2
 712 0023 01       		.byte	1
 713 0024 05       		.byte	5
 714 0025 00       		.byte	0
 715 0026 6400     		.short	100
 716 0028 00190000 		.word	6400
 717 002c 00000000 		.word	CapSense_1_noiseEnvlpLinearSlider0
 718 0030 80       		.byte	-128
 719 0031 000000   		.space	3
 720 0034 28000000 		.word	CapSense_1_ioList+40
 721 0038 34000000 		.word	CapSense_1_dsRam+52
 722 003c 8A000000 		.word	CapSense_1_dsRam+138
 723 0040 00000000 		.word	0
 724 0044 40000000 		.word	CapSense_1_debounceButton0
 725 0048 09280000 		.word	10249
 726 004c 0100     		.short	1
 727 004e 01       		.byte	1
 728 004f 02       		.byte	2
 729 0050 01       		.byte	1
 730 0051 01       		.byte	1
ARM GAS  C:\Users\enes_\AppData\Local\Temp\cc6x7RJg.s 			page 36


 731 0052 0000     		.short	0
 732 0054 00000000 		.word	0
 733 0058 00000000 		.word	0
 734 005c 00       		.byte	0
 735 005d 000000   		.space	3
 736 0060 38000000 		.word	CapSense_1_ioList+56
 737 0064 46000000 		.word	CapSense_1_dsRam+70
 738 0068 94000000 		.word	CapSense_1_dsRam+148
 739 006c 00000000 		.word	0
 740 0070 3C000000 		.word	CapSense_1_debounceButton1
 741 0074 01280000 		.word	10241
 742 0078 0100     		.short	1
 743 007a 01       		.byte	1
 744 007b 02       		.byte	2
 745 007c 01       		.byte	1
 746 007d 01       		.byte	1
 747 007e 0000     		.short	0
 748 0080 00000000 		.word	0
 749 0084 00000000 		.word	0
 750 0088 00       		.byte	0
 751 0089 000000   		.space	3
 752              		.type	CapSense_1_ramWidgetInit, %object
 753              		.size	CapSense_1_ramWidgetInit, 56
 754              	CapSense_1_ramWidgetInit:
 755 008c 0C00     		.short	12
 756 008e 6400     		.short	100
 757 0090 28       		.byte	40
 758 0091 28       		.byte	40
 759 0092 0A       		.byte	10
 760 0093 03       		.byte	3
 761 0094 1E       		.byte	30
 762 0095 20       		.byte	32
 763 0096 0400     		.short	4
 764 0098 00       		.byte	0
 765 0099 00       		.space	1
 766 009a A000     		.short	160
 767 009c 0000     		.short	0
 768 009e FFFF     		.short	-1
 769 00a0 6400     		.short	100
 770 00a2 6400     		.short	100
 771 00a4 28       		.byte	40
 772 00a5 28       		.byte	40
 773 00a6 0A       		.byte	10
 774 00a7 03       		.byte	3
 775 00a8 1E       		.byte	30
 776 00a9 20       		.byte	32
 777 00aa A700     		.short	167
 778 00ac 00       		.byte	0
 779 00ad 00       		.space	1
 780 00ae A000     		.short	160
 781 00b0 0000     		.short	0
 782 00b2 6400     		.short	100
 783 00b4 6400     		.short	100
 784 00b6 28       		.byte	40
 785 00b7 28       		.byte	40
 786 00b8 0A       		.byte	10
 787 00b9 03       		.byte	3
ARM GAS  C:\Users\enes_\AppData\Local\Temp\cc6x7RJg.s 			page 37


 788 00ba 1E       		.byte	30
 789 00bb 20       		.byte	32
 790 00bc A700     		.short	167
 791 00be 00       		.byte	0
 792 00bf 00       		.space	1
 793 00c0 A000     		.short	160
 794 00c2 0000     		.short	0
 795              		.type	CapSense_1_ioList, %object
 796              		.size	CapSense_1_ioList, 72
 797              	CapSense_1_ioList:
 798 00c4 00043240 		.word	1077019648
 799 00c8 03       		.byte	3
 800 00c9 000000   		.space	3
 801 00cc 00043240 		.word	1077019648
 802 00d0 04       		.byte	4
 803 00d1 000000   		.space	3
 804 00d4 00043240 		.word	1077019648
 805 00d8 05       		.byte	5
 806 00d9 000000   		.space	3
 807 00dc 00043240 		.word	1077019648
 808 00e0 06       		.byte	6
 809 00e1 000000   		.space	3
 810 00e4 00043240 		.word	1077019648
 811 00e8 07       		.byte	7
 812 00e9 000000   		.space	3
 813 00ec 00043240 		.word	1077019648
 814 00f0 01       		.byte	1
 815 00f1 000000   		.space	3
 816 00f4 80003240 		.word	1077018752
 817 00f8 00       		.byte	0
 818 00f9 000000   		.space	3
 819 00fc 00043240 		.word	1077019648
 820 0100 02       		.byte	2
 821 0101 000000   		.space	3
 822 0104 80003240 		.word	1077018752
 823 0108 00       		.byte	0
 824 0109 000000   		.space	3
 825              		.section	.rodata.str1.4,"aMS",%progbits,1
 826              		.align	2
 827              	.LC6:
 828 0000 47656E65 		.ascii	"Generated_Source\\PSoC6\\CapSense_1_Structure.c\000"
 828      72617465 
 828      645F536F 
 828      75726365 
 828      5C50536F 
 829              		.bss
 830              		.align	2
 831              		.type	CapSense_1_noiseEnvlpLinearSlider0, %object
 832              		.size	CapSense_1_noiseEnvlpLinearSlider0, 60
 833              	CapSense_1_noiseEnvlpLinearSlider0:
 834 0000 00000000 		.space	60
 834      00000000 
 834      00000000 
 834      00000000 
 834      00000000 
 835              		.type	CapSense_1_debounceButton1, %object
 836              		.size	CapSense_1_debounceButton1, 1
ARM GAS  C:\Users\enes_\AppData\Local\Temp\cc6x7RJg.s 			page 38


 837              	CapSense_1_debounceButton1:
 838 003c 00       		.space	1
 839 003d 000000   		.space	3
 840              		.type	CapSense_1_debounceButton0, %object
 841              		.size	CapSense_1_debounceButton0, 1
 842              	CapSense_1_debounceButton0:
 843 0040 00       		.space	1
 844 0041 000000   		.space	3
 845              		.type	CapSense_1_debounceLinearSlider0, %object
 846              		.size	CapSense_1_debounceLinearSlider0, 1
 847              	CapSense_1_debounceLinearSlider0:
 848 0044 00       		.space	1
 849              		.text
 850              	.Letext0:
 851              		.file 2 "c:\\program files (x86)\\cypress\\psoc creator\\4.4\\psoc creator\\import\\gnu\\arm\\5.4.
 852              		.file 3 "c:\\program files (x86)\\cypress\\psoc creator\\4.4\\psoc creator\\import\\gnu\\arm\\5.4.
 853              		.file 4 "Generated_Source\\PSoC6\\pdl\\devices/psoc6/include/ip/cyip_gpio.h"
 854              		.file 5 "Generated_Source\\PSoC6\\pdl\\devices/psoc6/include/psoc6_01_config.h"
 855              		.file 6 "Generated_Source\\PSoC6\\pdl\\drivers/peripheral/syslib/cy_syslib.h"
 856              		.file 7 "Generated_Source\\PSoC6\\CapSense_1_Configuration.h"
 857              		.file 8 "Generated_Source\\PSoC6\\CapSense_1_SmartSense_LL.h"
 858              		.file 9 "Generated_Source\\PSoC6\\CapSense_1_Structure.h"