ARM GAS  C:\Users\enes_\AppData\Local\Temp\ccMgWMPt.s 			page 1


   1              		.syntax unified
   2              		.cpu cortex-m0plus
   3              		.fpu softvfp
   4              		.eabi_attribute 20, 1
   5              		.eabi_attribute 21, 1
   6              		.eabi_attribute 23, 3
   7              		.eabi_attribute 24, 1
   8              		.eabi_attribute 25, 1
   9              		.eabi_attribute 26, 1
  10              		.eabi_attribute 30, 1
  11              		.eabi_attribute 34, 0
  12              		.eabi_attribute 18, 4
  13              		.thumb
  14              		.syntax unified
  15              		.file	"CapSense_1_INT.c"
  16              		.text
  17              	.Ltext0:
  18              		.cfi_sections	.debug_frame
  19              		.section	.text.CapSense_1_SsCSDPostScan,"ax",%progbits
  20              		.align	2
  21              		.code	16
  22              		.thumb_func
  23              		.type	CapSense_1_SsCSDPostScan, %function
  24              	CapSense_1_SsCSDPostScan:
  25              	.LFB179:
  26              		.file 1 "Generated_Source\\PSoC6\\CapSense_1_INT.c"
   1:Generated_Source\PSoC6/CapSense_1_INT.c **** /***************************************************************************//**
   2:Generated_Source\PSoC6/CapSense_1_INT.c **** * \file CapSense_1_INT.c
   3:Generated_Source\PSoC6/CapSense_1_INT.c **** * \version 3.0
   4:Generated_Source\PSoC6/CapSense_1_INT.c **** *
   5:Generated_Source\PSoC6/CapSense_1_INT.c **** * \brief
   6:Generated_Source\PSoC6/CapSense_1_INT.c **** *   This file contains the source code for implementation of the CapSense_1
   7:Generated_Source\PSoC6/CapSense_1_INT.c **** *   Component Interrupt Service Routine (ISR).
   8:Generated_Source\PSoC6/CapSense_1_INT.c **** *
   9:Generated_Source\PSoC6/CapSense_1_INT.c **** * \see CapSense_1 v3.0 Datasheet
  10:Generated_Source\PSoC6/CapSense_1_INT.c **** *
  11:Generated_Source\PSoC6/CapSense_1_INT.c **** *//*****************************************************************************
  12:Generated_Source\PSoC6/CapSense_1_INT.c **** * Copyright (2016-2017), Cypress Semiconductor Corporation.
  13:Generated_Source\PSoC6/CapSense_1_INT.c **** ********************************************************************************
  14:Generated_Source\PSoC6/CapSense_1_INT.c **** * This software is owned by Cypress Semiconductor Corporation (Cypress) and is
  15:Generated_Source\PSoC6/CapSense_1_INT.c **** * protected by and subject to worldwide patent protection (United States and
  16:Generated_Source\PSoC6/CapSense_1_INT.c **** * foreign), United States copyright laws and international treaty provisions.
  17:Generated_Source\PSoC6/CapSense_1_INT.c **** * Cypress hereby grants to licensee a personal, non-exclusive, non-transferable
  18:Generated_Source\PSoC6/CapSense_1_INT.c **** * license to copy, use, modify, create derivative works of, and compile the
  19:Generated_Source\PSoC6/CapSense_1_INT.c **** * Cypress Source Code and derivative works for the sole purpose of creating
  20:Generated_Source\PSoC6/CapSense_1_INT.c **** * custom software in support of licensee product to be used only in conjunction
  21:Generated_Source\PSoC6/CapSense_1_INT.c **** * with a Cypress integrated circuit as specified in the applicable agreement.
  22:Generated_Source\PSoC6/CapSense_1_INT.c **** * Any reproduction, modification, translation, compilation, or representation of
  23:Generated_Source\PSoC6/CapSense_1_INT.c **** * this software except as specified above is prohibited without the express
  24:Generated_Source\PSoC6/CapSense_1_INT.c **** * written permission of Cypress.
  25:Generated_Source\PSoC6/CapSense_1_INT.c **** *
  26:Generated_Source\PSoC6/CapSense_1_INT.c **** * Disclaimer: CYPRESS MAKES NO WARRANTY OF ANY KIND, EXPRESS OR IMPLIED, WITH
  27:Generated_Source\PSoC6/CapSense_1_INT.c **** * REGARD TO THIS MATERIAL, INCLUDING, BUT NOT LIMITED TO, THE IMPLIED
  28:Generated_Source\PSoC6/CapSense_1_INT.c **** * WARRANTIES OF MERCHANTABILITY AND FITNESS FOR A PARTICULAR PURPOSE.
  29:Generated_Source\PSoC6/CapSense_1_INT.c **** * Cypress reserves the right to make changes without further notice to the
  30:Generated_Source\PSoC6/CapSense_1_INT.c **** * materials described herein. Cypress does not assume any liability arising out
  31:Generated_Source\PSoC6/CapSense_1_INT.c **** * of the application or use of any product or circuit described herein. Cypress
ARM GAS  C:\Users\enes_\AppData\Local\Temp\ccMgWMPt.s 			page 2


  32:Generated_Source\PSoC6/CapSense_1_INT.c **** * does not authorize its products for use as critical components in life-support
  33:Generated_Source\PSoC6/CapSense_1_INT.c **** * systems where a malfunction or failure may reasonably be expected to result in
  34:Generated_Source\PSoC6/CapSense_1_INT.c **** * significant injury to the user. The inclusion of Cypress' product in a life-
  35:Generated_Source\PSoC6/CapSense_1_INT.c **** * support systems application implies that the manufacturer assumes all risk of
  36:Generated_Source\PSoC6/CapSense_1_INT.c **** * such use and in doing so indemnifies Cypress against all charges. Use may be
  37:Generated_Source\PSoC6/CapSense_1_INT.c **** * limited by and subject to the applicable Cypress software license agreement.
  38:Generated_Source\PSoC6/CapSense_1_INT.c **** *******************************************************************************/
  39:Generated_Source\PSoC6/CapSense_1_INT.c **** #include "syslib/cy_syslib.h"
  40:Generated_Source\PSoC6/CapSense_1_INT.c **** #include "cyfitter.h"
  41:Generated_Source\PSoC6/CapSense_1_INT.c **** #include "CapSense_1_Configuration.h"
  42:Generated_Source\PSoC6/CapSense_1_INT.c **** #include "CapSense_1_Structure.h"
  43:Generated_Source\PSoC6/CapSense_1_INT.c **** #include "CapSense_1_Sensing.h"
  44:Generated_Source\PSoC6/CapSense_1_INT.c **** #if (CapSense_1_ENABLE == CapSense_1_CSD_EN)
  45:Generated_Source\PSoC6/CapSense_1_INT.c ****     #include "CapSense_1_SensingCSD_LL.h"
  46:Generated_Source\PSoC6/CapSense_1_INT.c **** #endif /* (CapSense_1_ENABLE == CapSense_1_CSD_EN) */
  47:Generated_Source\PSoC6/CapSense_1_INT.c **** #include "cyapicallbacks.h"
  48:Generated_Source\PSoC6/CapSense_1_INT.c **** 
  49:Generated_Source\PSoC6/CapSense_1_INT.c **** /*******************************************************************************
  50:Generated_Source\PSoC6/CapSense_1_INT.c **** * Static Function Prototypes
  51:Generated_Source\PSoC6/CapSense_1_INT.c **** *******************************************************************************/
  52:Generated_Source\PSoC6/CapSense_1_INT.c **** /**
  53:Generated_Source\PSoC6/CapSense_1_INT.c **** * \cond SECTION_CYSENSE_INTERNAL
  54:Generated_Source\PSoC6/CapSense_1_INT.c **** * \addtogroup group_cysense_internal
  55:Generated_Source\PSoC6/CapSense_1_INT.c **** * \{
  56:Generated_Source\PSoC6/CapSense_1_INT.c **** */
  57:Generated_Source\PSoC6/CapSense_1_INT.c **** 
  58:Generated_Source\PSoC6/CapSense_1_INT.c **** #if (((CapSense_1_ENABLE == CapSense_1_CSD_EN) || (CapSense_1_ENABLE == CapSense_1_CSD_CSX_EN)) && 
  59:Generated_Source\PSoC6/CapSense_1_INT.c ****      (CapSense_1_ENABLE == CapSense_1_MULTI_FREQ_SCAN_EN))
  60:Generated_Source\PSoC6/CapSense_1_INT.c ****     static void CapSense_1_SsNextFrequencyScan(void);
  61:Generated_Source\PSoC6/CapSense_1_INT.c **** #endif /* (((CapSense_1_ENABLE == CapSense_1_CSD_EN) || (CapSense_1_ENABLE == CapSense_1_CSD_CSX_EN
  62:Generated_Source\PSoC6/CapSense_1_INT.c ****             (CapSense_1_ENABLE == CapSense_1_MULTI_FREQ_SCAN_EN)) */
  63:Generated_Source\PSoC6/CapSense_1_INT.c **** 
  64:Generated_Source\PSoC6/CapSense_1_INT.c **** #if ((CapSense_1_ENABLE == CapSense_1_CSD_EN) || (CapSense_1_ENABLE == CapSense_1_CSD_CSX_EN))
  65:Generated_Source\PSoC6/CapSense_1_INT.c ****     static void CapSense_1_SsCSDPostScan(void);
  66:Generated_Source\PSoC6/CapSense_1_INT.c ****     static void CapSense_1_SsCSDInitNextScan(void);
  67:Generated_Source\PSoC6/CapSense_1_INT.c **** #endif /* ((CapSense_1_ENABLE == CapSense_1_CSD_EN) || (CapSense_1_ENABLE == CapSense_1_CSD_CSX_EN)
  68:Generated_Source\PSoC6/CapSense_1_INT.c **** /** \}
  69:Generated_Source\PSoC6/CapSense_1_INT.c **** * \endcond */
  70:Generated_Source\PSoC6/CapSense_1_INT.c **** 
  71:Generated_Source\PSoC6/CapSense_1_INT.c **** 
  72:Generated_Source\PSoC6/CapSense_1_INT.c **** /**
  73:Generated_Source\PSoC6/CapSense_1_INT.c **** * \cond SECTION_CYSENSE_INTERRUPT
  74:Generated_Source\PSoC6/CapSense_1_INT.c **** * \addtogroup group_cysense_interrupt
  75:Generated_Source\PSoC6/CapSense_1_INT.c **** * \{
  76:Generated_Source\PSoC6/CapSense_1_INT.c **** */
  77:Generated_Source\PSoC6/CapSense_1_INT.c **** 
  78:Generated_Source\PSoC6/CapSense_1_INT.c **** 
  79:Generated_Source\PSoC6/CapSense_1_INT.c **** #if ((CapSense_1_ENABLE == CapSense_1_CSD_EN) || (CapSense_1_ENABLE == CapSense_1_CSD_CSX_EN))
  80:Generated_Source\PSoC6/CapSense_1_INT.c **** 
  81:Generated_Source\PSoC6/CapSense_1_INT.c **** 
  82:Generated_Source\PSoC6/CapSense_1_INT.c ****     /*******************************************************************************
  83:Generated_Source\PSoC6/CapSense_1_INT.c ****     * Function Name: CapSense_1_CSDPostSingleScan
  84:Generated_Source\PSoC6/CapSense_1_INT.c ****     ****************************************************************************//**
  85:Generated_Source\PSoC6/CapSense_1_INT.c ****     *
  86:Generated_Source\PSoC6/CapSense_1_INT.c ****     * \brief
  87:Generated_Source\PSoC6/CapSense_1_INT.c ****     *  This is an internal ISR function for the single-sensor scanning implementation.
  88:Generated_Source\PSoC6/CapSense_1_INT.c ****     *
ARM GAS  C:\Users\enes_\AppData\Local\Temp\ccMgWMPt.s 			page 3


  89:Generated_Source\PSoC6/CapSense_1_INT.c ****     * \details
  90:Generated_Source\PSoC6/CapSense_1_INT.c ****     *  This ISR handler is triggered when the user calls the
  91:Generated_Source\PSoC6/CapSense_1_INT.c ****     *  CapSense_1_CSDScanExt() function.
  92:Generated_Source\PSoC6/CapSense_1_INT.c ****     *
  93:Generated_Source\PSoC6/CapSense_1_INT.c ****     *  The following tasks are performed:
  94:Generated_Source\PSoC6/CapSense_1_INT.c ****     *    1. Check if the raw data is not noisy.
  95:Generated_Source\PSoC6/CapSense_1_INT.c ****     *    2. Read the Counter register and update the data structure with raw data.
  96:Generated_Source\PSoC6/CapSense_1_INT.c ****     *    3. Configure and start the scan for the next frequency if the
  97:Generated_Source\PSoC6/CapSense_1_INT.c ****     *      multi-frequency is enabled.
  98:Generated_Source\PSoC6/CapSense_1_INT.c ****     *    4. Update the Scan Counter.
  99:Generated_Source\PSoC6/CapSense_1_INT.c ****     *    5. Reset the BUSY flag.
 100:Generated_Source\PSoC6/CapSense_1_INT.c ****     *    6. Enable the CSD interrupt.
 101:Generated_Source\PSoC6/CapSense_1_INT.c ****     *
 102:Generated_Source\PSoC6/CapSense_1_INT.c ****     *  The ISR handler changes the scanning for the next frequency
 103:Generated_Source\PSoC6/CapSense_1_INT.c ****     *  channels when multi-frequency scanning is enabled.
 104:Generated_Source\PSoC6/CapSense_1_INT.c ****     *
 105:Generated_Source\PSoC6/CapSense_1_INT.c ****     *  This function has two Macro Callbacks that allow calling the user code
 106:Generated_Source\PSoC6/CapSense_1_INT.c ****     *  from macros specified in Component's generated code. Refer to the
 107:Generated_Source\PSoC6/CapSense_1_INT.c ****     *  \ref group_cysense_macrocallbacks section of the PSoC Creator User Guide
 108:Generated_Source\PSoC6/CapSense_1_INT.c ****     *  for details.
 109:Generated_Source\PSoC6/CapSense_1_INT.c ****     *
 110:Generated_Source\PSoC6/CapSense_1_INT.c ****     *******************************************************************************/
 111:Generated_Source\PSoC6/CapSense_1_INT.c ****     void CapSense_1_CSDPostSingleScan(void)
 112:Generated_Source\PSoC6/CapSense_1_INT.c ****     {
 113:Generated_Source\PSoC6/CapSense_1_INT.c ****         #ifdef CapSense_1_ENTRY_CALLBACK
 114:Generated_Source\PSoC6/CapSense_1_INT.c ****             CapSense_1_EntryCallback();
 115:Generated_Source\PSoC6/CapSense_1_INT.c ****         #endif /* CapSense_1_ENTRY_CALLBACK */
 116:Generated_Source\PSoC6/CapSense_1_INT.c **** 
 117:Generated_Source\PSoC6/CapSense_1_INT.c ****         /* Clear pending interrupt */
 118:Generated_Source\PSoC6/CapSense_1_INT.c ****         CY_SET_REG32(CapSense_1_CSD_INTR_PTR, CapSense_1_CSD_INTR_ALL_MSK);
 119:Generated_Source\PSoC6/CapSense_1_INT.c ****         (void)CY_GET_REG32(CapSense_1_CSD_INTR_PTR);
 120:Generated_Source\PSoC6/CapSense_1_INT.c **** 
 121:Generated_Source\PSoC6/CapSense_1_INT.c ****         #if (CapSense_1_ENABLE == CapSense_1_CSD_NOISE_METRIC_EN)
 122:Generated_Source\PSoC6/CapSense_1_INT.c ****             if ((CapSense_1_CSD_NOISE_METRIC_TH < ((CY_GET_REG32(CapSense_1_CSD_RESULT_VAL1_PTR) &
 123:Generated_Source\PSoC6/CapSense_1_INT.c ****                                                         CapSense_1_CSD_RESULT_VAL1_BAD_CONVS_MSK) >
 124:Generated_Source\PSoC6/CapSense_1_INT.c ****                                                         CapSense_1_CSD_RESULT_VAL1_BAD_CONVS_POS)) 
 125:Generated_Source\PSoC6/CapSense_1_INT.c ****                                                         (0u < CapSense_1_badConversionsNum))
 126:Generated_Source\PSoC6/CapSense_1_INT.c ****             {
 127:Generated_Source\PSoC6/CapSense_1_INT.c ****                 /* Decrement bad conversions number */
 128:Generated_Source\PSoC6/CapSense_1_INT.c ****                 CapSense_1_badConversionsNum--;
 129:Generated_Source\PSoC6/CapSense_1_INT.c **** 
 130:Generated_Source\PSoC6/CapSense_1_INT.c ****                 /* Start the re-scan */
 131:Generated_Source\PSoC6/CapSense_1_INT.c ****                 CY_SET_REG32(CapSense_1_CSD_SEQ_START_PTR, CapSense_1_CSD_SEQ_START_AZ0_SKIP_MSK |
 132:Generated_Source\PSoC6/CapSense_1_INT.c ****                                                              CapSense_1_CSD_SEQ_START_AZ1_SKIP_MSK 
 133:Generated_Source\PSoC6/CapSense_1_INT.c ****                                                              CapSense_1_CSD_SEQ_START_START_MSK);
 134:Generated_Source\PSoC6/CapSense_1_INT.c ****             }
 135:Generated_Source\PSoC6/CapSense_1_INT.c ****             else
 136:Generated_Source\PSoC6/CapSense_1_INT.c ****             {
 137:Generated_Source\PSoC6/CapSense_1_INT.c ****         #endif /* (CapSense_1_ENABLE == CapSense_1_CSD_NOISE_METRIC_EN) */
 138:Generated_Source\PSoC6/CapSense_1_INT.c **** 
 139:Generated_Source\PSoC6/CapSense_1_INT.c ****             CapSense_1_SsCSDPostScan();
 140:Generated_Source\PSoC6/CapSense_1_INT.c **** 
 141:Generated_Source\PSoC6/CapSense_1_INT.c ****             #if (CapSense_1_ENABLE == CapSense_1_MULTI_FREQ_SCAN_EN)
 142:Generated_Source\PSoC6/CapSense_1_INT.c ****                 if (CapSense_1_FREQ_CHANNEL_2 > CapSense_1_scanFreqIndex)
 143:Generated_Source\PSoC6/CapSense_1_INT.c ****                 {
 144:Generated_Source\PSoC6/CapSense_1_INT.c ****                     /* Scan the next channel */
 145:Generated_Source\PSoC6/CapSense_1_INT.c ****                     CapSense_1_SsNextFrequencyScan();
ARM GAS  C:\Users\enes_\AppData\Local\Temp\ccMgWMPt.s 			page 4


 146:Generated_Source\PSoC6/CapSense_1_INT.c ****                 }
 147:Generated_Source\PSoC6/CapSense_1_INT.c ****                 else
 148:Generated_Source\PSoC6/CapSense_1_INT.c ****                 {
 149:Generated_Source\PSoC6/CapSense_1_INT.c ****                     /* All channels are scanned. Reset the frequency scan channel */
 150:Generated_Source\PSoC6/CapSense_1_INT.c ****                     CapSense_1_scanFreqIndex = CapSense_1_FREQ_CHANNEL_0;
 151:Generated_Source\PSoC6/CapSense_1_INT.c ****                     CapSense_1_SsChangeClkFreq(CapSense_1_FREQ_CHANNEL_0);
 152:Generated_Source\PSoC6/CapSense_1_INT.c **** 
 153:Generated_Source\PSoC6/CapSense_1_INT.c ****                     #if (CapSense_1_ENABLE == CapSense_1_BLOCK_OFF_AFTER_SCAN_EN)
 154:Generated_Source\PSoC6/CapSense_1_INT.c ****                         /* Disable HW IP block */
 155:Generated_Source\PSoC6/CapSense_1_INT.c ****                         CY_SET_REG32(CapSense_1_CSD_CONFIG_PTR, CapSense_1_configCsd);
 156:Generated_Source\PSoC6/CapSense_1_INT.c ****                     #endif /* (CapSense_1_ENABLE == CapSense_1_BLOCK_OFF_AFTER_SCAN_EN) */
 157:Generated_Source\PSoC6/CapSense_1_INT.c **** 
 158:Generated_Source\PSoC6/CapSense_1_INT.c ****                     /* Update Scan Counter */
 159:Generated_Source\PSoC6/CapSense_1_INT.c ****                     CapSense_1_dsRam.scanCounter++;
 160:Generated_Source\PSoC6/CapSense_1_INT.c **** 
 161:Generated_Source\PSoC6/CapSense_1_INT.c ****                     /* Sensor is totally scanned. Reset BUSY flag */
 162:Generated_Source\PSoC6/CapSense_1_INT.c ****                     CapSense_1_ClrBusyFlags(CapSense_1_SW_STS_BUSY | CapSense_1_WDGT_SW_STS_BUSY);
 163:Generated_Source\PSoC6/CapSense_1_INT.c ****                 }
 164:Generated_Source\PSoC6/CapSense_1_INT.c ****             #else
 165:Generated_Source\PSoC6/CapSense_1_INT.c ****                 {
 166:Generated_Source\PSoC6/CapSense_1_INT.c ****                     #if (CapSense_1_ENABLE == CapSense_1_BLOCK_OFF_AFTER_SCAN_EN)
 167:Generated_Source\PSoC6/CapSense_1_INT.c ****                         /* Disable HW IP block */
 168:Generated_Source\PSoC6/CapSense_1_INT.c ****                         CY_SET_REG32(CapSense_1_CSD_CONFIG_PTR, CapSense_1_configCsd);
 169:Generated_Source\PSoC6/CapSense_1_INT.c ****                     #endif /* (CapSense_1_ENABLE == CapSense_1_BLOCK_OFF_AFTER_SCAN_EN) */
 170:Generated_Source\PSoC6/CapSense_1_INT.c **** 
 171:Generated_Source\PSoC6/CapSense_1_INT.c ****                     /* Update Scan Counter */
 172:Generated_Source\PSoC6/CapSense_1_INT.c ****                     CapSense_1_dsRam.scanCounter++;
 173:Generated_Source\PSoC6/CapSense_1_INT.c **** 
 174:Generated_Source\PSoC6/CapSense_1_INT.c ****                     /* Sensor is totally scanned. Reset BUSY flag */
 175:Generated_Source\PSoC6/CapSense_1_INT.c ****                     CapSense_1_ClrBusyFlags(CapSense_1_SW_STS_BUSY | CapSense_1_WDGT_SW_STS_BUSY);
 176:Generated_Source\PSoC6/CapSense_1_INT.c ****                 }
 177:Generated_Source\PSoC6/CapSense_1_INT.c ****             #endif /* (CapSense_1_ENABLE == CapSense_1_MULTI_FREQ_SCAN_EN) */
 178:Generated_Source\PSoC6/CapSense_1_INT.c ****     #if (CapSense_1_ENABLE == CapSense_1_CSD_NOISE_METRIC_EN)
 179:Generated_Source\PSoC6/CapSense_1_INT.c ****         }
 180:Generated_Source\PSoC6/CapSense_1_INT.c ****     #endif /* (CapSense_1_ENABLE == CapSense_1_CSD_NOISE_METRIC_EN) */
 181:Generated_Source\PSoC6/CapSense_1_INT.c **** 
 182:Generated_Source\PSoC6/CapSense_1_INT.c ****         #ifdef CapSense_1_EXIT_CALLBACK
 183:Generated_Source\PSoC6/CapSense_1_INT.c ****             CapSense_1_ExitCallback();
 184:Generated_Source\PSoC6/CapSense_1_INT.c ****         #endif /* CapSense_1_EXIT_CALLBACK */
 185:Generated_Source\PSoC6/CapSense_1_INT.c ****     }
 186:Generated_Source\PSoC6/CapSense_1_INT.c **** 
 187:Generated_Source\PSoC6/CapSense_1_INT.c **** 
 188:Generated_Source\PSoC6/CapSense_1_INT.c ****     /*******************************************************************************
 189:Generated_Source\PSoC6/CapSense_1_INT.c ****     * Function Name: CapSense_1_CSDPostMultiScan
 190:Generated_Source\PSoC6/CapSense_1_INT.c ****     ****************************************************************************//**
 191:Generated_Source\PSoC6/CapSense_1_INT.c ****     *
 192:Generated_Source\PSoC6/CapSense_1_INT.c ****     * \brief
 193:Generated_Source\PSoC6/CapSense_1_INT.c ****     *  This is an internal ISR function for the multiple-sensor scanning
 194:Generated_Source\PSoC6/CapSense_1_INT.c ****     *  implementation.
 195:Generated_Source\PSoC6/CapSense_1_INT.c ****     *
 196:Generated_Source\PSoC6/CapSense_1_INT.c ****     * \details
 197:Generated_Source\PSoC6/CapSense_1_INT.c ****     *  This ISR handler is triggered when the user calls the
 198:Generated_Source\PSoC6/CapSense_1_INT.c ****     *  CapSense_1_Scan() or CapSense_1_ScanAllWidgets() APIs.
 199:Generated_Source\PSoC6/CapSense_1_INT.c ****     *
 200:Generated_Source\PSoC6/CapSense_1_INT.c ****     *  The following tasks are performed:
 201:Generated_Source\PSoC6/CapSense_1_INT.c ****     *    1. Disable the CSD interrupt.
 202:Generated_Source\PSoC6/CapSense_1_INT.c ****     *    2. Read the Counter register and update the data structure with raw data.
ARM GAS  C:\Users\enes_\AppData\Local\Temp\ccMgWMPt.s 			page 5


 203:Generated_Source\PSoC6/CapSense_1_INT.c ****     *    3. Connect the Vref buffer to the AMUX bus.
 204:Generated_Source\PSoC6/CapSense_1_INT.c ****     *    4. Disable the CSD block (after the widget has been scanned).
 205:Generated_Source\PSoC6/CapSense_1_INT.c ****     *    5. Update the Scan Counter.
 206:Generated_Source\PSoC6/CapSense_1_INT.c ****     *    6. Reset the BUSY flag.
 207:Generated_Source\PSoC6/CapSense_1_INT.c ****     *    7. Enable the CSD interrupt.
 208:Generated_Source\PSoC6/CapSense_1_INT.c ****     *
 209:Generated_Source\PSoC6/CapSense_1_INT.c ****     *  The ISR handler initializes scanning for the previous sensor when the
 210:Generated_Source\PSoC6/CapSense_1_INT.c ****     *  widget has more than one sensor.
 211:Generated_Source\PSoC6/CapSense_1_INT.c ****     *  The ISR handler initializes scanning for the next widget when the
 212:Generated_Source\PSoC6/CapSense_1_INT.c ****     *  CapSense_1_ScanAllWidgets() APIs are called and the project has
 213:Generated_Source\PSoC6/CapSense_1_INT.c ****     *  more than one widget.
 214:Generated_Source\PSoC6/CapSense_1_INT.c ****     *  The ISR handler changes the IMO and initializes scanning for the next
 215:Generated_Source\PSoC6/CapSense_1_INT.c ****     *  frequency channels when multi-frequency scanning is enabled.
 216:Generated_Source\PSoC6/CapSense_1_INT.c ****     *
 217:Generated_Source\PSoC6/CapSense_1_INT.c ****     *  This function has two Macro Callbacks that allow calling the user
 218:Generated_Source\PSoC6/CapSense_1_INT.c ****     *  code from macros specified in Component's generated code. Refer to the
 219:Generated_Source\PSoC6/CapSense_1_INT.c ****     *  \ref group_cysense_macrocallbacks section of the PSoC Creator User Guide
 220:Generated_Source\PSoC6/CapSense_1_INT.c ****     *  for details.
 221:Generated_Source\PSoC6/CapSense_1_INT.c ****     *
 222:Generated_Source\PSoC6/CapSense_1_INT.c ****     *******************************************************************************/
 223:Generated_Source\PSoC6/CapSense_1_INT.c ****     void CapSense_1_CSDPostMultiScan(void)
 224:Generated_Source\PSoC6/CapSense_1_INT.c ****     {
 225:Generated_Source\PSoC6/CapSense_1_INT.c ****         /* Declare and initialize ptr to sensor IO structure to appropriate address */
 226:Generated_Source\PSoC6/CapSense_1_INT.c ****         CapSense_1_FLASH_IO_STRUCT const *curSnsIOPtr = (CapSense_1_FLASH_IO_STRUCT const *)
 227:Generated_Source\PSoC6/CapSense_1_INT.c ****                                                           CapSense_1_dsFlash.wdgtArray[CapSense_1_w
 228:Generated_Source\PSoC6/CapSense_1_INT.c ****                                                           + CapSense_1_sensorIndex;
 229:Generated_Source\PSoC6/CapSense_1_INT.c **** 
 230:Generated_Source\PSoC6/CapSense_1_INT.c ****         #ifdef CapSense_1_ENTRY_CALLBACK
 231:Generated_Source\PSoC6/CapSense_1_INT.c ****             CapSense_1_EntryCallback();
 232:Generated_Source\PSoC6/CapSense_1_INT.c ****         #endif /* CapSense_1_ENTRY_CALLBACK */
 233:Generated_Source\PSoC6/CapSense_1_INT.c **** 
 234:Generated_Source\PSoC6/CapSense_1_INT.c ****         /* Clear pending interrupt */
 235:Generated_Source\PSoC6/CapSense_1_INT.c ****         CY_SET_REG32(CapSense_1_CSD_INTR_PTR, CapSense_1_CSD_INTR_ALL_MSK);
 236:Generated_Source\PSoC6/CapSense_1_INT.c ****         (void)CY_GET_REG32(CapSense_1_CSD_INTR_PTR);
 237:Generated_Source\PSoC6/CapSense_1_INT.c **** 
 238:Generated_Source\PSoC6/CapSense_1_INT.c ****         #if (CapSense_1_ENABLE == CapSense_1_CSD_NOISE_METRIC_EN)
 239:Generated_Source\PSoC6/CapSense_1_INT.c ****             if ((CapSense_1_CSD_NOISE_METRIC_TH < ((CY_GET_REG32(CapSense_1_CSD_RESULT_VAL1_PTR) &
 240:Generated_Source\PSoC6/CapSense_1_INT.c ****                                                       CapSense_1_CSD_RESULT_VAL1_BAD_CONVS_MSK) >>
 241:Generated_Source\PSoC6/CapSense_1_INT.c ****                                                       CapSense_1_CSD_RESULT_VAL1_BAD_CONVS_POS)) &&
 242:Generated_Source\PSoC6/CapSense_1_INT.c ****                                                       (0u < CapSense_1_badConversionsNum))
 243:Generated_Source\PSoC6/CapSense_1_INT.c ****             {
 244:Generated_Source\PSoC6/CapSense_1_INT.c ****                 /* Decrement bad conversions number */
 245:Generated_Source\PSoC6/CapSense_1_INT.c ****                 CapSense_1_badConversionsNum--;
 246:Generated_Source\PSoC6/CapSense_1_INT.c **** 
 247:Generated_Source\PSoC6/CapSense_1_INT.c ****                 /* Start the re-scan */
 248:Generated_Source\PSoC6/CapSense_1_INT.c ****                 CY_SET_REG32(CapSense_1_CSD_SEQ_START_PTR, CapSense_1_CSD_SEQ_START_AZ0_SKIP_MSK |
 249:Generated_Source\PSoC6/CapSense_1_INT.c ****                                                              CapSense_1_CSD_SEQ_START_AZ1_SKIP_MSK 
 250:Generated_Source\PSoC6/CapSense_1_INT.c ****                                                              CapSense_1_CSD_SEQ_START_START_MSK);
 251:Generated_Source\PSoC6/CapSense_1_INT.c ****             }
 252:Generated_Source\PSoC6/CapSense_1_INT.c ****             else
 253:Generated_Source\PSoC6/CapSense_1_INT.c ****             {
 254:Generated_Source\PSoC6/CapSense_1_INT.c ****         #endif /* (CapSense_1_ENABLE == CapSense_1_CSD_NOISE_METRIC_EN) */
 255:Generated_Source\PSoC6/CapSense_1_INT.c **** 
 256:Generated_Source\PSoC6/CapSense_1_INT.c ****         CapSense_1_SsCSDPostScan();
 257:Generated_Source\PSoC6/CapSense_1_INT.c **** 
 258:Generated_Source\PSoC6/CapSense_1_INT.c ****         /* Disable sensor when all frequency channels are scanned */
 259:Generated_Source\PSoC6/CapSense_1_INT.c ****         #if (CapSense_1_ENABLE == CapSense_1_MULTI_FREQ_SCAN_EN)
ARM GAS  C:\Users\enes_\AppData\Local\Temp\ccMgWMPt.s 			page 6


 260:Generated_Source\PSoC6/CapSense_1_INT.c ****             if (CapSense_1_FREQ_CHANNEL_2 == CapSense_1_scanFreqIndex)
 261:Generated_Source\PSoC6/CapSense_1_INT.c ****         #endif /* (CapSense_1_ENABLE == CapSense_1_MULTI_FREQ_SCAN_EN) */
 262:Generated_Source\PSoC6/CapSense_1_INT.c ****         {
 263:Generated_Source\PSoC6/CapSense_1_INT.c ****             /* Disable sensor */
 264:Generated_Source\PSoC6/CapSense_1_INT.c ****             CapSense_1_CSDDisconnectSns(curSnsIOPtr);
 265:Generated_Source\PSoC6/CapSense_1_INT.c ****         }
 266:Generated_Source\PSoC6/CapSense_1_INT.c **** 
 267:Generated_Source\PSoC6/CapSense_1_INT.c ****         #if (CapSense_1_ENABLE == CapSense_1_MULTI_FREQ_SCAN_EN)
 268:Generated_Source\PSoC6/CapSense_1_INT.c ****             if (CapSense_1_FREQ_CHANNEL_2 > CapSense_1_scanFreqIndex)
 269:Generated_Source\PSoC6/CapSense_1_INT.c ****             {
 270:Generated_Source\PSoC6/CapSense_1_INT.c ****                  /* Scan the next channel */
 271:Generated_Source\PSoC6/CapSense_1_INT.c ****                 CapSense_1_SsNextFrequencyScan();
 272:Generated_Source\PSoC6/CapSense_1_INT.c ****             }
 273:Generated_Source\PSoC6/CapSense_1_INT.c ****             else
 274:Generated_Source\PSoC6/CapSense_1_INT.c ****             {
 275:Generated_Source\PSoC6/CapSense_1_INT.c ****                 /* All channels are scanned. Reset the frequency scan channel */
 276:Generated_Source\PSoC6/CapSense_1_INT.c ****                 CapSense_1_scanFreqIndex = CapSense_1_FREQ_CHANNEL_0;
 277:Generated_Source\PSoC6/CapSense_1_INT.c ****                 CapSense_1_SsChangeClkFreq(CapSense_1_FREQ_CHANNEL_0);
 278:Generated_Source\PSoC6/CapSense_1_INT.c **** 
 279:Generated_Source\PSoC6/CapSense_1_INT.c ****                  /* Scan the next sensor */
 280:Generated_Source\PSoC6/CapSense_1_INT.c ****                 CapSense_1_SsCSDInitNextScan();
 281:Generated_Source\PSoC6/CapSense_1_INT.c ****             }
 282:Generated_Source\PSoC6/CapSense_1_INT.c ****         #else
 283:Generated_Source\PSoC6/CapSense_1_INT.c ****             /* Scan the next sensor */
 284:Generated_Source\PSoC6/CapSense_1_INT.c ****             CapSense_1_SsCSDInitNextScan();
 285:Generated_Source\PSoC6/CapSense_1_INT.c ****         #endif /* (CapSense_1_ENABLE == CapSense_1_MULTI_FREQ_SCAN_EN) */
 286:Generated_Source\PSoC6/CapSense_1_INT.c ****     #if (CapSense_1_ENABLE == CapSense_1_CSD_NOISE_METRIC_EN)
 287:Generated_Source\PSoC6/CapSense_1_INT.c ****         }
 288:Generated_Source\PSoC6/CapSense_1_INT.c ****     #endif /* (CapSense_1_ENABLE == CapSense_1_CSD_NOISE_METRIC_EN) */
 289:Generated_Source\PSoC6/CapSense_1_INT.c **** 
 290:Generated_Source\PSoC6/CapSense_1_INT.c ****     #ifdef CapSense_1_EXIT_CALLBACK
 291:Generated_Source\PSoC6/CapSense_1_INT.c ****         CapSense_1_ExitCallback();
 292:Generated_Source\PSoC6/CapSense_1_INT.c ****     #endif /* CapSense_1_EXIT_CALLBACK */
 293:Generated_Source\PSoC6/CapSense_1_INT.c **** }
 294:Generated_Source\PSoC6/CapSense_1_INT.c **** 
 295:Generated_Source\PSoC6/CapSense_1_INT.c **** 
 296:Generated_Source\PSoC6/CapSense_1_INT.c **** #if (CapSense_1_ENABLE == CapSense_1_CSD_GANGED_SNS_EN)
 297:Generated_Source\PSoC6/CapSense_1_INT.c **** /*******************************************************************************
 298:Generated_Source\PSoC6/CapSense_1_INT.c **** * Function Name: CapSense_1_CSDPostMultiScanGanged
 299:Generated_Source\PSoC6/CapSense_1_INT.c **** ****************************************************************************//**
 300:Generated_Source\PSoC6/CapSense_1_INT.c **** *
 301:Generated_Source\PSoC6/CapSense_1_INT.c **** * \brief
 302:Generated_Source\PSoC6/CapSense_1_INT.c **** *  This is an internal ISR function for the multiple-sensor scanning
 303:Generated_Source\PSoC6/CapSense_1_INT.c **** *  implementation for ganged sensors.
 304:Generated_Source\PSoC6/CapSense_1_INT.c **** *
 305:Generated_Source\PSoC6/CapSense_1_INT.c **** * \details
 306:Generated_Source\PSoC6/CapSense_1_INT.c **** *  This ISR handler is triggered when the user calls the
 307:Generated_Source\PSoC6/CapSense_1_INT.c **** *  CapSense_1_Scan() API for a ganged sensor or the
 308:Generated_Source\PSoC6/CapSense_1_INT.c **** *  CapSense_1_ScanAllWidgets() API in the project with ganged sensors.
 309:Generated_Source\PSoC6/CapSense_1_INT.c **** *
 310:Generated_Source\PSoC6/CapSense_1_INT.c **** *  The following tasks are performed:
 311:Generated_Source\PSoC6/CapSense_1_INT.c **** *    1. Disable the CSD interrupt.
 312:Generated_Source\PSoC6/CapSense_1_INT.c **** *    2. Read the Counter register and update the data structure with raw data.
 313:Generated_Source\PSoC6/CapSense_1_INT.c **** *    3. Connect the Vref buffer to the AMUX bus.
 314:Generated_Source\PSoC6/CapSense_1_INT.c **** *    4. Disable the CSD block (after the widget has been scanned).
 315:Generated_Source\PSoC6/CapSense_1_INT.c **** *    5. Update the Scan Counter.
 316:Generated_Source\PSoC6/CapSense_1_INT.c **** *    6. Reset the BUSY flag.
ARM GAS  C:\Users\enes_\AppData\Local\Temp\ccMgWMPt.s 			page 7


 317:Generated_Source\PSoC6/CapSense_1_INT.c **** *    7. Enable the CSD interrupt.
 318:Generated_Source\PSoC6/CapSense_1_INT.c **** *
 319:Generated_Source\PSoC6/CapSense_1_INT.c **** *  The ISR handler initializes scanning for the previous sensor when the
 320:Generated_Source\PSoC6/CapSense_1_INT.c **** *  widget has more than one sensor.
 321:Generated_Source\PSoC6/CapSense_1_INT.c **** *  The ISR handler initializes scanning for the next widget when the
 322:Generated_Source\PSoC6/CapSense_1_INT.c **** *  CapSense_1_ScanAllWidgets() APIs are called and the project has
 323:Generated_Source\PSoC6/CapSense_1_INT.c **** *  more than one widget.
 324:Generated_Source\PSoC6/CapSense_1_INT.c **** *  The ISR handler changes the IMO and initializes scanning for the next
 325:Generated_Source\PSoC6/CapSense_1_INT.c **** *  frequency channels when multi-frequency scanning is enabled.
 326:Generated_Source\PSoC6/CapSense_1_INT.c **** *
 327:Generated_Source\PSoC6/CapSense_1_INT.c **** *  This function has two Macro Callbacks that allow calling the user
 328:Generated_Source\PSoC6/CapSense_1_INT.c **** *  code from macros specified in Component's generated code. Refer to the
 329:Generated_Source\PSoC6/CapSense_1_INT.c **** *  \ref group_cysense_macrocallbacks section of the PSoC Creator User Guide
 330:Generated_Source\PSoC6/CapSense_1_INT.c **** *  for details.
 331:Generated_Source\PSoC6/CapSense_1_INT.c **** *
 332:Generated_Source\PSoC6/CapSense_1_INT.c **** *******************************************************************************/
 333:Generated_Source\PSoC6/CapSense_1_INT.c **** void CapSense_1_CSDPostMultiScanGanged(void)
 334:Generated_Source\PSoC6/CapSense_1_INT.c **** {
 335:Generated_Source\PSoC6/CapSense_1_INT.c ****     #ifdef CapSense_1_ENTRY_CALLBACK
 336:Generated_Source\PSoC6/CapSense_1_INT.c ****         CapSense_1_EntryCallback();
 337:Generated_Source\PSoC6/CapSense_1_INT.c ****     #endif /* CapSense_1_ENTRY_CALLBACK */
 338:Generated_Source\PSoC6/CapSense_1_INT.c **** 
 339:Generated_Source\PSoC6/CapSense_1_INT.c ****         /* Clear pending interrupt */
 340:Generated_Source\PSoC6/CapSense_1_INT.c ****     CY_SET_REG32(CapSense_1_CSD_INTR_PTR, CapSense_1_CSD_INTR_ALL_MSK);
 341:Generated_Source\PSoC6/CapSense_1_INT.c ****     (void)CY_GET_REG32(CapSense_1_CSD_INTR_PTR);
 342:Generated_Source\PSoC6/CapSense_1_INT.c **** 
 343:Generated_Source\PSoC6/CapSense_1_INT.c ****     #if (CapSense_1_ENABLE == CapSense_1_CSD_NOISE_METRIC_EN)
 344:Generated_Source\PSoC6/CapSense_1_INT.c ****         if ((CapSense_1_CSD_NOISE_METRIC_TH < ((CY_GET_REG32(CapSense_1_CSD_RESULT_VAL1_PTR) &
 345:Generated_Source\PSoC6/CapSense_1_INT.c ****                                                   CapSense_1_CSD_RESULT_VAL1_BAD_CONVS_MSK) >>
 346:Generated_Source\PSoC6/CapSense_1_INT.c ****                                                   CapSense_1_CSD_RESULT_VAL1_BAD_CONVS_POS)) &&
 347:Generated_Source\PSoC6/CapSense_1_INT.c ****                                                   (0u < CapSense_1_badConversionsNum))
 348:Generated_Source\PSoC6/CapSense_1_INT.c ****         {
 349:Generated_Source\PSoC6/CapSense_1_INT.c ****             /* Decrement bad conversions number */
 350:Generated_Source\PSoC6/CapSense_1_INT.c ****             CapSense_1_badConversionsNum--;
 351:Generated_Source\PSoC6/CapSense_1_INT.c **** 
 352:Generated_Source\PSoC6/CapSense_1_INT.c ****             /* Start the re-scan */
 353:Generated_Source\PSoC6/CapSense_1_INT.c ****             CY_SET_REG32(CapSense_1_CSD_SEQ_START_PTR, CapSense_1_CSD_SEQ_START_AZ0_SKIP_MSK |
 354:Generated_Source\PSoC6/CapSense_1_INT.c ****                                                          CapSense_1_CSD_SEQ_START_AZ1_SKIP_MSK |
 355:Generated_Source\PSoC6/CapSense_1_INT.c ****                                                          CapSense_1_CSD_SEQ_START_START_MSK);
 356:Generated_Source\PSoC6/CapSense_1_INT.c ****         }
 357:Generated_Source\PSoC6/CapSense_1_INT.c ****         else
 358:Generated_Source\PSoC6/CapSense_1_INT.c ****         {
 359:Generated_Source\PSoC6/CapSense_1_INT.c ****     #endif /* (CapSense_1_ENABLE == CapSense_1_CSD_NOISE_METRIC_EN) */
 360:Generated_Source\PSoC6/CapSense_1_INT.c **** 
 361:Generated_Source\PSoC6/CapSense_1_INT.c ****         CapSense_1_SsCSDPostScan();
 362:Generated_Source\PSoC6/CapSense_1_INT.c **** 
 363:Generated_Source\PSoC6/CapSense_1_INT.c ****         #if (CapSense_1_ENABLE == CapSense_1_MULTI_FREQ_SCAN_EN)
 364:Generated_Source\PSoC6/CapSense_1_INT.c ****             if (CapSense_1_FREQ_CHANNEL_2 == CapSense_1_scanFreqIndex)
 365:Generated_Source\PSoC6/CapSense_1_INT.c ****         #endif /* (CapSense_1_ENABLE == CapSense_1_MULTI_FREQ_SCAN_EN) */
 366:Generated_Source\PSoC6/CapSense_1_INT.c ****         {
 367:Generated_Source\PSoC6/CapSense_1_INT.c ****             CapSense_1_SsCSDDisconnectSnsExt((uint32)CapSense_1_widgetIndex, (uint32)CapSense_1_sen
 368:Generated_Source\PSoC6/CapSense_1_INT.c ****         }
 369:Generated_Source\PSoC6/CapSense_1_INT.c **** 
 370:Generated_Source\PSoC6/CapSense_1_INT.c ****         #if (CapSense_1_ENABLE == CapSense_1_MULTI_FREQ_SCAN_EN)
 371:Generated_Source\PSoC6/CapSense_1_INT.c ****             if (CapSense_1_FREQ_CHANNEL_2 > CapSense_1_scanFreqIndex)
 372:Generated_Source\PSoC6/CapSense_1_INT.c ****             {
 373:Generated_Source\PSoC6/CapSense_1_INT.c ****                  /* Scan the next channel */
ARM GAS  C:\Users\enes_\AppData\Local\Temp\ccMgWMPt.s 			page 8


 374:Generated_Source\PSoC6/CapSense_1_INT.c ****                 CapSense_1_SsNextFrequencyScan();
 375:Generated_Source\PSoC6/CapSense_1_INT.c ****             }
 376:Generated_Source\PSoC6/CapSense_1_INT.c ****             else
 377:Generated_Source\PSoC6/CapSense_1_INT.c ****             {
 378:Generated_Source\PSoC6/CapSense_1_INT.c ****                 /* All channels are scanned. Reset the frequency scan channel */
 379:Generated_Source\PSoC6/CapSense_1_INT.c ****                 CapSense_1_scanFreqIndex = CapSense_1_FREQ_CHANNEL_0;
 380:Generated_Source\PSoC6/CapSense_1_INT.c ****                 CapSense_1_SsChangeClkFreq(CapSense_1_FREQ_CHANNEL_0);
 381:Generated_Source\PSoC6/CapSense_1_INT.c **** 
 382:Generated_Source\PSoC6/CapSense_1_INT.c ****                  /* Scan the next sensor */
 383:Generated_Source\PSoC6/CapSense_1_INT.c ****                 CapSense_1_SsCSDInitNextScan();
 384:Generated_Source\PSoC6/CapSense_1_INT.c ****             }
 385:Generated_Source\PSoC6/CapSense_1_INT.c ****         #else
 386:Generated_Source\PSoC6/CapSense_1_INT.c ****              /* Scan the next sensor */
 387:Generated_Source\PSoC6/CapSense_1_INT.c ****             CapSense_1_SsCSDInitNextScan();
 388:Generated_Source\PSoC6/CapSense_1_INT.c ****         #endif /* (CapSense_1_ENABLE == CapSense_1_MULTI_FREQ_SCAN_EN) */
 389:Generated_Source\PSoC6/CapSense_1_INT.c ****     #if (CapSense_1_ENABLE == CapSense_1_CSD_NOISE_METRIC_EN)
 390:Generated_Source\PSoC6/CapSense_1_INT.c ****         }
 391:Generated_Source\PSoC6/CapSense_1_INT.c ****     #endif /* (CapSense_1_ENABLE == CapSense_1_CSD_NOISE_METRIC_EN) */
 392:Generated_Source\PSoC6/CapSense_1_INT.c **** 
 393:Generated_Source\PSoC6/CapSense_1_INT.c ****     #ifdef CapSense_1_EXIT_CALLBACK
 394:Generated_Source\PSoC6/CapSense_1_INT.c ****         CapSense_1_ExitCallback();
 395:Generated_Source\PSoC6/CapSense_1_INT.c ****     #endif /* CapSense_1_EXIT_CALLBACK */
 396:Generated_Source\PSoC6/CapSense_1_INT.c **** 
 397:Generated_Source\PSoC6/CapSense_1_INT.c ****     (void)CY_GET_REG32(CapSense_1_CSD_INTR_PTR);
 398:Generated_Source\PSoC6/CapSense_1_INT.c **** }
 399:Generated_Source\PSoC6/CapSense_1_INT.c **** #endif /* (CapSense_1_ENABLE == CapSense_1_CSD_GANGED_SNS_EN) */
 400:Generated_Source\PSoC6/CapSense_1_INT.c **** 
 401:Generated_Source\PSoC6/CapSense_1_INT.c **** 
 402:Generated_Source\PSoC6/CapSense_1_INT.c **** #endif /* ((CapSense_1_ENABLE == CapSense_1_CSD_EN) || (CapSense_1_ENABLE == CapSense_1_CSD_CSX_EN)
 403:Generated_Source\PSoC6/CapSense_1_INT.c **** 
 404:Generated_Source\PSoC6/CapSense_1_INT.c **** /** \}
 405:Generated_Source\PSoC6/CapSense_1_INT.c ****  * \endcond */
 406:Generated_Source\PSoC6/CapSense_1_INT.c **** 
 407:Generated_Source\PSoC6/CapSense_1_INT.c **** 
 408:Generated_Source\PSoC6/CapSense_1_INT.c **** #if ((CapSense_1_ENABLE == CapSense_1_CSD_EN) || (CapSense_1_ENABLE == CapSense_1_CSD_CSX_EN))
 409:Generated_Source\PSoC6/CapSense_1_INT.c **** 
 410:Generated_Source\PSoC6/CapSense_1_INT.c **** /*******************************************************************************
 411:Generated_Source\PSoC6/CapSense_1_INT.c **** * Function Name: CapSense_1_SsCSDPostScan
 412:Generated_Source\PSoC6/CapSense_1_INT.c **** ****************************************************************************//**
 413:Generated_Source\PSoC6/CapSense_1_INT.c **** *
 414:Generated_Source\PSoC6/CapSense_1_INT.c **** * \brief
 415:Generated_Source\PSoC6/CapSense_1_INT.c **** *   This function reads rawdata and releases required HW resources after scan.
 416:Generated_Source\PSoC6/CapSense_1_INT.c **** *
 417:Generated_Source\PSoC6/CapSense_1_INT.c **** * \details
 418:Generated_Source\PSoC6/CapSense_1_INT.c **** *   This function performs following tasks after scan:
 419:Generated_Source\PSoC6/CapSense_1_INT.c **** *   - Reads SlotResult from Raw Counter;
 420:Generated_Source\PSoC6/CapSense_1_INT.c **** *   - Inits bad Conversions number;
 421:Generated_Source\PSoC6/CapSense_1_INT.c **** *   - Disconnects Vrefhi from AMUBUF positive input;
 422:Generated_Source\PSoC6/CapSense_1_INT.c **** *   - Disconnects AMUBUF output from CSDBUSB with sych PHI2+HSCMP;
 423:Generated_Source\PSoC6/CapSense_1_INT.c **** *   - Opens HCBV and HCBG switches.
 424:Generated_Source\PSoC6/CapSense_1_INT.c **** *
 425:Generated_Source\PSoC6/CapSense_1_INT.c **** *******************************************************************************/
 426:Generated_Source\PSoC6/CapSense_1_INT.c **** static void CapSense_1_SsCSDPostScan(void)
 427:Generated_Source\PSoC6/CapSense_1_INT.c **** {
  27              		.loc 1 427 0
  28              		.cfi_startproc
  29              		@ args = 0, pretend = 0, frame = 0
ARM GAS  C:\Users\enes_\AppData\Local\Temp\ccMgWMPt.s 			page 9


  30              		@ frame_needed = 0, uses_anonymous_args = 0
  31              		@ link register save eliminated.
 428:Generated_Source\PSoC6/CapSense_1_INT.c ****     uint32 tmpRawData;
 429:Generated_Source\PSoC6/CapSense_1_INT.c ****     uint32 tmpMaxCount;
 430:Generated_Source\PSoC6/CapSense_1_INT.c ****     CapSense_1_RAM_WD_BASE_STRUCT const *ptrWdgt = (CapSense_1_RAM_WD_BASE_STRUCT *)
 431:Generated_Source\PSoC6/CapSense_1_INT.c ****                                         CapSense_1_dsFlash.wdgtArray[CapSense_1_widgetIndex].ptr2Wd
  32              		.loc 1 431 0
  33 0000 0F4B     		ldr	r3, .L4
  34 0002 1B78     		ldrb	r3, [r3]
 430:Generated_Source\PSoC6/CapSense_1_INT.c ****                                         CapSense_1_dsFlash.wdgtArray[CapSense_1_widgetIndex].ptr2Wd
  35              		.loc 1 430 0
  36 0004 2C22     		movs	r2, #44
  37 0006 5343     		muls	r3, r2
  38 0008 0E4A     		ldr	r2, .L4+4
  39 000a D318     		adds	r3, r2, r3
  40 000c 5B68     		ldr	r3, [r3, #4]
  41              	.LVL0:
 432:Generated_Source\PSoC6/CapSense_1_INT.c **** 
 433:Generated_Source\PSoC6/CapSense_1_INT.c ****     /* Read SlotResult from Raw Counter */
 434:Generated_Source\PSoC6/CapSense_1_INT.c ****     tmpRawData = CapSense_1_CSD_RESULT_VAL1_REG & CapSense_1_CSD_RESULT_VAL1_VALUE_MSK;
  42              		.loc 1 434 0
  43 000e D022     		movs	r2, #208
  44 0010 0D49     		ldr	r1, .L4+8
  45 0012 8958     		ldr	r1, [r1, r2]
  46 0014 0A04     		lsls	r2, r1, #16
  47 0016 120C     		lsrs	r2, r2, #16
  48              	.LVL1:
 435:Generated_Source\PSoC6/CapSense_1_INT.c **** 
 436:Generated_Source\PSoC6/CapSense_1_INT.c ****     tmpMaxCount = ((1uL << ptrWdgt->resolution) - 1uL);
  49              		.loc 1 436 0
  50 0018 1888     		ldrh	r0, [r3]
  51 001a 0123     		movs	r3, #1
  52              	.LVL2:
  53 001c 8340     		lsls	r3, r3, r0
  54 001e 013B     		subs	r3, r3, #1
  55              	.LVL3:
 437:Generated_Source\PSoC6/CapSense_1_INT.c ****     if(tmpRawData < tmpMaxCount)
  56              		.loc 1 437 0
  57 0020 9A42     		cmp	r2, r3
  58 0022 06D2     		bcs	.L2
 438:Generated_Source\PSoC6/CapSense_1_INT.c ****     {
 439:Generated_Source\PSoC6/CapSense_1_INT.c ****         CapSense_1_curRamSnsPtr->raw[CapSense_1_scanFreqIndex] = CY_LO16(tmpRawData);
  59              		.loc 1 439 0
  60 0024 094B     		ldr	r3, .L4+12
  61              	.LVL4:
  62 0026 1A68     		ldr	r2, [r3]
  63              	.LVL5:
  64 0028 094B     		ldr	r3, .L4+16
  65 002a 1B78     		ldrb	r3, [r3]
  66 002c 5B00     		lsls	r3, r3, #1
  67 002e D152     		strh	r1, [r2, r3]
  68 0030 05E0     		b	.L1
  69              	.LVL6:
  70              	.L2:
 440:Generated_Source\PSoC6/CapSense_1_INT.c ****     }
 441:Generated_Source\PSoC6/CapSense_1_INT.c ****     else
 442:Generated_Source\PSoC6/CapSense_1_INT.c ****     {
ARM GAS  C:\Users\enes_\AppData\Local\Temp\ccMgWMPt.s 			page 10


 443:Generated_Source\PSoC6/CapSense_1_INT.c ****         CapSense_1_curRamSnsPtr->raw[CapSense_1_scanFreqIndex] = CY_LO16(tmpMaxCount);
  71              		.loc 1 443 0
  72 0032 064A     		ldr	r2, .L4+12
  73              	.LVL7:
  74 0034 1168     		ldr	r1, [r2]
  75              	.LVL8:
  76 0036 064A     		ldr	r2, .L4+16
  77 0038 1278     		ldrb	r2, [r2]
  78 003a 5200     		lsls	r2, r2, #1
  79 003c 8B52     		strh	r3, [r1, r2]
  80              	.LVL9:
  81              	.L1:
 444:Generated_Source\PSoC6/CapSense_1_INT.c ****     }
 445:Generated_Source\PSoC6/CapSense_1_INT.c **** 
 446:Generated_Source\PSoC6/CapSense_1_INT.c ****     #if (CapSense_1_ENABLE == CapSense_1_CSD_NOISE_METRIC_EN)
 447:Generated_Source\PSoC6/CapSense_1_INT.c ****         /* Init bad Conversions number */
 448:Generated_Source\PSoC6/CapSense_1_INT.c ****         CapSense_1_badConversionsNum = CapSense_1_BAD_CONVERSIONS_NUM;
 449:Generated_Source\PSoC6/CapSense_1_INT.c ****     #endif /* (CapSense_1_ENABLE == CapSense_1_CSD_NOISE_METRIC_EN) */
 450:Generated_Source\PSoC6/CapSense_1_INT.c **** 
 451:Generated_Source\PSoC6/CapSense_1_INT.c ****     #if (CapSense_1_ENABLE == CapSense_1_CSD_SHIELD_EN)
 452:Generated_Source\PSoC6/CapSense_1_INT.c ****         /* Open HCBV and HCBG switches */
 453:Generated_Source\PSoC6/CapSense_1_INT.c ****         CY_SET_REG32(CapSense_1_CSD_SW_SHIELD_SEL_PTR, CapSense_1_CSD_SW_SHIELD_SEL_SW_HCBV_STATIC_
 454:Generated_Source\PSoC6/CapSense_1_INT.c ****                                                          CapSense_1_CSD_SW_SHIELD_SEL_SW_HCBG_STATI
 455:Generated_Source\PSoC6/CapSense_1_INT.c ****     #endif /* (CapSense_1_ENABLE == CapSense_1_CSD_SHIELD_EN) */
 456:Generated_Source\PSoC6/CapSense_1_INT.c **** }
  82              		.loc 1 456 0
  83              		@ sp needed
  84 003e 7047     		bx	lr
  85              	.L5:
  86              		.align	2
  87              	.L4:
  88 0040 00000000 		.word	CapSense_1_widgetIndex
  89 0044 00000000 		.word	CapSense_1_dsFlash
  90 0048 00003640 		.word	1077280768
  91 004c 00000000 		.word	CapSense_1_curRamSnsPtr
  92 0050 00000000 		.word	CapSense_1_scanFreqIndex
  93              		.cfi_endproc
  94              	.LFE179:
  95              		.size	CapSense_1_SsCSDPostScan, .-CapSense_1_SsCSDPostScan
  96              		.section	.text.CapSense_1_SsCSDInitNextScan,"ax",%progbits
  97              		.align	2
  98              		.code	16
  99              		.thumb_func
 100              		.type	CapSense_1_SsCSDInitNextScan, %function
 101              	CapSense_1_SsCSDInitNextScan:
 102              	.LFB180:
 457:Generated_Source\PSoC6/CapSense_1_INT.c **** 
 458:Generated_Source\PSoC6/CapSense_1_INT.c **** 
 459:Generated_Source\PSoC6/CapSense_1_INT.c **** /*******************************************************************************
 460:Generated_Source\PSoC6/CapSense_1_INT.c **** * Function Name: CapSense_1_SsCSDInitNextScan
 461:Generated_Source\PSoC6/CapSense_1_INT.c **** ****************************************************************************//**
 462:Generated_Source\PSoC6/CapSense_1_INT.c **** *
 463:Generated_Source\PSoC6/CapSense_1_INT.c **** * \brief
 464:Generated_Source\PSoC6/CapSense_1_INT.c **** *   This function initializes the next sensor scan.
 465:Generated_Source\PSoC6/CapSense_1_INT.c **** *
 466:Generated_Source\PSoC6/CapSense_1_INT.c **** * \details
 467:Generated_Source\PSoC6/CapSense_1_INT.c **** *   The function increments the sensor index, updates sense clock for matrix
ARM GAS  C:\Users\enes_\AppData\Local\Temp\ccMgWMPt.s 			page 11


 468:Generated_Source\PSoC6/CapSense_1_INT.c **** *   or touchpad widgets only, sets up Compensation IDAC, enables the sensor and
 469:Generated_Source\PSoC6/CapSense_1_INT.c **** *   scans it. When all the sensors are scanned it continues to set up the next widget
 470:Generated_Source\PSoC6/CapSense_1_INT.c **** *   until all the widgets are scanned. The CSD block is disabled when all the widgets are
 471:Generated_Source\PSoC6/CapSense_1_INT.c **** *   scanned.
 472:Generated_Source\PSoC6/CapSense_1_INT.c **** *
 473:Generated_Source\PSoC6/CapSense_1_INT.c **** *******************************************************************************/
 474:Generated_Source\PSoC6/CapSense_1_INT.c **** static void CapSense_1_SsCSDInitNextScan(void)
 475:Generated_Source\PSoC6/CapSense_1_INT.c **** {
 103              		.loc 1 475 0
 104              		.cfi_startproc
 105              		@ args = 0, pretend = 0, frame = 0
 106              		@ frame_needed = 0, uses_anonymous_args = 0
 107 0000 70B5     		push	{r4, r5, r6, lr}
 108              		.cfi_def_cfa_offset 16
 109              		.cfi_offset 4, -16
 110              		.cfi_offset 5, -12
 111              		.cfi_offset 6, -8
 112              		.cfi_offset 14, -4
 476:Generated_Source\PSoC6/CapSense_1_INT.c ****     /* Declare and initialize ptr to widget and sensor structures to appropriate address */
 477:Generated_Source\PSoC6/CapSense_1_INT.c ****     #if (((CapSense_1_ENABLE == CapSense_1_CSD_IDAC_COMP_EN) || \
 478:Generated_Source\PSoC6/CapSense_1_INT.c ****             (CapSense_1_CSD_MATRIX_WIDGET_EN || CapSense_1_CSD_TOUCHPAD_WIDGET_EN)) || \
 479:Generated_Source\PSoC6/CapSense_1_INT.c ****             (((CapSense_1_DISABLE == CapSense_1_CSD_COMMON_SNS_CLK_EN) && \
 480:Generated_Source\PSoC6/CapSense_1_INT.c ****             (CapSense_1_CSD_MATRIX_WIDGET_EN || CapSense_1_CSD_TOUCHPAD_WIDGET_EN))))
 481:Generated_Source\PSoC6/CapSense_1_INT.c ****         CapSense_1_RAM_WD_BASE_STRUCT *ptrWdgt = (CapSense_1_RAM_WD_BASE_STRUCT *)
 482:Generated_Source\PSoC6/CapSense_1_INT.c ****             CapSense_1_dsFlash.wdgtArray[CapSense_1_widgetIndex].ptr2WdgtRam;
 113              		.loc 1 482 0
 114 0002 224C     		ldr	r4, .L10
 115 0004 2278     		ldrb	r2, [r4]
 481:Generated_Source\PSoC6/CapSense_1_INT.c ****             CapSense_1_dsFlash.wdgtArray[CapSense_1_widgetIndex].ptr2WdgtRam;
 116              		.loc 1 481 0
 117 0006 2249     		ldr	r1, .L10+4
 118 0008 2C23     		movs	r3, #44
 119 000a 5A43     		muls	r2, r3
 120 000c 8A18     		adds	r2, r1, r2
 121 000e 5068     		ldr	r0, [r2, #4]
 122              	.LVL10:
 483:Generated_Source\PSoC6/CapSense_1_INT.c ****     #endif
 484:Generated_Source\PSoC6/CapSense_1_INT.c **** 
 485:Generated_Source\PSoC6/CapSense_1_INT.c ****     /* Check if all the sensors are scanned in widget */
 486:Generated_Source\PSoC6/CapSense_1_INT.c ****     if (((uint8)CapSense_1_dsFlash.wdgtArray[(CapSense_1_widgetIndex)].totalNumSns - 1u) > CapSense
 123              		.loc 1 486 0
 124 0010 2278     		ldrb	r2, [r4]
 125 0012 5343     		muls	r3, r2
 126 0014 CB18     		adds	r3, r1, r3
 127 0016 1A7E     		ldrb	r2, [r3, #24]
 128 0018 013A     		subs	r2, r2, #1
 129 001a 1E4B     		ldr	r3, .L10+8
 130 001c 1B78     		ldrb	r3, [r3]
 131 001e DBB2     		uxtb	r3, r3
 132 0020 9A42     		cmp	r2, r3
 133 0022 1DD9     		bls	.L7
 487:Generated_Source\PSoC6/CapSense_1_INT.c ****     {
 488:Generated_Source\PSoC6/CapSense_1_INT.c ****         /* Increment sensor index to configure next sensor in widget */
 489:Generated_Source\PSoC6/CapSense_1_INT.c ****         CapSense_1_sensorIndex++;
 134              		.loc 1 489 0
 135 0024 1B4C     		ldr	r4, .L10+8
 136 0026 2378     		ldrb	r3, [r4]
ARM GAS  C:\Users\enes_\AppData\Local\Temp\ccMgWMPt.s 			page 12


 137 0028 0133     		adds	r3, r3, #1
 138 002a DBB2     		uxtb	r3, r3
 139 002c 2370     		strb	r3, [r4]
 490:Generated_Source\PSoC6/CapSense_1_INT.c **** 
 491:Generated_Source\PSoC6/CapSense_1_INT.c ****         /* Update global pointer to CapSense_1_RAM_SNS_STRUCT to current sensor */
 492:Generated_Source\PSoC6/CapSense_1_INT.c ****         CapSense_1_curRamSnsPtr = (CapSense_1_RAM_SNS_STRUCT *)
 140              		.loc 1 492 0
 141 002e 174D     		ldr	r5, .L10
 142 0030 2B78     		ldrb	r3, [r5]
 493:Generated_Source\PSoC6/CapSense_1_INT.c ****                                                   CapSense_1_dsFlash.wdgtArray[CapSense_1_widgetInd
 143              		.loc 1 493 0
 144 0032 2C22     		movs	r2, #44
 145 0034 5343     		muls	r3, r2
 146 0036 CB18     		adds	r3, r1, r3
 147 0038 9968     		ldr	r1, [r3, #8]
 494:Generated_Source\PSoC6/CapSense_1_INT.c ****                                                   + CapSense_1_sensorIndex;
 148              		.loc 1 494 0
 149 003a 2378     		ldrb	r3, [r4]
 150 003c DBB2     		uxtb	r3, r3
 151 003e 9A00     		lsls	r2, r3, #2
 152 0040 D318     		adds	r3, r2, r3
 153 0042 5A00     		lsls	r2, r3, #1
 154 0044 8A18     		adds	r2, r1, r2
 492:Generated_Source\PSoC6/CapSense_1_INT.c ****                                                   CapSense_1_dsFlash.wdgtArray[CapSense_1_widgetInd
 155              		.loc 1 492 0
 156 0046 144B     		ldr	r3, .L10+12
 157 0048 1A60     		str	r2, [r3]
 495:Generated_Source\PSoC6/CapSense_1_INT.c **** 
 496:Generated_Source\PSoC6/CapSense_1_INT.c ****         /* Configure clock divider to row or column */
 497:Generated_Source\PSoC6/CapSense_1_INT.c ****         #if ((CapSense_1_DISABLE == CapSense_1_CSD_COMMON_SNS_CLK_EN) && \
 498:Generated_Source\PSoC6/CapSense_1_INT.c ****              (CapSense_1_CSD_MATRIX_WIDGET_EN || CapSense_1_CSD_TOUCHPAD_WIDGET_EN))
 499:Generated_Source\PSoC6/CapSense_1_INT.c ****              CapSense_1_SsCSDConfigClock();
 500:Generated_Source\PSoC6/CapSense_1_INT.c **** 
 501:Generated_Source\PSoC6/CapSense_1_INT.c ****              /* Set up scanning resolution */
 502:Generated_Source\PSoC6/CapSense_1_INT.c ****              CapSense_1_SsCSDCalculateScanDuration(ptrWdgt);
 503:Generated_Source\PSoC6/CapSense_1_INT.c ****         #endif /* ((CapSense_1_DISABLE == CapSense_1_CSD_COMMON_SNS_CLK_EN) && \
 504:Generated_Source\PSoC6/CapSense_1_INT.c ****                    (CapSense_1_CSD_MATRIX_WIDGET_EN || CapSense_1_CSD_TOUCHPAD_WIDGET_EN))) */
 505:Generated_Source\PSoC6/CapSense_1_INT.c **** 
 506:Generated_Source\PSoC6/CapSense_1_INT.c ****         /* Setup Compensation IDAC for next sensor in widget */
 507:Generated_Source\PSoC6/CapSense_1_INT.c ****         #if ((CapSense_1_ENABLE == CapSense_1_CSD_IDAC_COMP_EN) || \
 508:Generated_Source\PSoC6/CapSense_1_INT.c ****              (CapSense_1_CSD_MATRIX_WIDGET_EN || CapSense_1_CSD_TOUCHPAD_WIDGET_EN))
 509:Generated_Source\PSoC6/CapSense_1_INT.c ****             CapSense_1_SsCSDSetUpIdacs(ptrWdgt);
 158              		.loc 1 509 0
 159 004a FFF7FEFF 		bl	CapSense_1_SsCSDSetUpIdacs
 160              	.LVL11:
 510:Generated_Source\PSoC6/CapSense_1_INT.c ****         #endif /* ((CapSense_1_ENABLE == CapSense_1_CSD_IDAC_COMP_EN) || \
 511:Generated_Source\PSoC6/CapSense_1_INT.c ****              (CapSense_1_CSD_MATRIX_WIDGET_EN || CapSense_1_CSD_TOUCHPAD_WIDGET_EN)) */
 512:Generated_Source\PSoC6/CapSense_1_INT.c **** 
 513:Generated_Source\PSoC6/CapSense_1_INT.c ****         /* Enable sensor */
 514:Generated_Source\PSoC6/CapSense_1_INT.c ****         CapSense_1_SsCSDConnectSensorExt((uint32)CapSense_1_widgetIndex, (uint32)CapSense_1_sensorI
 161              		.loc 1 514 0
 162 004e 2878     		ldrb	r0, [r5]
 163 0050 C0B2     		uxtb	r0, r0
 164 0052 2178     		ldrb	r1, [r4]
 165 0054 C9B2     		uxtb	r1, r1
 166 0056 FFF7FEFF 		bl	CapSense_1_SsCSDConnectSensorExt
 167              	.LVL12:
ARM GAS  C:\Users\enes_\AppData\Local\Temp\ccMgWMPt.s 			page 13


 515:Generated_Source\PSoC6/CapSense_1_INT.c **** 
 516:Generated_Source\PSoC6/CapSense_1_INT.c ****         /* Proceed scanning */
 517:Generated_Source\PSoC6/CapSense_1_INT.c ****         CapSense_1_SsCSDStartSample();
 168              		.loc 1 517 0
 169 005a FFF7FEFF 		bl	CapSense_1_SsCSDStartSample
 170              	.LVL13:
 171 005e 14E0     		b	.L6
 172              	.LVL14:
 173              	.L7:
 518:Generated_Source\PSoC6/CapSense_1_INT.c ****     }
 519:Generated_Source\PSoC6/CapSense_1_INT.c ****     /* Call scan next widget API if requested, if not, complete the scan */
 520:Generated_Source\PSoC6/CapSense_1_INT.c ****     else
 521:Generated_Source\PSoC6/CapSense_1_INT.c ****     {
 522:Generated_Source\PSoC6/CapSense_1_INT.c ****         CapSense_1_sensorIndex = 0u;
 174              		.loc 1 522 0
 175 0060 0022     		movs	r2, #0
 176 0062 0C4B     		ldr	r3, .L10+8
 177 0064 1A70     		strb	r2, [r3]
 523:Generated_Source\PSoC6/CapSense_1_INT.c **** 
 524:Generated_Source\PSoC6/CapSense_1_INT.c ****         /* Current widget is totally scanned. Reset WIDGET BUSY flag */
 525:Generated_Source\PSoC6/CapSense_1_INT.c ****         CapSense_1_ClrBusyFlags(CapSense_1_WDGT_SW_STS_BUSY);
 178              		.loc 1 525 0
 179 0066 8020     		movs	r0, #128
 180              	.LVL15:
 181 0068 4002     		lsls	r0, r0, #9
 182 006a FFF7FEFF 		bl	CapSense_1_ClrBusyFlags
 183              	.LVL16:
 526:Generated_Source\PSoC6/CapSense_1_INT.c **** 
 527:Generated_Source\PSoC6/CapSense_1_INT.c ****         /* Check if all the widgets have been scanned */
 528:Generated_Source\PSoC6/CapSense_1_INT.c ****         if (CapSense_1_ENABLE == CapSense_1_requestScanAllWidget)
 184              		.loc 1 528 0
 185 006e 0B4B     		ldr	r3, .L10+16
 186 0070 1B78     		ldrb	r3, [r3]
 187 0072 012B     		cmp	r3, #1
 188 0074 02D1     		bne	.L9
 529:Generated_Source\PSoC6/CapSense_1_INT.c ****         {
 530:Generated_Source\PSoC6/CapSense_1_INT.c ****             /* Configure and begin scanning next widget */
 531:Generated_Source\PSoC6/CapSense_1_INT.c ****             CapSense_1_SsPostAllWidgetsScan();
 189              		.loc 1 531 0
 190 0076 FFF7FEFF 		bl	CapSense_1_SsPostAllWidgetsScan
 191              	.LVL17:
 192 007a 06E0     		b	.L6
 193              	.L9:
 532:Generated_Source\PSoC6/CapSense_1_INT.c ****         }
 533:Generated_Source\PSoC6/CapSense_1_INT.c ****         else
 534:Generated_Source\PSoC6/CapSense_1_INT.c ****         {
 535:Generated_Source\PSoC6/CapSense_1_INT.c ****             #if (CapSense_1_ENABLE == CapSense_1_BLOCK_OFF_AFTER_SCAN_EN)
 536:Generated_Source\PSoC6/CapSense_1_INT.c ****                 /* Disable the CSD block */
 537:Generated_Source\PSoC6/CapSense_1_INT.c ****                 CY_SET_REG32(CapSense_1_CSD_CONFIG_PTR, CapSense_1_configCsd);
 538:Generated_Source\PSoC6/CapSense_1_INT.c ****             #endif /* (CapSense_1_ENABLE == CapSense_1_BLOCK_OFF_AFTER_SCAN_EN) */
 539:Generated_Source\PSoC6/CapSense_1_INT.c **** 
 540:Generated_Source\PSoC6/CapSense_1_INT.c ****             /* all the widgets are totally scanned. Reset BUSY flag */
 541:Generated_Source\PSoC6/CapSense_1_INT.c ****             CapSense_1_ClrBusyFlags(CapSense_1_SW_STS_BUSY);
 194              		.loc 1 541 0
 195 007c 8020     		movs	r0, #128
 196 007e FFF7FEFF 		bl	CapSense_1_ClrBusyFlags
 197              	.LVL18:
ARM GAS  C:\Users\enes_\AppData\Local\Temp\ccMgWMPt.s 			page 14


 542:Generated_Source\PSoC6/CapSense_1_INT.c **** 
 543:Generated_Source\PSoC6/CapSense_1_INT.c ****             /* Update scan Counter */
 544:Generated_Source\PSoC6/CapSense_1_INT.c ****             CapSense_1_dsRam.scanCounter++;
 198              		.loc 1 544 0
 199 0082 074A     		ldr	r2, .L10+20
 200 0084 1389     		ldrh	r3, [r2, #8]
 201 0086 0133     		adds	r3, r3, #1
 202 0088 1381     		strh	r3, [r2, #8]
 203              	.L6:
 545:Generated_Source\PSoC6/CapSense_1_INT.c ****         }
 546:Generated_Source\PSoC6/CapSense_1_INT.c ****     }
 547:Generated_Source\PSoC6/CapSense_1_INT.c **** }
 204              		.loc 1 547 0
 205              		@ sp needed
 206 008a 70BD     		pop	{r4, r5, r6, pc}
 207              	.L11:
 208              		.align	2
 209              	.L10:
 210 008c 00000000 		.word	CapSense_1_widgetIndex
 211 0090 00000000 		.word	CapSense_1_dsFlash
 212 0094 00000000 		.word	CapSense_1_sensorIndex
 213 0098 00000000 		.word	CapSense_1_curRamSnsPtr
 214 009c 00000000 		.word	CapSense_1_requestScanAllWidget
 215 00a0 00000000 		.word	CapSense_1_dsRam
 216              		.cfi_endproc
 217              	.LFE180:
 218              		.size	CapSense_1_SsCSDInitNextScan, .-CapSense_1_SsCSDInitNextScan
 219              		.section	.text.CapSense_1_CSDPostSingleScan,"ax",%progbits
 220              		.align	2
 221              		.global	CapSense_1_CSDPostSingleScan
 222              		.code	16
 223              		.thumb_func
 224              		.type	CapSense_1_CSDPostSingleScan, %function
 225              	CapSense_1_CSDPostSingleScan:
 226              	.LFB177:
 112:Generated_Source\PSoC6/CapSense_1_INT.c ****         #ifdef CapSense_1_ENTRY_CALLBACK
 227              		.loc 1 112 0
 228              		.cfi_startproc
 229              		@ args = 0, pretend = 0, frame = 0
 230              		@ frame_needed = 0, uses_anonymous_args = 0
 231 0000 10B5     		push	{r4, lr}
 232              		.cfi_def_cfa_offset 8
 233              		.cfi_offset 4, -8
 234              		.cfi_offset 14, -4
 118:Generated_Source\PSoC6/CapSense_1_INT.c ****         (void)CY_GET_REG32(CapSense_1_CSD_INTR_PTR);
 235              		.loc 1 118 0
 236 0002 074B     		ldr	r3, .L13
 237 0004 8322     		movs	r2, #131
 238 0006 5200     		lsls	r2, r2, #1
 239 0008 1A60     		str	r2, [r3]
 119:Generated_Source\PSoC6/CapSense_1_INT.c **** 
 240              		.loc 1 119 0
 241 000a 1B68     		ldr	r3, [r3]
 139:Generated_Source\PSoC6/CapSense_1_INT.c **** 
 242              		.loc 1 139 0
 243 000c FFF7FEFF 		bl	CapSense_1_SsCSDPostScan
 244              	.LVL19:
ARM GAS  C:\Users\enes_\AppData\Local\Temp\ccMgWMPt.s 			page 15


 172:Generated_Source\PSoC6/CapSense_1_INT.c **** 
 245              		.loc 1 172 0
 246 0010 044A     		ldr	r2, .L13+4
 247 0012 1389     		ldrh	r3, [r2, #8]
 248 0014 0133     		adds	r3, r3, #1
 249 0016 1381     		strh	r3, [r2, #8]
 175:Generated_Source\PSoC6/CapSense_1_INT.c ****                 }
 250              		.loc 1 175 0
 251 0018 0348     		ldr	r0, .L13+8
 252 001a FFF7FEFF 		bl	CapSense_1_ClrBusyFlags
 253              	.LVL20:
 185:Generated_Source\PSoC6/CapSense_1_INT.c **** 
 254              		.loc 1 185 0
 255              		@ sp needed
 256 001e 10BD     		pop	{r4, pc}
 257              	.L14:
 258              		.align	2
 259              	.L13:
 260 0020 F0003640 		.word	1077281008
 261 0024 00000000 		.word	CapSense_1_dsRam
 262 0028 80000100 		.word	65664
 263              		.cfi_endproc
 264              	.LFE177:
 265              		.size	CapSense_1_CSDPostSingleScan, .-CapSense_1_CSDPostSingleScan
 266              		.section	.text.CapSense_1_CSDPostMultiScan,"ax",%progbits
 267              		.align	2
 268              		.global	CapSense_1_CSDPostMultiScan
 269              		.code	16
 270              		.thumb_func
 271              		.type	CapSense_1_CSDPostMultiScan, %function
 272              	CapSense_1_CSDPostMultiScan:
 273              	.LFB178:
 224:Generated_Source\PSoC6/CapSense_1_INT.c ****         /* Declare and initialize ptr to sensor IO structure to appropriate address */
 274              		.loc 1 224 0
 275              		.cfi_startproc
 276              		@ args = 0, pretend = 0, frame = 0
 277              		@ frame_needed = 0, uses_anonymous_args = 0
 278 0000 10B5     		push	{r4, lr}
 279              		.cfi_def_cfa_offset 8
 280              		.cfi_offset 4, -8
 281              		.cfi_offset 14, -4
 226:Generated_Source\PSoC6/CapSense_1_INT.c ****                                                           CapSense_1_dsFlash.wdgtArray[CapSense_1_w
 282              		.loc 1 226 0
 283 0002 0B4B     		ldr	r3, .L16
 284 0004 1B78     		ldrb	r3, [r3]
 227:Generated_Source\PSoC6/CapSense_1_INT.c ****                                                           + CapSense_1_sensorIndex;
 285              		.loc 1 227 0
 286 0006 2C22     		movs	r2, #44
 287 0008 5343     		muls	r3, r2
 288 000a 0A4A     		ldr	r2, .L16+4
 289 000c 9B58     		ldr	r3, [r3, r2]
 228:Generated_Source\PSoC6/CapSense_1_INT.c **** 
 290              		.loc 1 228 0
 291 000e 0A4A     		ldr	r2, .L16+8
 292 0010 1478     		ldrb	r4, [r2]
 293 0012 E400     		lsls	r4, r4, #3
 226:Generated_Source\PSoC6/CapSense_1_INT.c ****                                                           CapSense_1_dsFlash.wdgtArray[CapSense_1_w
ARM GAS  C:\Users\enes_\AppData\Local\Temp\ccMgWMPt.s 			page 16


 294              		.loc 1 226 0
 295 0014 1C19     		adds	r4, r3, r4
 296              	.LVL21:
 235:Generated_Source\PSoC6/CapSense_1_INT.c ****         (void)CY_GET_REG32(CapSense_1_CSD_INTR_PTR);
 297              		.loc 1 235 0
 298 0016 094B     		ldr	r3, .L16+12
 299 0018 8322     		movs	r2, #131
 300 001a 5200     		lsls	r2, r2, #1
 301 001c 1A60     		str	r2, [r3]
 236:Generated_Source\PSoC6/CapSense_1_INT.c **** 
 302              		.loc 1 236 0
 303 001e 1B68     		ldr	r3, [r3]
 256:Generated_Source\PSoC6/CapSense_1_INT.c **** 
 304              		.loc 1 256 0
 305 0020 FFF7FEFF 		bl	CapSense_1_SsCSDPostScan
 306              	.LVL22:
 264:Generated_Source\PSoC6/CapSense_1_INT.c ****         }
 307              		.loc 1 264 0
 308 0024 2000     		movs	r0, r4
 309 0026 FFF7FEFF 		bl	CapSense_1_CSDDisconnectSns
 310              	.LVL23:
 284:Generated_Source\PSoC6/CapSense_1_INT.c ****         #endif /* (CapSense_1_ENABLE == CapSense_1_MULTI_FREQ_SCAN_EN) */
 311              		.loc 1 284 0
 312 002a FFF7FEFF 		bl	CapSense_1_SsCSDInitNextScan
 313              	.LVL24:
 293:Generated_Source\PSoC6/CapSense_1_INT.c **** 
 314              		.loc 1 293 0
 315              		@ sp needed
 316              	.LVL25:
 317 002e 10BD     		pop	{r4, pc}
 318              	.L17:
 319              		.align	2
 320              	.L16:
 321 0030 00000000 		.word	CapSense_1_widgetIndex
 322 0034 00000000 		.word	CapSense_1_dsFlash
 323 0038 00000000 		.word	CapSense_1_sensorIndex
 324 003c F0003640 		.word	1077281008
 325              		.cfi_endproc
 326              	.LFE178:
 327              		.size	CapSense_1_CSDPostMultiScan, .-CapSense_1_CSDPostMultiScan
 328              		.text
 329              	.Letext0:
 330              		.file 2 "c:\\program files (x86)\\cypress\\psoc creator\\4.4\\psoc creator\\import\\gnu\\arm\\5.4.
 331              		.file 3 "c:\\program files (x86)\\cypress\\psoc creator\\4.4\\psoc creator\\import\\gnu\\arm\\5.4.
 332              		.file 4 "Generated_Source\\PSoC6\\pdl\\devices/psoc6/include/ip/cyip_gpio.h"
 333              		.file 5 "Generated_Source\\PSoC6\\pdl\\drivers/peripheral/device/cy_device.h"
 334              		.file 6 "Generated_Source\\PSoC6\\pdl\\devices/psoc6/include/ip/cyip_csd.h"
 335              		.file 7 "Generated_Source\\PSoC6\\pdl\\devices/psoc6/include/psoc6_01_config.h"
 336              		.file 8 "Generated_Source\\PSoC6\\pdl\\drivers/peripheral/syslib/cy_syslib.h"
 337              		.file 9 "Generated_Source\\PSoC6\\CapSense_1_Configuration.h"
 338              		.file 10 "Generated_Source\\PSoC6\\CapSense_1_SmartSense_LL.h"
 339              		.file 11 "Generated_Source\\PSoC6\\CapSense_1_Structure.h"
 340              		.file 12 "Generated_Source\\PSoC6\\CapSense_1_Sensing.h"
 341              		.file 13 "Generated_Source\\PSoC6\\CapSense_1_SensingCSD_LL.h"