ARM GAS  C:\Users\enes_\AppData\Local\Temp\ccWI375M.s 			page 1


   1              		.syntax unified
   2              		.cpu cortex-m0plus
   3              		.fpu softvfp
   4              		.eabi_attribute 20, 1
   5              		.eabi_attribute 21, 1
   6              		.eabi_attribute 23, 3
   7              		.eabi_attribute 24, 1
   8              		.eabi_attribute 25, 1
   9              		.eabi_attribute 26, 1
  10              		.eabi_attribute 30, 1
  11              		.eabi_attribute 34, 0
  12              		.eabi_attribute 18, 4
  13              		.thumb
  14              		.syntax unified
  15              		.file	"CapSense_1_Control.c"
  16              		.text
  17              	.Ltext0:
  18              		.cfi_sections	.debug_frame
  19              		.section	.text.CapSense_1_Initialize,"ax",%progbits
  20              		.align	2
  21              		.global	CapSense_1_Initialize
  22              		.code	16
  23              		.thumb_func
  24              		.type	CapSense_1_Initialize, %function
  25              	CapSense_1_Initialize:
  26              	.LFB180:
  27              		.file 1 "Generated_Source\\PSoC6\\CapSense_1_Control.c"
   1:Generated_Source\PSoC6/CapSense_1_Control.c **** /***************************************************************************//**
   2:Generated_Source\PSoC6/CapSense_1_Control.c **** * \file CapSense_1_Control.c
   3:Generated_Source\PSoC6/CapSense_1_Control.c **** * \version 3.0
   4:Generated_Source\PSoC6/CapSense_1_Control.c **** *
   5:Generated_Source\PSoC6/CapSense_1_Control.c **** * \brief
   6:Generated_Source\PSoC6/CapSense_1_Control.c **** *   This file provides the source code to the Control module API of the Component.
   7:Generated_Source\PSoC6/CapSense_1_Control.c **** *
   8:Generated_Source\PSoC6/CapSense_1_Control.c **** * \see CapSense_1 v3.0 Datasheet
   9:Generated_Source\PSoC6/CapSense_1_Control.c **** *
  10:Generated_Source\PSoC6/CapSense_1_Control.c **** *//*****************************************************************************
  11:Generated_Source\PSoC6/CapSense_1_Control.c **** * Copyright (2016-2017), Cypress Semiconductor Corporation.
  12:Generated_Source\PSoC6/CapSense_1_Control.c **** ********************************************************************************
  13:Generated_Source\PSoC6/CapSense_1_Control.c **** * This software is owned by Cypress Semiconductor Corporation (Cypress) and is
  14:Generated_Source\PSoC6/CapSense_1_Control.c **** * protected by and subject to worldwide patent protection (United States and
  15:Generated_Source\PSoC6/CapSense_1_Control.c **** * foreign), United States copyright laws and international treaty provisions.
  16:Generated_Source\PSoC6/CapSense_1_Control.c **** * Cypress hereby grants to licensee a personal, non-exclusive, non-transferable
  17:Generated_Source\PSoC6/CapSense_1_Control.c **** * license to copy, use, modify, create derivative works of, and compile the
  18:Generated_Source\PSoC6/CapSense_1_Control.c **** * Cypress Source Code and derivative works for the sole purpose of creating
  19:Generated_Source\PSoC6/CapSense_1_Control.c **** * custom software in support of licensee product to be used only in conjunction
  20:Generated_Source\PSoC6/CapSense_1_Control.c **** * with a Cypress integrated circuit as specified in the applicable agreement.
  21:Generated_Source\PSoC6/CapSense_1_Control.c **** * Any reproduction, modification, translation, compilation, or representation of
  22:Generated_Source\PSoC6/CapSense_1_Control.c **** * this software except as specified above is prohibited without the express
  23:Generated_Source\PSoC6/CapSense_1_Control.c **** * written permission of Cypress.
  24:Generated_Source\PSoC6/CapSense_1_Control.c **** *
  25:Generated_Source\PSoC6/CapSense_1_Control.c **** * Disclaimer: CYPRESS MAKES NO WARRANTY OF ANY KIND, EXPRESS OR IMPLIED, WITH
  26:Generated_Source\PSoC6/CapSense_1_Control.c **** * REGARD TO THIS MATERIAL, INCLUDING, BUT NOT LIMITED TO, THE IMPLIED
  27:Generated_Source\PSoC6/CapSense_1_Control.c **** * WARRANTIES OF MERCHANTABILITY AND FITNESS FOR A PARTICULAR PURPOSE.
  28:Generated_Source\PSoC6/CapSense_1_Control.c **** * Cypress reserves the right to make changes without further notice to the
  29:Generated_Source\PSoC6/CapSense_1_Control.c **** * materials described herein. Cypress does not assume any liability arising out
  30:Generated_Source\PSoC6/CapSense_1_Control.c **** * of the application or use of any product or circuit described herein. Cypress
ARM GAS  C:\Users\enes_\AppData\Local\Temp\ccWI375M.s 			page 2


  31:Generated_Source\PSoC6/CapSense_1_Control.c **** * does not authorize its products for use as critical components in life-support
  32:Generated_Source\PSoC6/CapSense_1_Control.c **** * systems where a malfunction or failure may reasonably be expected to result in
  33:Generated_Source\PSoC6/CapSense_1_Control.c **** * significant injury to the user. The inclusion of Cypress' product in a life-
  34:Generated_Source\PSoC6/CapSense_1_Control.c **** * support systems application implies that the manufacturer assumes all risk of
  35:Generated_Source\PSoC6/CapSense_1_Control.c **** * such use and in doing so indemnifies Cypress against all charges. Use may be
  36:Generated_Source\PSoC6/CapSense_1_Control.c **** * limited by and subject to the applicable Cypress software license agreement.
  37:Generated_Source\PSoC6/CapSense_1_Control.c **** *******************************************************************************/
  38:Generated_Source\PSoC6/CapSense_1_Control.c **** 
  39:Generated_Source\PSoC6/CapSense_1_Control.c **** #include <stddef.h>
  40:Generated_Source\PSoC6/CapSense_1_Control.c **** #include "syslib/cy_syslib.h"
  41:Generated_Source\PSoC6/CapSense_1_Control.c **** #include "syspm/cy_syspm.h"
  42:Generated_Source\PSoC6/CapSense_1_Control.c **** #include "cyfitter_sysint_cfg.h"
  43:Generated_Source\PSoC6/CapSense_1_Control.c **** #include "CapSense_1_Configuration.h"
  44:Generated_Source\PSoC6/CapSense_1_Control.c **** #include "CapSense_1_Structure.h"
  45:Generated_Source\PSoC6/CapSense_1_Control.c **** #include "CapSense_1_Control.h"
  46:Generated_Source\PSoC6/CapSense_1_Control.c **** #include "CapSense_1_Processing.h"
  47:Generated_Source\PSoC6/CapSense_1_Control.c **** #include "CapSense_1_Filter.h"
  48:Generated_Source\PSoC6/CapSense_1_Control.c **** #include "CapSense_1_Sensing.h"
  49:Generated_Source\PSoC6/CapSense_1_Control.c **** #include "CapSense_1_Tuner.h"
  50:Generated_Source\PSoC6/CapSense_1_Control.c **** 
  51:Generated_Source\PSoC6/CapSense_1_Control.c **** #if (CapSense_1_ENABLE == CapSense_1_SELF_TEST_EN)
  52:Generated_Source\PSoC6/CapSense_1_Control.c ****     #include "CapSense_1_SelfTest.h"
  53:Generated_Source\PSoC6/CapSense_1_Control.c **** #endif
  54:Generated_Source\PSoC6/CapSense_1_Control.c **** 
  55:Generated_Source\PSoC6/CapSense_1_Control.c **** #if (0u != CapSense_1_ADC_EN)
  56:Generated_Source\PSoC6/CapSense_1_Control.c ****     #include "CapSense_1_Adc.h"
  57:Generated_Source\PSoC6/CapSense_1_Control.c **** #endif /* (0u != CapSense_1_ADC_EN) */
  58:Generated_Source\PSoC6/CapSense_1_Control.c **** 
  59:Generated_Source\PSoC6/CapSense_1_Control.c **** #if ((CapSense_1_ENABLE == CapSense_1_GES_GLOBAL_EN) ||\
  60:Generated_Source\PSoC6/CapSense_1_Control.c ****      (CapSense_1_ENABLE == CapSense_1_BALLISTIC_MULTIPLIER_EN))
  61:Generated_Source\PSoC6/CapSense_1_Control.c ****     #include "CapSense_1_Gesture.h"
  62:Generated_Source\PSoC6/CapSense_1_Control.c **** #endif /* (CapSense_1_ENABLE == CapSense_1_GES_GLOBAL_EN) */
  63:Generated_Source\PSoC6/CapSense_1_Control.c **** 
  64:Generated_Source\PSoC6/CapSense_1_Control.c **** /**************************************************************************************************
  65:Generated_Source\PSoC6/CapSense_1_Control.c **** * Local definition
  66:Generated_Source\PSoC6/CapSense_1_Control.c **** ***************************************************************************************************
  67:Generated_Source\PSoC6/CapSense_1_Control.c **** #define CapSense_1_INIT_DONE   (1u)
  68:Generated_Source\PSoC6/CapSense_1_Control.c **** #define CapSense_1_INIT_NEEDED (0u)
  69:Generated_Source\PSoC6/CapSense_1_Control.c **** 
  70:Generated_Source\PSoC6/CapSense_1_Control.c **** /**************************************************************************************************
  71:Generated_Source\PSoC6/CapSense_1_Control.c **** * Local variables
  72:Generated_Source\PSoC6/CapSense_1_Control.c **** ***************************************************************************************************
  73:Generated_Source\PSoC6/CapSense_1_Control.c **** static uint8 CapSense_1_InitVar = CapSense_1_INIT_NEEDED;
  74:Generated_Source\PSoC6/CapSense_1_Control.c **** 
  75:Generated_Source\PSoC6/CapSense_1_Control.c **** /**************************************************************************************************
  76:Generated_Source\PSoC6/CapSense_1_Control.c **** * Local function
  77:Generated_Source\PSoC6/CapSense_1_Control.c **** ***************************************************************************************************
  78:Generated_Source\PSoC6/CapSense_1_Control.c **** #if (CY_SYSPM_DRV_VERSION_MAJOR < 4u)
  79:Generated_Source\PSoC6/CapSense_1_Control.c ****     static cy_en_syspm_status_t CapSense_1_SwitchPowerModeCallback(cy_stc_syspm_callback_params_t *
  80:Generated_Source\PSoC6/CapSense_1_Control.c **** #endif
  81:Generated_Source\PSoC6/CapSense_1_Control.c **** 
  82:Generated_Source\PSoC6/CapSense_1_Control.c **** /*******************************************************************************
  83:Generated_Source\PSoC6/CapSense_1_Control.c **** * Function Name: CapSense_1_Start
  84:Generated_Source\PSoC6/CapSense_1_Control.c **** ****************************************************************************//**
  85:Generated_Source\PSoC6/CapSense_1_Control.c **** *
  86:Generated_Source\PSoC6/CapSense_1_Control.c **** * \brief
  87:Generated_Source\PSoC6/CapSense_1_Control.c **** *  Initializes the Component hardware and firmware modules. This function is
ARM GAS  C:\Users\enes_\AppData\Local\Temp\ccWI375M.s 			page 3


  88:Generated_Source\PSoC6/CapSense_1_Control.c **** *  called by the application program prior to calling any other function of the
  89:Generated_Source\PSoC6/CapSense_1_Control.c **** *  Component.
  90:Generated_Source\PSoC6/CapSense_1_Control.c **** *
  91:Generated_Source\PSoC6/CapSense_1_Control.c **** * \details
  92:Generated_Source\PSoC6/CapSense_1_Control.c **** *  This function initializes the Component hardware and firmware modules and
  93:Generated_Source\PSoC6/CapSense_1_Control.c **** *  is called by the application program prior to calling any other API
  94:Generated_Source\PSoC6/CapSense_1_Control.c **** *  of the Component. When this function is called, the following tasks are
  95:Generated_Source\PSoC6/CapSense_1_Control.c **** *  executed as part of the initialization process:
  96:Generated_Source\PSoC6/CapSense_1_Control.c **** *    1. Initialize the registers of the \ref group_structures variable
  97:Generated_Source\PSoC6/CapSense_1_Control.c **** *       CapSense_1_dsRam based on the user selection in the Component
  98:Generated_Source\PSoC6/CapSense_1_Control.c **** *       configuration wizard.
  99:Generated_Source\PSoC6/CapSense_1_Control.c **** *    2. Configure the hardware to perform capacitive sensing.
 100:Generated_Source\PSoC6/CapSense_1_Control.c **** *    3. If SmartSense Auto-tuning is selected for the CSD Tuning mode in the
 101:Generated_Source\PSoC6/CapSense_1_Control.c **** *       Basic tab, the auto-tuning algorithm is executed to set the optimal
 102:Generated_Source\PSoC6/CapSense_1_Control.c **** *       values for the hardware parameters of the widgets/sensors.
 103:Generated_Source\PSoC6/CapSense_1_Control.c **** *    4. Calibrate the sensors and find the optimal values for IDACs of each
 104:Generated_Source\PSoC6/CapSense_1_Control.c **** *       widget / sensor, if the Enable IDAC auto-calibration is enabled in the
 105:Generated_Source\PSoC6/CapSense_1_Control.c **** *       CSD Setting or CSX Setting tabs.
 106:Generated_Source\PSoC6/CapSense_1_Control.c **** *    5. Perform scanning for all the sensors and initialize the baseline history.
 107:Generated_Source\PSoC6/CapSense_1_Control.c **** *    6. If the firmware filters are enabled in the Advanced General tab, the
 108:Generated_Source\PSoC6/CapSense_1_Control.c **** *       filter histories are also initialized.
 109:Generated_Source\PSoC6/CapSense_1_Control.c **** 
 110:Generated_Source\PSoC6/CapSense_1_Control.c **** *  Any next call of this API repeats an initialization process except for
 111:Generated_Source\PSoC6/CapSense_1_Control.c **** *  data structure initialization. Therefore, it is possible to change the
 112:Generated_Source\PSoC6/CapSense_1_Control.c **** *  Component configuration from the application program by writing registers to the
 113:Generated_Source\PSoC6/CapSense_1_Control.c **** *  data structure and calling this function again. This is also
 114:Generated_Source\PSoC6/CapSense_1_Control.c **** *  done inside the CapSense_1_RunTuner() function when a restart command
 115:Generated_Source\PSoC6/CapSense_1_Control.c **** *  is received.
 116:Generated_Source\PSoC6/CapSense_1_Control.c **** *
 117:Generated_Source\PSoC6/CapSense_1_Control.c **** *  When the Component operation is stopped by the CapSense_1_Stop()
 118:Generated_Source\PSoC6/CapSense_1_Control.c **** *  function, the CapSense_1_Start() function repeats an initialization
 119:Generated_Source\PSoC6/CapSense_1_Control.c **** *  process including data structure initialization.
 120:Generated_Source\PSoC6/CapSense_1_Control.c **** *
 121:Generated_Source\PSoC6/CapSense_1_Control.c **** * \return
 122:Generated_Source\PSoC6/CapSense_1_Control.c **** *  Returns the status of the initialization process. If CY_RET_SUCCESS is not
 123:Generated_Source\PSoC6/CapSense_1_Control.c **** *  received, some of the initialization fails and the Component may not operate
 124:Generated_Source\PSoC6/CapSense_1_Control.c **** *  as expected.
 125:Generated_Source\PSoC6/CapSense_1_Control.c **** *
 126:Generated_Source\PSoC6/CapSense_1_Control.c **** *******************************************************************************/
 127:Generated_Source\PSoC6/CapSense_1_Control.c **** cy_status CapSense_1_Start(void)
 128:Generated_Source\PSoC6/CapSense_1_Control.c **** {
 129:Generated_Source\PSoC6/CapSense_1_Control.c ****     cy_status result;
 130:Generated_Source\PSoC6/CapSense_1_Control.c **** 
 131:Generated_Source\PSoC6/CapSense_1_Control.c ****     /* Initialize CapSense_1 modules */
 132:Generated_Source\PSoC6/CapSense_1_Control.c ****     result = CapSense_1_Initialize();
 133:Generated_Source\PSoC6/CapSense_1_Control.c **** 
 134:Generated_Source\PSoC6/CapSense_1_Control.c ****     #if (CapSense_1_CSD_AUTOTUNE != CapSense_1_CSD_SS_DIS)
 135:Generated_Source\PSoC6/CapSense_1_Control.c ****         if (CY_RET_SUCCESS == result)
 136:Generated_Source\PSoC6/CapSense_1_Control.c ****         {
 137:Generated_Source\PSoC6/CapSense_1_Control.c ****             result = CapSense_1_SsAutoTune();
 138:Generated_Source\PSoC6/CapSense_1_Control.c ****         }
 139:Generated_Source\PSoC6/CapSense_1_Control.c ****     #endif /* #if (CapSense_1_CSD_AUTOTUNE != CapSense_1_CSD_SS_DIS) */
 140:Generated_Source\PSoC6/CapSense_1_Control.c **** 
 141:Generated_Source\PSoC6/CapSense_1_Control.c ****     #if ((0u != CapSense_1_CSX_IDAC_AUTOCAL_EN) || \
 142:Generated_Source\PSoC6/CapSense_1_Control.c ****         ((CapSense_1_CSD_AUTOTUNE == CapSense_1_CSD_SS_DIS) && (0u != CapSense_1_CSD_IDAC_AUTOCAL_E
 143:Generated_Source\PSoC6/CapSense_1_Control.c ****         if (CY_RET_SUCCESS == result)
 144:Generated_Source\PSoC6/CapSense_1_Control.c ****         {
ARM GAS  C:\Users\enes_\AppData\Local\Temp\ccWI375M.s 			page 4


 145:Generated_Source\PSoC6/CapSense_1_Control.c ****             result = CapSense_1_CalibrateAllWidgets();
 146:Generated_Source\PSoC6/CapSense_1_Control.c ****         }
 147:Generated_Source\PSoC6/CapSense_1_Control.c ****     #endif
 148:Generated_Source\PSoC6/CapSense_1_Control.c **** 
 149:Generated_Source\PSoC6/CapSense_1_Control.c ****     if (CY_RET_SUCCESS == result)
 150:Generated_Source\PSoC6/CapSense_1_Control.c ****     {
 151:Generated_Source\PSoC6/CapSense_1_Control.c ****         result = CapSense_1_ScanAllWidgets();
 152:Generated_Source\PSoC6/CapSense_1_Control.c ****     }
 153:Generated_Source\PSoC6/CapSense_1_Control.c **** 
 154:Generated_Source\PSoC6/CapSense_1_Control.c ****     while(CapSense_1_NOT_BUSY != CapSense_1_IsBusy()){}
 155:Generated_Source\PSoC6/CapSense_1_Control.c **** 
 156:Generated_Source\PSoC6/CapSense_1_Control.c ****     CapSense_1_FtInitialize();
 157:Generated_Source\PSoC6/CapSense_1_Control.c ****     CapSense_1_InitializeAllBaselines();
 158:Generated_Source\PSoC6/CapSense_1_Control.c **** 
 159:Generated_Source\PSoC6/CapSense_1_Control.c ****     #if(CapSense_1_ENABLE == CapSense_1_GES_GLOBAL_EN)
 160:Generated_Source\PSoC6/CapSense_1_Control.c ****         if (CY_RET_SUCCESS == result)
 161:Generated_Source\PSoC6/CapSense_1_Control.c ****         {
 162:Generated_Source\PSoC6/CapSense_1_Control.c ****             CapSense_1_InitializeGestures();
 163:Generated_Source\PSoC6/CapSense_1_Control.c ****         }
 164:Generated_Source\PSoC6/CapSense_1_Control.c ****     #endif /* (CapSense_1_ENABLE == CapSense_1_GES_GLOBAL_EN) */
 165:Generated_Source\PSoC6/CapSense_1_Control.c **** 
 166:Generated_Source\PSoC6/CapSense_1_Control.c ****     #if (0u != CapSense_1_BALLISTIC_MULTIPLIER_EN)
 167:Generated_Source\PSoC6/CapSense_1_Control.c ****         if (CY_RET_SUCCESS == result)
 168:Generated_Source\PSoC6/CapSense_1_Control.c ****         {
 169:Generated_Source\PSoC6/CapSense_1_Control.c ****             CapSense_1_InitializeBallisticMultiplier();
 170:Generated_Source\PSoC6/CapSense_1_Control.c ****         }
 171:Generated_Source\PSoC6/CapSense_1_Control.c ****     #endif /* (0u != CapSense_1_BALLISTIC_MULTIPLIER_EN) */
 172:Generated_Source\PSoC6/CapSense_1_Control.c **** 
 173:Generated_Source\PSoC6/CapSense_1_Control.c ****     #if (0u != CapSense_1_ADC_EN)
 174:Generated_Source\PSoC6/CapSense_1_Control.c ****         CapSense_1_AdcInitialize();
 175:Generated_Source\PSoC6/CapSense_1_Control.c ****     #endif /* (0u != CapSense_1_ADC_EN) */
 176:Generated_Source\PSoC6/CapSense_1_Control.c **** 
 177:Generated_Source\PSoC6/CapSense_1_Control.c ****     return result;
 178:Generated_Source\PSoC6/CapSense_1_Control.c **** }
 179:Generated_Source\PSoC6/CapSense_1_Control.c **** 
 180:Generated_Source\PSoC6/CapSense_1_Control.c **** /*******************************************************************************
 181:Generated_Source\PSoC6/CapSense_1_Control.c **** * Function Name: CapSense_1_Initialize
 182:Generated_Source\PSoC6/CapSense_1_Control.c **** ****************************************************************************//**
 183:Generated_Source\PSoC6/CapSense_1_Control.c **** *
 184:Generated_Source\PSoC6/CapSense_1_Control.c **** * \brief
 185:Generated_Source\PSoC6/CapSense_1_Control.c **** *  This function initializes the CapSense_1 Component.
 186:Generated_Source\PSoC6/CapSense_1_Control.c **** *
 187:Generated_Source\PSoC6/CapSense_1_Control.c **** * \details
 188:Generated_Source\PSoC6/CapSense_1_Control.c **** *  This API initializes all sub-modules of the CapSense_1 Component:
 189:Generated_Source\PSoC6/CapSense_1_Control.c **** *   - Data Structure - set the default Component parameters defined in the Customizer.
 190:Generated_Source\PSoC6/CapSense_1_Control.c **** *   - Data Processing - resets all widget statuses.
 191:Generated_Source\PSoC6/CapSense_1_Control.c **** *   - Tuner - resets tuning state.
 192:Generated_Source\PSoC6/CapSense_1_Control.c **** *   - Sensing - prepares CSD HW for operation.
 193:Generated_Source\PSoC6/CapSense_1_Control.c **** *
 194:Generated_Source\PSoC6/CapSense_1_Control.c **** *  Note that Data Structure module is initialized only once after the reset or
 195:Generated_Source\PSoC6/CapSense_1_Control.c **** *  CapSense_1_Stop() API is called. The repeated calls of Initialize API
 196:Generated_Source\PSoC6/CapSense_1_Control.c **** *  will not re-initialize Data Structure. This is done to preserve Component
 197:Generated_Source\PSoC6/CapSense_1_Control.c **** *  parameters that user may set in runtime.
 198:Generated_Source\PSoC6/CapSense_1_Control.c **** *
 199:Generated_Source\PSoC6/CapSense_1_Control.c **** * \return
 200:Generated_Source\PSoC6/CapSense_1_Control.c **** *  Return CY_RET_SUCCESS if the initialization was successful.
 201:Generated_Source\PSoC6/CapSense_1_Control.c **** *
ARM GAS  C:\Users\enes_\AppData\Local\Temp\ccWI375M.s 			page 5


 202:Generated_Source\PSoC6/CapSense_1_Control.c **** *******************************************************************************/
 203:Generated_Source\PSoC6/CapSense_1_Control.c **** cy_status CapSense_1_Initialize(void)
 204:Generated_Source\PSoC6/CapSense_1_Control.c **** {
  28              		.loc 1 204 0
  29              		.cfi_startproc
  30              		@ args = 0, pretend = 0, frame = 0
  31              		@ frame_needed = 0, uses_anonymous_args = 0
  32 0000 10B5     		push	{r4, lr}
  33              		.cfi_def_cfa_offset 8
  34              		.cfi_offset 4, -8
  35              		.cfi_offset 14, -4
 205:Generated_Source\PSoC6/CapSense_1_Control.c ****     cy_status result;
 206:Generated_Source\PSoC6/CapSense_1_Control.c **** 
 207:Generated_Source\PSoC6/CapSense_1_Control.c ****     /* The Data Structure and Tuner are initialized only once */
 208:Generated_Source\PSoC6/CapSense_1_Control.c ****     if (CapSense_1_INIT_NEEDED == CapSense_1_InitVar)
  36              		.loc 1 208 0
  37 0002 084B     		ldr	r3, .L3
  38 0004 1B78     		ldrb	r3, [r3]
  39 0006 002B     		cmp	r3, #0
  40 0008 06D1     		bne	.L2
 209:Generated_Source\PSoC6/CapSense_1_Control.c ****     {
 210:Generated_Source\PSoC6/CapSense_1_Control.c ****         CapSense_1_DsInitialize();
  41              		.loc 1 210 0
  42 000a FFF7FEFF 		bl	CapSense_1_DsInitialize
  43              	.LVL0:
 211:Generated_Source\PSoC6/CapSense_1_Control.c ****         CapSense_1_TuInitialize();
  44              		.loc 1 211 0
  45 000e FFF7FEFF 		bl	CapSense_1_TuInitialize
  46              	.LVL1:
 212:Generated_Source\PSoC6/CapSense_1_Control.c ****         CapSense_1_InitVar = CapSense_1_INIT_DONE;
  47              		.loc 1 212 0
  48 0012 0122     		movs	r2, #1
  49 0014 034B     		ldr	r3, .L3
  50 0016 1A70     		strb	r2, [r3]
  51              	.L2:
 213:Generated_Source\PSoC6/CapSense_1_Control.c ****     }
 214:Generated_Source\PSoC6/CapSense_1_Control.c **** 
 215:Generated_Source\PSoC6/CapSense_1_Control.c ****     CapSense_1_DpInitialize();
  52              		.loc 1 215 0
  53 0018 FFF7FEFF 		bl	CapSense_1_DpInitialize
  54              	.LVL2:
 216:Generated_Source\PSoC6/CapSense_1_Control.c **** 
 217:Generated_Source\PSoC6/CapSense_1_Control.c ****     result = CapSense_1_SsInitialize();
  55              		.loc 1 217 0
  56 001c FFF7FEFF 		bl	CapSense_1_SsInitialize
  57              	.LVL3:
 218:Generated_Source\PSoC6/CapSense_1_Control.c **** 
 219:Generated_Source\PSoC6/CapSense_1_Control.c ****     return result;
 220:Generated_Source\PSoC6/CapSense_1_Control.c **** }
  58              		.loc 1 220 0
  59              		@ sp needed
  60 0020 10BD     		pop	{r4, pc}
  61              	.L4:
  62 0022 C046     		.align	2
  63              	.L3:
  64 0024 00000000 		.word	.LANCHOR0
  65              		.cfi_endproc
ARM GAS  C:\Users\enes_\AppData\Local\Temp\ccWI375M.s 			page 6


  66              	.LFE180:
  67              		.size	CapSense_1_Initialize, .-CapSense_1_Initialize
  68              		.section	.text.CapSense_1_Start,"ax",%progbits
  69              		.align	2
  70              		.global	CapSense_1_Start
  71              		.code	16
  72              		.thumb_func
  73              		.type	CapSense_1_Start, %function
  74              	CapSense_1_Start:
  75              	.LFB179:
 128:Generated_Source\PSoC6/CapSense_1_Control.c ****     cy_status result;
  76              		.loc 1 128 0
  77              		.cfi_startproc
  78              		@ args = 0, pretend = 0, frame = 0
  79              		@ frame_needed = 0, uses_anonymous_args = 0
  80 0000 10B5     		push	{r4, lr}
  81              		.cfi_def_cfa_offset 8
  82              		.cfi_offset 4, -8
  83              		.cfi_offset 14, -4
 132:Generated_Source\PSoC6/CapSense_1_Control.c **** 
  84              		.loc 1 132 0
  85 0002 FFF7FEFF 		bl	CapSense_1_Initialize
  86              	.LVL4:
  87 0006 041E     		subs	r4, r0, #0
  88              	.LVL5:
 135:Generated_Source\PSoC6/CapSense_1_Control.c ****         {
  89              		.loc 1 135 0
  90 0008 02D1     		bne	.L6
 137:Generated_Source\PSoC6/CapSense_1_Control.c ****         }
  91              		.loc 1 137 0
  92 000a FFF7FEFF 		bl	CapSense_1_SsAutoTune
  93              	.LVL6:
  94 000e 0400     		movs	r4, r0
  95              	.LVL7:
  96              	.L6:
 143:Generated_Source\PSoC6/CapSense_1_Control.c ****         {
  97              		.loc 1 143 0
  98 0010 002C     		cmp	r4, #0
  99 0012 02D1     		bne	.L7
 145:Generated_Source\PSoC6/CapSense_1_Control.c ****         }
 100              		.loc 1 145 0
 101 0014 FFF7FEFF 		bl	CapSense_1_CalibrateAllWidgets
 102              	.LVL8:
 103 0018 0400     		movs	r4, r0
 104              	.LVL9:
 105              	.L7:
 149:Generated_Source\PSoC6/CapSense_1_Control.c ****     {
 106              		.loc 1 149 0
 107 001a 002C     		cmp	r4, #0
 108 001c 02D1     		bne	.L9
 151:Generated_Source\PSoC6/CapSense_1_Control.c ****     }
 109              		.loc 1 151 0
 110 001e FFF7FEFF 		bl	CapSense_1_ScanAllWidgets
 111              	.LVL10:
 112 0022 0400     		movs	r4, r0
 113              	.LVL11:
 114              	.L9:
ARM GAS  C:\Users\enes_\AppData\Local\Temp\ccWI375M.s 			page 7


 154:Generated_Source\PSoC6/CapSense_1_Control.c **** 
 115              		.loc 1 154 0 discriminator 1
 116 0024 FFF7FEFF 		bl	CapSense_1_IsBusy
 117              	.LVL12:
 118 0028 0028     		cmp	r0, #0
 119 002a FBD1     		bne	.L9
 156:Generated_Source\PSoC6/CapSense_1_Control.c ****     CapSense_1_InitializeAllBaselines();
 120              		.loc 1 156 0
 121 002c FFF7FEFF 		bl	CapSense_1_FtInitialize
 122              	.LVL13:
 157:Generated_Source\PSoC6/CapSense_1_Control.c **** 
 123              		.loc 1 157 0
 124 0030 FFF7FEFF 		bl	CapSense_1_InitializeAllBaselines
 125              	.LVL14:
 178:Generated_Source\PSoC6/CapSense_1_Control.c **** 
 126              		.loc 1 178 0
 127 0034 2000     		movs	r0, r4
 128              		@ sp needed
 129              	.LVL15:
 130 0036 10BD     		pop	{r4, pc}
 131              		.cfi_endproc
 132              	.LFE179:
 133              		.size	CapSense_1_Start, .-CapSense_1_Start
 134              		.section	.text.CapSense_1_Stop,"ax",%progbits
 135              		.align	2
 136              		.global	CapSense_1_Stop
 137              		.code	16
 138              		.thumb_func
 139              		.type	CapSense_1_Stop, %function
 140              	CapSense_1_Stop:
 141              	.LFB181:
 221:Generated_Source\PSoC6/CapSense_1_Control.c **** 
 222:Generated_Source\PSoC6/CapSense_1_Control.c **** /*******************************************************************************
 223:Generated_Source\PSoC6/CapSense_1_Control.c **** * Function Name: CapSense_1_Stop
 224:Generated_Source\PSoC6/CapSense_1_Control.c **** ****************************************************************************//**
 225:Generated_Source\PSoC6/CapSense_1_Control.c **** *
 226:Generated_Source\PSoC6/CapSense_1_Control.c **** * \brief
 227:Generated_Source\PSoC6/CapSense_1_Control.c **** *  Stops the Component operation.
 228:Generated_Source\PSoC6/CapSense_1_Control.c **** *
 229:Generated_Source\PSoC6/CapSense_1_Control.c **** * \details
 230:Generated_Source\PSoC6/CapSense_1_Control.c **** *  This function stops the Component operation, no sensor scanning can be
 231:Generated_Source\PSoC6/CapSense_1_Control.c **** *  executed when the Component is stopped. Once stopped, the hardware block may
 232:Generated_Source\PSoC6/CapSense_1_Control.c **** *  be reconfigured by the application program for any other special usage. The
 233:Generated_Source\PSoC6/CapSense_1_Control.c **** *  Component operation can be resumed by calling the CapSense_1_Resume()
 234:Generated_Source\PSoC6/CapSense_1_Control.c **** *  function or the Component can be reset by calling the
 235:Generated_Source\PSoC6/CapSense_1_Control.c **** *  CapSense_1_Start() function.
 236:Generated_Source\PSoC6/CapSense_1_Control.c **** *
 237:Generated_Source\PSoC6/CapSense_1_Control.c **** *  This function is called when no scanning is in progress.
 238:Generated_Source\PSoC6/CapSense_1_Control.c **** *  I.e. CapSense_1_IsBusy() returns a non-busy status.
 239:Generated_Source\PSoC6/CapSense_1_Control.c **** *
 240:Generated_Source\PSoC6/CapSense_1_Control.c **** * \return
 241:Generated_Source\PSoC6/CapSense_1_Control.c **** *  Returns the status of the stop process. If CY_RET_SUCCESS is not received,
 242:Generated_Source\PSoC6/CapSense_1_Control.c **** *  the stop process fails and retries may be required.
 243:Generated_Source\PSoC6/CapSense_1_Control.c **** *
 244:Generated_Source\PSoC6/CapSense_1_Control.c **** *******************************************************************************/
 245:Generated_Source\PSoC6/CapSense_1_Control.c **** cy_status CapSense_1_Stop(void)
 246:Generated_Source\PSoC6/CapSense_1_Control.c **** {
ARM GAS  C:\Users\enes_\AppData\Local\Temp\ccWI375M.s 			page 8


 142              		.loc 1 246 0
 143              		.cfi_startproc
 144              		@ args = 0, pretend = 0, frame = 0
 145              		@ frame_needed = 0, uses_anonymous_args = 0
 146              		@ link register save eliminated.
 147              	.LVL16:
 247:Generated_Source\PSoC6/CapSense_1_Control.c ****     cy_status result = CY_RET_SUCCESS;
 248:Generated_Source\PSoC6/CapSense_1_Control.c **** 
 249:Generated_Source\PSoC6/CapSense_1_Control.c ****     #if (CapSense_1_ENABLE == CapSense_1_ADC_EN)
 250:Generated_Source\PSoC6/CapSense_1_Control.c ****         /* Release CSD resources */
 251:Generated_Source\PSoC6/CapSense_1_Control.c ****         result = CapSense_1_SsReleaseResources();
 252:Generated_Source\PSoC6/CapSense_1_Control.c **** 
 253:Generated_Source\PSoC6/CapSense_1_Control.c ****         /* Release ADC resources */
 254:Generated_Source\PSoC6/CapSense_1_Control.c ****         CapSense_1_AdcStop();
 255:Generated_Source\PSoC6/CapSense_1_Control.c ****     #endif /* (CapSense_1_ENABLE == CapSense_1_ADC_EN) */
 256:Generated_Source\PSoC6/CapSense_1_Control.c **** 
 257:Generated_Source\PSoC6/CapSense_1_Control.c ****     CapSense_1_InitVar = CapSense_1_INIT_NEEDED;
 148              		.loc 1 257 0
 149 0000 0022     		movs	r2, #0
 150 0002 024B     		ldr	r3, .L11
 151 0004 1A70     		strb	r2, [r3]
 258:Generated_Source\PSoC6/CapSense_1_Control.c **** 
 259:Generated_Source\PSoC6/CapSense_1_Control.c ****     return result;
 260:Generated_Source\PSoC6/CapSense_1_Control.c **** }
 152              		.loc 1 260 0
 153 0006 0020     		movs	r0, #0
 154              		@ sp needed
 155 0008 7047     		bx	lr
 156              	.L12:
 157 000a C046     		.align	2
 158              	.L11:
 159 000c 00000000 		.word	.LANCHOR0
 160              		.cfi_endproc
 161              	.LFE181:
 162              		.size	CapSense_1_Stop, .-CapSense_1_Stop
 163              		.section	.text.CapSense_1_Resume,"ax",%progbits
 164              		.align	2
 165              		.global	CapSense_1_Resume
 166              		.code	16
 167              		.thumb_func
 168              		.type	CapSense_1_Resume, %function
 169              	CapSense_1_Resume:
 170              	.LFB182:
 261:Generated_Source\PSoC6/CapSense_1_Control.c **** 
 262:Generated_Source\PSoC6/CapSense_1_Control.c **** /*******************************************************************************
 263:Generated_Source\PSoC6/CapSense_1_Control.c **** * Function Name: CapSense_1_Resume
 264:Generated_Source\PSoC6/CapSense_1_Control.c **** ****************************************************************************//**
 265:Generated_Source\PSoC6/CapSense_1_Control.c **** *
 266:Generated_Source\PSoC6/CapSense_1_Control.c **** * \brief
 267:Generated_Source\PSoC6/CapSense_1_Control.c **** *  Resumes the Component operation if the CapSense_1_Stop() function was
 268:Generated_Source\PSoC6/CapSense_1_Control.c **** *  called previously.
 269:Generated_Source\PSoC6/CapSense_1_Control.c **** *
 270:Generated_Source\PSoC6/CapSense_1_Control.c **** * \details
 271:Generated_Source\PSoC6/CapSense_1_Control.c **** *  This function resumes the Component operation if the operation is stopped
 272:Generated_Source\PSoC6/CapSense_1_Control.c **** *  previously by the CapSense_1_Stop() function. The following tasks are
 273:Generated_Source\PSoC6/CapSense_1_Control.c **** *  executed as part of the operation resume process:
 274:Generated_Source\PSoC6/CapSense_1_Control.c **** *    1. Reset all the Widgets/Sensors statuses.
ARM GAS  C:\Users\enes_\AppData\Local\Temp\ccWI375M.s 			page 9


 275:Generated_Source\PSoC6/CapSense_1_Control.c **** *    2. Configure the hardware to perform capacitive sensing.
 276:Generated_Source\PSoC6/CapSense_1_Control.c **** *
 277:Generated_Source\PSoC6/CapSense_1_Control.c **** * \return
 278:Generated_Source\PSoC6/CapSense_1_Control.c **** *  Returns the status of the resume process. If CY_RET_SUCCESS is not received,
 279:Generated_Source\PSoC6/CapSense_1_Control.c **** *  the resume process fails and retries may be required.
 280:Generated_Source\PSoC6/CapSense_1_Control.c **** *
 281:Generated_Source\PSoC6/CapSense_1_Control.c **** *******************************************************************************/
 282:Generated_Source\PSoC6/CapSense_1_Control.c **** cy_status CapSense_1_Resume(void)
 283:Generated_Source\PSoC6/CapSense_1_Control.c **** {
 171              		.loc 1 283 0
 172              		.cfi_startproc
 173              		@ args = 0, pretend = 0, frame = 0
 174              		@ frame_needed = 0, uses_anonymous_args = 0
 175 0000 10B5     		push	{r4, lr}
 176              		.cfi_def_cfa_offset 8
 177              		.cfi_offset 4, -8
 178              		.cfi_offset 14, -4
 284:Generated_Source\PSoC6/CapSense_1_Control.c ****     cy_status result;
 285:Generated_Source\PSoC6/CapSense_1_Control.c **** 
 286:Generated_Source\PSoC6/CapSense_1_Control.c ****     /* The Tuner are initialized only once in order not to break communication */
 287:Generated_Source\PSoC6/CapSense_1_Control.c ****     if (CapSense_1_INIT_NEEDED == CapSense_1_InitVar)
 179              		.loc 1 287 0
 180 0002 074B     		ldr	r3, .L15
 181 0004 1B78     		ldrb	r3, [r3]
 182 0006 002B     		cmp	r3, #0
 183 0008 04D1     		bne	.L14
 288:Generated_Source\PSoC6/CapSense_1_Control.c ****     {
 289:Generated_Source\PSoC6/CapSense_1_Control.c ****         CapSense_1_TuInitialize();
 184              		.loc 1 289 0
 185 000a FFF7FEFF 		bl	CapSense_1_TuInitialize
 186              	.LVL17:
 290:Generated_Source\PSoC6/CapSense_1_Control.c ****         CapSense_1_InitVar = CapSense_1_INIT_DONE;
 187              		.loc 1 290 0
 188 000e 0122     		movs	r2, #1
 189 0010 034B     		ldr	r3, .L15
 190 0012 1A70     		strb	r2, [r3]
 191              	.L14:
 291:Generated_Source\PSoC6/CapSense_1_Control.c ****     }
 292:Generated_Source\PSoC6/CapSense_1_Control.c ****     CapSense_1_DpInitialize();
 192              		.loc 1 292 0
 193 0014 FFF7FEFF 		bl	CapSense_1_DpInitialize
 194              	.LVL18:
 293:Generated_Source\PSoC6/CapSense_1_Control.c **** 
 294:Generated_Source\PSoC6/CapSense_1_Control.c ****     result = CapSense_1_SsInitialize();
 195              		.loc 1 294 0
 196 0018 FFF7FEFF 		bl	CapSense_1_SsInitialize
 197              	.LVL19:
 295:Generated_Source\PSoC6/CapSense_1_Control.c **** 
 296:Generated_Source\PSoC6/CapSense_1_Control.c ****     return result;
 297:Generated_Source\PSoC6/CapSense_1_Control.c **** }
 198              		.loc 1 297 0
 199              		@ sp needed
 200 001c 10BD     		pop	{r4, pc}
 201              	.L16:
 202 001e C046     		.align	2
 203              	.L15:
 204 0020 00000000 		.word	.LANCHOR0
ARM GAS  C:\Users\enes_\AppData\Local\Temp\ccWI375M.s 			page 10


 205              		.cfi_endproc
 206              	.LFE182:
 207              		.size	CapSense_1_Resume, .-CapSense_1_Resume
 208              		.section	.text.CapSense_1_ProcessAllWidgets,"ax",%progbits
 209              		.align	2
 210              		.global	CapSense_1_ProcessAllWidgets
 211              		.code	16
 212              		.thumb_func
 213              		.type	CapSense_1_ProcessAllWidgets, %function
 214              	CapSense_1_ProcessAllWidgets:
 215              	.LFB183:
 298:Generated_Source\PSoC6/CapSense_1_Control.c **** 
 299:Generated_Source\PSoC6/CapSense_1_Control.c **** /*******************************************************************************
 300:Generated_Source\PSoC6/CapSense_1_Control.c **** * Function Name: CapSense_1_ProcessAllWidgets
 301:Generated_Source\PSoC6/CapSense_1_Control.c **** ****************************************************************************//**
 302:Generated_Source\PSoC6/CapSense_1_Control.c **** *
 303:Generated_Source\PSoC6/CapSense_1_Control.c **** * \brief
 304:Generated_Source\PSoC6/CapSense_1_Control.c **** *  Performs full data processing of all enabled widgets.
 305:Generated_Source\PSoC6/CapSense_1_Control.c **** *
 306:Generated_Source\PSoC6/CapSense_1_Control.c **** * \details
 307:Generated_Source\PSoC6/CapSense_1_Control.c **** *  This function performs all data processes for all enabled widgets in the
 308:Generated_Source\PSoC6/CapSense_1_Control.c **** *  Component. The following tasks are executed as part of processing all the
 309:Generated_Source\PSoC6/CapSense_1_Control.c **** *  widgets:
 310:Generated_Source\PSoC6/CapSense_1_Control.c **** *    1. Apply raw count filters to the raw counts, if they are enabled in the
 311:Generated_Source\PSoC6/CapSense_1_Control.c **** *       customizer.
 312:Generated_Source\PSoC6/CapSense_1_Control.c **** *    2. Update the thresholds if the SmartSense Full Auto-Tuning is enabled in
 313:Generated_Source\PSoC6/CapSense_1_Control.c **** *       the customizer.
 314:Generated_Source\PSoC6/CapSense_1_Control.c **** *    3. Update the baselines and difference counts for all the sensors.
 315:Generated_Source\PSoC6/CapSense_1_Control.c **** *    4. Update the sensor and widget status (on/off), update the centroid for
 316:Generated_Source\PSoC6/CapSense_1_Control.c **** *       the sliders and the X/Y position for the touchpads.
 317:Generated_Source\PSoC6/CapSense_1_Control.c **** *
 318:Generated_Source\PSoC6/CapSense_1_Control.c **** *  This function is called by an application program only after all the enabled
 319:Generated_Source\PSoC6/CapSense_1_Control.c **** *  widgets (and sensors) in the Component is scanned. Calling this function
 320:Generated_Source\PSoC6/CapSense_1_Control.c **** *  multiple times without sensor scanning causes unexpected behavior.
 321:Generated_Source\PSoC6/CapSense_1_Control.c **** *
 322:Generated_Source\PSoC6/CapSense_1_Control.c **** *  The disabled widgets are not processed by this function. To disable/enable
 323:Generated_Source\PSoC6/CapSense_1_Control.c **** *  a widget, set the appropriate values in the
 324:Generated_Source\PSoC6/CapSense_1_Control.c **** *  CapSense_1_WDGT_ENABLE<RegisterNumber>_PARAM_ID register using the
 325:Generated_Source\PSoC6/CapSense_1_Control.c **** *  CapSense_1_SetParam() function.
 326:Generated_Source\PSoC6/CapSense_1_Control.c **** *
 327:Generated_Source\PSoC6/CapSense_1_Control.c **** *  If the Ballistic multiplier filter is enabled the Timestamp must be
 328:Generated_Source\PSoC6/CapSense_1_Control.c **** *  updated before calling this function using the
 329:Generated_Source\PSoC6/CapSense_1_Control.c **** *  CapSense_1_IncrementGestureTimestamp() function.
 330:Generated_Source\PSoC6/CapSense_1_Control.c **** *
 331:Generated_Source\PSoC6/CapSense_1_Control.c **** *  If the Self-test library is enabled, this function executes the baseline duplication
 332:Generated_Source\PSoC6/CapSense_1_Control.c **** *  test. Refer to CapSense_1_CheckBaselineDuplication() for details.
 333:Generated_Source\PSoC6/CapSense_1_Control.c **** *
 334:Generated_Source\PSoC6/CapSense_1_Control.c **** * \return
 335:Generated_Source\PSoC6/CapSense_1_Control.c **** *  Returns the status of the processing operation. If CY_RET_SUCCESS is not received,
 336:Generated_Source\PSoC6/CapSense_1_Control.c **** *  the processing fails and retries may be required.
 337:Generated_Source\PSoC6/CapSense_1_Control.c **** *
 338:Generated_Source\PSoC6/CapSense_1_Control.c **** *******************************************************************************/
 339:Generated_Source\PSoC6/CapSense_1_Control.c **** cy_status CapSense_1_ProcessAllWidgets(void)
 340:Generated_Source\PSoC6/CapSense_1_Control.c **** {
 216              		.loc 1 340 0
 217              		.cfi_startproc
 218              		@ args = 0, pretend = 0, frame = 0
ARM GAS  C:\Users\enes_\AppData\Local\Temp\ccWI375M.s 			page 11


 219              		@ frame_needed = 0, uses_anonymous_args = 0
 220 0000 70B5     		push	{r4, r5, r6, lr}
 221              		.cfi_def_cfa_offset 16
 222              		.cfi_offset 4, -16
 223              		.cfi_offset 5, -12
 224              		.cfi_offset 6, -8
 225              		.cfi_offset 14, -4
 226              	.LVL20:
 341:Generated_Source\PSoC6/CapSense_1_Control.c ****     uint32 wdgtId;
 342:Generated_Source\PSoC6/CapSense_1_Control.c ****     cy_status result = CY_RET_SUCCESS;
 343:Generated_Source\PSoC6/CapSense_1_Control.c ****     CapSense_1_FLASH_WD_STRUCT const *ptrFlashWdgt;
 344:Generated_Source\PSoC6/CapSense_1_Control.c **** 
 345:Generated_Source\PSoC6/CapSense_1_Control.c ****     ptrFlashWdgt = CapSense_1_dsFlash.wdgtArray;
 227              		.loc 1 345 0
 228 0002 184E     		ldr	r6, .L25
 342:Generated_Source\PSoC6/CapSense_1_Control.c ****     CapSense_1_FLASH_WD_STRUCT const *ptrFlashWdgt;
 229              		.loc 1 342 0
 230 0004 0025     		movs	r5, #0
 346:Generated_Source\PSoC6/CapSense_1_Control.c **** 
 347:Generated_Source\PSoC6/CapSense_1_Control.c ****     for (wdgtId = 0u; wdgtId < CapSense_1_TOTAL_WIDGETS; wdgtId++)
 231              		.loc 1 347 0
 232 0006 0024     		movs	r4, #0
 233 0008 28E0     		b	.L18
 234              	.LVL21:
 235              	.L23:
 348:Generated_Source\PSoC6/CapSense_1_Control.c ****     {
 349:Generated_Source\PSoC6/CapSense_1_Control.c ****         if (0uL != CapSense_1_GET_WIDGET_EN_STATUS(wdgtId))
 236              		.loc 1 349 0
 237 000a 6309     		lsrs	r3, r4, #5
 238 000c 0433     		adds	r3, r3, #4
 239 000e 9B00     		lsls	r3, r3, #2
 240 0010 154A     		ldr	r2, .L25+4
 241 0012 9B58     		ldr	r3, [r3, r2]
 242 0014 1F22     		movs	r2, #31
 243 0016 2240     		ands	r2, r4
 244 0018 D340     		lsrs	r3, r3, r2
 245 001a DB07     		lsls	r3, r3, #31
 246 001c 1CD5     		bpl	.L19
 350:Generated_Source\PSoC6/CapSense_1_Control.c ****         {
 351:Generated_Source\PSoC6/CapSense_1_Control.c ****             switch(CapSense_1_GET_SENSE_METHOD(ptrFlashWdgt))
 247              		.loc 1 351 0
 248 001e F37E     		ldrb	r3, [r6, #27]
 249 0020 012B     		cmp	r3, #1
 250 0022 02D0     		beq	.L21
 251 0024 022B     		cmp	r3, #2
 252 0026 09D0     		beq	.L22
 253 0028 11E0     		b	.L24
 254              	.L21:
 352:Generated_Source\PSoC6/CapSense_1_Control.c ****             {
 353:Generated_Source\PSoC6/CapSense_1_Control.c ****             #if (0u != CapSense_1_TOTAL_CSD_WIDGETS)
 354:Generated_Source\PSoC6/CapSense_1_Control.c ****                 case CapSense_1_SENSE_METHOD_CSD_E:
 355:Generated_Source\PSoC6/CapSense_1_Control.c ****                     result = CapSense_1_DpProcessCsdWidgetRawCounts(ptrFlashWdgt);
 255              		.loc 1 355 0
 256 002a 3000     		movs	r0, r6
 257 002c FFF7FEFF 		bl	CapSense_1_DpProcessCsdWidgetRawCounts
 258              	.LVL22:
 259 0030 0500     		movs	r5, r0
ARM GAS  C:\Users\enes_\AppData\Local\Temp\ccWI375M.s 			page 12


 260              	.LVL23:
 356:Generated_Source\PSoC6/CapSense_1_Control.c ****                     CapSense_1_DpProcessCsdWidgetStatus(wdgtId, ptrFlashWdgt);
 261              		.loc 1 356 0
 262 0032 3100     		movs	r1, r6
 263 0034 2000     		movs	r0, r4
 264              	.LVL24:
 265 0036 FFF7FEFF 		bl	CapSense_1_DpProcessCsdWidgetStatus
 266              	.LVL25:
 357:Generated_Source\PSoC6/CapSense_1_Control.c ****                     break;
 267              		.loc 1 357 0
 268 003a 0DE0     		b	.L19
 269              	.L22:
 358:Generated_Source\PSoC6/CapSense_1_Control.c ****             #endif /* #if (0u != CapSense_1_TOTAL_CSD_WIDGETS) */
 359:Generated_Source\PSoC6/CapSense_1_Control.c **** 
 360:Generated_Source\PSoC6/CapSense_1_Control.c ****             #if (0u != CapSense_1_TOTAL_CSX_WIDGETS)
 361:Generated_Source\PSoC6/CapSense_1_Control.c ****                 case CapSense_1_SENSE_METHOD_CSX_E:
 362:Generated_Source\PSoC6/CapSense_1_Control.c ****                     result = CapSense_1_DpProcessCsxWidgetRawCounts(ptrFlashWdgt);
 270              		.loc 1 362 0
 271 003c 3000     		movs	r0, r6
 272 003e FFF7FEFF 		bl	CapSense_1_DpProcessCsxWidgetRawCounts
 273              	.LVL26:
 274 0042 0500     		movs	r5, r0
 275              	.LVL27:
 363:Generated_Source\PSoC6/CapSense_1_Control.c ****                     CapSense_1_DpProcessCsxWidgetStatus(wdgtId, ptrFlashWdgt);
 276              		.loc 1 363 0
 277 0044 3100     		movs	r1, r6
 278 0046 2000     		movs	r0, r4
 279              	.LVL28:
 280 0048 FFF7FEFF 		bl	CapSense_1_DpProcessCsxWidgetStatus
 281              	.LVL29:
 364:Generated_Source\PSoC6/CapSense_1_Control.c ****                     break;
 282              		.loc 1 364 0
 283 004c 04E0     		b	.L19
 284              	.L24:
 365:Generated_Source\PSoC6/CapSense_1_Control.c ****             #endif /* #if (0u != CapSense_1_TOTAL_CSX_WIDGETS) */
 366:Generated_Source\PSoC6/CapSense_1_Control.c **** 
 367:Generated_Source\PSoC6/CapSense_1_Control.c ****             default:
 368:Generated_Source\PSoC6/CapSense_1_Control.c ****                 CY_ASSERT(0 != 0);
 285              		.loc 1 368 0 discriminator 1
 286 004e B821     		movs	r1, #184
 287 0050 4900     		lsls	r1, r1, #1
 288 0052 0648     		ldr	r0, .L25+8
 289 0054 FFF7FEFF 		bl	Cy_SysLib_AssertFailed
 290              	.LVL30:
 291              	.L19:
 369:Generated_Source\PSoC6/CapSense_1_Control.c ****                 break;
 370:Generated_Source\PSoC6/CapSense_1_Control.c ****             }
 371:Generated_Source\PSoC6/CapSense_1_Control.c **** 
 372:Generated_Source\PSoC6/CapSense_1_Control.c ****             #if (CapSense_1_ENABLE == CapSense_1_TST_BSLN_DUPLICATION_EN)
 373:Generated_Source\PSoC6/CapSense_1_Control.c ****                 if (CY_RET_SUCCESS != result)
 374:Generated_Source\PSoC6/CapSense_1_Control.c ****                 {
 375:Generated_Source\PSoC6/CapSense_1_Control.c ****                     CapSense_1_UpdateTestResultBaselineDuplication(wdgtId, result);
 376:Generated_Source\PSoC6/CapSense_1_Control.c ****                     result = CY_RET_BAD_DATA;
 377:Generated_Source\PSoC6/CapSense_1_Control.c ****                 }
 378:Generated_Source\PSoC6/CapSense_1_Control.c ****             #endif /* (CapSense_1_ENABLE == CapSense_1_TST_BSLN_DUPLICATION_EN) */
 379:Generated_Source\PSoC6/CapSense_1_Control.c **** 
 380:Generated_Source\PSoC6/CapSense_1_Control.c ****         }
ARM GAS  C:\Users\enes_\AppData\Local\Temp\ccWI375M.s 			page 13


 381:Generated_Source\PSoC6/CapSense_1_Control.c ****         ptrFlashWdgt++;
 292              		.loc 1 381 0 discriminator 2
 293 0058 2C36     		adds	r6, r6, #44
 294              	.LVL31:
 347:Generated_Source\PSoC6/CapSense_1_Control.c ****     {
 295              		.loc 1 347 0 discriminator 2
 296 005a 0134     		adds	r4, r4, #1
 297              	.LVL32:
 298              	.L18:
 347:Generated_Source\PSoC6/CapSense_1_Control.c ****     {
 299              		.loc 1 347 0 is_stmt 0 discriminator 1
 300 005c 022C     		cmp	r4, #2
 301 005e D4D9     		bls	.L23
 382:Generated_Source\PSoC6/CapSense_1_Control.c ****     }
 383:Generated_Source\PSoC6/CapSense_1_Control.c ****     return result;
 384:Generated_Source\PSoC6/CapSense_1_Control.c **** }
 302              		.loc 1 384 0 is_stmt 1
 303 0060 2800     		movs	r0, r5
 304              		@ sp needed
 305              	.LVL33:
 306              	.LVL34:
 307              	.LVL35:
 308 0062 70BD     		pop	{r4, r5, r6, pc}
 309              	.L26:
 310              		.align	2
 311              	.L25:
 312 0064 00000000 		.word	CapSense_1_dsFlash
 313 0068 00000000 		.word	CapSense_1_dsRam
 314 006c 00000000 		.word	.LC5
 315              		.cfi_endproc
 316              	.LFE183:
 317              		.size	CapSense_1_ProcessAllWidgets, .-CapSense_1_ProcessAllWidgets
 318              		.section	.text.CapSense_1_ProcessWidget,"ax",%progbits
 319              		.align	2
 320              		.global	CapSense_1_ProcessWidget
 321              		.code	16
 322              		.thumb_func
 323              		.type	CapSense_1_ProcessWidget, %function
 324              	CapSense_1_ProcessWidget:
 325              	.LFB184:
 385:Generated_Source\PSoC6/CapSense_1_Control.c **** 
 386:Generated_Source\PSoC6/CapSense_1_Control.c **** /*******************************************************************************
 387:Generated_Source\PSoC6/CapSense_1_Control.c **** * Function Name: CapSense_1_ProcessWidget
 388:Generated_Source\PSoC6/CapSense_1_Control.c **** ****************************************************************************//**
 389:Generated_Source\PSoC6/CapSense_1_Control.c **** *
 390:Generated_Source\PSoC6/CapSense_1_Control.c **** * \brief
 391:Generated_Source\PSoC6/CapSense_1_Control.c **** *  Performs full data processing of the specified widget if it is enabled.
 392:Generated_Source\PSoC6/CapSense_1_Control.c **** *
 393:Generated_Source\PSoC6/CapSense_1_Control.c **** * \details
 394:Generated_Source\PSoC6/CapSense_1_Control.c **** *  This function performs exactly the same tasks as
 395:Generated_Source\PSoC6/CapSense_1_Control.c **** *  CapSense_1_ProcessAllWidgets(), but only for a specified widget. This
 396:Generated_Source\PSoC6/CapSense_1_Control.c **** *  function can be used along with the CapSense_1_SetupWidget() and
 397:Generated_Source\PSoC6/CapSense_1_Control.c **** *  CapSense_1_Scan() functions to scan and process data for a specific
 398:Generated_Source\PSoC6/CapSense_1_Control.c **** *  widget. This function is called only after all the sensors in the
 399:Generated_Source\PSoC6/CapSense_1_Control.c **** *  widgets are scanned. A disabled widget is not processed by this function.
 400:Generated_Source\PSoC6/CapSense_1_Control.c **** *
 401:Generated_Source\PSoC6/CapSense_1_Control.c **** *  A pipeline scan method (i.e. during scanning of a widget perform processing
ARM GAS  C:\Users\enes_\AppData\Local\Temp\ccWI375M.s 			page 14


 402:Generated_Source\PSoC6/CapSense_1_Control.c **** *  of the previously scanned widget) can be implemented using this function and
 403:Generated_Source\PSoC6/CapSense_1_Control.c **** *  it may reduce the total execution time, increase the refresh rate and
 404:Generated_Source\PSoC6/CapSense_1_Control.c **** *  decrease the average power consumption.
 405:Generated_Source\PSoC6/CapSense_1_Control.c **** *
 406:Generated_Source\PSoC6/CapSense_1_Control.c **** *  If the Ballistic multiplier filter is enabled the Timestamp must be
 407:Generated_Source\PSoC6/CapSense_1_Control.c **** *  updated before calling this function using the
 408:Generated_Source\PSoC6/CapSense_1_Control.c **** *  CapSense_1_IncrementGestureTimestamp() function.
 409:Generated_Source\PSoC6/CapSense_1_Control.c **** *
 410:Generated_Source\PSoC6/CapSense_1_Control.c **** *  If the Self-test library is enabled, this function executes the baseline duplication
 411:Generated_Source\PSoC6/CapSense_1_Control.c **** *  test. Refer to CapSense_1_CheckBaselineDuplication() for details.
 412:Generated_Source\PSoC6/CapSense_1_Control.c **** *
 413:Generated_Source\PSoC6/CapSense_1_Control.c **** * \param widgetId
 414:Generated_Source\PSoC6/CapSense_1_Control.c **** *  Specifies the ID number of the widget to be processed.
 415:Generated_Source\PSoC6/CapSense_1_Control.c **** *  A macro for the widget ID can be found in the
 416:Generated_Source\PSoC6/CapSense_1_Control.c **** *  CapSense_1 Configuration header file defined as
 417:Generated_Source\PSoC6/CapSense_1_Control.c **** *  CapSense_1_<WidgetName>_WDGT_ID
 418:Generated_Source\PSoC6/CapSense_1_Control.c **** *
 419:Generated_Source\PSoC6/CapSense_1_Control.c **** * \return
 420:Generated_Source\PSoC6/CapSense_1_Control.c **** *  Returns the status of the widget processing:
 421:Generated_Source\PSoC6/CapSense_1_Control.c **** *  - CY_RET_SUCCESS - The operation is successfully completed
 422:Generated_Source\PSoC6/CapSense_1_Control.c **** *  - CY_RET_BAD_PARAM - The input parameter is invalid
 423:Generated_Source\PSoC6/CapSense_1_Control.c **** *  - CY_RET_INVALID_STATE - The specified widget is disabled
 424:Generated_Source\PSoC6/CapSense_1_Control.c **** *  - CY_RET_BAD_DATA - The processing is failed
 425:Generated_Source\PSoC6/CapSense_1_Control.c **** *
 426:Generated_Source\PSoC6/CapSense_1_Control.c **** *******************************************************************************/
 427:Generated_Source\PSoC6/CapSense_1_Control.c **** cy_status CapSense_1_ProcessWidget(uint32 widgetId)
 428:Generated_Source\PSoC6/CapSense_1_Control.c **** {
 326              		.loc 1 428 0
 327              		.cfi_startproc
 328              		@ args = 0, pretend = 0, frame = 0
 329              		@ frame_needed = 0, uses_anonymous_args = 0
 330              	.LVL36:
 331 0000 70B5     		push	{r4, r5, r6, lr}
 332              		.cfi_def_cfa_offset 16
 333              		.cfi_offset 4, -16
 334              		.cfi_offset 5, -12
 335              		.cfi_offset 6, -8
 336              		.cfi_offset 14, -4
 337 0002 0500     		movs	r5, r0
 338              	.LVL37:
 429:Generated_Source\PSoC6/CapSense_1_Control.c ****     cy_status result = CY_RET_SUCCESS;
 430:Generated_Source\PSoC6/CapSense_1_Control.c ****     CapSense_1_FLASH_WD_STRUCT const *ptrFlashWdgt;
 431:Generated_Source\PSoC6/CapSense_1_Control.c **** 
 432:Generated_Source\PSoC6/CapSense_1_Control.c ****     if (widgetId >= CapSense_1_TOTAL_WIDGETS)
 339              		.loc 1 432 0
 340 0004 0228     		cmp	r0, #2
 341 0006 01D8     		bhi	.L34
 429:Generated_Source\PSoC6/CapSense_1_Control.c ****     cy_status result = CY_RET_SUCCESS;
 342              		.loc 1 429 0
 343 0008 0024     		movs	r4, #0
 344 000a 00E0     		b	.L28
 345              	.L34:
 433:Generated_Source\PSoC6/CapSense_1_Control.c ****     {
 434:Generated_Source\PSoC6/CapSense_1_Control.c ****         result = CY_RET_BAD_PARAM;
 346              		.loc 1 434 0
 347 000c 0124     		movs	r4, #1
 348              	.L28:
ARM GAS  C:\Users\enes_\AppData\Local\Temp\ccWI375M.s 			page 15


 349              	.LVL38:
 435:Generated_Source\PSoC6/CapSense_1_Control.c ****     }
 436:Generated_Source\PSoC6/CapSense_1_Control.c **** 
 437:Generated_Source\PSoC6/CapSense_1_Control.c ****     if ((CY_RET_SUCCESS == result) && (0uL == CapSense_1_GET_WIDGET_EN_STATUS(widgetId)))
 350              		.loc 1 437 0
 351 000e 002C     		cmp	r4, #0
 352 0010 0AD1     		bne	.L29
 353              		.loc 1 437 0 is_stmt 0 discriminator 1
 354 0012 6B09     		lsrs	r3, r5, #5
 355 0014 0433     		adds	r3, r3, #4
 356 0016 9B00     		lsls	r3, r3, #2
 357 0018 164A     		ldr	r2, .L37
 358 001a 9B58     		ldr	r3, [r3, r2]
 359 001c 1F22     		movs	r2, #31
 360 001e 2A40     		ands	r2, r5
 361 0020 D340     		lsrs	r3, r3, r2
 362 0022 DB07     		lsls	r3, r3, #31
 363 0024 00D4     		bmi	.L29
 438:Generated_Source\PSoC6/CapSense_1_Control.c ****     {
 439:Generated_Source\PSoC6/CapSense_1_Control.c ****         result = CY_RET_INVALID_STATE;
 364              		.loc 1 439 0 is_stmt 1
 365 0026 1134     		adds	r4, r4, #17
 366              	.LVL39:
 367              	.L29:
 440:Generated_Source\PSoC6/CapSense_1_Control.c ****     }
 441:Generated_Source\PSoC6/CapSense_1_Control.c **** 
 442:Generated_Source\PSoC6/CapSense_1_Control.c ****     if (CY_RET_SUCCESS == result)
 368              		.loc 1 442 0
 369 0028 002C     		cmp	r4, #0
 370 002a 20D1     		bne	.L30
 443:Generated_Source\PSoC6/CapSense_1_Control.c ****     {
 444:Generated_Source\PSoC6/CapSense_1_Control.c ****         ptrFlashWdgt = &CapSense_1_dsFlash.wdgtArray[widgetId];
 371              		.loc 1 444 0
 372 002c 2C26     		movs	r6, #44
 373 002e 6E43     		muls	r6, r5
 374 0030 114B     		ldr	r3, .L37+4
 375 0032 F618     		adds	r6, r6, r3
 376              	.LVL40:
 445:Generated_Source\PSoC6/CapSense_1_Control.c **** 
 446:Generated_Source\PSoC6/CapSense_1_Control.c ****         switch(CapSense_1_GET_SENSE_METHOD(ptrFlashWdgt))
 377              		.loc 1 446 0
 378 0034 F37E     		ldrb	r3, [r6, #27]
 379 0036 012B     		cmp	r3, #1
 380 0038 02D0     		beq	.L32
 381 003a 022B     		cmp	r3, #2
 382 003c 09D0     		beq	.L33
 383 003e 11E0     		b	.L36
 384              	.L32:
 447:Generated_Source\PSoC6/CapSense_1_Control.c ****         {
 448:Generated_Source\PSoC6/CapSense_1_Control.c ****         #if (0u != CapSense_1_TOTAL_CSD_WIDGETS)
 449:Generated_Source\PSoC6/CapSense_1_Control.c ****             case CapSense_1_SENSE_METHOD_CSD_E:
 450:Generated_Source\PSoC6/CapSense_1_Control.c ****                 result = CapSense_1_DpProcessCsdWidgetRawCounts(ptrFlashWdgt);
 385              		.loc 1 450 0
 386 0040 3000     		movs	r0, r6
 387              	.LVL41:
 388 0042 FFF7FEFF 		bl	CapSense_1_DpProcessCsdWidgetRawCounts
 389              	.LVL42:
ARM GAS  C:\Users\enes_\AppData\Local\Temp\ccWI375M.s 			page 16


 390 0046 0400     		movs	r4, r0
 391              	.LVL43:
 451:Generated_Source\PSoC6/CapSense_1_Control.c ****                 CapSense_1_DpProcessCsdWidgetStatus(widgetId, ptrFlashWdgt);
 392              		.loc 1 451 0
 393 0048 3100     		movs	r1, r6
 394 004a 2800     		movs	r0, r5
 395              	.LVL44:
 396 004c FFF7FEFF 		bl	CapSense_1_DpProcessCsdWidgetStatus
 397              	.LVL45:
 452:Generated_Source\PSoC6/CapSense_1_Control.c ****                 break;
 398              		.loc 1 452 0
 399 0050 0DE0     		b	.L30
 400              	.LVL46:
 401              	.L33:
 453:Generated_Source\PSoC6/CapSense_1_Control.c ****         #endif /* #if (0u != CapSense_1_TOTAL_CSD_WIDGETS) */
 454:Generated_Source\PSoC6/CapSense_1_Control.c **** 
 455:Generated_Source\PSoC6/CapSense_1_Control.c ****         #if (0u != CapSense_1_TOTAL_CSX_WIDGETS)
 456:Generated_Source\PSoC6/CapSense_1_Control.c ****             case CapSense_1_SENSE_METHOD_CSX_E:
 457:Generated_Source\PSoC6/CapSense_1_Control.c ****                 result = CapSense_1_DpProcessCsxWidgetRawCounts(ptrFlashWdgt);
 402              		.loc 1 457 0
 403 0052 3000     		movs	r0, r6
 404              	.LVL47:
 405 0054 FFF7FEFF 		bl	CapSense_1_DpProcessCsxWidgetRawCounts
 406              	.LVL48:
 407 0058 0400     		movs	r4, r0
 408              	.LVL49:
 458:Generated_Source\PSoC6/CapSense_1_Control.c ****                 CapSense_1_DpProcessCsxWidgetStatus(widgetId, ptrFlashWdgt);
 409              		.loc 1 458 0
 410 005a 3100     		movs	r1, r6
 411 005c 2800     		movs	r0, r5
 412              	.LVL50:
 413 005e FFF7FEFF 		bl	CapSense_1_DpProcessCsxWidgetStatus
 414              	.LVL51:
 459:Generated_Source\PSoC6/CapSense_1_Control.c ****                 break;
 415              		.loc 1 459 0
 416 0062 04E0     		b	.L30
 417              	.LVL52:
 418              	.L36:
 460:Generated_Source\PSoC6/CapSense_1_Control.c ****         #endif /* #if (0u != CapSense_1_TOTAL_CSX_WIDGETS) */
 461:Generated_Source\PSoC6/CapSense_1_Control.c **** 
 462:Generated_Source\PSoC6/CapSense_1_Control.c ****         default:
 463:Generated_Source\PSoC6/CapSense_1_Control.c ****             CY_ASSERT(0 != 0);
 419              		.loc 1 463 0 discriminator 1
 420 0064 D021     		movs	r1, #208
 421 0066 FF31     		adds	r1, r1, #255
 422 0068 0448     		ldr	r0, .L37+8
 423              	.LVL53:
 424 006a FFF7FEFF 		bl	Cy_SysLib_AssertFailed
 425              	.LVL54:
 426              	.L30:
 464:Generated_Source\PSoC6/CapSense_1_Control.c ****             break;
 465:Generated_Source\PSoC6/CapSense_1_Control.c ****         }
 466:Generated_Source\PSoC6/CapSense_1_Control.c **** 
 467:Generated_Source\PSoC6/CapSense_1_Control.c ****         #if (CapSense_1_ENABLE == CapSense_1_TST_BSLN_DUPLICATION_EN)
 468:Generated_Source\PSoC6/CapSense_1_Control.c ****             if (CY_RET_SUCCESS != result)
 469:Generated_Source\PSoC6/CapSense_1_Control.c ****             {
 470:Generated_Source\PSoC6/CapSense_1_Control.c ****                 CapSense_1_UpdateTestResultBaselineDuplication(widgetId, result);
ARM GAS  C:\Users\enes_\AppData\Local\Temp\ccWI375M.s 			page 17


 471:Generated_Source\PSoC6/CapSense_1_Control.c ****                 result = CY_RET_BAD_DATA;
 472:Generated_Source\PSoC6/CapSense_1_Control.c ****             }
 473:Generated_Source\PSoC6/CapSense_1_Control.c ****         #endif /* (CapSense_1_ENABLE == CapSense_1_TST_BSLN_DUPLICATION_EN) */
 474:Generated_Source\PSoC6/CapSense_1_Control.c ****     }
 475:Generated_Source\PSoC6/CapSense_1_Control.c ****     return result;
 476:Generated_Source\PSoC6/CapSense_1_Control.c **** }
 427              		.loc 1 476 0
 428 006e 2000     		movs	r0, r4
 429              		@ sp needed
 430              	.LVL55:
 431              	.LVL56:
 432 0070 70BD     		pop	{r4, r5, r6, pc}
 433              	.L38:
 434 0072 C046     		.align	2
 435              	.L37:
 436 0074 00000000 		.word	CapSense_1_dsRam
 437 0078 00000000 		.word	CapSense_1_dsFlash
 438 007c 00000000 		.word	.LC5
 439              		.cfi_endproc
 440              	.LFE184:
 441              		.size	CapSense_1_ProcessWidget, .-CapSense_1_ProcessWidget
 442              		.section	.text.CapSense_1_ProcessWidgetExt,"ax",%progbits
 443              		.align	2
 444              		.global	CapSense_1_ProcessWidgetExt
 445              		.code	16
 446              		.thumb_func
 447              		.type	CapSense_1_ProcessWidgetExt, %function
 448              	CapSense_1_ProcessWidgetExt:
 449              	.LFB185:
 477:Generated_Source\PSoC6/CapSense_1_Control.c **** 
 478:Generated_Source\PSoC6/CapSense_1_Control.c **** 
 479:Generated_Source\PSoC6/CapSense_1_Control.c **** /*******************************************************************************
 480:Generated_Source\PSoC6/CapSense_1_Control.c **** * Function Name: CapSense_1_ProcessWidgetExt
 481:Generated_Source\PSoC6/CapSense_1_Control.c **** ****************************************************************************//**
 482:Generated_Source\PSoC6/CapSense_1_Control.c **** *
 483:Generated_Source\PSoC6/CapSense_1_Control.c **** * \brief
 484:Generated_Source\PSoC6/CapSense_1_Control.c **** *  Performs customized data processing on the selected widget.
 485:Generated_Source\PSoC6/CapSense_1_Control.c **** *
 486:Generated_Source\PSoC6/CapSense_1_Control.c **** * \details
 487:Generated_Source\PSoC6/CapSense_1_Control.c **** *  This function performs data processes for the specified widget specified by
 488:Generated_Source\PSoC6/CapSense_1_Control.c **** *  the mode parameter. The execution order of the requested operations is from
 489:Generated_Source\PSoC6/CapSense_1_Control.c **** *  LSB to MSB of the mode parameter. For a different order, this API
 490:Generated_Source\PSoC6/CapSense_1_Control.c **** *  can be called multiple times with the required mode parameter.
 491:Generated_Source\PSoC6/CapSense_1_Control.c **** *
 492:Generated_Source\PSoC6/CapSense_1_Control.c **** *  This function can be used with any of the available scan functions. This
 493:Generated_Source\PSoC6/CapSense_1_Control.c **** *  function is called only after all the sensors in the specified widget are
 494:Generated_Source\PSoC6/CapSense_1_Control.c **** *  scanned. Calling this function multiple times with the same mode without
 495:Generated_Source\PSoC6/CapSense_1_Control.c **** *  sensor scanning causes unexpected behavior. This function ignores the value
 496:Generated_Source\PSoC6/CapSense_1_Control.c **** *  of the wdgtEnable register.
 497:Generated_Source\PSoC6/CapSense_1_Control.c **** *
 498:Generated_Source\PSoC6/CapSense_1_Control.c **** *  The CapSense_1_PROCESS_CALC_NOISE and
 499:Generated_Source\PSoC6/CapSense_1_Control.c **** *  CapSense_1_PROCESS_THRESHOLDS flags are supported by the CSD sensing
 500:Generated_Source\PSoC6/CapSense_1_Control.c **** *  method only when Auto-tuning mode is enabled.
 501:Generated_Source\PSoC6/CapSense_1_Control.c **** *
 502:Generated_Source\PSoC6/CapSense_1_Control.c **** *  The pipeline scan method (i.e. during scanning of a widget, processing
 503:Generated_Source\PSoC6/CapSense_1_Control.c **** *  of a previously scanned widget is performed) can be implemented using this
 504:Generated_Source\PSoC6/CapSense_1_Control.c **** *  function and it may reduce the total scan/process time, increase the refresh
ARM GAS  C:\Users\enes_\AppData\Local\Temp\ccWI375M.s 			page 18


 505:Generated_Source\PSoC6/CapSense_1_Control.c **** *  rate and decrease the power consumption.
 506:Generated_Source\PSoC6/CapSense_1_Control.c **** *
 507:Generated_Source\PSoC6/CapSense_1_Control.c **** *  If the Self-test library is enabled, this function executes the baseline duplication
 508:Generated_Source\PSoC6/CapSense_1_Control.c **** *  test. Refer to CapSense_1_CheckBaselineDuplication() for details.
 509:Generated_Source\PSoC6/CapSense_1_Control.c **** *
 510:Generated_Source\PSoC6/CapSense_1_Control.c **** *  If the Ballistic multiplier filter is enabled the Timestamp must be
 511:Generated_Source\PSoC6/CapSense_1_Control.c **** *  updated before calling this function using the
 512:Generated_Source\PSoC6/CapSense_1_Control.c **** *  CapSense_1_IncrementGestureTimestamp() function.
 513:Generated_Source\PSoC6/CapSense_1_Control.c **** *
 514:Generated_Source\PSoC6/CapSense_1_Control.c **** * \param widgetId
 515:Generated_Source\PSoC6/CapSense_1_Control.c **** *  Specifies the ID number of the widget to be processed.
 516:Generated_Source\PSoC6/CapSense_1_Control.c **** *  A macro for the widget ID can be found in the CapSense_1 Configuration header
 517:Generated_Source\PSoC6/CapSense_1_Control.c **** *  file defined as CapSense_1_<WidgetName>_WDGT_ID.
 518:Generated_Source\PSoC6/CapSense_1_Control.c **** 
 519:Generated_Source\PSoC6/CapSense_1_Control.c **** * \param mode
 520:Generated_Source\PSoC6/CapSense_1_Control.c **** *  Specifies the type of widget processing to be executed for the
 521:Generated_Source\PSoC6/CapSense_1_Control.c **** *  specified widget:
 522:Generated_Source\PSoC6/CapSense_1_Control.c **** *    1. Bits [31..6] - Reserved.
 523:Generated_Source\PSoC6/CapSense_1_Control.c **** *    2. Bits [5..0] - CapSense_1_PROCESS_ALL - Execute all the tasks.
 524:Generated_Source\PSoC6/CapSense_1_Control.c **** *    3. Bit [5] - CapSense_1_PROCESS_STATUS - Update the status (on/off,
 525:Generated_Source\PSoC6/CapSense_1_Control.c **** *       centroid position).
 526:Generated_Source\PSoC6/CapSense_1_Control.c **** *    4. Bit [4] - CapSense_1_PROCESS_THRESHOLDS - Update the thresholds
 527:Generated_Source\PSoC6/CapSense_1_Control.c **** *       (only in CSD auto-tuning mode).
 528:Generated_Source\PSoC6/CapSense_1_Control.c **** *    5. Bit [3] - CapSense_1_PROCESS_CALC_NOISE - Calculate the noise (only in
 529:Generated_Source\PSoC6/CapSense_1_Control.c **** *       CSD auto-tuning mode).
 530:Generated_Source\PSoC6/CapSense_1_Control.c **** *    6. Bit [2] - CapSense_1_PROCESS_DIFFCOUNTS - Update the difference counts.
 531:Generated_Source\PSoC6/CapSense_1_Control.c **** *    7. Bit [1] - CapSense_1_PROCESS_BASELINE - Update the baselines.
 532:Generated_Source\PSoC6/CapSense_1_Control.c **** *    8. Bit [0] - CapSense_1_PROCESS_FILTER - Run the firmware filters.
 533:Generated_Source\PSoC6/CapSense_1_Control.c **** *
 534:Generated_Source\PSoC6/CapSense_1_Control.c **** * \return
 535:Generated_Source\PSoC6/CapSense_1_Control.c **** *  Returns the status of the widget processing operation:
 536:Generated_Source\PSoC6/CapSense_1_Control.c **** *  - CY_RET_SUCCESS - The processing is successfully performed.
 537:Generated_Source\PSoC6/CapSense_1_Control.c **** *  - CY_RET_BAD_PARAM - The input parameter is invalid.
 538:Generated_Source\PSoC6/CapSense_1_Control.c **** *  - CY_RET_BAD_DATA - The processing failed.
 539:Generated_Source\PSoC6/CapSense_1_Control.c **** *
 540:Generated_Source\PSoC6/CapSense_1_Control.c **** *******************************************************************************/
 541:Generated_Source\PSoC6/CapSense_1_Control.c **** cy_status CapSense_1_ProcessWidgetExt(uint32 widgetId, uint32 mode)
 542:Generated_Source\PSoC6/CapSense_1_Control.c **** {
 450              		.loc 1 542 0
 451              		.cfi_startproc
 452              		@ args = 0, pretend = 0, frame = 16
 453              		@ frame_needed = 0, uses_anonymous_args = 0
 454              	.LVL57:
 455 0000 F0B5     		push	{r4, r5, r6, r7, lr}
 456              		.cfi_def_cfa_offset 20
 457              		.cfi_offset 4, -20
 458              		.cfi_offset 5, -16
 459              		.cfi_offset 6, -12
 460              		.cfi_offset 7, -8
 461              		.cfi_offset 14, -4
 462 0002 85B0     		sub	sp, sp, #20
 463              		.cfi_def_cfa_offset 40
 464 0004 0500     		movs	r5, r0
 465 0006 0291     		str	r1, [sp, #8]
 466              	.LVL58:
 543:Generated_Source\PSoC6/CapSense_1_Control.c ****     uint32 snsCount;
 544:Generated_Source\PSoC6/CapSense_1_Control.c ****     cy_status result = CY_RET_BAD_PARAM;
ARM GAS  C:\Users\enes_\AppData\Local\Temp\ccWI375M.s 			page 19


 545:Generated_Source\PSoC6/CapSense_1_Control.c ****     CapSense_1_FLASH_WD_STRUCT const *ptrFlashWdgt;
 546:Generated_Source\PSoC6/CapSense_1_Control.c ****     CapSense_1_PTR_FILTER_VARIANT fltrHistV;
 547:Generated_Source\PSoC6/CapSense_1_Control.c ****     CapSense_1_RAM_SNS_STRUCT *ptrSnsTmp;
 548:Generated_Source\PSoC6/CapSense_1_Control.c **** 
 549:Generated_Source\PSoC6/CapSense_1_Control.c ****     #if (0u != CapSense_1_TOTAL_CSD_WIDGETS)
 550:Generated_Source\PSoC6/CapSense_1_Control.c ****         uint32 isProxWdgt;
 551:Generated_Source\PSoC6/CapSense_1_Control.c ****     #endif
 552:Generated_Source\PSoC6/CapSense_1_Control.c **** 
 553:Generated_Source\PSoC6/CapSense_1_Control.c ****     if (widgetId < CapSense_1_TOTAL_WIDGETS)
 467              		.loc 1 553 0
 468 0008 0228     		cmp	r0, #2
 469 000a 42D8     		bhi	.L46
 554:Generated_Source\PSoC6/CapSense_1_Control.c ****     {
 555:Generated_Source\PSoC6/CapSense_1_Control.c ****         ptrFlashWdgt = &CapSense_1_dsFlash.wdgtArray[widgetId];
 470              		.loc 1 555 0
 471 000c 2C23     		movs	r3, #44
 472 000e 4343     		muls	r3, r0
 473 0010 224A     		ldr	r2, .L50
 474 0012 9E18     		adds	r6, r3, r2
 475              	.LVL59:
 556:Generated_Source\PSoC6/CapSense_1_Control.c ****         snsCount = CapSense_1_GET_SNS_CNT_BY_PTR(ptrFlashWdgt);
 476              		.loc 1 556 0
 477 0014 338B     		ldrh	r3, [r6, #24]
 478              	.LVL60:
 557:Generated_Source\PSoC6/CapSense_1_Control.c ****         ptrSnsTmp = ptrFlashWdgt->ptr2SnsRam;
 479              		.loc 1 557 0
 480 0016 B768     		ldr	r7, [r6, #8]
 481              	.LVL61:
 558:Generated_Source\PSoC6/CapSense_1_Control.c ****         fltrHistV.ptr = ptrFlashWdgt->ptr2FltrHistory;
 482              		.loc 1 558 0
 483 0018 F268     		ldr	r2, [r6, #12]
 484              	.LVL62:
 485 001a 0392     		str	r2, [sp, #12]
 559:Generated_Source\PSoC6/CapSense_1_Control.c **** 
 560:Generated_Source\PSoC6/CapSense_1_Control.c ****         switch(CapSense_1_GET_SENSE_METHOD(ptrFlashWdgt))
 486              		.loc 1 560 0
 487 001c F27E     		ldrb	r2, [r6, #27]
 488              	.LVL63:
 489 001e 012A     		cmp	r2, #1
 490 0020 0CD0     		beq	.L47
 491 0022 022A     		cmp	r2, #2
 492 0024 21D0     		beq	.L48
 493 0026 2DE0     		b	.L49
 494              	.LVL64:
 495              	.L44:
 561:Generated_Source\PSoC6/CapSense_1_Control.c ****         {
 562:Generated_Source\PSoC6/CapSense_1_Control.c ****         #if (0u != CapSense_1_TOTAL_CSD_WIDGETS)
 563:Generated_Source\PSoC6/CapSense_1_Control.c ****             case CapSense_1_SENSE_METHOD_CSD_E:
 564:Generated_Source\PSoC6/CapSense_1_Control.c ****             {
 565:Generated_Source\PSoC6/CapSense_1_Control.c ****                 /* Determine if widget is type of proximity.
 566:Generated_Source\PSoC6/CapSense_1_Control.c ****                  * The Proximity widgets use different filters and
 567:Generated_Source\PSoC6/CapSense_1_Control.c ****                  * therefore have different filter history object structure */
 568:Generated_Source\PSoC6/CapSense_1_Control.c ****                 isProxWdgt = (CapSense_1_GET_WIDGET_TYPE(ptrFlashWdgt) == CapSense_1_WD_PROXIMITY_E
 569:Generated_Source\PSoC6/CapSense_1_Control.c **** 
 570:Generated_Source\PSoC6/CapSense_1_Control.c ****                 /* Run the desired processing for the all CSD widget sensors */
 571:Generated_Source\PSoC6/CapSense_1_Control.c ****                 for (;snsCount-- > 0u;)
 572:Generated_Source\PSoC6/CapSense_1_Control.c ****                 {
ARM GAS  C:\Users\enes_\AppData\Local\Temp\ccWI375M.s 			page 20


 573:Generated_Source\PSoC6/CapSense_1_Control.c ****                     result = CapSense_1_DpProcessCsdSensorRawCountsExt(ptrFlashWdgt, ptrSnsTmp, flt
 496              		.loc 1 573 0
 497 0028 029B     		ldr	r3, [sp, #8]
 498 002a 039A     		ldr	r2, [sp, #12]
 499 002c 3900     		movs	r1, r7
 500 002e 3000     		movs	r0, r6
 501 0030 FFF7FEFF 		bl	CapSense_1_DpProcessCsdSensorRawCountsExt
 502              	.LVL65:
 503 0034 0190     		str	r0, [sp, #4]
 504              	.LVL66:
 574:Generated_Source\PSoC6/CapSense_1_Control.c **** 
 575:Generated_Source\PSoC6/CapSense_1_Control.c ****                     #if (CapSense_1_ENABLE == CapSense_1_TST_BSLN_DUPLICATION_EN)
 576:Generated_Source\PSoC6/CapSense_1_Control.c ****                         if (CY_RET_SUCCESS != result)
 577:Generated_Source\PSoC6/CapSense_1_Control.c ****                         {
 578:Generated_Source\PSoC6/CapSense_1_Control.c ****                             result = (result | CapSense_1_TST_LSBYTE) & snsCount;
 579:Generated_Source\PSoC6/CapSense_1_Control.c ****                         }
 580:Generated_Source\PSoC6/CapSense_1_Control.c ****                     #endif /* (CapSense_1_ENABLE == CapSense_1_TST_BSLN_DUPLICATION_EN) */
 581:Generated_Source\PSoC6/CapSense_1_Control.c **** 
 582:Generated_Source\PSoC6/CapSense_1_Control.c ****                     /* Move to the next sensor and filter history objects */
 583:Generated_Source\PSoC6/CapSense_1_Control.c ****                     ptrSnsTmp++;
 505              		.loc 1 583 0
 506 0036 0A37     		adds	r7, r7, #10
 507              	.LVL67:
 571:Generated_Source\PSoC6/CapSense_1_Control.c ****                 {
 508              		.loc 1 571 0
 509 0038 2300     		movs	r3, r4
 510 003a 01E0     		b	.L42
 511              	.LVL68:
 512              	.L47:
 544:Generated_Source\PSoC6/CapSense_1_Control.c ****     CapSense_1_FLASH_WD_STRUCT const *ptrFlashWdgt;
 513              		.loc 1 544 0
 514 003c 0122     		movs	r2, #1
 515 003e 0192     		str	r2, [sp, #4]
 516              	.LVL69:
 517              	.L42:
 571:Generated_Source\PSoC6/CapSense_1_Control.c ****                 {
 518              		.loc 1 571 0
 519 0040 5C1E     		subs	r4, r3, #1
 520              	.LVL70:
 521 0042 002B     		cmp	r3, #0
 522 0044 F0D1     		bne	.L44
 584:Generated_Source\PSoC6/CapSense_1_Control.c ****                     CapSense_1_INC_FLTR_OBJ_VARIANT(isProxWdgt, fltrHistV);
 585:Generated_Source\PSoC6/CapSense_1_Control.c ****                 }
 586:Generated_Source\PSoC6/CapSense_1_Control.c **** 
 587:Generated_Source\PSoC6/CapSense_1_Control.c ****                 if (0u != (mode & CapSense_1_PROCESS_STATUS))
 523              		.loc 1 587 0
 524 0046 029B     		ldr	r3, [sp, #8]
 525 0048 9B06     		lsls	r3, r3, #26
 526 004a 24D5     		bpl	.L40
 588:Generated_Source\PSoC6/CapSense_1_Control.c ****                 {
 589:Generated_Source\PSoC6/CapSense_1_Control.c ****                     CapSense_1_DpProcessCsdWidgetStatus(widgetId, ptrFlashWdgt);
 527              		.loc 1 589 0
 528 004c 3100     		movs	r1, r6
 529 004e 2800     		movs	r0, r5
 530 0050 FFF7FEFF 		bl	CapSense_1_DpProcessCsdWidgetStatus
 531              	.LVL71:
 532 0054 1FE0     		b	.L40
ARM GAS  C:\Users\enes_\AppData\Local\Temp\ccWI375M.s 			page 21


 533              	.L45:
 590:Generated_Source\PSoC6/CapSense_1_Control.c ****                 }
 591:Generated_Source\PSoC6/CapSense_1_Control.c ****                 break;
 592:Generated_Source\PSoC6/CapSense_1_Control.c ****             }
 593:Generated_Source\PSoC6/CapSense_1_Control.c ****         #endif /* #if (0u != CapSense_1_TOTAL_CSD_WIDGETS) */
 594:Generated_Source\PSoC6/CapSense_1_Control.c **** 
 595:Generated_Source\PSoC6/CapSense_1_Control.c ****         #if (0u != CapSense_1_TOTAL_CSX_WIDGETS)
 596:Generated_Source\PSoC6/CapSense_1_Control.c ****             case CapSense_1_SENSE_METHOD_CSX_E:
 597:Generated_Source\PSoC6/CapSense_1_Control.c **** 
 598:Generated_Source\PSoC6/CapSense_1_Control.c ****                 #if (0u != CapSense_1_CSX_MULTIPHASE_TX_EN)
 599:Generated_Source\PSoC6/CapSense_1_Control.c ****                     if ((0u != (mode & CapSense_1_PROCESS_DECONVOLUTION)) &&
 600:Generated_Source\PSoC6/CapSense_1_Control.c ****                         (0u != (ptrFlashWdgt->staticConfig & CapSense_1_MULTIPHASE_TX_MASK)))
 601:Generated_Source\PSoC6/CapSense_1_Control.c ****                     {
 602:Generated_Source\PSoC6/CapSense_1_Control.c ****                         CapSense_1_DpDeconvolution(ptrFlashWdgt);
 603:Generated_Source\PSoC6/CapSense_1_Control.c ****                     }
 604:Generated_Source\PSoC6/CapSense_1_Control.c ****                 #endif /* #if (0u != CapSense_1_CSX_MULTIPHASE_TX_EN) */
 605:Generated_Source\PSoC6/CapSense_1_Control.c **** 
 606:Generated_Source\PSoC6/CapSense_1_Control.c ****                 /* Run the desired processing for the all CSX widget sensors */
 607:Generated_Source\PSoC6/CapSense_1_Control.c ****                 for (;snsCount-- > 0u;)
 608:Generated_Source\PSoC6/CapSense_1_Control.c ****                 {
 609:Generated_Source\PSoC6/CapSense_1_Control.c ****                     result = CapSense_1_DpProcessCsxSensorRawCountsExt(ptrFlashWdgt, ptrSnsTmp, flt
 534              		.loc 1 609 0
 535 0056 029B     		ldr	r3, [sp, #8]
 536 0058 039A     		ldr	r2, [sp, #12]
 537 005a 3900     		movs	r1, r7
 538 005c 3000     		movs	r0, r6
 539 005e FFF7FEFF 		bl	CapSense_1_DpProcessCsxSensorRawCountsExt
 540              	.LVL72:
 541 0062 0190     		str	r0, [sp, #4]
 542              	.LVL73:
 610:Generated_Source\PSoC6/CapSense_1_Control.c **** 
 611:Generated_Source\PSoC6/CapSense_1_Control.c ****                     #if (CapSense_1_ENABLE == CapSense_1_TST_BSLN_DUPLICATION_EN)
 612:Generated_Source\PSoC6/CapSense_1_Control.c ****                         if (CY_RET_SUCCESS != result)
 613:Generated_Source\PSoC6/CapSense_1_Control.c ****                         {
 614:Generated_Source\PSoC6/CapSense_1_Control.c ****                             result = (result | CapSense_1_TST_LSBYTE) & snsCount;
 615:Generated_Source\PSoC6/CapSense_1_Control.c ****                         }
 616:Generated_Source\PSoC6/CapSense_1_Control.c ****                     #endif /* (CapSense_1_ENABLE == CapSense_1_TST_BSLN_DUPLICATION_EN) */
 617:Generated_Source\PSoC6/CapSense_1_Control.c **** 
 618:Generated_Source\PSoC6/CapSense_1_Control.c ****                     /* Move to the next sensor and filter history objects */
 619:Generated_Source\PSoC6/CapSense_1_Control.c ****                     ptrSnsTmp++;
 543              		.loc 1 619 0
 544 0064 0A37     		adds	r7, r7, #10
 545              	.LVL74:
 607:Generated_Source\PSoC6/CapSense_1_Control.c ****                 {
 546              		.loc 1 607 0
 547 0066 2300     		movs	r3, r4
 548 0068 01E0     		b	.L43
 549              	.LVL75:
 550              	.L48:
 560:Generated_Source\PSoC6/CapSense_1_Control.c ****         {
 551              		.loc 1 560 0
 552 006a 0122     		movs	r2, #1
 553 006c 0192     		str	r2, [sp, #4]
 554              	.LVL76:
 555              	.L43:
 607:Generated_Source\PSoC6/CapSense_1_Control.c ****                 {
 556              		.loc 1 607 0
ARM GAS  C:\Users\enes_\AppData\Local\Temp\ccWI375M.s 			page 22


 557 006e 5C1E     		subs	r4, r3, #1
 558              	.LVL77:
 559 0070 002B     		cmp	r3, #0
 560 0072 F0D1     		bne	.L45
 620:Generated_Source\PSoC6/CapSense_1_Control.c ****                     CapSense_1_INC_REG_FLTR_OBJ(fltrHistV);
 621:Generated_Source\PSoC6/CapSense_1_Control.c ****                 }
 622:Generated_Source\PSoC6/CapSense_1_Control.c **** 
 623:Generated_Source\PSoC6/CapSense_1_Control.c ****                 if (0u != (mode & CapSense_1_PROCESS_STATUS))
 561              		.loc 1 623 0
 562 0074 029B     		ldr	r3, [sp, #8]
 563 0076 9B06     		lsls	r3, r3, #26
 564 0078 0DD5     		bpl	.L40
 624:Generated_Source\PSoC6/CapSense_1_Control.c ****                 {
 625:Generated_Source\PSoC6/CapSense_1_Control.c ****                     CapSense_1_DpProcessCsxWidgetStatus(widgetId, ptrFlashWdgt);
 565              		.loc 1 625 0
 566 007a 3100     		movs	r1, r6
 567 007c 2800     		movs	r0, r5
 568 007e FFF7FEFF 		bl	CapSense_1_DpProcessCsxWidgetStatus
 569              	.LVL78:
 570 0082 08E0     		b	.L40
 571              	.LVL79:
 572              	.L49:
 626:Generated_Source\PSoC6/CapSense_1_Control.c ****                 }
 627:Generated_Source\PSoC6/CapSense_1_Control.c ****                 break;
 628:Generated_Source\PSoC6/CapSense_1_Control.c ****         #endif /* #if (0u != CapSense_1_TOTAL_CSX_WIDGETS) */
 629:Generated_Source\PSoC6/CapSense_1_Control.c **** 
 630:Generated_Source\PSoC6/CapSense_1_Control.c ****         default:
 631:Generated_Source\PSoC6/CapSense_1_Control.c ****             CY_ASSERT(0 != 0);
 573              		.loc 1 631 0 discriminator 1
 574 0084 0649     		ldr	r1, .L50+4
 575              	.LVL80:
 576 0086 0748     		ldr	r0, .L50+8
 577              	.LVL81:
 578 0088 FFF7FEFF 		bl	Cy_SysLib_AssertFailed
 579              	.LVL82:
 544:Generated_Source\PSoC6/CapSense_1_Control.c ****     CapSense_1_FLASH_WD_STRUCT const *ptrFlashWdgt;
 580              		.loc 1 544 0 discriminator 1
 581 008c 0123     		movs	r3, #1
 582 008e 0193     		str	r3, [sp, #4]
 632:Generated_Source\PSoC6/CapSense_1_Control.c ****             break;
 583              		.loc 1 632 0 discriminator 1
 584 0090 01E0     		b	.L40
 585              	.LVL83:
 586              	.L46:
 544:Generated_Source\PSoC6/CapSense_1_Control.c ****     CapSense_1_FLASH_WD_STRUCT const *ptrFlashWdgt;
 587              		.loc 1 544 0
 588 0092 0123     		movs	r3, #1
 589 0094 0193     		str	r3, [sp, #4]
 590              	.LVL84:
 591              	.L40:
 633:Generated_Source\PSoC6/CapSense_1_Control.c ****         }
 634:Generated_Source\PSoC6/CapSense_1_Control.c **** 
 635:Generated_Source\PSoC6/CapSense_1_Control.c ****         #if (CapSense_1_ENABLE == CapSense_1_TST_BSLN_DUPLICATION_EN)
 636:Generated_Source\PSoC6/CapSense_1_Control.c ****             if (CY_RET_SUCCESS != result)
 637:Generated_Source\PSoC6/CapSense_1_Control.c ****             {
 638:Generated_Source\PSoC6/CapSense_1_Control.c ****                 CapSense_1_UpdateTestResultBaselineDuplication(widgetId, snsCount);
 639:Generated_Source\PSoC6/CapSense_1_Control.c ****                 result = CY_RET_BAD_DATA;
ARM GAS  C:\Users\enes_\AppData\Local\Temp\ccWI375M.s 			page 23


 640:Generated_Source\PSoC6/CapSense_1_Control.c ****             }
 641:Generated_Source\PSoC6/CapSense_1_Control.c ****         #endif /* (CapSense_1_ENABLE == CapSense_1_TST_BSLN_DUPLICATION_EN) */
 642:Generated_Source\PSoC6/CapSense_1_Control.c **** 
 643:Generated_Source\PSoC6/CapSense_1_Control.c ****     }
 644:Generated_Source\PSoC6/CapSense_1_Control.c ****     return result;
 645:Generated_Source\PSoC6/CapSense_1_Control.c **** }
 592              		.loc 1 645 0
 593 0096 0198     		ldr	r0, [sp, #4]
 594 0098 05B0     		add	sp, sp, #20
 595              		@ sp needed
 596              	.LVL85:
 597 009a F0BD     		pop	{r4, r5, r6, r7, pc}
 598              	.L51:
 599              		.align	2
 600              	.L50:
 601 009c 00000000 		.word	CapSense_1_dsFlash
 602 00a0 77020000 		.word	631
 603 00a4 00000000 		.word	.LC5
 604              		.cfi_endproc
 605              	.LFE185:
 606              		.size	CapSense_1_ProcessWidgetExt, .-CapSense_1_ProcessWidgetExt
 607              		.section	.text.CapSense_1_ProcessSensorExt,"ax",%progbits
 608              		.align	2
 609              		.global	CapSense_1_ProcessSensorExt
 610              		.code	16
 611              		.thumb_func
 612              		.type	CapSense_1_ProcessSensorExt, %function
 613              	CapSense_1_ProcessSensorExt:
 614              	.LFB186:
 646:Generated_Source\PSoC6/CapSense_1_Control.c **** 
 647:Generated_Source\PSoC6/CapSense_1_Control.c **** /*******************************************************************************
 648:Generated_Source\PSoC6/CapSense_1_Control.c **** * Function Name: CapSense_1_ProcessSensorExt
 649:Generated_Source\PSoC6/CapSense_1_Control.c **** ****************************************************************************//**
 650:Generated_Source\PSoC6/CapSense_1_Control.c **** *
 651:Generated_Source\PSoC6/CapSense_1_Control.c **** * \brief
 652:Generated_Source\PSoC6/CapSense_1_Control.c **** *  Performs customized data processing on the selected widget's sensor.
 653:Generated_Source\PSoC6/CapSense_1_Control.c **** *
 654:Generated_Source\PSoC6/CapSense_1_Control.c **** * \details
 655:Generated_Source\PSoC6/CapSense_1_Control.c **** *  This function performs data processes for the specified sensor specified by
 656:Generated_Source\PSoC6/CapSense_1_Control.c **** *  the mode parameter. The execution order of the requested operations is from
 657:Generated_Source\PSoC6/CapSense_1_Control.c **** *  LSB to MSB of the mode parameter. For a different order, this
 658:Generated_Source\PSoC6/CapSense_1_Control.c **** *  function can be called multiple times with the required mode parameter.
 659:Generated_Source\PSoC6/CapSense_1_Control.c **** *
 660:Generated_Source\PSoC6/CapSense_1_Control.c **** *  This function can be used with any of the available scan functions. This
 661:Generated_Source\PSoC6/CapSense_1_Control.c **** *  function is called only after a specified sensor in the widget is
 662:Generated_Source\PSoC6/CapSense_1_Control.c **** *  scanned. Calling this function multiple times with the same mode without
 663:Generated_Source\PSoC6/CapSense_1_Control.c **** *  sensor scanning causes unexpected behavior. This function ignores the value
 664:Generated_Source\PSoC6/CapSense_1_Control.c **** *  of the wdgtEnable register.
 665:Generated_Source\PSoC6/CapSense_1_Control.c **** *
 666:Generated_Source\PSoC6/CapSense_1_Control.c **** *  The CapSense_1_PROCESS_CALC_NOISE and
 667:Generated_Source\PSoC6/CapSense_1_Control.c **** *  CapSense_1_PROCESS_THRESHOLDS flags are supported by the CSD sensing
 668:Generated_Source\PSoC6/CapSense_1_Control.c **** *  method only when Auto-tuning mode is enabled.
 669:Generated_Source\PSoC6/CapSense_1_Control.c **** *
 670:Generated_Source\PSoC6/CapSense_1_Control.c **** *  The pipeline scan method (i.e. during scanning of a sensor, processing
 671:Generated_Source\PSoC6/CapSense_1_Control.c **** *  of a previously scanned sensor is performed) can be implemented using this
 672:Generated_Source\PSoC6/CapSense_1_Control.c **** *  function and it may reduce the total scan/process time, increase the refresh
 673:Generated_Source\PSoC6/CapSense_1_Control.c **** *  rate and decrease the power consumption.
ARM GAS  C:\Users\enes_\AppData\Local\Temp\ccWI375M.s 			page 24


 674:Generated_Source\PSoC6/CapSense_1_Control.c **** *
 675:Generated_Source\PSoC6/CapSense_1_Control.c **** *  If the Self-test library is enabled, this function executes the baseline duplication
 676:Generated_Source\PSoC6/CapSense_1_Control.c **** *  test. Refer to CapSense_1_CheckBaselineDuplication() for details.
 677:Generated_Source\PSoC6/CapSense_1_Control.c **** *
 678:Generated_Source\PSoC6/CapSense_1_Control.c **** * \param widgetId
 679:Generated_Source\PSoC6/CapSense_1_Control.c **** *  Specifies the ID number of the widget to process one of its sensors.
 680:Generated_Source\PSoC6/CapSense_1_Control.c **** *  A macro for the widget ID can be found in the
 681:Generated_Source\PSoC6/CapSense_1_Control.c **** *  CapSense_1 Configuration header file defined as
 682:Generated_Source\PSoC6/CapSense_1_Control.c **** *  CapSense_1_<WidgetName>_WDGT_ID.
 683:Generated_Source\PSoC6/CapSense_1_Control.c **** *
 684:Generated_Source\PSoC6/CapSense_1_Control.c **** * \param sensorId
 685:Generated_Source\PSoC6/CapSense_1_Control.c **** *  Specifies the ID number of the sensor within the widget to process it.
 686:Generated_Source\PSoC6/CapSense_1_Control.c **** *  A macro for the sensor ID within a specified widget can be found in the
 687:Generated_Source\PSoC6/CapSense_1_Control.c **** *  CapSense_1 Configuration header file defined as
 688:Generated_Source\PSoC6/CapSense_1_Control.c **** *  CapSense_1_<WidgetName>_SNS<SensorNumber>_ID.
 689:Generated_Source\PSoC6/CapSense_1_Control.c **** *
 690:Generated_Source\PSoC6/CapSense_1_Control.c **** * \param mode
 691:Generated_Source\PSoC6/CapSense_1_Control.c **** *  Specifies the type of the sensor processing that needs to be executed for the
 692:Generated_Source\PSoC6/CapSense_1_Control.c **** *  specified sensor:
 693:Generated_Source\PSoC6/CapSense_1_Control.c **** *    1. Bits [31..5] - Reserved
 694:Generated_Source\PSoC6/CapSense_1_Control.c **** *    2. Bits [4..0] - CapSense_1_PROCESS_ALL - Executes all the tasks
 695:Generated_Source\PSoC6/CapSense_1_Control.c **** *    3. Bit [4] - CapSense_1_PROCESS_THRESHOLDS - Updates the thresholds (only
 696:Generated_Source\PSoC6/CapSense_1_Control.c **** *       in auto-tuning mode)
 697:Generated_Source\PSoC6/CapSense_1_Control.c **** *    4. Bit [3] - CapSense_1_PROCESS_CALC_NOISE - Calculates the noise (only
 698:Generated_Source\PSoC6/CapSense_1_Control.c **** *       in auto-tuning mode)
 699:Generated_Source\PSoC6/CapSense_1_Control.c **** *    5. Bit [2] - CapSense_1_PROCESS_DIFFCOUNTS - Updates the difference count
 700:Generated_Source\PSoC6/CapSense_1_Control.c **** *    6. Bit [1] - CapSense_1_PROCESS_BASELINE - Updates the baseline
 701:Generated_Source\PSoC6/CapSense_1_Control.c **** *    7. Bit [0] - CapSense_1_PROCESS_FILTER - Runs the firmware filters
 702:Generated_Source\PSoC6/CapSense_1_Control.c **** *
 703:Generated_Source\PSoC6/CapSense_1_Control.c **** * \return
 704:Generated_Source\PSoC6/CapSense_1_Control.c **** *  Returns the status of the sensor process operation:
 705:Generated_Source\PSoC6/CapSense_1_Control.c **** *  - CY_RET_SUCCESS - The processing is successfully performed.
 706:Generated_Source\PSoC6/CapSense_1_Control.c **** *  - CY_RET_BAD_PARAM - The input parameter is invalid.
 707:Generated_Source\PSoC6/CapSense_1_Control.c **** *  - CY_RET_BAD_DATA - The processing failed.
 708:Generated_Source\PSoC6/CapSense_1_Control.c **** *
 709:Generated_Source\PSoC6/CapSense_1_Control.c **** *******************************************************************************/
 710:Generated_Source\PSoC6/CapSense_1_Control.c **** cy_status CapSense_1_ProcessSensorExt(uint32 widgetId, uint32 sensorId, uint32 mode)
 711:Generated_Source\PSoC6/CapSense_1_Control.c **** {
 615              		.loc 1 711 0
 616              		.cfi_startproc
 617              		@ args = 0, pretend = 0, frame = 0
 618              		@ frame_needed = 0, uses_anonymous_args = 0
 619              	.LVL86:
 620 0000 10B5     		push	{r4, lr}
 621              		.cfi_def_cfa_offset 8
 622              		.cfi_offset 4, -8
 623              		.cfi_offset 14, -4
 624              	.LVL87:
 712:Generated_Source\PSoC6/CapSense_1_Control.c ****     cy_status result = CY_RET_BAD_PARAM;
 713:Generated_Source\PSoC6/CapSense_1_Control.c ****     CapSense_1_FLASH_WD_STRUCT const *ptrFlashWdgt;
 714:Generated_Source\PSoC6/CapSense_1_Control.c ****     CapSense_1_PTR_FILTER_VARIANT fltrHistV;
 715:Generated_Source\PSoC6/CapSense_1_Control.c ****     CapSense_1_RAM_SNS_STRUCT *ptrSnsTmp;
 716:Generated_Source\PSoC6/CapSense_1_Control.c **** 
 717:Generated_Source\PSoC6/CapSense_1_Control.c ****     if ((widgetId < CapSense_1_TOTAL_WIDGETS) && (sensorId < CapSense_1_GET_SENSOR_COUNT(widgetId))
 625              		.loc 1 717 0
 626 0002 0228     		cmp	r0, #2
 627 0004 24D8     		bhi	.L57
ARM GAS  C:\Users\enes_\AppData\Local\Temp\ccWI375M.s 			page 25


 628              		.loc 1 717 0 is_stmt 0 discriminator 1
 629 0006 2C24     		movs	r4, #44
 630 0008 4443     		muls	r4, r0
 631 000a 134B     		ldr	r3, .L60
 632 000c 1C19     		adds	r4, r3, r4
 633 000e 238B     		ldrh	r3, [r4, #24]
 634 0010 8B42     		cmp	r3, r1
 635 0012 1FD9     		bls	.L58
 636              	.LVL88:
 718:Generated_Source\PSoC6/CapSense_1_Control.c ****     {
 719:Generated_Source\PSoC6/CapSense_1_Control.c ****         result = CY_RET_SUCCESS;
 720:Generated_Source\PSoC6/CapSense_1_Control.c **** 
 721:Generated_Source\PSoC6/CapSense_1_Control.c ****         ptrFlashWdgt = &CapSense_1_dsFlash.wdgtArray[widgetId];
 637              		.loc 1 721 0 is_stmt 1
 638 0014 2000     		movs	r0, r4
 639              	.LVL89:
 722:Generated_Source\PSoC6/CapSense_1_Control.c ****         fltrHistV.ptr = ptrFlashWdgt->ptr2FltrHistory;
 640              		.loc 1 722 0
 641 0016 E468     		ldr	r4, [r4, #12]
 642              	.LVL90:
 723:Generated_Source\PSoC6/CapSense_1_Control.c ****         ptrSnsTmp = ptrFlashWdgt->ptr2SnsRam;
 724:Generated_Source\PSoC6/CapSense_1_Control.c ****         ptrSnsTmp += sensorId;
 643              		.loc 1 724 0
 644 0018 8B00     		lsls	r3, r1, #2
 645 001a 5918     		adds	r1, r3, r1
 646              	.LVL91:
 647 001c 4B00     		lsls	r3, r1, #1
 648 001e 8168     		ldr	r1, [r0, #8]
 649 0020 C918     		adds	r1, r1, r3
 650              	.LVL92:
 725:Generated_Source\PSoC6/CapSense_1_Control.c **** 
 726:Generated_Source\PSoC6/CapSense_1_Control.c ****         switch(CapSense_1_GET_SENSE_METHOD(ptrFlashWdgt))
 651              		.loc 1 726 0
 652 0022 C37E     		ldrb	r3, [r0, #27]
 653 0024 012B     		cmp	r3, #1
 654 0026 02D0     		beq	.L55
 655 0028 022B     		cmp	r3, #2
 656 002a 05D0     		beq	.L56
 657 002c 09E0     		b	.L59
 658              	.L55:
 727:Generated_Source\PSoC6/CapSense_1_Control.c ****         {
 728:Generated_Source\PSoC6/CapSense_1_Control.c ****         #if (0u != CapSense_1_TOTAL_CSD_WIDGETS)
 729:Generated_Source\PSoC6/CapSense_1_Control.c ****             case CapSense_1_SENSE_METHOD_CSD_E:
 730:Generated_Source\PSoC6/CapSense_1_Control.c ****                 if (CapSense_1_WD_PROXIMITY_E == (CapSense_1_WD_TYPE_ENUM)ptrFlashWdgt->wdgtType)
 731:Generated_Source\PSoC6/CapSense_1_Control.c ****                 {
 732:Generated_Source\PSoC6/CapSense_1_Control.c ****                     #if (0u != CapSense_1_PROX_RC_ALP_FILTER_EN)
 733:Generated_Source\PSoC6/CapSense_1_Control.c ****                         fltrHistV.ptr = &fltrHistV.ptrAlp[sensorId];
 734:Generated_Source\PSoC6/CapSense_1_Control.c ****                     #elif (0u != CapSense_1_PROX_RC_FILTER_EN)
 735:Generated_Source\PSoC6/CapSense_1_Control.c ****                         fltrHistV.ptr = &fltrHistV.ptrProx[sensorId];
 736:Generated_Source\PSoC6/CapSense_1_Control.c ****                     #endif
 737:Generated_Source\PSoC6/CapSense_1_Control.c ****                 }
 738:Generated_Source\PSoC6/CapSense_1_Control.c ****                 else
 739:Generated_Source\PSoC6/CapSense_1_Control.c ****                 {
 740:Generated_Source\PSoC6/CapSense_1_Control.c ****                     #if (0u != CapSense_1_REGULAR_RC_ALP_FILTER_EN)
 741:Generated_Source\PSoC6/CapSense_1_Control.c ****                         fltrHistV.ptr = &fltrHistV.ptrAlp[sensorId];
 742:Generated_Source\PSoC6/CapSense_1_Control.c ****                     #elif (0u != CapSense_1_REGULAR_RC_FILTER_EN)
 743:Generated_Source\PSoC6/CapSense_1_Control.c ****                         fltrHistV.ptr = &fltrHistV.ptrRegular[sensorId];
ARM GAS  C:\Users\enes_\AppData\Local\Temp\ccWI375M.s 			page 26


 744:Generated_Source\PSoC6/CapSense_1_Control.c ****                     #endif
 745:Generated_Source\PSoC6/CapSense_1_Control.c ****                 }
 746:Generated_Source\PSoC6/CapSense_1_Control.c **** 
 747:Generated_Source\PSoC6/CapSense_1_Control.c ****                 result = CapSense_1_DpProcessCsdSensorRawCountsExt(ptrFlashWdgt, ptrSnsTmp, fltrHis
 659              		.loc 1 747 0
 660 002e 1300     		movs	r3, r2
 661              	.LVL93:
 662 0030 2200     		movs	r2, r4
 663              	.LVL94:
 664 0032 FFF7FEFF 		bl	CapSense_1_DpProcessCsdSensorRawCountsExt
 665              	.LVL95:
 748:Generated_Source\PSoC6/CapSense_1_Control.c ****                 break;
 666              		.loc 1 748 0
 667 0036 0EE0     		b	.L53
 668              	.LVL96:
 669              	.L56:
 749:Generated_Source\PSoC6/CapSense_1_Control.c ****         #endif /* #if (0u != CapSense_1_TOTAL_CSD_WIDGETS) */
 750:Generated_Source\PSoC6/CapSense_1_Control.c **** 
 751:Generated_Source\PSoC6/CapSense_1_Control.c ****         #if (0u != CapSense_1_TOTAL_CSX_WIDGETS)
 752:Generated_Source\PSoC6/CapSense_1_Control.c ****             case CapSense_1_SENSE_METHOD_CSX_E:
 753:Generated_Source\PSoC6/CapSense_1_Control.c ****                 #if (0u != CapSense_1_REGULAR_RC_ALP_FILTER_EN)
 754:Generated_Source\PSoC6/CapSense_1_Control.c ****                     fltrHistV.ptr = &fltrHistV.ptrAlp[sensorId];
 755:Generated_Source\PSoC6/CapSense_1_Control.c ****                 #elif (0u != CapSense_1_REGULAR_RC_FILTER_EN)
 756:Generated_Source\PSoC6/CapSense_1_Control.c ****                     fltrHistV.ptr = &fltrHistV.ptrRegular[sensorId];
 757:Generated_Source\PSoC6/CapSense_1_Control.c ****                 #endif
 758:Generated_Source\PSoC6/CapSense_1_Control.c **** 
 759:Generated_Source\PSoC6/CapSense_1_Control.c ****                 result = CapSense_1_DpProcessCsxSensorRawCountsExt(ptrFlashWdgt, ptrSnsTmp, fltrHis
 670              		.loc 1 759 0
 671 0038 1300     		movs	r3, r2
 672              	.LVL97:
 673 003a 2200     		movs	r2, r4
 674              	.LVL98:
 675 003c FFF7FEFF 		bl	CapSense_1_DpProcessCsxSensorRawCountsExt
 676              	.LVL99:
 760:Generated_Source\PSoC6/CapSense_1_Control.c ****                 break;
 677              		.loc 1 760 0
 678 0040 09E0     		b	.L53
 679              	.LVL100:
 680              	.L59:
 761:Generated_Source\PSoC6/CapSense_1_Control.c ****         #endif /* #if (0u != CapSense_1_TOTAL_CSX_WIDGETS) */
 762:Generated_Source\PSoC6/CapSense_1_Control.c **** 
 763:Generated_Source\PSoC6/CapSense_1_Control.c ****         default:
 764:Generated_Source\PSoC6/CapSense_1_Control.c ****             CY_ASSERT(0 != 0);
 681              		.loc 1 764 0 discriminator 1
 682 0042 BF21     		movs	r1, #191
 683              	.LVL101:
 684 0044 8900     		lsls	r1, r1, #2
 685 0046 0548     		ldr	r0, .L60+4
 686              	.LVL102:
 687 0048 FFF7FEFF 		bl	Cy_SysLib_AssertFailed
 688              	.LVL103:
 719:Generated_Source\PSoC6/CapSense_1_Control.c **** 
 689              		.loc 1 719 0 discriminator 1
 690 004c 0020     		movs	r0, #0
 765:Generated_Source\PSoC6/CapSense_1_Control.c ****             break;
 691              		.loc 1 765 0 discriminator 1
 692 004e 02E0     		b	.L53
ARM GAS  C:\Users\enes_\AppData\Local\Temp\ccWI375M.s 			page 27


 693              	.LVL104:
 694              	.L57:
 712:Generated_Source\PSoC6/CapSense_1_Control.c ****     CapSense_1_FLASH_WD_STRUCT const *ptrFlashWdgt;
 695              		.loc 1 712 0
 696 0050 0120     		movs	r0, #1
 697              	.LVL105:
 698 0052 00E0     		b	.L53
 699              	.LVL106:
 700              	.L58:
 701 0054 0120     		movs	r0, #1
 702              	.LVL107:
 703              	.L53:
 766:Generated_Source\PSoC6/CapSense_1_Control.c ****         }
 767:Generated_Source\PSoC6/CapSense_1_Control.c **** 
 768:Generated_Source\PSoC6/CapSense_1_Control.c ****         #if (CapSense_1_ENABLE == CapSense_1_TST_BSLN_DUPLICATION_EN)
 769:Generated_Source\PSoC6/CapSense_1_Control.c ****             if (CY_RET_SUCCESS != result)
 770:Generated_Source\PSoC6/CapSense_1_Control.c ****             {
 771:Generated_Source\PSoC6/CapSense_1_Control.c ****                 CapSense_1_UpdateTestResultBaselineDuplication(widgetId, sensorId);
 772:Generated_Source\PSoC6/CapSense_1_Control.c ****                 result = CY_RET_BAD_DATA;
 773:Generated_Source\PSoC6/CapSense_1_Control.c ****             }
 774:Generated_Source\PSoC6/CapSense_1_Control.c ****         #endif /* (CapSense_1_ENABLE == CapSense_1_TST_BSLN_DUPLICATION_EN) */
 775:Generated_Source\PSoC6/CapSense_1_Control.c **** 
 776:Generated_Source\PSoC6/CapSense_1_Control.c ****     }
 777:Generated_Source\PSoC6/CapSense_1_Control.c ****     return result;
 778:Generated_Source\PSoC6/CapSense_1_Control.c **** }
 704              		.loc 1 778 0
 705              		@ sp needed
 706              	.LVL108:
 707 0056 10BD     		pop	{r4, pc}
 708              	.L61:
 709              		.align	2
 710              	.L60:
 711 0058 00000000 		.word	CapSense_1_dsFlash
 712 005c 00000000 		.word	.LC5
 713              		.cfi_endproc
 714              	.LFE186:
 715              		.size	CapSense_1_ProcessSensorExt, .-CapSense_1_ProcessSensorExt
 716              		.section	.text.CapSense_1_Sleep,"ax",%progbits
 717              		.align	2
 718              		.global	CapSense_1_Sleep
 719              		.code	16
 720              		.thumb_func
 721              		.type	CapSense_1_Sleep, %function
 722              	CapSense_1_Sleep:
 723              	.LFB187:
 779:Generated_Source\PSoC6/CapSense_1_Control.c **** 
 780:Generated_Source\PSoC6/CapSense_1_Control.c **** /*******************************************************************************
 781:Generated_Source\PSoC6/CapSense_1_Control.c **** * Function Name: CapSense_1_Sleep
 782:Generated_Source\PSoC6/CapSense_1_Control.c **** ****************************************************************************//**
 783:Generated_Source\PSoC6/CapSense_1_Control.c **** *
 784:Generated_Source\PSoC6/CapSense_1_Control.c **** * \brief
 785:Generated_Source\PSoC6/CapSense_1_Control.c **** *  Prepares the Component for deep sleep.
 786:Generated_Source\PSoC6/CapSense_1_Control.c **** *
 787:Generated_Source\PSoC6/CapSense_1_Control.c **** * \details
 788:Generated_Source\PSoC6/CapSense_1_Control.c **** *  Currently this function is empty and exists as a place for future updates,
 789:Generated_Source\PSoC6/CapSense_1_Control.c **** *  this function will be used to prepare the Component to enter deep sleep.
 790:Generated_Source\PSoC6/CapSense_1_Control.c **** *
ARM GAS  C:\Users\enes_\AppData\Local\Temp\ccWI375M.s 			page 28


 791:Generated_Source\PSoC6/CapSense_1_Control.c **** *******************************************************************************/
 792:Generated_Source\PSoC6/CapSense_1_Control.c **** void CapSense_1_Sleep(void)
 793:Generated_Source\PSoC6/CapSense_1_Control.c **** {
 724              		.loc 1 793 0
 725              		.cfi_startproc
 726              		@ args = 0, pretend = 0, frame = 0
 727              		@ frame_needed = 0, uses_anonymous_args = 0
 728              		@ link register save eliminated.
 794:Generated_Source\PSoC6/CapSense_1_Control.c **** }
 729              		.loc 1 794 0
 730              		@ sp needed
 731 0000 7047     		bx	lr
 732              		.cfi_endproc
 733              	.LFE187:
 734              		.size	CapSense_1_Sleep, .-CapSense_1_Sleep
 735 0002 C046     		.section	.text.CapSense_1_Wakeup,"ax",%progbits
 736              		.align	2
 737              		.global	CapSense_1_Wakeup
 738              		.code	16
 739              		.thumb_func
 740              		.type	CapSense_1_Wakeup, %function
 741              	CapSense_1_Wakeup:
 742              	.LFB188:
 795:Generated_Source\PSoC6/CapSense_1_Control.c **** 
 796:Generated_Source\PSoC6/CapSense_1_Control.c **** 
 797:Generated_Source\PSoC6/CapSense_1_Control.c **** /*******************************************************************************
 798:Generated_Source\PSoC6/CapSense_1_Control.c **** * Function Name: CapSense_1_Wakeup
 799:Generated_Source\PSoC6/CapSense_1_Control.c **** ****************************************************************************//**
 800:Generated_Source\PSoC6/CapSense_1_Control.c **** *
 801:Generated_Source\PSoC6/CapSense_1_Control.c **** * \brief
 802:Generated_Source\PSoC6/CapSense_1_Control.c **** *  Resumes the Component after sleep.
 803:Generated_Source\PSoC6/CapSense_1_Control.c **** *
 804:Generated_Source\PSoC6/CapSense_1_Control.c **** * \details
 805:Generated_Source\PSoC6/CapSense_1_Control.c **** *  Resumes the Component after sleep. This function shall be used to resume
 806:Generated_Source\PSoC6/CapSense_1_Control.c **** *  the Component after exiting deep sleep.
 807:Generated_Source\PSoC6/CapSense_1_Control.c **** *
 808:Generated_Source\PSoC6/CapSense_1_Control.c **** *******************************************************************************/
 809:Generated_Source\PSoC6/CapSense_1_Control.c **** void CapSense_1_Wakeup(void)
 810:Generated_Source\PSoC6/CapSense_1_Control.c **** {
 743              		.loc 1 810 0
 744              		.cfi_startproc
 745              		@ args = 0, pretend = 0, frame = 0
 746              		@ frame_needed = 0, uses_anonymous_args = 0
 747              		@ link register save eliminated.
 811:Generated_Source\PSoC6/CapSense_1_Control.c ****     #if(CapSense_1_BLOCK_ANALOG_WAKEUP_DELAY_US > 0uL)
 812:Generated_Source\PSoC6/CapSense_1_Control.c ****         Cy_SysLib_DelayUs(CapSense_1_BLOCK_ANALOG_WAKEUP_DELAY_US);
 813:Generated_Source\PSoC6/CapSense_1_Control.c ****     #endif /* (CapSense_1_BLOCK_ANALOG_WAKEUP_DELAY_US > 0uL) */
 814:Generated_Source\PSoC6/CapSense_1_Control.c **** }
 748              		.loc 1 814 0
 749              		@ sp needed
 750 0000 7047     		bx	lr
 751              		.cfi_endproc
 752              	.LFE188:
 753              		.size	CapSense_1_Wakeup, .-CapSense_1_Wakeup
 754 0002 C046     		.section	.text.CapSense_1_DeepSleepCallback,"ax",%progbits
 755              		.align	2
 756              		.global	CapSense_1_DeepSleepCallback
ARM GAS  C:\Users\enes_\AppData\Local\Temp\ccWI375M.s 			page 29


 757              		.code	16
 758              		.thumb_func
 759              		.type	CapSense_1_DeepSleepCallback, %function
 760              	CapSense_1_DeepSleepCallback:
 761              	.LFB189:
 815:Generated_Source\PSoC6/CapSense_1_Control.c **** 
 816:Generated_Source\PSoC6/CapSense_1_Control.c **** 
 817:Generated_Source\PSoC6/CapSense_1_Control.c **** #if (CY_SYSPM_DRV_VERSION_MAJOR < 4u)
 818:Generated_Source\PSoC6/CapSense_1_Control.c ****     /*******************************************************************************
 819:Generated_Source\PSoC6/CapSense_1_Control.c ****     * Function Name: CapSense_1_DeepSleepCallback
 820:Generated_Source\PSoC6/CapSense_1_Control.c ****     ****************************************************************************//**
 821:Generated_Source\PSoC6/CapSense_1_Control.c ****     *
 822:Generated_Source\PSoC6/CapSense_1_Control.c ****     * \brief
 823:Generated_Source\PSoC6/CapSense_1_Control.c ****     *  Handles Active to DeepSleep power mode transition for the CapSense_1
 824:Generated_Source\PSoC6/CapSense_1_Control.c ****     *  Component. This function is used when the major version of the SysPm driver
 825:Generated_Source\PSoC6/CapSense_1_Control.c ****     *  is less than 4.
 826:Generated_Source\PSoC6/CapSense_1_Control.c ****     *
 827:Generated_Source\PSoC6/CapSense_1_Control.c ****     * \details
 828:Generated_Source\PSoC6/CapSense_1_Control.c ****     *  This function handles Active to DeepSleep power mode transition
 829:Generated_Source\PSoC6/CapSense_1_Control.c ****     *  for the CapSense_1 Component.
 830:Generated_Source\PSoC6/CapSense_1_Control.c ****     *  Calling this function directly by application layer is not recommended.
 831:Generated_Source\PSoC6/CapSense_1_Control.c ****     *  Instead, Cy_SysPm_DeepSleep() should be used for the Active to DeepSleep
 832:Generated_Source\PSoC6/CapSense_1_Control.c ****     *  power mode transition of the device.
 833:Generated_Source\PSoC6/CapSense_1_Control.c ****     *
 834:Generated_Source\PSoC6/CapSense_1_Control.c ****     *  For proper operation of the CapSense_1 Component during the Active to
 835:Generated_Source\PSoC6/CapSense_1_Control.c ****     *  DeepSleep mode transition, a callback to this API should be registered
 836:Generated_Source\PSoC6/CapSense_1_Control.c ****     *  using the Cy_SysPm_RegisterCallback() function with CY_SYSPM_DEEPSLEEP
 837:Generated_Source\PSoC6/CapSense_1_Control.c ****     *  type. Once the callback is registered, this function is called by the
 838:Generated_Source\PSoC6/CapSense_1_Control.c ****     *  Cy_SysPm_DeepSleep() function to prepare the Component to the device
 839:Generated_Source\PSoC6/CapSense_1_Control.c ****     *  power mode transition.
 840:Generated_Source\PSoC6/CapSense_1_Control.c ****     *
 841:Generated_Source\PSoC6/CapSense_1_Control.c ****     *  When this function is called with CY_SYSPM_CHECK_READY as input, this
 842:Generated_Source\PSoC6/CapSense_1_Control.c ****     *  function returns CY_SYSPM_SUCCESS if no scanning is in progress, otherwise
 843:Generated_Source\PSoC6/CapSense_1_Control.c ****     *  CY_SYSPM_FAIL is returned. If CY_SYSPM_FAIL status is returned, a device
 844:Generated_Source\PSoC6/CapSense_1_Control.c ****     *  cannot change the power mode without completing the current scan as
 845:Generated_Source\PSoC6/CapSense_1_Control.c ****     *  a transition to DeepSleep during the scan can disrupt the Component
 846:Generated_Source\PSoC6/CapSense_1_Control.c ****     *  operation.
 847:Generated_Source\PSoC6/CapSense_1_Control.c ****     *
 848:Generated_Source\PSoC6/CapSense_1_Control.c ****     * \param callbackParams
 849:Generated_Source\PSoC6/CapSense_1_Control.c ****     *  Refer to the description of the cy_stc_syspm_callback_params_t type in the
 850:Generated_Source\PSoC6/CapSense_1_Control.c ****     *  Peripheral Driver Library documentation.
 851:Generated_Source\PSoC6/CapSense_1_Control.c ****     *
 852:Generated_Source\PSoC6/CapSense_1_Control.c ****     * \return
 853:Generated_Source\PSoC6/CapSense_1_Control.c ****     *  Returns the status of the operation requested by the mode parameter:
 854:Generated_Source\PSoC6/CapSense_1_Control.c ****     *  - CY_SYSPM_SUCCESS  - DeepSleep power mode can be entered.
 855:Generated_Source\PSoC6/CapSense_1_Control.c ****     *  - CY_SYSPM_FAIL     - DeepSleep power mode cannot be entered.
 856:Generated_Source\PSoC6/CapSense_1_Control.c ****     *
 857:Generated_Source\PSoC6/CapSense_1_Control.c ****     *******************************************************************************/
 858:Generated_Source\PSoC6/CapSense_1_Control.c ****     cy_en_syspm_status_t CapSense_1_DeepSleepCallback(cy_stc_syspm_callback_params_t *callbackParam
 859:Generated_Source\PSoC6/CapSense_1_Control.c ****     {
 860:Generated_Source\PSoC6/CapSense_1_Control.c ****         return(CapSense_1_SwitchPowerModeCallback(callbackParams));
 861:Generated_Source\PSoC6/CapSense_1_Control.c ****     }
 862:Generated_Source\PSoC6/CapSense_1_Control.c **** 
 863:Generated_Source\PSoC6/CapSense_1_Control.c **** 
 864:Generated_Source\PSoC6/CapSense_1_Control.c ****     /*******************************************************************************
 865:Generated_Source\PSoC6/CapSense_1_Control.c ****     * Function Name: CapSense_1_EnterLowPowerCallback
 866:Generated_Source\PSoC6/CapSense_1_Control.c ****     ****************************************************************************//**
ARM GAS  C:\Users\enes_\AppData\Local\Temp\ccWI375M.s 			page 30


 867:Generated_Source\PSoC6/CapSense_1_Control.c ****     *
 868:Generated_Source\PSoC6/CapSense_1_Control.c ****     * \brief
 869:Generated_Source\PSoC6/CapSense_1_Control.c ****     *  Handles Active to Low Power Active (LPActive) power mode transition for
 870:Generated_Source\PSoC6/CapSense_1_Control.c ****     *  the CapSense_1 Component. This function is used when the major version
 871:Generated_Source\PSoC6/CapSense_1_Control.c ****     *  of the SysPm driver is less than 4.
 872:Generated_Source\PSoC6/CapSense_1_Control.c ****     *
 873:Generated_Source\PSoC6/CapSense_1_Control.c ****     * \details
 874:Generated_Source\PSoC6/CapSense_1_Control.c ****     *  This function handles the Active to LPActive power mode transition for
 875:Generated_Source\PSoC6/CapSense_1_Control.c ****     *  the CapSense_1 Component.
 876:Generated_Source\PSoC6/CapSense_1_Control.c ****     *  Calling this function directly by application layer is not recommended.
 877:Generated_Source\PSoC6/CapSense_1_Control.c ****     *  Instead, Cy_SysPm_EnterLpMode() should be used for the Active to LPActive
 878:Generated_Source\PSoC6/CapSense_1_Control.c ****     *  power mode transition of the device.
 879:Generated_Source\PSoC6/CapSense_1_Control.c ****     *
 880:Generated_Source\PSoC6/CapSense_1_Control.c ****     *  For proper operation of the CapSense_1 Component during the Active to
 881:Generated_Source\PSoC6/CapSense_1_Control.c ****     *  LPActive mode transition, a callback to this function should be registered
 882:Generated_Source\PSoC6/CapSense_1_Control.c ****     *  using the Cy_SysPm_RegisterCallback() function with CY_SYSPM_ENTER_LP_MODE
 883:Generated_Source\PSoC6/CapSense_1_Control.c ****     *  type. Once the callback is registered, this function is called by the
 884:Generated_Source\PSoC6/CapSense_1_Control.c ****     *  Cy_SysPm_EnterLpMode() function to prepare the Component to the device
 885:Generated_Source\PSoC6/CapSense_1_Control.c ****     *  power mode transition.
 886:Generated_Source\PSoC6/CapSense_1_Control.c ****     *
 887:Generated_Source\PSoC6/CapSense_1_Control.c ****     *  When this function is called with CY_SYSPM_CHECK_READY as input, this
 888:Generated_Source\PSoC6/CapSense_1_Control.c ****     *  function returns CY_SYSPM_SUCCESS if no scanning is in progress, otherwise
 889:Generated_Source\PSoC6/CapSense_1_Control.c ****     *  CY_SYSPM_FAIL is returned. If CY_SYSPM_FAIL status is returned, a device
 890:Generated_Source\PSoC6/CapSense_1_Control.c ****     *  cannot change the power mode without completing the current scan as
 891:Generated_Source\PSoC6/CapSense_1_Control.c ****     *  a transition to LPActive during the scan can disrupt the Component
 892:Generated_Source\PSoC6/CapSense_1_Control.c ****     *  operation.
 893:Generated_Source\PSoC6/CapSense_1_Control.c ****     *
 894:Generated_Source\PSoC6/CapSense_1_Control.c ****     * \param callbackParams
 895:Generated_Source\PSoC6/CapSense_1_Control.c ****     *  Refer to the description of the cy_stc_syspm_callback_params_t type in the
 896:Generated_Source\PSoC6/CapSense_1_Control.c ****     *  Peripheral Driver Library documentation.
 897:Generated_Source\PSoC6/CapSense_1_Control.c ****     *
 898:Generated_Source\PSoC6/CapSense_1_Control.c ****     * \return
 899:Generated_Source\PSoC6/CapSense_1_Control.c ****     *  Returns the status of the operation requested by the mode parameter:
 900:Generated_Source\PSoC6/CapSense_1_Control.c ****     *  - CY_SYSPM_SUCCESS  - LPActive power mode can be entered.
 901:Generated_Source\PSoC6/CapSense_1_Control.c ****     *  - CY_SYSPM_FAIL     - LPActive power mode cannot be entered.
 902:Generated_Source\PSoC6/CapSense_1_Control.c ****     *
 903:Generated_Source\PSoC6/CapSense_1_Control.c ****     *******************************************************************************/
 904:Generated_Source\PSoC6/CapSense_1_Control.c ****     cy_en_syspm_status_t CapSense_1_EnterLowPowerCallback(cy_stc_syspm_callback_params_t *callbackP
 905:Generated_Source\PSoC6/CapSense_1_Control.c ****     {
 906:Generated_Source\PSoC6/CapSense_1_Control.c ****         return(CapSense_1_SwitchPowerModeCallback(callbackParams));
 907:Generated_Source\PSoC6/CapSense_1_Control.c ****     }
 908:Generated_Source\PSoC6/CapSense_1_Control.c **** 
 909:Generated_Source\PSoC6/CapSense_1_Control.c **** 
 910:Generated_Source\PSoC6/CapSense_1_Control.c ****     /*******************************************************************************
 911:Generated_Source\PSoC6/CapSense_1_Control.c ****     * Function Name: CapSense_1_ExitLowPowerCallback
 912:Generated_Source\PSoC6/CapSense_1_Control.c ****     ****************************************************************************//**
 913:Generated_Source\PSoC6/CapSense_1_Control.c ****     *
 914:Generated_Source\PSoC6/CapSense_1_Control.c ****     * \brief
 915:Generated_Source\PSoC6/CapSense_1_Control.c ****     *  Handles Low Power Active (LPActive) to Active power mode transition for
 916:Generated_Source\PSoC6/CapSense_1_Control.c ****     *  the CapSense_1 Component. This function is used when the major version
 917:Generated_Source\PSoC6/CapSense_1_Control.c ****     *  of the SysPm driver is less than 4.
 918:Generated_Source\PSoC6/CapSense_1_Control.c ****     *
 919:Generated_Source\PSoC6/CapSense_1_Control.c ****     * \details
 920:Generated_Source\PSoC6/CapSense_1_Control.c ****     *  This function handles LPActive to Active power mode transition for
 921:Generated_Source\PSoC6/CapSense_1_Control.c ****     *  the CapSense_1 Component.
 922:Generated_Source\PSoC6/CapSense_1_Control.c ****     *  Calling this function directly by application layer is not recommended.
 923:Generated_Source\PSoC6/CapSense_1_Control.c ****     *  Instead, Cy_SysPm_ExitLpMode() should be used for the LPActive to Active
ARM GAS  C:\Users\enes_\AppData\Local\Temp\ccWI375M.s 			page 31


 924:Generated_Source\PSoC6/CapSense_1_Control.c ****     *  power mode transition of the device.
 925:Generated_Source\PSoC6/CapSense_1_Control.c ****     *
 926:Generated_Source\PSoC6/CapSense_1_Control.c ****     *  For proper operation of the CapSense_1 Component during the LPActive to
 927:Generated_Source\PSoC6/CapSense_1_Control.c ****     *  Active mode transition, a callback to this function should be registered
 928:Generated_Source\PSoC6/CapSense_1_Control.c ****     *  using Cy_SysPm_RegisterCallback() function with CY_SYSPM_EXIT_LP_MODE
 929:Generated_Source\PSoC6/CapSense_1_Control.c ****     *  type. Once the callback is registered, this function is called by the
 930:Generated_Source\PSoC6/CapSense_1_Control.c ****     *  Cy_SysPm_ExitLpMode() function to prepare the Component to the device
 931:Generated_Source\PSoC6/CapSense_1_Control.c ****     *  power mode transition.
 932:Generated_Source\PSoC6/CapSense_1_Control.c ****     *
 933:Generated_Source\PSoC6/CapSense_1_Control.c ****     *  When this function is called with CY_SYSPM_CHECK_READY as input, this
 934:Generated_Source\PSoC6/CapSense_1_Control.c ****     *  function returns CY_SYSPM_SUCCESS if no scanning is in progress, otherwise
 935:Generated_Source\PSoC6/CapSense_1_Control.c ****     *  CY_SYSPM_FAIL is returned. If CY_SYSPM_FAIL status is returned, a device
 936:Generated_Source\PSoC6/CapSense_1_Control.c ****     *  cannot change the power mode without completing the current scan as
 937:Generated_Source\PSoC6/CapSense_1_Control.c ****     *  a transition to Active during the scan can disrupt the Component
 938:Generated_Source\PSoC6/CapSense_1_Control.c ****     *  operation.
 939:Generated_Source\PSoC6/CapSense_1_Control.c **** 
 940:Generated_Source\PSoC6/CapSense_1_Control.c ****     * \param callbackParams
 941:Generated_Source\PSoC6/CapSense_1_Control.c ****     *  Refer to the description of the cy_stc_syspm_callback_params_t type in the
 942:Generated_Source\PSoC6/CapSense_1_Control.c ****     *  Peripheral Driver Library documentation.
 943:Generated_Source\PSoC6/CapSense_1_Control.c ****     *
 944:Generated_Source\PSoC6/CapSense_1_Control.c ****     * \return
 945:Generated_Source\PSoC6/CapSense_1_Control.c ****     *  Returns the status of the operation requested by the mode parameter:
 946:Generated_Source\PSoC6/CapSense_1_Control.c ****     *  - CY_SYSPM_SUCCESS  - Active power mode can be entered.
 947:Generated_Source\PSoC6/CapSense_1_Control.c ****     *  - CY_SYSPM_FAIL     - Active power mode cannot be entered.
 948:Generated_Source\PSoC6/CapSense_1_Control.c ****     *
 949:Generated_Source\PSoC6/CapSense_1_Control.c ****     *******************************************************************************/
 950:Generated_Source\PSoC6/CapSense_1_Control.c ****     cy_en_syspm_status_t CapSense_1_ExitLowPowerCallback(cy_stc_syspm_callback_params_t *callbackPa
 951:Generated_Source\PSoC6/CapSense_1_Control.c ****     {
 952:Generated_Source\PSoC6/CapSense_1_Control.c ****         return(CapSense_1_SwitchPowerModeCallback(callbackParams));
 953:Generated_Source\PSoC6/CapSense_1_Control.c ****     }
 954:Generated_Source\PSoC6/CapSense_1_Control.c **** 
 955:Generated_Source\PSoC6/CapSense_1_Control.c **** 
 956:Generated_Source\PSoC6/CapSense_1_Control.c ****     /*******************************************************************************
 957:Generated_Source\PSoC6/CapSense_1_Control.c ****     * Function Name: CapSense_1_SwitchPowerModeCallback
 958:Generated_Source\PSoC6/CapSense_1_Control.c ****     ****************************************************************************//**
 959:Generated_Source\PSoC6/CapSense_1_Control.c ****     *
 960:Generated_Source\PSoC6/CapSense_1_Control.c ****     * \brief
 961:Generated_Source\PSoC6/CapSense_1_Control.c ****     *  Handles the switching power mode for the CapSense_1 Component.
 962:Generated_Source\PSoC6/CapSense_1_Control.c ****     *
 963:Generated_Source\PSoC6/CapSense_1_Control.c ****     * \details
 964:Generated_Source\PSoC6/CapSense_1_Control.c ****     *  This function handles swithing of system power mode.
 965:Generated_Source\PSoC6/CapSense_1_Control.c ****     *  When this function is called with the mode parameter set to CY_SYSPM_CHECK_READY,
 966:Generated_Source\PSoC6/CapSense_1_Control.c ****     *  the function returns CY_SYSPM_SUCCESS if no scanning is in progress, otherwise
 967:Generated_Source\PSoC6/CapSense_1_Control.c ****     *  CY_SYSPM_FAIL is returned that means that the device cannot switch the power mode
 968:Generated_Source\PSoC6/CapSense_1_Control.c ****     *  without finishing the current scan that is in progress (switching power mode
 969:Generated_Source\PSoC6/CapSense_1_Control.c ****     *  during the scan can disrupt a sensor scan result and produce an unexpected
 970:Generated_Source\PSoC6/CapSense_1_Control.c ****     *  behavior).
 971:Generated_Source\PSoC6/CapSense_1_Control.c ****     *
 972:Generated_Source\PSoC6/CapSense_1_Control.c ****     * \param callbackParams
 973:Generated_Source\PSoC6/CapSense_1_Control.c ****     *  Refer to the description of the cy_stc_syspm_callback_params_t type.
 974:Generated_Source\PSoC6/CapSense_1_Control.c ****     *
 975:Generated_Source\PSoC6/CapSense_1_Control.c ****     * \return
 976:Generated_Source\PSoC6/CapSense_1_Control.c ****     *  Returns the status of the operation requeted by mode parameter:
 977:Generated_Source\PSoC6/CapSense_1_Control.c ****     *  - CY_SYSPM_SUCCESS  - Switching power mode can be done
 978:Generated_Source\PSoC6/CapSense_1_Control.c ****     *  - CY_SYSPM_FAIL     - Switching power mode cannot be done.
 979:Generated_Source\PSoC6/CapSense_1_Control.c ****     *
 980:Generated_Source\PSoC6/CapSense_1_Control.c ****     *******************************************************************************/
ARM GAS  C:\Users\enes_\AppData\Local\Temp\ccWI375M.s 			page 32


 981:Generated_Source\PSoC6/CapSense_1_Control.c ****     static cy_en_syspm_status_t CapSense_1_SwitchPowerModeCallback(cy_stc_syspm_callback_params_t *
 982:Generated_Source\PSoC6/CapSense_1_Control.c ****     {
 983:Generated_Source\PSoC6/CapSense_1_Control.c ****         cy_en_syspm_status_t retVal = CY_SYSPM_SUCCESS;
 984:Generated_Source\PSoC6/CapSense_1_Control.c **** 
 985:Generated_Source\PSoC6/CapSense_1_Control.c ****         #if (0u != CapSense_1_ADC_EN)
 986:Generated_Source\PSoC6/CapSense_1_Control.c ****             uint8 temp;
 987:Generated_Source\PSoC6/CapSense_1_Control.c ****         #endif /* (0u != CapSense_1_ADC_EN) */
 988:Generated_Source\PSoC6/CapSense_1_Control.c **** 
 989:Generated_Source\PSoC6/CapSense_1_Control.c ****         switch(callbackParams->mode)
 990:Generated_Source\PSoC6/CapSense_1_Control.c ****         {
 991:Generated_Source\PSoC6/CapSense_1_Control.c ****         case (CY_SYSPM_CHECK_READY):
 992:Generated_Source\PSoC6/CapSense_1_Control.c ****             if (CapSense_1_NOT_BUSY != CapSense_1_IsBusy())
 993:Generated_Source\PSoC6/CapSense_1_Control.c ****             {
 994:Generated_Source\PSoC6/CapSense_1_Control.c ****                 /* Scanning in progress */
 995:Generated_Source\PSoC6/CapSense_1_Control.c ****                 retVal = CY_SYSPM_FAIL;
 996:Generated_Source\PSoC6/CapSense_1_Control.c ****             }
 997:Generated_Source\PSoC6/CapSense_1_Control.c ****             #if (0u != CapSense_1_ADC_EN)
 998:Generated_Source\PSoC6/CapSense_1_Control.c ****                 temp = CapSense_1_AdcIsBusy();
 999:Generated_Source\PSoC6/CapSense_1_Control.c ****                 if ((CapSense_1_AdcSTATUS_IDLE != temp) &&
1000:Generated_Source\PSoC6/CapSense_1_Control.c ****                     (CapSense_1_AdcSTATUS_OVERFLOW != temp))
1001:Generated_Source\PSoC6/CapSense_1_Control.c ****                 {
1002:Generated_Source\PSoC6/CapSense_1_Control.c ****                     /* Scanning in progress */
1003:Generated_Source\PSoC6/CapSense_1_Control.c ****                     retVal = CY_SYSPM_FAIL;
1004:Generated_Source\PSoC6/CapSense_1_Control.c ****                 }
1005:Generated_Source\PSoC6/CapSense_1_Control.c ****             #endif /* (0u != CapSense_1_ADC_EN) */
1006:Generated_Source\PSoC6/CapSense_1_Control.c ****             break;
1007:Generated_Source\PSoC6/CapSense_1_Control.c **** 
1008:Generated_Source\PSoC6/CapSense_1_Control.c ****         default:
1009:Generated_Source\PSoC6/CapSense_1_Control.c ****             break;
1010:Generated_Source\PSoC6/CapSense_1_Control.c ****         }
1011:Generated_Source\PSoC6/CapSense_1_Control.c **** 
1012:Generated_Source\PSoC6/CapSense_1_Control.c ****         return(retVal);
1013:Generated_Source\PSoC6/CapSense_1_Control.c ****     }
1014:Generated_Source\PSoC6/CapSense_1_Control.c **** #else
1015:Generated_Source\PSoC6/CapSense_1_Control.c **** 
1016:Generated_Source\PSoC6/CapSense_1_Control.c **** 
1017:Generated_Source\PSoC6/CapSense_1_Control.c ****     /*******************************************************************************
1018:Generated_Source\PSoC6/CapSense_1_Control.c ****     * Function Name: CapSense_1_DeepSleepCallback
1019:Generated_Source\PSoC6/CapSense_1_Control.c ****     ****************************************************************************//**
1020:Generated_Source\PSoC6/CapSense_1_Control.c ****     *
1021:Generated_Source\PSoC6/CapSense_1_Control.c ****     * \brief
1022:Generated_Source\PSoC6/CapSense_1_Control.c ****     *  Handles Active to Deep Sleep power mode transition for the CapSense_1
1023:Generated_Source\PSoC6/CapSense_1_Control.c ****     *  Component. This function is used when the major version of the SysPm driver
1024:Generated_Source\PSoC6/CapSense_1_Control.c ****     *  is 4 or greater.
1025:Generated_Source\PSoC6/CapSense_1_Control.c ****     *
1026:Generated_Source\PSoC6/CapSense_1_Control.c ****     * \details
1027:Generated_Source\PSoC6/CapSense_1_Control.c ****     *  This function handles Active to Deep Sleep power mode transition for the
1028:Generated_Source\PSoC6/CapSense_1_Control.c ****     *  CapSense_1 Component.
1029:Generated_Source\PSoC6/CapSense_1_Control.c ****     *  Calling this function directly from the application layer is not recommended.
1030:Generated_Source\PSoC6/CapSense_1_Control.c ****     *  Instead, Cy_SysPm_CpuEnterDeepSleep() should be used for the Active to Deep Sleep
1031:Generated_Source\PSoC6/CapSense_1_Control.c ****     *  power mode transition of the device.
1032:Generated_Source\PSoC6/CapSense_1_Control.c ****     *
1033:Generated_Source\PSoC6/CapSense_1_Control.c ****     *  For proper operation of the CapSense_1 Component during the Active to
1034:Generated_Source\PSoC6/CapSense_1_Control.c ****     *  Deep Sleep mode transition, a callback to this function should be registered
1035:Generated_Source\PSoC6/CapSense_1_Control.c ****     *  using the Cy_SysPm_RegisterCallback() function with CY_SYSPM_DEEPSLEEP
1036:Generated_Source\PSoC6/CapSense_1_Control.c ****     *  type. After the callback is registered, this function is called by the
1037:Generated_Source\PSoC6/CapSense_1_Control.c ****     *  Cy_SysPm_CpuEnterDeepSleep() function to prepare the Component to the device
ARM GAS  C:\Users\enes_\AppData\Local\Temp\ccWI375M.s 			page 33


1038:Generated_Source\PSoC6/CapSense_1_Control.c ****     *  power mode transition.
1039:Generated_Source\PSoC6/CapSense_1_Control.c ****     *
1040:Generated_Source\PSoC6/CapSense_1_Control.c ****     *  When this function is called with CY_SYSPM_CHECK_READY as input, this
1041:Generated_Source\PSoC6/CapSense_1_Control.c ****     *  function returns CY_SYSPM_SUCCESS if no scanning is in progress. Otherwise
1042:Generated_Source\PSoC6/CapSense_1_Control.c ****     *  CY_SYSPM_FAIL is returned. If CY_SYSPM_FAIL status is returned, a device
1043:Generated_Source\PSoC6/CapSense_1_Control.c ****     *  cannot change the power mode without completing the current scan as
1044:Generated_Source\PSoC6/CapSense_1_Control.c ****     *  a transition to Deep Sleep during the scan can disrupt the Component
1045:Generated_Source\PSoC6/CapSense_1_Control.c ****     *  operation.
1046:Generated_Source\PSoC6/CapSense_1_Control.c ****     *
1047:Generated_Source\PSoC6/CapSense_1_Control.c ****     * \param callbackParams
1048:Generated_Source\PSoC6/CapSense_1_Control.c ****     *  Refer to the description of the cy_stc_syspm_callback_params_t type in the
1049:Generated_Source\PSoC6/CapSense_1_Control.c ****     *  Peripheral Driver Library documentation.
1050:Generated_Source\PSoC6/CapSense_1_Control.c ****     *
1051:Generated_Source\PSoC6/CapSense_1_Control.c ****     * \param mode
1052:Generated_Source\PSoC6/CapSense_1_Control.c ****     *  Specifies mode cy_en_syspm_callback_mode_t.
1053:Generated_Source\PSoC6/CapSense_1_Control.c ****     *
1054:Generated_Source\PSoC6/CapSense_1_Control.c ****     * \return
1055:Generated_Source\PSoC6/CapSense_1_Control.c ****     *  Returns the status cy_en_syspm_status_t of the operation requested
1056:Generated_Source\PSoC6/CapSense_1_Control.c ****     *  by the mode parameter:
1057:Generated_Source\PSoC6/CapSense_1_Control.c ****     *  - CY_SYSPM_SUCCESS  - Deep Sleep power mode can be entered.
1058:Generated_Source\PSoC6/CapSense_1_Control.c ****     *  - CY_SYSPM_FAIL     - Deep Sleep power mode cannot be entered.
1059:Generated_Source\PSoC6/CapSense_1_Control.c ****     *
1060:Generated_Source\PSoC6/CapSense_1_Control.c ****     *******************************************************************************/
1061:Generated_Source\PSoC6/CapSense_1_Control.c ****     cy_en_syspm_status_t CapSense_1_DeepSleepCallback(
1062:Generated_Source\PSoC6/CapSense_1_Control.c ****                          cy_stc_syspm_callback_params_t * callbackParams,
1063:Generated_Source\PSoC6/CapSense_1_Control.c ****                          cy_en_syspm_callback_mode_t mode)
1064:Generated_Source\PSoC6/CapSense_1_Control.c ****     {
 762              		.loc 1 1064 0
 763              		.cfi_startproc
 764              		@ args = 0, pretend = 0, frame = 0
 765              		@ frame_needed = 0, uses_anonymous_args = 0
 766              	.LVL109:
 767 0000 10B5     		push	{r4, lr}
 768              		.cfi_def_cfa_offset 8
 769              		.cfi_offset 4, -8
 770              		.cfi_offset 14, -4
 771              	.LVL110:
1065:Generated_Source\PSoC6/CapSense_1_Control.c ****         cy_en_syspm_status_t retVal = CY_SYSPM_SUCCESS;
1066:Generated_Source\PSoC6/CapSense_1_Control.c **** 
1067:Generated_Source\PSoC6/CapSense_1_Control.c ****         #if (0u != CapSense_1_ADC_EN)
1068:Generated_Source\PSoC6/CapSense_1_Control.c ****             uint8 temp;
1069:Generated_Source\PSoC6/CapSense_1_Control.c ****         #endif /* (0u != CapSense_1_ADC_EN) */
1070:Generated_Source\PSoC6/CapSense_1_Control.c **** 
1071:Generated_Source\PSoC6/CapSense_1_Control.c ****         (void)callbackParams;
1072:Generated_Source\PSoC6/CapSense_1_Control.c ****         switch(mode)
 772              		.loc 1 1072 0
 773 0002 0129     		cmp	r1, #1
 774 0004 04D1     		bne	.L69
1073:Generated_Source\PSoC6/CapSense_1_Control.c ****         {
1074:Generated_Source\PSoC6/CapSense_1_Control.c ****         case (CY_SYSPM_CHECK_READY):
1075:Generated_Source\PSoC6/CapSense_1_Control.c ****             if (CapSense_1_NOT_BUSY != CapSense_1_IsBusy())
 775              		.loc 1 1075 0
 776 0006 FFF7FEFF 		bl	CapSense_1_IsBusy
 777              	.LVL111:
 778 000a 0028     		cmp	r0, #0
 779 000c 02D1     		bne	.L68
 780 000e 02E0     		b	.L65
ARM GAS  C:\Users\enes_\AppData\Local\Temp\ccWI375M.s 			page 34


 781              	.LVL112:
 782              	.L69:
1065:Generated_Source\PSoC6/CapSense_1_Control.c ****         cy_en_syspm_status_t retVal = CY_SYSPM_SUCCESS;
 783              		.loc 1 1065 0
 784 0010 0020     		movs	r0, #0
 785              	.LVL113:
 786 0012 00E0     		b	.L65
 787              	.LVL114:
 788              	.L68:
1076:Generated_Source\PSoC6/CapSense_1_Control.c ****             {
1077:Generated_Source\PSoC6/CapSense_1_Control.c ****                 /* Scanning in progress */
1078:Generated_Source\PSoC6/CapSense_1_Control.c ****                 retVal = CY_SYSPM_FAIL;
 789              		.loc 1 1078 0
 790 0014 0048     		ldr	r0, .L70
 791              	.L65:
 792              	.LVL115:
1079:Generated_Source\PSoC6/CapSense_1_Control.c ****             }
1080:Generated_Source\PSoC6/CapSense_1_Control.c ****             #if (0u != CapSense_1_ADC_EN)
1081:Generated_Source\PSoC6/CapSense_1_Control.c ****                 temp = CapSense_1_AdcIsBusy();
1082:Generated_Source\PSoC6/CapSense_1_Control.c ****                 if ((CapSense_1_AdcSTATUS_IDLE != temp) &&
1083:Generated_Source\PSoC6/CapSense_1_Control.c ****                     (CapSense_1_AdcSTATUS_OVERFLOW != temp))
1084:Generated_Source\PSoC6/CapSense_1_Control.c ****                 {
1085:Generated_Source\PSoC6/CapSense_1_Control.c ****                     /* Scanning in progress */
1086:Generated_Source\PSoC6/CapSense_1_Control.c ****                     retVal = CY_SYSPM_FAIL;
1087:Generated_Source\PSoC6/CapSense_1_Control.c ****                 }
1088:Generated_Source\PSoC6/CapSense_1_Control.c ****             #endif /* (0u != CapSense_1_ADC_EN) */
1089:Generated_Source\PSoC6/CapSense_1_Control.c ****             break;
1090:Generated_Source\PSoC6/CapSense_1_Control.c **** 
1091:Generated_Source\PSoC6/CapSense_1_Control.c ****         default:
1092:Generated_Source\PSoC6/CapSense_1_Control.c ****             break;
1093:Generated_Source\PSoC6/CapSense_1_Control.c ****         }
1094:Generated_Source\PSoC6/CapSense_1_Control.c **** 
1095:Generated_Source\PSoC6/CapSense_1_Control.c ****         return(retVal);
1096:Generated_Source\PSoC6/CapSense_1_Control.c ****     }
 793              		.loc 1 1096 0
 794              		@ sp needed
 795 0016 10BD     		pop	{r4, pc}
 796              	.L71:
 797              		.align	2
 798              	.L70:
 799 0018 FF004200 		.word	4325631
 800              		.cfi_endproc
 801              	.LFE189:
 802              		.size	CapSense_1_DeepSleepCallback, .-CapSense_1_DeepSleepCallback
 803              		.section	.rodata.str1.4,"aMS",%progbits,1
 804              		.align	2
 805              	.LC5:
 806 0000 47656E65 		.ascii	"Generated_Source\\PSoC6\\CapSense_1_Control.c\000"
 806      72617465 
 806      645F536F 
 806      75726365 
 806      5C50536F 
 807              		.bss
 808              		.set	.LANCHOR0,. + 0
 809              		.type	CapSense_1_InitVar, %object
 810              		.size	CapSense_1_InitVar, 1
 811              	CapSense_1_InitVar:
ARM GAS  C:\Users\enes_\AppData\Local\Temp\ccWI375M.s 			page 35


 812 0000 00       		.space	1
 813              		.text
 814              	.Letext0:
 815              		.file 2 "c:\\program files (x86)\\cypress\\psoc creator\\4.4\\psoc creator\\import\\gnu\\arm\\5.4.
 816              		.file 3 "c:\\program files (x86)\\cypress\\psoc creator\\4.4\\psoc creator\\import\\gnu\\arm\\5.4.
 817              		.file 4 "Generated_Source\\PSoC6\\pdl\\drivers/peripheral/device/cy_device.h"
 818              		.file 5 "Generated_Source\\PSoC6\\pdl\\drivers/peripheral/syslib/cy_syslib.h"
 819              		.file 6 "Generated_Source\\PSoC6\\pdl\\drivers/peripheral/syspm/cy_syspm.h"
 820              		.file 7 "Generated_Source\\PSoC6\\CapSense_1_Configuration.h"
 821              		.file 8 "Generated_Source\\PSoC6\\CapSense_1_SmartSense_LL.h"
 822              		.file 9 "Generated_Source\\PSoC6\\CapSense_1_Structure.h"
 823              		.file 10 "Generated_Source\\PSoC6\\CapSense_1_Tuner.h"
 824              		.file 11 "Generated_Source\\PSoC6\\CapSense_1_Processing.h"
 825              		.file 12 "Generated_Source\\PSoC6\\CapSense_1_Sensing.h"
 826              		.file 13 "Generated_Source\\PSoC6\\CapSense_1_Filter.h"