ARM GAS  C:\Users\enes_\AppData\Local\Temp\ccogZ4Ak.s 			page 1


   1              		.syntax unified
   2              		.cpu cortex-m0plus
   3              		.fpu softvfp
   4              		.eabi_attribute 20, 1
   5              		.eabi_attribute 21, 1
   6              		.eabi_attribute 23, 3
   7              		.eabi_attribute 24, 1
   8              		.eabi_attribute 25, 1
   9              		.eabi_attribute 26, 1
  10              		.eabi_attribute 30, 1
  11              		.eabi_attribute 34, 0
  12              		.eabi_attribute 18, 4
  13              		.thumb
  14              		.syntax unified
  15              		.file	"cy_sysint.c"
  16              		.text
  17              	.Ltext0:
  18              		.cfi_sections	.debug_frame
  19              		.section	.text.Cy_SysInt_SetInterruptSource,"ax",%progbits
  20              		.align	2
  21              		.global	Cy_SysInt_SetInterruptSource
  22              		.code	16
  23              		.thumb_func
  24              		.type	Cy_SysInt_SetInterruptSource, %function
  25              	Cy_SysInt_SetInterruptSource:
  26              	.LFB48:
  27              		.file 1 "Generated_Source\\PSoC6\\pdl\\drivers\\peripheral\\sysint\\cy_sysint.c"
   1:Generated_Source\PSoC6\pdl\drivers\peripheral\sysint/cy_sysint.c **** /***************************************************************************//**
   2:Generated_Source\PSoC6\pdl\drivers\peripheral\sysint/cy_sysint.c **** * \file  cy_sysint.c
   3:Generated_Source\PSoC6\pdl\drivers\peripheral\sysint/cy_sysint.c **** * \version 1.20
   4:Generated_Source\PSoC6\pdl\drivers\peripheral\sysint/cy_sysint.c **** *
   5:Generated_Source\PSoC6\pdl\drivers\peripheral\sysint/cy_sysint.c **** * \brief
   6:Generated_Source\PSoC6\pdl\drivers\peripheral\sysint/cy_sysint.c **** * Provides an API implementation of the SysInt driver.
   7:Generated_Source\PSoC6\pdl\drivers\peripheral\sysint/cy_sysint.c **** *
   8:Generated_Source\PSoC6\pdl\drivers\peripheral\sysint/cy_sysint.c **** ********************************************************************************
   9:Generated_Source\PSoC6\pdl\drivers\peripheral\sysint/cy_sysint.c **** * \copyright
  10:Generated_Source\PSoC6\pdl\drivers\peripheral\sysint/cy_sysint.c **** * Copyright 2016-2018, Cypress Semiconductor Corporation. All rights reserved.
  11:Generated_Source\PSoC6\pdl\drivers\peripheral\sysint/cy_sysint.c **** * You may use this file only in accordance with the license, terms, conditions,
  12:Generated_Source\PSoC6\pdl\drivers\peripheral\sysint/cy_sysint.c **** * disclaimers, and limitations in the end user license agreement accompanying
  13:Generated_Source\PSoC6\pdl\drivers\peripheral\sysint/cy_sysint.c **** * the software package with which this file was provided.
  14:Generated_Source\PSoC6\pdl\drivers\peripheral\sysint/cy_sysint.c **** *******************************************************************************/
  15:Generated_Source\PSoC6\pdl\drivers\peripheral\sysint/cy_sysint.c **** 
  16:Generated_Source\PSoC6\pdl\drivers\peripheral\sysint/cy_sysint.c **** #include "cy_sysint.h"
  17:Generated_Source\PSoC6\pdl\drivers\peripheral\sysint/cy_sysint.c **** 
  18:Generated_Source\PSoC6\pdl\drivers\peripheral\sysint/cy_sysint.c **** 
  19:Generated_Source\PSoC6\pdl\drivers\peripheral\sysint/cy_sysint.c **** /*******************************************************************************
  20:Generated_Source\PSoC6\pdl\drivers\peripheral\sysint/cy_sysint.c **** * Function Name: Cy_SysInt_Init
  21:Generated_Source\PSoC6\pdl\drivers\peripheral\sysint/cy_sysint.c **** ****************************************************************************//**
  22:Generated_Source\PSoC6\pdl\drivers\peripheral\sysint/cy_sysint.c **** *
  23:Generated_Source\PSoC6\pdl\drivers\peripheral\sysint/cy_sysint.c **** * \brief Initializes the referenced interrupt by setting the priority and the
  24:Generated_Source\PSoC6\pdl\drivers\peripheral\sysint/cy_sysint.c **** * interrupt vector.
  25:Generated_Source\PSoC6\pdl\drivers\peripheral\sysint/cy_sysint.c **** *
  26:Generated_Source\PSoC6\pdl\drivers\peripheral\sysint/cy_sysint.c **** * Use the CMSIS core function NVIC_EnableIRQ(config.intrSrc) to enable the interrupt.
  27:Generated_Source\PSoC6\pdl\drivers\peripheral\sysint/cy_sysint.c **** *
  28:Generated_Source\PSoC6\pdl\drivers\peripheral\sysint/cy_sysint.c **** * \param config
  29:Generated_Source\PSoC6\pdl\drivers\peripheral\sysint/cy_sysint.c **** * Interrupt configuration structure
  30:Generated_Source\PSoC6\pdl\drivers\peripheral\sysint/cy_sysint.c **** *
ARM GAS  C:\Users\enes_\AppData\Local\Temp\ccogZ4Ak.s 			page 2


  31:Generated_Source\PSoC6\pdl\drivers\peripheral\sysint/cy_sysint.c **** * \param userIsr
  32:Generated_Source\PSoC6\pdl\drivers\peripheral\sysint/cy_sysint.c **** * Address of the ISR
  33:Generated_Source\PSoC6\pdl\drivers\peripheral\sysint/cy_sysint.c **** *
  34:Generated_Source\PSoC6\pdl\drivers\peripheral\sysint/cy_sysint.c **** * \return 
  35:Generated_Source\PSoC6\pdl\drivers\peripheral\sysint/cy_sysint.c **** * Initialization status  
  36:Generated_Source\PSoC6\pdl\drivers\peripheral\sysint/cy_sysint.c **** *
  37:Generated_Source\PSoC6\pdl\drivers\peripheral\sysint/cy_sysint.c **** * \note The interrupt vector will be relocated only if the vector table was
  38:Generated_Source\PSoC6\pdl\drivers\peripheral\sysint/cy_sysint.c **** * moved to __ramVectors in SRAM. Otherwise it is ignored.
  39:Generated_Source\PSoC6\pdl\drivers\peripheral\sysint/cy_sysint.c **** *
  40:Generated_Source\PSoC6\pdl\drivers\peripheral\sysint/cy_sysint.c **** * \funcusage
  41:Generated_Source\PSoC6\pdl\drivers\peripheral\sysint/cy_sysint.c **** * \snippet sysint\1.20\snippet\main.c snippet_Cy_SysInt_Init
  42:Generated_Source\PSoC6\pdl\drivers\peripheral\sysint/cy_sysint.c **** *
  43:Generated_Source\PSoC6\pdl\drivers\peripheral\sysint/cy_sysint.c **** *******************************************************************************/
  44:Generated_Source\PSoC6\pdl\drivers\peripheral\sysint/cy_sysint.c **** cy_en_sysint_status_t Cy_SysInt_Init(const cy_stc_sysint_t* config, cy_israddress userIsr)
  45:Generated_Source\PSoC6\pdl\drivers\peripheral\sysint/cy_sysint.c **** {
  46:Generated_Source\PSoC6\pdl\drivers\peripheral\sysint/cy_sysint.c ****     cy_en_sysint_status_t status = CY_SYSINT_SUCCESS;
  47:Generated_Source\PSoC6\pdl\drivers\peripheral\sysint/cy_sysint.c **** 
  48:Generated_Source\PSoC6\pdl\drivers\peripheral\sysint/cy_sysint.c ****     if(NULL != config)
  49:Generated_Source\PSoC6\pdl\drivers\peripheral\sysint/cy_sysint.c ****     {
  50:Generated_Source\PSoC6\pdl\drivers\peripheral\sysint/cy_sysint.c ****         CY_ASSERT_L3(CY_SYSINT_IS_PRIORITY_VALID(config->intrPriority));
  51:Generated_Source\PSoC6\pdl\drivers\peripheral\sysint/cy_sysint.c **** 
  52:Generated_Source\PSoC6\pdl\drivers\peripheral\sysint/cy_sysint.c ****         #if (CY_CPU_CORTEX_M0P)
  53:Generated_Source\PSoC6\pdl\drivers\peripheral\sysint/cy_sysint.c ****             if (config->intrSrc > SysTick_IRQn)
  54:Generated_Source\PSoC6\pdl\drivers\peripheral\sysint/cy_sysint.c ****             {
  55:Generated_Source\PSoC6\pdl\drivers\peripheral\sysint/cy_sysint.c ****                 Cy_SysInt_SetInterruptSource(config->intrSrc, config->cm0pSrc);
  56:Generated_Source\PSoC6\pdl\drivers\peripheral\sysint/cy_sysint.c ****             }
  57:Generated_Source\PSoC6\pdl\drivers\peripheral\sysint/cy_sysint.c ****             else
  58:Generated_Source\PSoC6\pdl\drivers\peripheral\sysint/cy_sysint.c ****             {
  59:Generated_Source\PSoC6\pdl\drivers\peripheral\sysint/cy_sysint.c ****                 status = CY_SYSINT_BAD_PARAM;
  60:Generated_Source\PSoC6\pdl\drivers\peripheral\sysint/cy_sysint.c ****             }
  61:Generated_Source\PSoC6\pdl\drivers\peripheral\sysint/cy_sysint.c ****         #endif
  62:Generated_Source\PSoC6\pdl\drivers\peripheral\sysint/cy_sysint.c ****         
  63:Generated_Source\PSoC6\pdl\drivers\peripheral\sysint/cy_sysint.c ****         NVIC_SetPriority(config->intrSrc, config->intrPriority);
  64:Generated_Source\PSoC6\pdl\drivers\peripheral\sysint/cy_sysint.c ****         
  65:Generated_Source\PSoC6\pdl\drivers\peripheral\sysint/cy_sysint.c ****         /* Set the new vector only if it was moved to __ramVectors */
  66:Generated_Source\PSoC6\pdl\drivers\peripheral\sysint/cy_sysint.c ****         if (SCB->VTOR == (uint32_t)&__ramVectors)
  67:Generated_Source\PSoC6\pdl\drivers\peripheral\sysint/cy_sysint.c ****         {
  68:Generated_Source\PSoC6\pdl\drivers\peripheral\sysint/cy_sysint.c ****             (void)Cy_SysInt_SetVector(config->intrSrc, userIsr);
  69:Generated_Source\PSoC6\pdl\drivers\peripheral\sysint/cy_sysint.c ****         }
  70:Generated_Source\PSoC6\pdl\drivers\peripheral\sysint/cy_sysint.c ****     }
  71:Generated_Source\PSoC6\pdl\drivers\peripheral\sysint/cy_sysint.c ****     else
  72:Generated_Source\PSoC6\pdl\drivers\peripheral\sysint/cy_sysint.c ****     {
  73:Generated_Source\PSoC6\pdl\drivers\peripheral\sysint/cy_sysint.c ****         status = CY_SYSINT_BAD_PARAM;
  74:Generated_Source\PSoC6\pdl\drivers\peripheral\sysint/cy_sysint.c ****     }
  75:Generated_Source\PSoC6\pdl\drivers\peripheral\sysint/cy_sysint.c ****     
  76:Generated_Source\PSoC6\pdl\drivers\peripheral\sysint/cy_sysint.c ****     return(status);
  77:Generated_Source\PSoC6\pdl\drivers\peripheral\sysint/cy_sysint.c **** }
  78:Generated_Source\PSoC6\pdl\drivers\peripheral\sysint/cy_sysint.c **** 
  79:Generated_Source\PSoC6\pdl\drivers\peripheral\sysint/cy_sysint.c **** 
  80:Generated_Source\PSoC6\pdl\drivers\peripheral\sysint/cy_sysint.c **** #if (CY_CPU_CORTEX_M0P) || defined (CY_DOXYGEN)
  81:Generated_Source\PSoC6\pdl\drivers\peripheral\sysint/cy_sysint.c **** 
  82:Generated_Source\PSoC6\pdl\drivers\peripheral\sysint/cy_sysint.c **** /*******************************************************************************
  83:Generated_Source\PSoC6\pdl\drivers\peripheral\sysint/cy_sysint.c **** * Function Name: Cy_SysInt_SetInterruptSource
  84:Generated_Source\PSoC6\pdl\drivers\peripheral\sysint/cy_sysint.c **** ****************************************************************************//**
  85:Generated_Source\PSoC6\pdl\drivers\peripheral\sysint/cy_sysint.c **** *
  86:Generated_Source\PSoC6\pdl\drivers\peripheral\sysint/cy_sysint.c **** * \brief Configures the interrupt selection for the specified NVIC channel.
  87:Generated_Source\PSoC6\pdl\drivers\peripheral\sysint/cy_sysint.c **** *
ARM GAS  C:\Users\enes_\AppData\Local\Temp\ccogZ4Ak.s 			page 3


  88:Generated_Source\PSoC6\pdl\drivers\peripheral\sysint/cy_sysint.c **** * To disconnect the interrupt source from the NVIC channel
  89:Generated_Source\PSoC6\pdl\drivers\peripheral\sysint/cy_sysint.c **** * use the \ref Cy_SysInt_DisconnectInterruptSource.
  90:Generated_Source\PSoC6\pdl\drivers\peripheral\sysint/cy_sysint.c **** *
  91:Generated_Source\PSoC6\pdl\drivers\peripheral\sysint/cy_sysint.c **** * \param IRQn
  92:Generated_Source\PSoC6\pdl\drivers\peripheral\sysint/cy_sysint.c **** * NVIC channel number connected to the CPU core.
  93:Generated_Source\PSoC6\pdl\drivers\peripheral\sysint/cy_sysint.c **** *
  94:Generated_Source\PSoC6\pdl\drivers\peripheral\sysint/cy_sysint.c **** * \param devIntrSrc
  95:Generated_Source\PSoC6\pdl\drivers\peripheral\sysint/cy_sysint.c **** * Device interrupt to be routed to the NVIC channel.
  96:Generated_Source\PSoC6\pdl\drivers\peripheral\sysint/cy_sysint.c **** *
  97:Generated_Source\PSoC6\pdl\drivers\peripheral\sysint/cy_sysint.c **** * \note This function is available for CM0+ core only.
  98:Generated_Source\PSoC6\pdl\drivers\peripheral\sysint/cy_sysint.c **** *
  99:Generated_Source\PSoC6\pdl\drivers\peripheral\sysint/cy_sysint.c **** * \funcusage
 100:Generated_Source\PSoC6\pdl\drivers\peripheral\sysint/cy_sysint.c **** * \snippet sysint\1.20\snippet\main.c snippet_Cy_SysInt_SetInterruptSource
 101:Generated_Source\PSoC6\pdl\drivers\peripheral\sysint/cy_sysint.c **** *
 102:Generated_Source\PSoC6\pdl\drivers\peripheral\sysint/cy_sysint.c **** *******************************************************************************/
 103:Generated_Source\PSoC6\pdl\drivers\peripheral\sysint/cy_sysint.c **** void Cy_SysInt_SetInterruptSource(IRQn_Type IRQn, cy_en_intr_t devIntrSrc)
 104:Generated_Source\PSoC6\pdl\drivers\peripheral\sysint/cy_sysint.c **** {    
  28              		.loc 1 104 0
  29              		.cfi_startproc
  30              		@ args = 0, pretend = 0, frame = 0
  31              		@ frame_needed = 0, uses_anonymous_args = 0
  32              	.LVL0:
  33 0000 70B5     		push	{r4, r5, r6, lr}
  34              		.cfi_def_cfa_offset 16
  35              		.cfi_offset 4, -16
  36              		.cfi_offset 5, -12
  37              		.cfi_offset 6, -8
  38              		.cfi_offset 14, -4
  39 0002 0500     		movs	r5, r0
  40 0004 0C00     		movs	r4, r1
 105:Generated_Source\PSoC6\pdl\drivers\peripheral\sysint/cy_sysint.c ****     if (CY_CPUSS_V1)
  41              		.loc 1 105 0
  42 0006 1A4B     		ldr	r3, .L5
  43 0008 1B68     		ldr	r3, [r3]
  44 000a 2822     		movs	r2, #40
  45 000c 9A5C     		ldrb	r2, [r3, r2]
  46 000e 012A     		cmp	r2, #1
  47 0010 15D1     		bne	.L2
  48              	.LBB2:
 106:Generated_Source\PSoC6\pdl\drivers\peripheral\sysint/cy_sysint.c ****     {
 107:Generated_Source\PSoC6\pdl\drivers\peripheral\sysint/cy_sysint.c ****         uint32_t regPos = ((uint32_t)IRQn >> CY_SYSINT_CM0P_MUX_SHIFT);
  49              		.loc 1 107 0
  50 0012 8208     		lsrs	r2, r0, #2
  51              	.LVL1:
 108:Generated_Source\PSoC6\pdl\drivers\peripheral\sysint/cy_sysint.c ****         if(0UL == (regPos & (uint32_t)~CY_SYSINT_MUX_REG_MSK))
  52              		.loc 1 108 0
  53 0014 0721     		movs	r1, #7
  54              	.LVL2:
  55 0016 1000     		movs	r0, r2
  56              	.LVL3:
  57 0018 8843     		bics	r0, r1
  58 001a 27D1     		bne	.L1
  59              	.LBB3:
 109:Generated_Source\PSoC6\pdl\drivers\peripheral\sysint/cy_sysint.c ****         {
 110:Generated_Source\PSoC6\pdl\drivers\peripheral\sysint/cy_sysint.c ****             uint32_t bitfield_Pos = (uint32_t)((uint32_t)IRQn - (uint32_t)(regPos << CY_SYSINT_CM0P
  60              		.loc 1 110 0
  61 001c 9200     		lsls	r2, r2, #2
ARM GAS  C:\Users\enes_\AppData\Local\Temp\ccogZ4Ak.s 			page 4


  62              	.LVL4:
  63 001e AD1A     		subs	r5, r5, r2
  64              	.LVL5:
  65 0020 ED00     		lsls	r5, r5, #3
  66              	.LVL6:
 111:Generated_Source\PSoC6\pdl\drivers\peripheral\sysint/cy_sysint.c ****             uint32_t bitfield_Msk = (uint32_t)(CY_SYSINT_CM0P_MUX_MASK << bitfield_Pos);
  67              		.loc 1 111 0
  68 0022 FF20     		movs	r0, #255
  69 0024 A840     		lsls	r0, r0, r5
  70              	.LVL7:
 112:Generated_Source\PSoC6\pdl\drivers\peripheral\sysint/cy_sysint.c ****             
 113:Generated_Source\PSoC6\pdl\drivers\peripheral\sysint/cy_sysint.c ****             CY_REG32_CLR_SET(CPUSS_CM0_INT_CTL[regPos], bitfield, devIntrSrc);
  71              		.loc 1 113 0
  72 0026 1B68     		ldr	r3, [r3]
  73 0028 2033     		adds	r3, r3, #32
  74 002a 9A18     		adds	r2, r3, r2
  75 002c 1168     		ldr	r1, [r2]
  76 002e AC40     		lsls	r4, r4, r5
  77 0030 2300     		movs	r3, r4
  78 0032 4B40     		eors	r3, r1
  79 0034 1840     		ands	r0, r3
  80              	.LVL8:
  81 0036 0400     		movs	r4, r0
  82 0038 4C40     		eors	r4, r1
  83 003a 1460     		str	r4, [r2]
  84 003c 16E0     		b	.L1
  85              	.LVL9:
  86              	.L2:
  87              	.LBE3:
  88              	.LBE2:
 114:Generated_Source\PSoC6\pdl\drivers\peripheral\sysint/cy_sysint.c ****         }
 115:Generated_Source\PSoC6\pdl\drivers\peripheral\sysint/cy_sysint.c ****     }
 116:Generated_Source\PSoC6\pdl\drivers\peripheral\sysint/cy_sysint.c ****     else /* CPUSS_V2 */
 117:Generated_Source\PSoC6\pdl\drivers\peripheral\sysint/cy_sysint.c ****     {
 118:Generated_Source\PSoC6\pdl\drivers\peripheral\sysint/cy_sysint.c ****         CY_ASSERT_L1(CY_CPUSS_DISCONNECTED_IRQN != devIntrSrc); /* Disconnection feature doesn't wo
  89              		.loc 1 118 0
  90 003e 3A22     		movs	r2, #58
  91 0040 9B5E     		ldrsh	r3, [r3, r2]
  92 0042 DBB2     		uxtb	r3, r3
  93 0044 9942     		cmp	r1, r3
  94 0046 03D1     		bne	.L4
  95              		.loc 1 118 0 is_stmt 0 discriminator 1
  96 0048 7621     		movs	r1, #118
  97              	.LVL10:
  98 004a 0A48     		ldr	r0, .L5+4
  99              	.LVL11:
 100 004c FFF7FEFF 		bl	Cy_SysLib_AssertFailed
 101              	.LVL12:
 102              	.L4:
 119:Generated_Source\PSoC6\pdl\drivers\peripheral\sysint/cy_sysint.c **** 
 120:Generated_Source\PSoC6\pdl\drivers\peripheral\sysint/cy_sysint.c ****         CPUSS_CM0_SYSTEM_INT_CTL[devIntrSrc] = _VAL2FLD(CPUSS_V2_CM0_SYSTEM_INT_CTL_CPU_INT_IDX, IR
 103              		.loc 1 120 0 is_stmt 1
 104 0050 074B     		ldr	r3, .L5
 105 0052 1B68     		ldr	r3, [r3]
 106 0054 1B68     		ldr	r3, [r3]
 107 0056 0722     		movs	r2, #7
 108 0058 1540     		ands	r5, r2
ARM GAS  C:\Users\enes_\AppData\Local\Temp\ccogZ4Ak.s 			page 5


 121:Generated_Source\PSoC6\pdl\drivers\peripheral\sysint/cy_sysint.c ****                                                       | CPUSS_V2_CM0_SYSTEM_INT_CTL_CPU_INT_VALID_M
 109              		.loc 1 121 0
 110 005a 8022     		movs	r2, #128
 111 005c 1206     		lsls	r2, r2, #24
 112 005e 1543     		orrs	r5, r2
 120:Generated_Source\PSoC6\pdl\drivers\peripheral\sysint/cy_sysint.c ****                                                       | CPUSS_V2_CM0_SYSTEM_INT_CTL_CPU_INT_VALID_M
 113              		.loc 1 120 0
 114 0060 8022     		movs	r2, #128
 115 0062 9201     		lsls	r2, r2, #6
 116 0064 9446     		mov	ip, r2
 117 0066 6444     		add	r4, r4, ip
 118 0068 A400     		lsls	r4, r4, #2
 119 006a E550     		str	r5, [r4, r3]
 120              	.L1:
 122:Generated_Source\PSoC6\pdl\drivers\peripheral\sysint/cy_sysint.c ****     }
 123:Generated_Source\PSoC6\pdl\drivers\peripheral\sysint/cy_sysint.c **** }
 121              		.loc 1 123 0
 122              		@ sp needed
 123 006c 70BD     		pop	{r4, r5, r6, pc}
 124              	.L6:
 125 006e C046     		.align	2
 126              	.L5:
 127 0070 00000000 		.word	cy_device
 128 0074 00000000 		.word	.LC1
 129              		.cfi_endproc
 130              	.LFE48:
 131              		.size	Cy_SysInt_SetInterruptSource, .-Cy_SysInt_SetInterruptSource
 132              		.section	.text.Cy_SysInt_DisconnectInterruptSource,"ax",%progbits
 133              		.align	2
 134              		.global	Cy_SysInt_DisconnectInterruptSource
 135              		.code	16
 136              		.thumb_func
 137              		.type	Cy_SysInt_DisconnectInterruptSource, %function
 138              	Cy_SysInt_DisconnectInterruptSource:
 139              	.LFB49:
 124:Generated_Source\PSoC6\pdl\drivers\peripheral\sysint/cy_sysint.c **** 
 125:Generated_Source\PSoC6\pdl\drivers\peripheral\sysint/cy_sysint.c **** 
 126:Generated_Source\PSoC6\pdl\drivers\peripheral\sysint/cy_sysint.c **** /*******************************************************************************
 127:Generated_Source\PSoC6\pdl\drivers\peripheral\sysint/cy_sysint.c **** * Function Name: Cy_SysInt_DisconnectInterruptSource
 128:Generated_Source\PSoC6\pdl\drivers\peripheral\sysint/cy_sysint.c **** ****************************************************************************//**
 129:Generated_Source\PSoC6\pdl\drivers\peripheral\sysint/cy_sysint.c **** *
 130:Generated_Source\PSoC6\pdl\drivers\peripheral\sysint/cy_sysint.c **** * \brief Disconnect the interrupt source from the specified NVIC channel.
 131:Generated_Source\PSoC6\pdl\drivers\peripheral\sysint/cy_sysint.c **** *
 132:Generated_Source\PSoC6\pdl\drivers\peripheral\sysint/cy_sysint.c **** * \param IRQn
 133:Generated_Source\PSoC6\pdl\drivers\peripheral\sysint/cy_sysint.c **** * NVIC channel number connected to the CPU core.
 134:Generated_Source\PSoC6\pdl\drivers\peripheral\sysint/cy_sysint.c **** * This parameter is ignored for devices using CPUSS_ver2.
 135:Generated_Source\PSoC6\pdl\drivers\peripheral\sysint/cy_sysint.c **** *
 136:Generated_Source\PSoC6\pdl\drivers\peripheral\sysint/cy_sysint.c **** * \param devIntrSrc
 137:Generated_Source\PSoC6\pdl\drivers\peripheral\sysint/cy_sysint.c **** * Device interrupt routed to the NVIC channel.
 138:Generated_Source\PSoC6\pdl\drivers\peripheral\sysint/cy_sysint.c **** * This parameter is ignored for devices using CPUSS_ver1.
 139:Generated_Source\PSoC6\pdl\drivers\peripheral\sysint/cy_sysint.c **** *
 140:Generated_Source\PSoC6\pdl\drivers\peripheral\sysint/cy_sysint.c **** * \note This function is available for CM0+ core only.
 141:Generated_Source\PSoC6\pdl\drivers\peripheral\sysint/cy_sysint.c **** *
 142:Generated_Source\PSoC6\pdl\drivers\peripheral\sysint/cy_sysint.c **** * \funcusage
 143:Generated_Source\PSoC6\pdl\drivers\peripheral\sysint/cy_sysint.c **** * \snippet sysint\1.20\snippet\main.c snippet_Cy_SysInt_DisconnectInterruptSource
 144:Generated_Source\PSoC6\pdl\drivers\peripheral\sysint/cy_sysint.c **** *
 145:Generated_Source\PSoC6\pdl\drivers\peripheral\sysint/cy_sysint.c **** *******************************************************************************/
ARM GAS  C:\Users\enes_\AppData\Local\Temp\ccogZ4Ak.s 			page 6


 146:Generated_Source\PSoC6\pdl\drivers\peripheral\sysint/cy_sysint.c **** void Cy_SysInt_DisconnectInterruptSource(IRQn_Type IRQn, cy_en_intr_t devIntrSrc)
 147:Generated_Source\PSoC6\pdl\drivers\peripheral\sysint/cy_sysint.c **** {
 140              		.loc 1 147 0
 141              		.cfi_startproc
 142              		@ args = 0, pretend = 0, frame = 0
 143              		@ frame_needed = 0, uses_anonymous_args = 0
 144              	.LVL13:
 145 0000 10B5     		push	{r4, lr}
 146              		.cfi_def_cfa_offset 8
 147              		.cfi_offset 4, -8
 148              		.cfi_offset 14, -4
 148:Generated_Source\PSoC6\pdl\drivers\peripheral\sysint/cy_sysint.c ****     if (CY_CPUSS_V1)
 149              		.loc 1 148 0
 150 0002 0B4B     		ldr	r3, .L10
 151 0004 1B68     		ldr	r3, [r3]
 152 0006 2822     		movs	r2, #40
 153 0008 9A5C     		ldrb	r2, [r3, r2]
 154 000a 012A     		cmp	r2, #1
 155 000c 05D1     		bne	.L8
 149:Generated_Source\PSoC6\pdl\drivers\peripheral\sysint/cy_sysint.c ****     {
 150:Generated_Source\PSoC6\pdl\drivers\peripheral\sysint/cy_sysint.c ****         Cy_SysInt_SetInterruptSource(IRQn, CY_CPUSS_DISCONNECTED_IRQN);
 156              		.loc 1 150 0
 157 000e 3A21     		movs	r1, #58
 158 0010 595E     		ldrsh	r1, [r3, r1]
 159              	.LVL14:
 160 0012 C9B2     		uxtb	r1, r1
 161 0014 FFF7FEFF 		bl	Cy_SysInt_SetInterruptSource
 162              	.LVL15:
 163 0018 09E0     		b	.L7
 164              	.LVL16:
 165              	.L8:
 151:Generated_Source\PSoC6\pdl\drivers\peripheral\sysint/cy_sysint.c ****     }
 152:Generated_Source\PSoC6\pdl\drivers\peripheral\sysint/cy_sysint.c ****     else /* CPUSS_V2 */
 153:Generated_Source\PSoC6\pdl\drivers\peripheral\sysint/cy_sysint.c ****     {
 154:Generated_Source\PSoC6\pdl\drivers\peripheral\sysint/cy_sysint.c ****         CPUSS_CM0_SYSTEM_INT_CTL[devIntrSrc] &= (uint32_t)~ CPUSS_V2_CM0_SYSTEM_INT_CTL_CPU_INT_VAL
 166              		.loc 1 154 0
 167 001a 1A68     		ldr	r2, [r3]
 168 001c 8023     		movs	r3, #128
 169 001e 9B01     		lsls	r3, r3, #6
 170 0020 9C46     		mov	ip, r3
 171 0022 6144     		add	r1, r1, ip
 172              	.LVL17:
 173 0024 8900     		lsls	r1, r1, #2
 174 0026 8B58     		ldr	r3, [r1, r2]
 175 0028 5B00     		lsls	r3, r3, #1
 176 002a 5B08     		lsrs	r3, r3, #1
 177 002c 8B50     		str	r3, [r1, r2]
 178              	.LVL18:
 179              	.L7:
 155:Generated_Source\PSoC6\pdl\drivers\peripheral\sysint/cy_sysint.c ****     }
 156:Generated_Source\PSoC6\pdl\drivers\peripheral\sysint/cy_sysint.c **** }
 180              		.loc 1 156 0
 181              		@ sp needed
 182 002e 10BD     		pop	{r4, pc}
 183              	.L11:
 184              		.align	2
 185              	.L10:
ARM GAS  C:\Users\enes_\AppData\Local\Temp\ccogZ4Ak.s 			page 7


 186 0030 00000000 		.word	cy_device
 187              		.cfi_endproc
 188              	.LFE49:
 189              		.size	Cy_SysInt_DisconnectInterruptSource, .-Cy_SysInt_DisconnectInterruptSource
 190              		.section	.text.Cy_SysInt_GetInterruptSource,"ax",%progbits
 191              		.align	2
 192              		.global	Cy_SysInt_GetInterruptSource
 193              		.code	16
 194              		.thumb_func
 195              		.type	Cy_SysInt_GetInterruptSource, %function
 196              	Cy_SysInt_GetInterruptSource:
 197              	.LFB50:
 157:Generated_Source\PSoC6\pdl\drivers\peripheral\sysint/cy_sysint.c **** 
 158:Generated_Source\PSoC6\pdl\drivers\peripheral\sysint/cy_sysint.c **** 
 159:Generated_Source\PSoC6\pdl\drivers\peripheral\sysint/cy_sysint.c **** /*******************************************************************************
 160:Generated_Source\PSoC6\pdl\drivers\peripheral\sysint/cy_sysint.c **** * Function Name: Cy_SysInt_GetInterruptSource
 161:Generated_Source\PSoC6\pdl\drivers\peripheral\sysint/cy_sysint.c **** ****************************************************************************//**
 162:Generated_Source\PSoC6\pdl\drivers\peripheral\sysint/cy_sysint.c **** *
 163:Generated_Source\PSoC6\pdl\drivers\peripheral\sysint/cy_sysint.c **** * \brief Gets the interrupt source of the NVIC channel.
 164:Generated_Source\PSoC6\pdl\drivers\peripheral\sysint/cy_sysint.c **** *
 165:Generated_Source\PSoC6\pdl\drivers\peripheral\sysint/cy_sysint.c **** * \param IRQn
 166:Generated_Source\PSoC6\pdl\drivers\peripheral\sysint/cy_sysint.c **** * NVIC channel number connected to the CPU core
 167:Generated_Source\PSoC6\pdl\drivers\peripheral\sysint/cy_sysint.c **** *
 168:Generated_Source\PSoC6\pdl\drivers\peripheral\sysint/cy_sysint.c **** * \return 
 169:Generated_Source\PSoC6\pdl\drivers\peripheral\sysint/cy_sysint.c **** * Device interrupt connected to the NVIC channel. A returned value of 
 170:Generated_Source\PSoC6\pdl\drivers\peripheral\sysint/cy_sysint.c **** * "disconnected_IRQn" indicates that the interrupt source is disconnected.  
 171:Generated_Source\PSoC6\pdl\drivers\peripheral\sysint/cy_sysint.c **** *
 172:Generated_Source\PSoC6\pdl\drivers\peripheral\sysint/cy_sysint.c **** * \note This function is available for CM0+ core only.
 173:Generated_Source\PSoC6\pdl\drivers\peripheral\sysint/cy_sysint.c **** *
 174:Generated_Source\PSoC6\pdl\drivers\peripheral\sysint/cy_sysint.c **** * \note This function supports only devices using CPUSS_ver1. For all
 175:Generated_Source\PSoC6\pdl\drivers\peripheral\sysint/cy_sysint.c **** * other devices, use the Cy_SysInt_GetNvicConnection() function.
 176:Generated_Source\PSoC6\pdl\drivers\peripheral\sysint/cy_sysint.c **** *
 177:Generated_Source\PSoC6\pdl\drivers\peripheral\sysint/cy_sysint.c **** * \funcusage
 178:Generated_Source\PSoC6\pdl\drivers\peripheral\sysint/cy_sysint.c **** * \snippet sysint\1.20\snippet\main.c snippet_Cy_SysInt_SetInterruptSource
 179:Generated_Source\PSoC6\pdl\drivers\peripheral\sysint/cy_sysint.c **** *
 180:Generated_Source\PSoC6\pdl\drivers\peripheral\sysint/cy_sysint.c **** *******************************************************************************/
 181:Generated_Source\PSoC6\pdl\drivers\peripheral\sysint/cy_sysint.c **** cy_en_intr_t Cy_SysInt_GetInterruptSource(IRQn_Type IRQn)
 182:Generated_Source\PSoC6\pdl\drivers\peripheral\sysint/cy_sysint.c **** {
 198              		.loc 1 182 0
 199              		.cfi_startproc
 200              		@ args = 0, pretend = 0, frame = 0
 201              		@ frame_needed = 0, uses_anonymous_args = 0
 202              	.LVL19:
 203 0000 30B5     		push	{r4, r5, lr}
 204              		.cfi_def_cfa_offset 12
 205              		.cfi_offset 4, -12
 206              		.cfi_offset 5, -8
 207              		.cfi_offset 14, -4
 183:Generated_Source\PSoC6\pdl\drivers\peripheral\sysint/cy_sysint.c ****     uint32_t tempReg = CY_CPUSS_NOT_CONNECTED_IRQN;
 208              		.loc 1 183 0
 209 0002 0D4B     		ldr	r3, .L14
 210 0004 1A68     		ldr	r2, [r3]
 211 0006 3A21     		movs	r1, #58
 212 0008 535E     		ldrsh	r3, [r2, r1]
 213              	.LVL20:
 184:Generated_Source\PSoC6\pdl\drivers\peripheral\sysint/cy_sysint.c **** 
 185:Generated_Source\PSoC6\pdl\drivers\peripheral\sysint/cy_sysint.c ****     if (CY_CPUSS_V1)
ARM GAS  C:\Users\enes_\AppData\Local\Temp\ccogZ4Ak.s 			page 8


 214              		.loc 1 185 0
 215 000a 2821     		movs	r1, #40
 216 000c 515C     		ldrb	r1, [r2, r1]
 217 000e 0129     		cmp	r1, #1
 218 0010 0FD1     		bne	.L13
 219              	.LBB4:
 186:Generated_Source\PSoC6\pdl\drivers\peripheral\sysint/cy_sysint.c ****     {
 187:Generated_Source\PSoC6\pdl\drivers\peripheral\sysint/cy_sysint.c ****         uint32_t regPos  = ((uint32_t)IRQn >> CY_SYSINT_CM0P_MUX_SHIFT);
 220              		.loc 1 187 0
 221 0012 8108     		lsrs	r1, r0, #2
 222              	.LVL21:
 188:Generated_Source\PSoC6\pdl\drivers\peripheral\sysint/cy_sysint.c ****         if(0UL == (regPos & (uint32_t)~CY_SYSINT_MUX_REG_MSK))
 223              		.loc 1 188 0
 224 0014 0724     		movs	r4, #7
 225 0016 0D00     		movs	r5, r1
 226 0018 A543     		bics	r5, r4
 227 001a 0AD1     		bne	.L13
 228              	.LBB5:
 189:Generated_Source\PSoC6\pdl\drivers\peripheral\sysint/cy_sysint.c ****         {
 190:Generated_Source\PSoC6\pdl\drivers\peripheral\sysint/cy_sysint.c ****             uint32_t bitfield_Pos  = ((uint32_t)IRQn - (regPos <<  CY_SYSINT_CM0P_MUX_SHIFT)) <<  C
 229              		.loc 1 190 0
 230 001c 8900     		lsls	r1, r1, #2
 231              	.LVL22:
 232 001e 401A     		subs	r0, r0, r1
 233              	.LVL23:
 234 0020 C000     		lsls	r0, r0, #3
 235              	.LVL24:
 191:Generated_Source\PSoC6\pdl\drivers\peripheral\sysint/cy_sysint.c ****             uint32_t bitfield_Msk = (uint32_t)(CY_SYSINT_CM0P_MUX_MASK << bitfield_Pos);
 236              		.loc 1 191 0
 237 0022 FF23     		movs	r3, #255
 238              	.LVL25:
 239 0024 8340     		lsls	r3, r3, r0
 240              	.LVL26:
 192:Generated_Source\PSoC6\pdl\drivers\peripheral\sysint/cy_sysint.c ****         
 193:Generated_Source\PSoC6\pdl\drivers\peripheral\sysint/cy_sysint.c ****             tempReg = _FLD2VAL(bitfield, CPUSS_CM0_INT_CTL[regPos]);
 241              		.loc 1 193 0
 242 0026 1268     		ldr	r2, [r2]
 243              	.LVL27:
 244 0028 2032     		adds	r2, r2, #32
 245 002a 5118     		adds	r1, r2, r1
 246 002c 0A68     		ldr	r2, [r1]
 247 002e 1340     		ands	r3, r2
 248              	.LVL28:
 249 0030 C340     		lsrs	r3, r3, r0
 250              	.LVL29:
 251              	.L13:
 252              	.LBE5:
 253              	.LBE4:
 194:Generated_Source\PSoC6\pdl\drivers\peripheral\sysint/cy_sysint.c ****         }
 195:Generated_Source\PSoC6\pdl\drivers\peripheral\sysint/cy_sysint.c ****     }
 196:Generated_Source\PSoC6\pdl\drivers\peripheral\sysint/cy_sysint.c **** 
 197:Generated_Source\PSoC6\pdl\drivers\peripheral\sysint/cy_sysint.c ****     return ((cy_en_intr_t)tempReg);
 254              		.loc 1 197 0
 255 0032 D8B2     		uxtb	r0, r3
 198:Generated_Source\PSoC6\pdl\drivers\peripheral\sysint/cy_sysint.c **** }
 256              		.loc 1 198 0
 257              		@ sp needed
ARM GAS  C:\Users\enes_\AppData\Local\Temp\ccogZ4Ak.s 			page 9


 258 0034 30BD     		pop	{r4, r5, pc}
 259              	.L15:
 260 0036 C046     		.align	2
 261              	.L14:
 262 0038 00000000 		.word	cy_device
 263              		.cfi_endproc
 264              	.LFE50:
 265              		.size	Cy_SysInt_GetInterruptSource, .-Cy_SysInt_GetInterruptSource
 266              		.section	.text.Cy_SysInt_GetNvicConnection,"ax",%progbits
 267              		.align	2
 268              		.global	Cy_SysInt_GetNvicConnection
 269              		.code	16
 270              		.thumb_func
 271              		.type	Cy_SysInt_GetNvicConnection, %function
 272              	Cy_SysInt_GetNvicConnection:
 273              	.LFB51:
 199:Generated_Source\PSoC6\pdl\drivers\peripheral\sysint/cy_sysint.c **** 
 200:Generated_Source\PSoC6\pdl\drivers\peripheral\sysint/cy_sysint.c ****     
 201:Generated_Source\PSoC6\pdl\drivers\peripheral\sysint/cy_sysint.c **** /*******************************************************************************
 202:Generated_Source\PSoC6\pdl\drivers\peripheral\sysint/cy_sysint.c **** * Function Name: Cy_SysInt_GetNvicConnection
 203:Generated_Source\PSoC6\pdl\drivers\peripheral\sysint/cy_sysint.c **** ****************************************************************************//**
 204:Generated_Source\PSoC6\pdl\drivers\peripheral\sysint/cy_sysint.c **** *
 205:Generated_Source\PSoC6\pdl\drivers\peripheral\sysint/cy_sysint.c **** * \brief Gets the NVIC channel to which the interrupt source is connected.
 206:Generated_Source\PSoC6\pdl\drivers\peripheral\sysint/cy_sysint.c **** *
 207:Generated_Source\PSoC6\pdl\drivers\peripheral\sysint/cy_sysint.c **** * \param devIntrSrc
 208:Generated_Source\PSoC6\pdl\drivers\peripheral\sysint/cy_sysint.c **** * Device interrupt that is potentially connected to the NVIC channel.
 209:Generated_Source\PSoC6\pdl\drivers\peripheral\sysint/cy_sysint.c **** *
 210:Generated_Source\PSoC6\pdl\drivers\peripheral\sysint/cy_sysint.c **** * \return
 211:Generated_Source\PSoC6\pdl\drivers\peripheral\sysint/cy_sysint.c **** * NVIC channel number connected to the CPU core. A returned value of
 212:Generated_Source\PSoC6\pdl\drivers\peripheral\sysint/cy_sysint.c **** * "unconnected_IRQn" indicates that the interrupt source is disabled.
 213:Generated_Source\PSoC6\pdl\drivers\peripheral\sysint/cy_sysint.c **** *
 214:Generated_Source\PSoC6\pdl\drivers\peripheral\sysint/cy_sysint.c **** * \note This function is available for CM0+ core only.
 215:Generated_Source\PSoC6\pdl\drivers\peripheral\sysint/cy_sysint.c **** *
 216:Generated_Source\PSoC6\pdl\drivers\peripheral\sysint/cy_sysint.c **** * \note This function supports only devices using CPUSS_ver2 or higher.
 217:Generated_Source\PSoC6\pdl\drivers\peripheral\sysint/cy_sysint.c **** *
 218:Generated_Source\PSoC6\pdl\drivers\peripheral\sysint/cy_sysint.c **** * \funcusage
 219:Generated_Source\PSoC6\pdl\drivers\peripheral\sysint/cy_sysint.c **** * \snippet sysint\1.20\snippet\main.c snippet_Cy_SysInt_SetInterruptSource
 220:Generated_Source\PSoC6\pdl\drivers\peripheral\sysint/cy_sysint.c **** *
 221:Generated_Source\PSoC6\pdl\drivers\peripheral\sysint/cy_sysint.c **** *******************************************************************************/
 222:Generated_Source\PSoC6\pdl\drivers\peripheral\sysint/cy_sysint.c **** IRQn_Type Cy_SysInt_GetNvicConnection(cy_en_intr_t devIntrSrc)
 223:Generated_Source\PSoC6\pdl\drivers\peripheral\sysint/cy_sysint.c **** {
 274              		.loc 1 223 0
 275              		.cfi_startproc
 276              		@ args = 0, pretend = 0, frame = 0
 277              		@ frame_needed = 0, uses_anonymous_args = 0
 278              		@ link register save eliminated.
 279              	.LVL30:
 224:Generated_Source\PSoC6\pdl\drivers\peripheral\sysint/cy_sysint.c ****     uint32_t tempReg = CY_CPUSS_NOT_CONNECTED_IRQN;
 280              		.loc 1 224 0
 281 0000 0C4B     		ldr	r3, .L18
 282 0002 1A68     		ldr	r2, [r3]
 283 0004 3A21     		movs	r1, #58
 284 0006 535E     		ldrsh	r3, [r2, r1]
 285              	.LVL31:
 225:Generated_Source\PSoC6\pdl\drivers\peripheral\sysint/cy_sysint.c **** 
 226:Generated_Source\PSoC6\pdl\drivers\peripheral\sysint/cy_sysint.c ****     if ((!CY_CPUSS_V1) && (CY_SYSINT_ENABLE == _FLD2VAL(CPUSS_V2_CM0_SYSTEM_INT_CTL_CPU_INT_VALID, 
 286              		.loc 1 226 0
ARM GAS  C:\Users\enes_\AppData\Local\Temp\ccogZ4Ak.s 			page 10


 287 0008 2821     		movs	r1, #40
 288 000a 515C     		ldrb	r1, [r2, r1]
 289 000c 0129     		cmp	r1, #1
 290 000e 0FD0     		beq	.L17
 291              		.loc 1 226 0 is_stmt 0 discriminator 1
 292 0010 1168     		ldr	r1, [r2]
 293 0012 8022     		movs	r2, #128
 294 0014 9201     		lsls	r2, r2, #6
 295 0016 8218     		adds	r2, r0, r2
 296 0018 9200     		lsls	r2, r2, #2
 297 001a 5258     		ldr	r2, [r2, r1]
 298 001c 002A     		cmp	r2, #0
 299 001e 07DA     		bge	.L17
 227:Generated_Source\PSoC6\pdl\drivers\peripheral\sysint/cy_sysint.c ****     {
 228:Generated_Source\PSoC6\pdl\drivers\peripheral\sysint/cy_sysint.c ****         tempReg = _FLD2VAL(CPUSS_V2_CM0_SYSTEM_INT_CTL_CPU_INT_IDX, CPUSS_CM0_SYSTEM_INT_CTL[devInt
 300              		.loc 1 228 0 is_stmt 1
 301 0020 8023     		movs	r3, #128
 302              	.LVL32:
 303 0022 9B01     		lsls	r3, r3, #6
 304 0024 9C46     		mov	ip, r3
 305 0026 6044     		add	r0, r0, ip
 306              	.LVL33:
 307 0028 8000     		lsls	r0, r0, #2
 308 002a 4358     		ldr	r3, [r0, r1]
 309 002c 0720     		movs	r0, #7
 310 002e 0340     		ands	r3, r0
 311              	.LVL34:
 312              	.L17:
 229:Generated_Source\PSoC6\pdl\drivers\peripheral\sysint/cy_sysint.c ****     }
 230:Generated_Source\PSoC6\pdl\drivers\peripheral\sysint/cy_sysint.c ****     return ((IRQn_Type)tempReg);
 313              		.loc 1 230 0
 314 0030 18B2     		sxth	r0, r3
 231:Generated_Source\PSoC6\pdl\drivers\peripheral\sysint/cy_sysint.c **** }
 315              		.loc 1 231 0
 316              		@ sp needed
 317 0032 7047     		bx	lr
 318              	.L19:
 319              		.align	2
 320              	.L18:
 321 0034 00000000 		.word	cy_device
 322              		.cfi_endproc
 323              	.LFE51:
 324              		.size	Cy_SysInt_GetNvicConnection, .-Cy_SysInt_GetNvicConnection
 325              		.section	.text.Cy_SysInt_GetInterruptActive,"ax",%progbits
 326              		.align	2
 327              		.global	Cy_SysInt_GetInterruptActive
 328              		.code	16
 329              		.thumb_func
 330              		.type	Cy_SysInt_GetInterruptActive, %function
 331              	Cy_SysInt_GetInterruptActive:
 332              	.LFB52:
 232:Generated_Source\PSoC6\pdl\drivers\peripheral\sysint/cy_sysint.c **** 
 233:Generated_Source\PSoC6\pdl\drivers\peripheral\sysint/cy_sysint.c **** 
 234:Generated_Source\PSoC6\pdl\drivers\peripheral\sysint/cy_sysint.c **** /*******************************************************************************
 235:Generated_Source\PSoC6\pdl\drivers\peripheral\sysint/cy_sysint.c **** * Function Name: Cy_SysInt_GetInterruptActive
 236:Generated_Source\PSoC6\pdl\drivers\peripheral\sysint/cy_sysint.c **** ****************************************************************************//**
 237:Generated_Source\PSoC6\pdl\drivers\peripheral\sysint/cy_sysint.c **** *
ARM GAS  C:\Users\enes_\AppData\Local\Temp\ccogZ4Ak.s 			page 11


 238:Generated_Source\PSoC6\pdl\drivers\peripheral\sysint/cy_sysint.c **** * \brief Gets the highest priority active interrupt for the selected NVIC channel.
 239:Generated_Source\PSoC6\pdl\drivers\peripheral\sysint/cy_sysint.c **** *
 240:Generated_Source\PSoC6\pdl\drivers\peripheral\sysint/cy_sysint.c **** * The priority of the interrupt in a given channel is determined by the index
 241:Generated_Source\PSoC6\pdl\drivers\peripheral\sysint/cy_sysint.c **** * value of the interrupt in the cy_en_intr_t enum. The lower the index, the 
 242:Generated_Source\PSoC6\pdl\drivers\peripheral\sysint/cy_sysint.c **** * higher the priority. E.g. Consider a case where an interrupt source with value
 243:Generated_Source\PSoC6\pdl\drivers\peripheral\sysint/cy_sysint.c **** * 29 and an interrupt source with value 46 both source the same NVIC channel. If
 244:Generated_Source\PSoC6\pdl\drivers\peripheral\sysint/cy_sysint.c **** * both are active (triggered) at the same time, calling Cy_SysInt_GetInterruptActive()
 245:Generated_Source\PSoC6\pdl\drivers\peripheral\sysint/cy_sysint.c **** * will return 29 as the active interrupt.
 246:Generated_Source\PSoC6\pdl\drivers\peripheral\sysint/cy_sysint.c **** *
 247:Generated_Source\PSoC6\pdl\drivers\peripheral\sysint/cy_sysint.c **** * \param IRQn
 248:Generated_Source\PSoC6\pdl\drivers\peripheral\sysint/cy_sysint.c **** * NVIC channel number connected to the CPU core
 249:Generated_Source\PSoC6\pdl\drivers\peripheral\sysint/cy_sysint.c **** *
 250:Generated_Source\PSoC6\pdl\drivers\peripheral\sysint/cy_sysint.c **** * \return
 251:Generated_Source\PSoC6\pdl\drivers\peripheral\sysint/cy_sysint.c **** * Device interrupt connected to the NVIC channel. A returned value of 
 252:Generated_Source\PSoC6\pdl\drivers\peripheral\sysint/cy_sysint.c **** * "disconnected_IRQn" indicates that there are no active (pending) interrupts 
 253:Generated_Source\PSoC6\pdl\drivers\peripheral\sysint/cy_sysint.c **** * on this NVIC channel.  
 254:Generated_Source\PSoC6\pdl\drivers\peripheral\sysint/cy_sysint.c **** *
 255:Generated_Source\PSoC6\pdl\drivers\peripheral\sysint/cy_sysint.c **** * \note This function is available for CM0+ core only.
 256:Generated_Source\PSoC6\pdl\drivers\peripheral\sysint/cy_sysint.c **** *
 257:Generated_Source\PSoC6\pdl\drivers\peripheral\sysint/cy_sysint.c **** * \note This function supports only devices using CPUSS_ver2 or higher.
 258:Generated_Source\PSoC6\pdl\drivers\peripheral\sysint/cy_sysint.c **** *
 259:Generated_Source\PSoC6\pdl\drivers\peripheral\sysint/cy_sysint.c **** * \funcusage
 260:Generated_Source\PSoC6\pdl\drivers\peripheral\sysint/cy_sysint.c **** * \snippet sysint\1.20\snippet\main.c snippet_Cy_SysInt_GetInterruptActive
 261:Generated_Source\PSoC6\pdl\drivers\peripheral\sysint/cy_sysint.c **** *
 262:Generated_Source\PSoC6\pdl\drivers\peripheral\sysint/cy_sysint.c **** *******************************************************************************/
 263:Generated_Source\PSoC6\pdl\drivers\peripheral\sysint/cy_sysint.c **** cy_en_intr_t Cy_SysInt_GetInterruptActive(IRQn_Type IRQn)
 264:Generated_Source\PSoC6\pdl\drivers\peripheral\sysint/cy_sysint.c **** {
 333              		.loc 1 264 0
 334              		.cfi_startproc
 335              		@ args = 0, pretend = 0, frame = 0
 336              		@ frame_needed = 0, uses_anonymous_args = 0
 337              		@ link register save eliminated.
 338              	.LVL35:
 265:Generated_Source\PSoC6\pdl\drivers\peripheral\sysint/cy_sysint.c ****     uint32_t tempReg = CY_CPUSS_NOT_CONNECTED_IRQN;
 339              		.loc 1 265 0
 340 0000 0B4B     		ldr	r3, .L22
 341 0002 1968     		ldr	r1, [r3]
 342 0004 3A23     		movs	r3, #58
 343 0006 CA5E     		ldrsh	r2, [r1, r3]
 344              	.LVL36:
 266:Generated_Source\PSoC6\pdl\drivers\peripheral\sysint/cy_sysint.c ****     uint32_t locIdx = (uint32_t)IRQn & CY_SYSINT_INT_STATUS_MSK;
 345              		.loc 1 266 0
 346 0008 0723     		movs	r3, #7
 347 000a 1840     		ands	r0, r3
 348              	.LVL37:
 267:Generated_Source\PSoC6\pdl\drivers\peripheral\sysint/cy_sysint.c **** 
 268:Generated_Source\PSoC6\pdl\drivers\peripheral\sysint/cy_sysint.c ****     if ((!CY_CPUSS_V1) && (CY_SYSINT_ENABLE == _FLD2VAL(CPUSS_V2_CM0_INT0_STATUS_SYSTEM_INT_VALID, 
 349              		.loc 1 268 0
 350 000c 2133     		adds	r3, r3, #33
 351 000e CB5C     		ldrb	r3, [r1, r3]
 352 0010 012B     		cmp	r3, #1
 353 0012 0BD0     		beq	.L21
 354              		.loc 1 268 0 is_stmt 0 discriminator 1
 355 0014 0B68     		ldr	r3, [r1]
 356 0016 8821     		movs	r1, #136
 357 0018 4901     		lsls	r1, r1, #5
 358 001a 5918     		adds	r1, r3, r1
ARM GAS  C:\Users\enes_\AppData\Local\Temp\ccogZ4Ak.s 			page 12


 359 001c 8300     		lsls	r3, r0, #2
 360 001e CB18     		adds	r3, r1, r3
 361 0020 1968     		ldr	r1, [r3]
 362 0022 0029     		cmp	r1, #0
 363 0024 02DA     		bge	.L21
 269:Generated_Source\PSoC6\pdl\drivers\peripheral\sysint/cy_sysint.c ****     {
 270:Generated_Source\PSoC6\pdl\drivers\peripheral\sysint/cy_sysint.c ****         tempReg = _FLD2VAL(CPUSS_V2_CM0_INT0_STATUS_SYSTEM_INT_IDX, CPUSS_CM0_INT_STATUS[locIdx]);
 364              		.loc 1 270 0 is_stmt 1
 365 0026 1A68     		ldr	r2, [r3]
 366              	.LVL38:
 367 0028 9205     		lsls	r2, r2, #22
 368 002a 920D     		lsrs	r2, r2, #22
 369              	.LVL39:
 370              	.L21:
 271:Generated_Source\PSoC6\pdl\drivers\peripheral\sysint/cy_sysint.c ****     }
 272:Generated_Source\PSoC6\pdl\drivers\peripheral\sysint/cy_sysint.c ****     return (cy_en_intr_t)tempReg;
 371              		.loc 1 272 0
 372 002c D0B2     		uxtb	r0, r2
 373              	.LVL40:
 273:Generated_Source\PSoC6\pdl\drivers\peripheral\sysint/cy_sysint.c **** }
 374              		.loc 1 273 0
 375              		@ sp needed
 376 002e 7047     		bx	lr
 377              	.L23:
 378              		.align	2
 379              	.L22:
 380 0030 00000000 		.word	cy_device
 381              		.cfi_endproc
 382              	.LFE52:
 383              		.size	Cy_SysInt_GetInterruptActive, .-Cy_SysInt_GetInterruptActive
 384              		.section	.text.Cy_SysInt_SetVector,"ax",%progbits
 385              		.align	2
 386              		.global	Cy_SysInt_SetVector
 387              		.code	16
 388              		.thumb_func
 389              		.type	Cy_SysInt_SetVector, %function
 390              	Cy_SysInt_SetVector:
 391              	.LFB53:
 274:Generated_Source\PSoC6\pdl\drivers\peripheral\sysint/cy_sysint.c **** 
 275:Generated_Source\PSoC6\pdl\drivers\peripheral\sysint/cy_sysint.c **** #endif
 276:Generated_Source\PSoC6\pdl\drivers\peripheral\sysint/cy_sysint.c **** 
 277:Generated_Source\PSoC6\pdl\drivers\peripheral\sysint/cy_sysint.c **** 
 278:Generated_Source\PSoC6\pdl\drivers\peripheral\sysint/cy_sysint.c **** /*******************************************************************************
 279:Generated_Source\PSoC6\pdl\drivers\peripheral\sysint/cy_sysint.c **** * Function Name: Cy_SysInt_SetVector
 280:Generated_Source\PSoC6\pdl\drivers\peripheral\sysint/cy_sysint.c **** ****************************************************************************//**
 281:Generated_Source\PSoC6\pdl\drivers\peripheral\sysint/cy_sysint.c **** *
 282:Generated_Source\PSoC6\pdl\drivers\peripheral\sysint/cy_sysint.c **** * \brief Changes the ISR vector for the interrupt.
 283:Generated_Source\PSoC6\pdl\drivers\peripheral\sysint/cy_sysint.c **** *
 284:Generated_Source\PSoC6\pdl\drivers\peripheral\sysint/cy_sysint.c **** * This function relies on the assumption that the vector table is
 285:Generated_Source\PSoC6\pdl\drivers\peripheral\sysint/cy_sysint.c **** * relocated to __ramVectors[RAM_VECTORS_SIZE] in SRAM. Otherwise it will
 286:Generated_Source\PSoC6\pdl\drivers\peripheral\sysint/cy_sysint.c **** * return the address of the default ISR location in the flash vector table.
 287:Generated_Source\PSoC6\pdl\drivers\peripheral\sysint/cy_sysint.c **** *
 288:Generated_Source\PSoC6\pdl\drivers\peripheral\sysint/cy_sysint.c **** * \param IRQn
 289:Generated_Source\PSoC6\pdl\drivers\peripheral\sysint/cy_sysint.c **** * Interrupt source
 290:Generated_Source\PSoC6\pdl\drivers\peripheral\sysint/cy_sysint.c **** *
 291:Generated_Source\PSoC6\pdl\drivers\peripheral\sysint/cy_sysint.c **** * \param userIsr
 292:Generated_Source\PSoC6\pdl\drivers\peripheral\sysint/cy_sysint.c **** * Address of the ISR to set in the interrupt vector table
ARM GAS  C:\Users\enes_\AppData\Local\Temp\ccogZ4Ak.s 			page 13


 293:Generated_Source\PSoC6\pdl\drivers\peripheral\sysint/cy_sysint.c **** *
 294:Generated_Source\PSoC6\pdl\drivers\peripheral\sysint/cy_sysint.c **** * \return
 295:Generated_Source\PSoC6\pdl\drivers\peripheral\sysint/cy_sysint.c **** * Previous address of the ISR in the interrupt vector table
 296:Generated_Source\PSoC6\pdl\drivers\peripheral\sysint/cy_sysint.c **** *
 297:Generated_Source\PSoC6\pdl\drivers\peripheral\sysint/cy_sysint.c **** * \note For CM0+, this function sets the interrupt vector for the interrupt
 298:Generated_Source\PSoC6\pdl\drivers\peripheral\sysint/cy_sysint.c **** * channel on the NVIC.
 299:Generated_Source\PSoC6\pdl\drivers\peripheral\sysint/cy_sysint.c **** *
 300:Generated_Source\PSoC6\pdl\drivers\peripheral\sysint/cy_sysint.c **** * \funcusage
 301:Generated_Source\PSoC6\pdl\drivers\peripheral\sysint/cy_sysint.c **** * \snippet sysint\1.20\snippet\main.c snippet_Cy_SysInt_SetVector
 302:Generated_Source\PSoC6\pdl\drivers\peripheral\sysint/cy_sysint.c **** *
 303:Generated_Source\PSoC6\pdl\drivers\peripheral\sysint/cy_sysint.c **** *******************************************************************************/
 304:Generated_Source\PSoC6\pdl\drivers\peripheral\sysint/cy_sysint.c **** cy_israddress Cy_SysInt_SetVector(IRQn_Type IRQn, cy_israddress userIsr)
 305:Generated_Source\PSoC6\pdl\drivers\peripheral\sysint/cy_sysint.c **** {
 392              		.loc 1 305 0
 393              		.cfi_startproc
 394              		@ args = 0, pretend = 0, frame = 0
 395              		@ frame_needed = 0, uses_anonymous_args = 0
 396              	.LVL41:
 397 0000 70B5     		push	{r4, r5, r6, lr}
 398              		.cfi_def_cfa_offset 16
 399              		.cfi_offset 4, -16
 400              		.cfi_offset 5, -12
 401              		.cfi_offset 6, -8
 402              		.cfi_offset 14, -4
 403 0002 0400     		movs	r4, r0
 404 0004 0D00     		movs	r5, r1
 306:Generated_Source\PSoC6\pdl\drivers\peripheral\sysint/cy_sysint.c ****     cy_israddress prevIsr;
 307:Generated_Source\PSoC6\pdl\drivers\peripheral\sysint/cy_sysint.c ****     
 308:Generated_Source\PSoC6\pdl\drivers\peripheral\sysint/cy_sysint.c ****     /* Set the new vector only if it was moved to __ramVectors */
 309:Generated_Source\PSoC6\pdl\drivers\peripheral\sysint/cy_sysint.c ****     if (SCB->VTOR == (uint32_t)&__ramVectors)
 405              		.loc 1 309 0
 406 0006 0B4B     		ldr	r3, .L28
 407 0008 9A68     		ldr	r2, [r3, #8]
 408 000a 0B4B     		ldr	r3, .L28+4
 409 000c 9A42     		cmp	r2, r3
 410 000e 0CD1     		bne	.L25
 310:Generated_Source\PSoC6\pdl\drivers\peripheral\sysint/cy_sysint.c ****     {
 311:Generated_Source\PSoC6\pdl\drivers\peripheral\sysint/cy_sysint.c ****         CY_ASSERT_L1(CY_SYSINT_IS_VECTOR_VALID(userIsr));
 411              		.loc 1 311 0
 412 0010 0029     		cmp	r1, #0
 413 0012 04D1     		bne	.L26
 414              		.loc 1 311 0 is_stmt 0 discriminator 1
 415 0014 3821     		movs	r1, #56
 416              	.LVL42:
 417 0016 FF31     		adds	r1, r1, #255
 418 0018 0848     		ldr	r0, .L28+8
 419              	.LVL43:
 420 001a FFF7FEFF 		bl	Cy_SysLib_AssertFailed
 421              	.LVL44:
 422              	.L26:
 312:Generated_Source\PSoC6\pdl\drivers\peripheral\sysint/cy_sysint.c **** 
 313:Generated_Source\PSoC6\pdl\drivers\peripheral\sysint/cy_sysint.c ****         prevIsr = __ramVectors[CY_INT_IRQ_BASE + IRQn];
 423              		.loc 1 313 0 is_stmt 1
 424 001e 1034     		adds	r4, r4, #16
 425 0020 054B     		ldr	r3, .L28+4
 426 0022 A400     		lsls	r4, r4, #2
 427 0024 E058     		ldr	r0, [r4, r3]
ARM GAS  C:\Users\enes_\AppData\Local\Temp\ccogZ4Ak.s 			page 14


 428              	.LVL45:
 314:Generated_Source\PSoC6\pdl\drivers\peripheral\sysint/cy_sysint.c ****         __ramVectors[CY_INT_IRQ_BASE + IRQn] = userIsr;
 429              		.loc 1 314 0
 430 0026 E550     		str	r5, [r4, r3]
 431 0028 03E0     		b	.L27
 432              	.LVL46:
 433              	.L25:
 315:Generated_Source\PSoC6\pdl\drivers\peripheral\sysint/cy_sysint.c ****     }
 316:Generated_Source\PSoC6\pdl\drivers\peripheral\sysint/cy_sysint.c ****     else
 317:Generated_Source\PSoC6\pdl\drivers\peripheral\sysint/cy_sysint.c ****     {
 318:Generated_Source\PSoC6\pdl\drivers\peripheral\sysint/cy_sysint.c ****         prevIsr = __Vectors[CY_INT_IRQ_BASE + IRQn];
 434              		.loc 1 318 0
 435 002a 1034     		adds	r4, r4, #16
 436 002c A400     		lsls	r4, r4, #2
 437 002e 044B     		ldr	r3, .L28+12
 438 0030 E058     		ldr	r0, [r4, r3]
 439              	.LVL47:
 440              	.L27:
 319:Generated_Source\PSoC6\pdl\drivers\peripheral\sysint/cy_sysint.c ****     }
 320:Generated_Source\PSoC6\pdl\drivers\peripheral\sysint/cy_sysint.c **** 
 321:Generated_Source\PSoC6\pdl\drivers\peripheral\sysint/cy_sysint.c ****     return prevIsr;
 322:Generated_Source\PSoC6\pdl\drivers\peripheral\sysint/cy_sysint.c **** }
 441              		.loc 1 322 0
 442              		@ sp needed
 443              	.LVL48:
 444 0032 70BD     		pop	{r4, r5, r6, pc}
 445              	.L29:
 446              		.align	2
 447              	.L28:
 448 0034 00ED00E0 		.word	-536810240
 449 0038 00000000 		.word	__ramVectors
 450 003c 00000000 		.word	.LC1
 451 0040 00000000 		.word	__Vectors
 452              		.cfi_endproc
 453              	.LFE53:
 454              		.size	Cy_SysInt_SetVector, .-Cy_SysInt_SetVector
 455              		.section	.text.Cy_SysInt_Init,"ax",%progbits
 456              		.align	2
 457              		.global	Cy_SysInt_Init
 458              		.code	16
 459              		.thumb_func
 460              		.type	Cy_SysInt_Init, %function
 461              	Cy_SysInt_Init:
 462              	.LFB47:
  45:Generated_Source\PSoC6\pdl\drivers\peripheral\sysint/cy_sysint.c ****     cy_en_sysint_status_t status = CY_SYSINT_SUCCESS;
 463              		.loc 1 45 0
 464              		.cfi_startproc
 465              		@ args = 0, pretend = 0, frame = 8
 466              		@ frame_needed = 0, uses_anonymous_args = 0
 467              	.LVL49:
 468 0000 F0B5     		push	{r4, r5, r6, r7, lr}
 469              		.cfi_def_cfa_offset 20
 470              		.cfi_offset 4, -20
 471              		.cfi_offset 5, -16
 472              		.cfi_offset 6, -12
 473              		.cfi_offset 7, -8
 474              		.cfi_offset 14, -4
ARM GAS  C:\Users\enes_\AppData\Local\Temp\ccogZ4Ak.s 			page 15


 475 0002 4746     		mov	r7, r8
 476 0004 80B4     		push	{r7}
 477              		.cfi_def_cfa_offset 24
 478              		.cfi_offset 8, -24
 479 0006 82B0     		sub	sp, sp, #8
 480              		.cfi_def_cfa_offset 32
 481 0008 061E     		subs	r6, r0, #0
 482 000a 0191     		str	r1, [sp, #4]
 483              	.LVL50:
  48:Generated_Source\PSoC6\pdl\drivers\peripheral\sysint/cy_sysint.c ****     {
 484              		.loc 1 48 0
 485 000c 4AD0     		beq	.L36
  50:Generated_Source\PSoC6\pdl\drivers\peripheral\sysint/cy_sysint.c **** 
 486              		.loc 1 50 0
 487 000e 4368     		ldr	r3, [r0, #4]
 488 0010 032B     		cmp	r3, #3
 489 0012 03D9     		bls	.L32
  50:Generated_Source\PSoC6\pdl\drivers\peripheral\sysint/cy_sysint.c **** 
 490              		.loc 1 50 0 is_stmt 0 discriminator 1
 491 0014 3221     		movs	r1, #50
 492              	.LVL51:
 493 0016 2648     		ldr	r0, .L38
 494              	.LVL52:
 495 0018 FFF7FEFF 		bl	Cy_SysLib_AssertFailed
 496              	.LVL53:
 497              	.L32:
  53:Generated_Source\PSoC6\pdl\drivers\peripheral\sysint/cy_sysint.c ****             {
 498              		.loc 1 53 0 is_stmt 1
 499 001c 0023     		movs	r3, #0
 500 001e F05E     		ldrsh	r0, [r6, r3]
 501 0020 0028     		cmp	r0, #0
 502 0022 04DB     		blt	.L37
  55:Generated_Source\PSoC6\pdl\drivers\peripheral\sysint/cy_sysint.c ****             }
 503              		.loc 1 55 0
 504 0024 B178     		ldrb	r1, [r6, #2]
 505 0026 FFF7FEFF 		bl	Cy_SysInt_SetInterruptSource
 506              	.LVL54:
  46:Generated_Source\PSoC6\pdl\drivers\peripheral\sysint/cy_sysint.c **** 
 507              		.loc 1 46 0
 508 002a 0024     		movs	r4, #0
 509 002c 00E0     		b	.L33
 510              	.L37:
  59:Generated_Source\PSoC6\pdl\drivers\peripheral\sysint/cy_sysint.c ****             }
 511              		.loc 1 59 0
 512 002e 214C     		ldr	r4, .L38+4
 513              	.L33:
 514              	.LVL55:
  63:Generated_Source\PSoC6\pdl\drivers\peripheral\sysint/cy_sysint.c ****         
 515              		.loc 1 63 0
 516 0030 0023     		movs	r3, #0
 517 0032 F15E     		ldrsh	r1, [r6, r3]
 518 0034 7368     		ldr	r3, [r6, #4]
 519              	.LVL56:
 520              	.LBB8:
 521              	.LBB9:
 522              		.file 2 "Generated_Source\\PSoC6\\pdl\\cmsis/include/core_cm0plus.h"
   1:Generated_Source\PSoC6\pdl\cmsis/include/core_cm0plus.h **** /**************************************************************************//**
ARM GAS  C:\Users\enes_\AppData\Local\Temp\ccogZ4Ak.s 			page 16


   2:Generated_Source\PSoC6\pdl\cmsis/include/core_cm0plus.h ****  * @file     core_cm0plus.h
   3:Generated_Source\PSoC6\pdl\cmsis/include/core_cm0plus.h ****  * @brief    CMSIS Cortex-M0+ Core Peripheral Access Layer Header File
   4:Generated_Source\PSoC6\pdl\cmsis/include/core_cm0plus.h ****  * @version  V5.0.4
   5:Generated_Source\PSoC6\pdl\cmsis/include/core_cm0plus.h ****  * @date     10. January 2018
   6:Generated_Source\PSoC6\pdl\cmsis/include/core_cm0plus.h ****  ******************************************************************************/
   7:Generated_Source\PSoC6\pdl\cmsis/include/core_cm0plus.h **** /*
   8:Generated_Source\PSoC6\pdl\cmsis/include/core_cm0plus.h ****  * Copyright (c) 2009-2018 Arm Limited. All rights reserved.
   9:Generated_Source\PSoC6\pdl\cmsis/include/core_cm0plus.h ****  *
  10:Generated_Source\PSoC6\pdl\cmsis/include/core_cm0plus.h ****  * SPDX-License-Identifier: Apache-2.0
  11:Generated_Source\PSoC6\pdl\cmsis/include/core_cm0plus.h ****  *
  12:Generated_Source\PSoC6\pdl\cmsis/include/core_cm0plus.h ****  * Licensed under the Apache License, Version 2.0 (the License); you may
  13:Generated_Source\PSoC6\pdl\cmsis/include/core_cm0plus.h ****  * not use this file except in compliance with the License.
  14:Generated_Source\PSoC6\pdl\cmsis/include/core_cm0plus.h ****  * You may obtain a copy of the License at
  15:Generated_Source\PSoC6\pdl\cmsis/include/core_cm0plus.h ****  *
  16:Generated_Source\PSoC6\pdl\cmsis/include/core_cm0plus.h ****  * www.apache.org/licenses/LICENSE-2.0
  17:Generated_Source\PSoC6\pdl\cmsis/include/core_cm0plus.h ****  *
  18:Generated_Source\PSoC6\pdl\cmsis/include/core_cm0plus.h ****  * Unless required by applicable law or agreed to in writing, software
  19:Generated_Source\PSoC6\pdl\cmsis/include/core_cm0plus.h ****  * distributed under the License is distributed on an AS IS BASIS, WITHOUT
  20:Generated_Source\PSoC6\pdl\cmsis/include/core_cm0plus.h ****  * WARRANTIES OR CONDITIONS OF ANY KIND, either express or implied.
  21:Generated_Source\PSoC6\pdl\cmsis/include/core_cm0plus.h ****  * See the License for the specific language governing permissions and
  22:Generated_Source\PSoC6\pdl\cmsis/include/core_cm0plus.h ****  * limitations under the License.
  23:Generated_Source\PSoC6\pdl\cmsis/include/core_cm0plus.h ****  */
  24:Generated_Source\PSoC6\pdl\cmsis/include/core_cm0plus.h **** 
  25:Generated_Source\PSoC6\pdl\cmsis/include/core_cm0plus.h **** #if   defined ( __ICCARM__ )
  26:Generated_Source\PSoC6\pdl\cmsis/include/core_cm0plus.h ****   #pragma system_include         /* treat file as system include file for MISRA check */
  27:Generated_Source\PSoC6\pdl\cmsis/include/core_cm0plus.h **** #elif defined (__clang__)
  28:Generated_Source\PSoC6\pdl\cmsis/include/core_cm0plus.h ****   #pragma clang system_header   /* treat file as system include file */
  29:Generated_Source\PSoC6\pdl\cmsis/include/core_cm0plus.h **** #endif
  30:Generated_Source\PSoC6\pdl\cmsis/include/core_cm0plus.h **** 
  31:Generated_Source\PSoC6\pdl\cmsis/include/core_cm0plus.h **** #ifndef __CORE_CM0PLUS_H_GENERIC
  32:Generated_Source\PSoC6\pdl\cmsis/include/core_cm0plus.h **** #define __CORE_CM0PLUS_H_GENERIC
  33:Generated_Source\PSoC6\pdl\cmsis/include/core_cm0plus.h **** 
  34:Generated_Source\PSoC6\pdl\cmsis/include/core_cm0plus.h **** #include <stdint.h>
  35:Generated_Source\PSoC6\pdl\cmsis/include/core_cm0plus.h **** 
  36:Generated_Source\PSoC6\pdl\cmsis/include/core_cm0plus.h **** #ifdef __cplusplus
  37:Generated_Source\PSoC6\pdl\cmsis/include/core_cm0plus.h ****  extern "C" {
  38:Generated_Source\PSoC6\pdl\cmsis/include/core_cm0plus.h **** #endif
  39:Generated_Source\PSoC6\pdl\cmsis/include/core_cm0plus.h **** 
  40:Generated_Source\PSoC6\pdl\cmsis/include/core_cm0plus.h **** /**
  41:Generated_Source\PSoC6\pdl\cmsis/include/core_cm0plus.h ****   \page CMSIS_MISRA_Exceptions  MISRA-C:2004 Compliance Exceptions
  42:Generated_Source\PSoC6\pdl\cmsis/include/core_cm0plus.h ****   CMSIS violates the following MISRA-C:2004 rules:
  43:Generated_Source\PSoC6\pdl\cmsis/include/core_cm0plus.h **** 
  44:Generated_Source\PSoC6\pdl\cmsis/include/core_cm0plus.h ****    \li Required Rule 8.5, object/function definition in header file.<br>
  45:Generated_Source\PSoC6\pdl\cmsis/include/core_cm0plus.h ****      Function definitions in header files are used to allow 'inlining'.
  46:Generated_Source\PSoC6\pdl\cmsis/include/core_cm0plus.h **** 
  47:Generated_Source\PSoC6\pdl\cmsis/include/core_cm0plus.h ****    \li Required Rule 18.4, declaration of union type or object of union type: '{...}'.<br>
  48:Generated_Source\PSoC6\pdl\cmsis/include/core_cm0plus.h ****      Unions are used for effective representation of core registers.
  49:Generated_Source\PSoC6\pdl\cmsis/include/core_cm0plus.h **** 
  50:Generated_Source\PSoC6\pdl\cmsis/include/core_cm0plus.h ****    \li Advisory Rule 19.7, Function-like macro defined.<br>
  51:Generated_Source\PSoC6\pdl\cmsis/include/core_cm0plus.h ****      Function-like macros are used to allow more efficient code.
  52:Generated_Source\PSoC6\pdl\cmsis/include/core_cm0plus.h ****  */
  53:Generated_Source\PSoC6\pdl\cmsis/include/core_cm0plus.h **** 
  54:Generated_Source\PSoC6\pdl\cmsis/include/core_cm0plus.h **** 
  55:Generated_Source\PSoC6\pdl\cmsis/include/core_cm0plus.h **** /*******************************************************************************
  56:Generated_Source\PSoC6\pdl\cmsis/include/core_cm0plus.h ****  *                 CMSIS definitions
  57:Generated_Source\PSoC6\pdl\cmsis/include/core_cm0plus.h ****  ******************************************************************************/
  58:Generated_Source\PSoC6\pdl\cmsis/include/core_cm0plus.h **** /**
ARM GAS  C:\Users\enes_\AppData\Local\Temp\ccogZ4Ak.s 			page 17


  59:Generated_Source\PSoC6\pdl\cmsis/include/core_cm0plus.h ****   \ingroup Cortex-M0+
  60:Generated_Source\PSoC6\pdl\cmsis/include/core_cm0plus.h ****   @{
  61:Generated_Source\PSoC6\pdl\cmsis/include/core_cm0plus.h ****  */
  62:Generated_Source\PSoC6\pdl\cmsis/include/core_cm0plus.h **** 
  63:Generated_Source\PSoC6\pdl\cmsis/include/core_cm0plus.h **** #include "cmsis_version.h"
  64:Generated_Source\PSoC6\pdl\cmsis/include/core_cm0plus.h ****  
  65:Generated_Source\PSoC6\pdl\cmsis/include/core_cm0plus.h **** /*  CMSIS CM0+ definitions */
  66:Generated_Source\PSoC6\pdl\cmsis/include/core_cm0plus.h **** #define __CM0PLUS_CMSIS_VERSION_MAIN (__CM_CMSIS_VERSION_MAIN)                  /*!< \deprecated [3
  67:Generated_Source\PSoC6\pdl\cmsis/include/core_cm0plus.h **** #define __CM0PLUS_CMSIS_VERSION_SUB  (__CM_CMSIS_VERSION_SUB)                   /*!< \deprecated [1
  68:Generated_Source\PSoC6\pdl\cmsis/include/core_cm0plus.h **** #define __CM0PLUS_CMSIS_VERSION      ((__CM0PLUS_CMSIS_VERSION_MAIN << 16U) | \
  69:Generated_Source\PSoC6\pdl\cmsis/include/core_cm0plus.h ****                                        __CM0PLUS_CMSIS_VERSION_SUB           )  /*!< \deprecated CM
  70:Generated_Source\PSoC6\pdl\cmsis/include/core_cm0plus.h **** 
  71:Generated_Source\PSoC6\pdl\cmsis/include/core_cm0plus.h **** #define __CORTEX_M                   (0U)                                       /*!< Cortex-M Core 
  72:Generated_Source\PSoC6\pdl\cmsis/include/core_cm0plus.h **** 
  73:Generated_Source\PSoC6\pdl\cmsis/include/core_cm0plus.h **** /** __FPU_USED indicates whether an FPU is used or not.
  74:Generated_Source\PSoC6\pdl\cmsis/include/core_cm0plus.h ****     This core does not support an FPU at all
  75:Generated_Source\PSoC6\pdl\cmsis/include/core_cm0plus.h **** */
  76:Generated_Source\PSoC6\pdl\cmsis/include/core_cm0plus.h **** #define __FPU_USED       0U
  77:Generated_Source\PSoC6\pdl\cmsis/include/core_cm0plus.h **** 
  78:Generated_Source\PSoC6\pdl\cmsis/include/core_cm0plus.h **** #if defined ( __CC_ARM )
  79:Generated_Source\PSoC6\pdl\cmsis/include/core_cm0plus.h ****   #if defined __TARGET_FPU_VFP
  80:Generated_Source\PSoC6\pdl\cmsis/include/core_cm0plus.h ****     #error "Compiler generates FPU instructions for a device without an FPU (check __FPU_PRESENT)"
  81:Generated_Source\PSoC6\pdl\cmsis/include/core_cm0plus.h ****   #endif
  82:Generated_Source\PSoC6\pdl\cmsis/include/core_cm0plus.h **** 
  83:Generated_Source\PSoC6\pdl\cmsis/include/core_cm0plus.h **** #elif defined (__ARMCC_VERSION) && (__ARMCC_VERSION >= 6010050)
  84:Generated_Source\PSoC6\pdl\cmsis/include/core_cm0plus.h ****   #if defined __ARM_PCS_VFP
  85:Generated_Source\PSoC6\pdl\cmsis/include/core_cm0plus.h ****     #error "Compiler generates FPU instructions for a device without an FPU (check __FPU_PRESENT)"
  86:Generated_Source\PSoC6\pdl\cmsis/include/core_cm0plus.h ****   #endif
  87:Generated_Source\PSoC6\pdl\cmsis/include/core_cm0plus.h **** 
  88:Generated_Source\PSoC6\pdl\cmsis/include/core_cm0plus.h **** #elif defined ( __GNUC__ )
  89:Generated_Source\PSoC6\pdl\cmsis/include/core_cm0plus.h ****   #if defined (__VFP_FP__) && !defined(__SOFTFP__)
  90:Generated_Source\PSoC6\pdl\cmsis/include/core_cm0plus.h ****     #error "Compiler generates FPU instructions for a device without an FPU (check __FPU_PRESENT)"
  91:Generated_Source\PSoC6\pdl\cmsis/include/core_cm0plus.h ****   #endif
  92:Generated_Source\PSoC6\pdl\cmsis/include/core_cm0plus.h **** 
  93:Generated_Source\PSoC6\pdl\cmsis/include/core_cm0plus.h **** #elif defined ( __ICCARM__ )
  94:Generated_Source\PSoC6\pdl\cmsis/include/core_cm0plus.h ****   #if defined __ARMVFP__
  95:Generated_Source\PSoC6\pdl\cmsis/include/core_cm0plus.h ****     #error "Compiler generates FPU instructions for a device without an FPU (check __FPU_PRESENT)"
  96:Generated_Source\PSoC6\pdl\cmsis/include/core_cm0plus.h ****   #endif
  97:Generated_Source\PSoC6\pdl\cmsis/include/core_cm0plus.h **** 
  98:Generated_Source\PSoC6\pdl\cmsis/include/core_cm0plus.h **** #elif defined ( __TI_ARM__ )
  99:Generated_Source\PSoC6\pdl\cmsis/include/core_cm0plus.h ****   #if defined __TI_VFP_SUPPORT__
 100:Generated_Source\PSoC6\pdl\cmsis/include/core_cm0plus.h ****     #error "Compiler generates FPU instructions for a device without an FPU (check __FPU_PRESENT)"
 101:Generated_Source\PSoC6\pdl\cmsis/include/core_cm0plus.h ****   #endif
 102:Generated_Source\PSoC6\pdl\cmsis/include/core_cm0plus.h **** 
 103:Generated_Source\PSoC6\pdl\cmsis/include/core_cm0plus.h **** #elif defined ( __TASKING__ )
 104:Generated_Source\PSoC6\pdl\cmsis/include/core_cm0plus.h ****   #if defined __FPU_VFP__
 105:Generated_Source\PSoC6\pdl\cmsis/include/core_cm0plus.h ****     #error "Compiler generates FPU instructions for a device without an FPU (check __FPU_PRESENT)"
 106:Generated_Source\PSoC6\pdl\cmsis/include/core_cm0plus.h ****   #endif
 107:Generated_Source\PSoC6\pdl\cmsis/include/core_cm0plus.h **** 
 108:Generated_Source\PSoC6\pdl\cmsis/include/core_cm0plus.h **** #elif defined ( __CSMC__ )
 109:Generated_Source\PSoC6\pdl\cmsis/include/core_cm0plus.h ****   #if ( __CSMC__ & 0x400U)
 110:Generated_Source\PSoC6\pdl\cmsis/include/core_cm0plus.h ****     #error "Compiler generates FPU instructions for a device without an FPU (check __FPU_PRESENT)"
 111:Generated_Source\PSoC6\pdl\cmsis/include/core_cm0plus.h ****   #endif
 112:Generated_Source\PSoC6\pdl\cmsis/include/core_cm0plus.h **** 
 113:Generated_Source\PSoC6\pdl\cmsis/include/core_cm0plus.h **** #endif
 114:Generated_Source\PSoC6\pdl\cmsis/include/core_cm0plus.h **** 
 115:Generated_Source\PSoC6\pdl\cmsis/include/core_cm0plus.h **** #include "cmsis_compiler.h"               /* CMSIS compiler specific defines */
ARM GAS  C:\Users\enes_\AppData\Local\Temp\ccogZ4Ak.s 			page 18


 116:Generated_Source\PSoC6\pdl\cmsis/include/core_cm0plus.h **** 
 117:Generated_Source\PSoC6\pdl\cmsis/include/core_cm0plus.h **** 
 118:Generated_Source\PSoC6\pdl\cmsis/include/core_cm0plus.h **** #ifdef __cplusplus
 119:Generated_Source\PSoC6\pdl\cmsis/include/core_cm0plus.h **** }
 120:Generated_Source\PSoC6\pdl\cmsis/include/core_cm0plus.h **** #endif
 121:Generated_Source\PSoC6\pdl\cmsis/include/core_cm0plus.h **** 
 122:Generated_Source\PSoC6\pdl\cmsis/include/core_cm0plus.h **** #endif /* __CORE_CM0PLUS_H_GENERIC */
 123:Generated_Source\PSoC6\pdl\cmsis/include/core_cm0plus.h **** 
 124:Generated_Source\PSoC6\pdl\cmsis/include/core_cm0plus.h **** #ifndef __CMSIS_GENERIC
 125:Generated_Source\PSoC6\pdl\cmsis/include/core_cm0plus.h **** 
 126:Generated_Source\PSoC6\pdl\cmsis/include/core_cm0plus.h **** #ifndef __CORE_CM0PLUS_H_DEPENDANT
 127:Generated_Source\PSoC6\pdl\cmsis/include/core_cm0plus.h **** #define __CORE_CM0PLUS_H_DEPENDANT
 128:Generated_Source\PSoC6\pdl\cmsis/include/core_cm0plus.h **** 
 129:Generated_Source\PSoC6\pdl\cmsis/include/core_cm0plus.h **** #ifdef __cplusplus
 130:Generated_Source\PSoC6\pdl\cmsis/include/core_cm0plus.h ****  extern "C" {
 131:Generated_Source\PSoC6\pdl\cmsis/include/core_cm0plus.h **** #endif
 132:Generated_Source\PSoC6\pdl\cmsis/include/core_cm0plus.h **** 
 133:Generated_Source\PSoC6\pdl\cmsis/include/core_cm0plus.h **** /* check device defines and use defaults */
 134:Generated_Source\PSoC6\pdl\cmsis/include/core_cm0plus.h **** #if defined __CHECK_DEVICE_DEFINES
 135:Generated_Source\PSoC6\pdl\cmsis/include/core_cm0plus.h ****   #ifndef __CM0PLUS_REV
 136:Generated_Source\PSoC6\pdl\cmsis/include/core_cm0plus.h ****     #define __CM0PLUS_REV             0x0000U
 137:Generated_Source\PSoC6\pdl\cmsis/include/core_cm0plus.h ****     #warning "__CM0PLUS_REV not defined in device header file; using default!"
 138:Generated_Source\PSoC6\pdl\cmsis/include/core_cm0plus.h ****   #endif
 139:Generated_Source\PSoC6\pdl\cmsis/include/core_cm0plus.h **** 
 140:Generated_Source\PSoC6\pdl\cmsis/include/core_cm0plus.h ****   #ifndef __MPU_PRESENT
 141:Generated_Source\PSoC6\pdl\cmsis/include/core_cm0plus.h ****     #define __MPU_PRESENT             0U
 142:Generated_Source\PSoC6\pdl\cmsis/include/core_cm0plus.h ****     #warning "__MPU_PRESENT not defined in device header file; using default!"
 143:Generated_Source\PSoC6\pdl\cmsis/include/core_cm0plus.h ****   #endif
 144:Generated_Source\PSoC6\pdl\cmsis/include/core_cm0plus.h **** 
 145:Generated_Source\PSoC6\pdl\cmsis/include/core_cm0plus.h ****   #ifndef __VTOR_PRESENT
 146:Generated_Source\PSoC6\pdl\cmsis/include/core_cm0plus.h ****     #define __VTOR_PRESENT            0U
 147:Generated_Source\PSoC6\pdl\cmsis/include/core_cm0plus.h ****     #warning "__VTOR_PRESENT not defined in device header file; using default!"
 148:Generated_Source\PSoC6\pdl\cmsis/include/core_cm0plus.h ****   #endif
 149:Generated_Source\PSoC6\pdl\cmsis/include/core_cm0plus.h **** 
 150:Generated_Source\PSoC6\pdl\cmsis/include/core_cm0plus.h ****   #ifndef __NVIC_PRIO_BITS
 151:Generated_Source\PSoC6\pdl\cmsis/include/core_cm0plus.h ****     #define __NVIC_PRIO_BITS          2U
 152:Generated_Source\PSoC6\pdl\cmsis/include/core_cm0plus.h ****     #warning "__NVIC_PRIO_BITS not defined in device header file; using default!"
 153:Generated_Source\PSoC6\pdl\cmsis/include/core_cm0plus.h ****   #endif
 154:Generated_Source\PSoC6\pdl\cmsis/include/core_cm0plus.h **** 
 155:Generated_Source\PSoC6\pdl\cmsis/include/core_cm0plus.h ****   #ifndef __Vendor_SysTickConfig
 156:Generated_Source\PSoC6\pdl\cmsis/include/core_cm0plus.h ****     #define __Vendor_SysTickConfig    0U
 157:Generated_Source\PSoC6\pdl\cmsis/include/core_cm0plus.h ****     #warning "__Vendor_SysTickConfig not defined in device header file; using default!"
 158:Generated_Source\PSoC6\pdl\cmsis/include/core_cm0plus.h ****   #endif
 159:Generated_Source\PSoC6\pdl\cmsis/include/core_cm0plus.h **** #endif
 160:Generated_Source\PSoC6\pdl\cmsis/include/core_cm0plus.h **** 
 161:Generated_Source\PSoC6\pdl\cmsis/include/core_cm0plus.h **** /* IO definitions (access restrictions to peripheral registers) */
 162:Generated_Source\PSoC6\pdl\cmsis/include/core_cm0plus.h **** /**
 163:Generated_Source\PSoC6\pdl\cmsis/include/core_cm0plus.h ****     \defgroup CMSIS_glob_defs CMSIS Global Defines
 164:Generated_Source\PSoC6\pdl\cmsis/include/core_cm0plus.h **** 
 165:Generated_Source\PSoC6\pdl\cmsis/include/core_cm0plus.h ****     <strong>IO Type Qualifiers</strong> are used
 166:Generated_Source\PSoC6\pdl\cmsis/include/core_cm0plus.h ****     \li to specify the access to peripheral variables.
 167:Generated_Source\PSoC6\pdl\cmsis/include/core_cm0plus.h ****     \li for automatic generation of peripheral register debug information.
 168:Generated_Source\PSoC6\pdl\cmsis/include/core_cm0plus.h **** */
 169:Generated_Source\PSoC6\pdl\cmsis/include/core_cm0plus.h **** #ifdef __cplusplus
 170:Generated_Source\PSoC6\pdl\cmsis/include/core_cm0plus.h ****   #define   __I     volatile             /*!< Defines 'read only' permissions */
 171:Generated_Source\PSoC6\pdl\cmsis/include/core_cm0plus.h **** #else
 172:Generated_Source\PSoC6\pdl\cmsis/include/core_cm0plus.h ****   #define   __I     volatile const       /*!< Defines 'read only' permissions */
ARM GAS  C:\Users\enes_\AppData\Local\Temp\ccogZ4Ak.s 			page 19


 173:Generated_Source\PSoC6\pdl\cmsis/include/core_cm0plus.h **** #endif
 174:Generated_Source\PSoC6\pdl\cmsis/include/core_cm0plus.h **** #define     __O     volatile             /*!< Defines 'write only' permissions */
 175:Generated_Source\PSoC6\pdl\cmsis/include/core_cm0plus.h **** #define     __IO    volatile             /*!< Defines 'read / write' permissions */
 176:Generated_Source\PSoC6\pdl\cmsis/include/core_cm0plus.h **** 
 177:Generated_Source\PSoC6\pdl\cmsis/include/core_cm0plus.h **** /* following defines should be used for structure members */
 178:Generated_Source\PSoC6\pdl\cmsis/include/core_cm0plus.h **** #define     __IM     volatile const      /*! Defines 'read only' structure member permissions */
 179:Generated_Source\PSoC6\pdl\cmsis/include/core_cm0plus.h **** #define     __OM     volatile            /*! Defines 'write only' structure member permissions */
 180:Generated_Source\PSoC6\pdl\cmsis/include/core_cm0plus.h **** #define     __IOM    volatile            /*! Defines 'read / write' structure member permissions */
 181:Generated_Source\PSoC6\pdl\cmsis/include/core_cm0plus.h **** 
 182:Generated_Source\PSoC6\pdl\cmsis/include/core_cm0plus.h **** /*@} end of group Cortex-M0+ */
 183:Generated_Source\PSoC6\pdl\cmsis/include/core_cm0plus.h **** 
 184:Generated_Source\PSoC6\pdl\cmsis/include/core_cm0plus.h **** 
 185:Generated_Source\PSoC6\pdl\cmsis/include/core_cm0plus.h **** 
 186:Generated_Source\PSoC6\pdl\cmsis/include/core_cm0plus.h **** /*******************************************************************************
 187:Generated_Source\PSoC6\pdl\cmsis/include/core_cm0plus.h ****  *                 Register Abstraction
 188:Generated_Source\PSoC6\pdl\cmsis/include/core_cm0plus.h ****   Core Register contain:
 189:Generated_Source\PSoC6\pdl\cmsis/include/core_cm0plus.h ****   - Core Register
 190:Generated_Source\PSoC6\pdl\cmsis/include/core_cm0plus.h ****   - Core NVIC Register
 191:Generated_Source\PSoC6\pdl\cmsis/include/core_cm0plus.h ****   - Core SCB Register
 192:Generated_Source\PSoC6\pdl\cmsis/include/core_cm0plus.h ****   - Core SysTick Register
 193:Generated_Source\PSoC6\pdl\cmsis/include/core_cm0plus.h ****   - Core MPU Register
 194:Generated_Source\PSoC6\pdl\cmsis/include/core_cm0plus.h ****  ******************************************************************************/
 195:Generated_Source\PSoC6\pdl\cmsis/include/core_cm0plus.h **** /**
 196:Generated_Source\PSoC6\pdl\cmsis/include/core_cm0plus.h ****   \defgroup CMSIS_core_register Defines and Type Definitions
 197:Generated_Source\PSoC6\pdl\cmsis/include/core_cm0plus.h ****   \brief Type definitions and defines for Cortex-M processor based devices.
 198:Generated_Source\PSoC6\pdl\cmsis/include/core_cm0plus.h **** */
 199:Generated_Source\PSoC6\pdl\cmsis/include/core_cm0plus.h **** 
 200:Generated_Source\PSoC6\pdl\cmsis/include/core_cm0plus.h **** /**
 201:Generated_Source\PSoC6\pdl\cmsis/include/core_cm0plus.h ****   \ingroup    CMSIS_core_register
 202:Generated_Source\PSoC6\pdl\cmsis/include/core_cm0plus.h ****   \defgroup   CMSIS_CORE  Status and Control Registers
 203:Generated_Source\PSoC6\pdl\cmsis/include/core_cm0plus.h ****   \brief      Core Register type definitions.
 204:Generated_Source\PSoC6\pdl\cmsis/include/core_cm0plus.h ****   @{
 205:Generated_Source\PSoC6\pdl\cmsis/include/core_cm0plus.h ****  */
 206:Generated_Source\PSoC6\pdl\cmsis/include/core_cm0plus.h **** 
 207:Generated_Source\PSoC6\pdl\cmsis/include/core_cm0plus.h **** /**
 208:Generated_Source\PSoC6\pdl\cmsis/include/core_cm0plus.h ****   \brief  Union type to access the Application Program Status Register (APSR).
 209:Generated_Source\PSoC6\pdl\cmsis/include/core_cm0plus.h ****  */
 210:Generated_Source\PSoC6\pdl\cmsis/include/core_cm0plus.h **** typedef union
 211:Generated_Source\PSoC6\pdl\cmsis/include/core_cm0plus.h **** {
 212:Generated_Source\PSoC6\pdl\cmsis/include/core_cm0plus.h ****   struct
 213:Generated_Source\PSoC6\pdl\cmsis/include/core_cm0plus.h ****   {
 214:Generated_Source\PSoC6\pdl\cmsis/include/core_cm0plus.h ****     uint32_t _reserved0:28;              /*!< bit:  0..27  Reserved */
 215:Generated_Source\PSoC6\pdl\cmsis/include/core_cm0plus.h ****     uint32_t V:1;                        /*!< bit:     28  Overflow condition code flag */
 216:Generated_Source\PSoC6\pdl\cmsis/include/core_cm0plus.h ****     uint32_t C:1;                        /*!< bit:     29  Carry condition code flag */
 217:Generated_Source\PSoC6\pdl\cmsis/include/core_cm0plus.h ****     uint32_t Z:1;                        /*!< bit:     30  Zero condition code flag */
 218:Generated_Source\PSoC6\pdl\cmsis/include/core_cm0plus.h ****     uint32_t N:1;                        /*!< bit:     31  Negative condition code flag */
 219:Generated_Source\PSoC6\pdl\cmsis/include/core_cm0plus.h ****   } b;                                   /*!< Structure used for bit  access */
 220:Generated_Source\PSoC6\pdl\cmsis/include/core_cm0plus.h ****   uint32_t w;                            /*!< Type      used for word access */
 221:Generated_Source\PSoC6\pdl\cmsis/include/core_cm0plus.h **** } APSR_Type;
 222:Generated_Source\PSoC6\pdl\cmsis/include/core_cm0plus.h **** 
 223:Generated_Source\PSoC6\pdl\cmsis/include/core_cm0plus.h **** /* APSR Register Definitions */
 224:Generated_Source\PSoC6\pdl\cmsis/include/core_cm0plus.h **** #define APSR_N_Pos                         31U                                            /*!< APSR
 225:Generated_Source\PSoC6\pdl\cmsis/include/core_cm0plus.h **** #define APSR_N_Msk                         (1UL << APSR_N_Pos)                            /*!< APSR
 226:Generated_Source\PSoC6\pdl\cmsis/include/core_cm0plus.h **** 
 227:Generated_Source\PSoC6\pdl\cmsis/include/core_cm0plus.h **** #define APSR_Z_Pos                         30U                                            /*!< APSR
 228:Generated_Source\PSoC6\pdl\cmsis/include/core_cm0plus.h **** #define APSR_Z_Msk                         (1UL << APSR_Z_Pos)                            /*!< APSR
 229:Generated_Source\PSoC6\pdl\cmsis/include/core_cm0plus.h **** 
ARM GAS  C:\Users\enes_\AppData\Local\Temp\ccogZ4Ak.s 			page 20


 230:Generated_Source\PSoC6\pdl\cmsis/include/core_cm0plus.h **** #define APSR_C_Pos                         29U                                            /*!< APSR
 231:Generated_Source\PSoC6\pdl\cmsis/include/core_cm0plus.h **** #define APSR_C_Msk                         (1UL << APSR_C_Pos)                            /*!< APSR
 232:Generated_Source\PSoC6\pdl\cmsis/include/core_cm0plus.h **** 
 233:Generated_Source\PSoC6\pdl\cmsis/include/core_cm0plus.h **** #define APSR_V_Pos                         28U                                            /*!< APSR
 234:Generated_Source\PSoC6\pdl\cmsis/include/core_cm0plus.h **** #define APSR_V_Msk                         (1UL << APSR_V_Pos)                            /*!< APSR
 235:Generated_Source\PSoC6\pdl\cmsis/include/core_cm0plus.h **** 
 236:Generated_Source\PSoC6\pdl\cmsis/include/core_cm0plus.h **** 
 237:Generated_Source\PSoC6\pdl\cmsis/include/core_cm0plus.h **** /**
 238:Generated_Source\PSoC6\pdl\cmsis/include/core_cm0plus.h ****   \brief  Union type to access the Interrupt Program Status Register (IPSR).
 239:Generated_Source\PSoC6\pdl\cmsis/include/core_cm0plus.h ****  */
 240:Generated_Source\PSoC6\pdl\cmsis/include/core_cm0plus.h **** typedef union
 241:Generated_Source\PSoC6\pdl\cmsis/include/core_cm0plus.h **** {
 242:Generated_Source\PSoC6\pdl\cmsis/include/core_cm0plus.h ****   struct
 243:Generated_Source\PSoC6\pdl\cmsis/include/core_cm0plus.h ****   {
 244:Generated_Source\PSoC6\pdl\cmsis/include/core_cm0plus.h ****     uint32_t ISR:9;                      /*!< bit:  0.. 8  Exception number */
 245:Generated_Source\PSoC6\pdl\cmsis/include/core_cm0plus.h ****     uint32_t _reserved0:23;              /*!< bit:  9..31  Reserved */
 246:Generated_Source\PSoC6\pdl\cmsis/include/core_cm0plus.h ****   } b;                                   /*!< Structure used for bit  access */
 247:Generated_Source\PSoC6\pdl\cmsis/include/core_cm0plus.h ****   uint32_t w;                            /*!< Type      used for word access */
 248:Generated_Source\PSoC6\pdl\cmsis/include/core_cm0plus.h **** } IPSR_Type;
 249:Generated_Source\PSoC6\pdl\cmsis/include/core_cm0plus.h **** 
 250:Generated_Source\PSoC6\pdl\cmsis/include/core_cm0plus.h **** /* IPSR Register Definitions */
 251:Generated_Source\PSoC6\pdl\cmsis/include/core_cm0plus.h **** #define IPSR_ISR_Pos                        0U                                            /*!< IPSR
 252:Generated_Source\PSoC6\pdl\cmsis/include/core_cm0plus.h **** #define IPSR_ISR_Msk                       (0x1FFUL /*<< IPSR_ISR_Pos*/)                  /*!< IPSR
 253:Generated_Source\PSoC6\pdl\cmsis/include/core_cm0plus.h **** 
 254:Generated_Source\PSoC6\pdl\cmsis/include/core_cm0plus.h **** 
 255:Generated_Source\PSoC6\pdl\cmsis/include/core_cm0plus.h **** /**
 256:Generated_Source\PSoC6\pdl\cmsis/include/core_cm0plus.h ****   \brief  Union type to access the Special-Purpose Program Status Registers (xPSR).
 257:Generated_Source\PSoC6\pdl\cmsis/include/core_cm0plus.h ****  */
 258:Generated_Source\PSoC6\pdl\cmsis/include/core_cm0plus.h **** typedef union
 259:Generated_Source\PSoC6\pdl\cmsis/include/core_cm0plus.h **** {
 260:Generated_Source\PSoC6\pdl\cmsis/include/core_cm0plus.h ****   struct
 261:Generated_Source\PSoC6\pdl\cmsis/include/core_cm0plus.h ****   {
 262:Generated_Source\PSoC6\pdl\cmsis/include/core_cm0plus.h ****     uint32_t ISR:9;                      /*!< bit:  0.. 8  Exception number */
 263:Generated_Source\PSoC6\pdl\cmsis/include/core_cm0plus.h ****     uint32_t _reserved0:15;              /*!< bit:  9..23  Reserved */
 264:Generated_Source\PSoC6\pdl\cmsis/include/core_cm0plus.h ****     uint32_t T:1;                        /*!< bit:     24  Thumb bit        (read 0) */
 265:Generated_Source\PSoC6\pdl\cmsis/include/core_cm0plus.h ****     uint32_t _reserved1:3;               /*!< bit: 25..27  Reserved */
 266:Generated_Source\PSoC6\pdl\cmsis/include/core_cm0plus.h ****     uint32_t V:1;                        /*!< bit:     28  Overflow condition code flag */
 267:Generated_Source\PSoC6\pdl\cmsis/include/core_cm0plus.h ****     uint32_t C:1;                        /*!< bit:     29  Carry condition code flag */
 268:Generated_Source\PSoC6\pdl\cmsis/include/core_cm0plus.h ****     uint32_t Z:1;                        /*!< bit:     30  Zero condition code flag */
 269:Generated_Source\PSoC6\pdl\cmsis/include/core_cm0plus.h ****     uint32_t N:1;                        /*!< bit:     31  Negative condition code flag */
 270:Generated_Source\PSoC6\pdl\cmsis/include/core_cm0plus.h ****   } b;                                   /*!< Structure used for bit  access */
 271:Generated_Source\PSoC6\pdl\cmsis/include/core_cm0plus.h ****   uint32_t w;                            /*!< Type      used for word access */
 272:Generated_Source\PSoC6\pdl\cmsis/include/core_cm0plus.h **** } xPSR_Type;
 273:Generated_Source\PSoC6\pdl\cmsis/include/core_cm0plus.h **** 
 274:Generated_Source\PSoC6\pdl\cmsis/include/core_cm0plus.h **** /* xPSR Register Definitions */
 275:Generated_Source\PSoC6\pdl\cmsis/include/core_cm0plus.h **** #define xPSR_N_Pos                         31U                                            /*!< xPSR
 276:Generated_Source\PSoC6\pdl\cmsis/include/core_cm0plus.h **** #define xPSR_N_Msk                         (1UL << xPSR_N_Pos)                            /*!< xPSR
 277:Generated_Source\PSoC6\pdl\cmsis/include/core_cm0plus.h **** 
 278:Generated_Source\PSoC6\pdl\cmsis/include/core_cm0plus.h **** #define xPSR_Z_Pos                         30U                                            /*!< xPSR
 279:Generated_Source\PSoC6\pdl\cmsis/include/core_cm0plus.h **** #define xPSR_Z_Msk                         (1UL << xPSR_Z_Pos)                            /*!< xPSR
 280:Generated_Source\PSoC6\pdl\cmsis/include/core_cm0plus.h **** 
 281:Generated_Source\PSoC6\pdl\cmsis/include/core_cm0plus.h **** #define xPSR_C_Pos                         29U                                            /*!< xPSR
 282:Generated_Source\PSoC6\pdl\cmsis/include/core_cm0plus.h **** #define xPSR_C_Msk                         (1UL << xPSR_C_Pos)                            /*!< xPSR
 283:Generated_Source\PSoC6\pdl\cmsis/include/core_cm0plus.h **** 
 284:Generated_Source\PSoC6\pdl\cmsis/include/core_cm0plus.h **** #define xPSR_V_Pos                         28U                                            /*!< xPSR
 285:Generated_Source\PSoC6\pdl\cmsis/include/core_cm0plus.h **** #define xPSR_V_Msk                         (1UL << xPSR_V_Pos)                            /*!< xPSR
 286:Generated_Source\PSoC6\pdl\cmsis/include/core_cm0plus.h **** 
ARM GAS  C:\Users\enes_\AppData\Local\Temp\ccogZ4Ak.s 			page 21


 287:Generated_Source\PSoC6\pdl\cmsis/include/core_cm0plus.h **** #define xPSR_T_Pos                         24U                                            /*!< xPSR
 288:Generated_Source\PSoC6\pdl\cmsis/include/core_cm0plus.h **** #define xPSR_T_Msk                         (1UL << xPSR_T_Pos)                            /*!< xPSR
 289:Generated_Source\PSoC6\pdl\cmsis/include/core_cm0plus.h **** 
 290:Generated_Source\PSoC6\pdl\cmsis/include/core_cm0plus.h **** #define xPSR_ISR_Pos                        0U                                            /*!< xPSR
 291:Generated_Source\PSoC6\pdl\cmsis/include/core_cm0plus.h **** #define xPSR_ISR_Msk                       (0x1FFUL /*<< xPSR_ISR_Pos*/)                  /*!< xPSR
 292:Generated_Source\PSoC6\pdl\cmsis/include/core_cm0plus.h **** 
 293:Generated_Source\PSoC6\pdl\cmsis/include/core_cm0plus.h **** 
 294:Generated_Source\PSoC6\pdl\cmsis/include/core_cm0plus.h **** /**
 295:Generated_Source\PSoC6\pdl\cmsis/include/core_cm0plus.h ****   \brief  Union type to access the Control Registers (CONTROL).
 296:Generated_Source\PSoC6\pdl\cmsis/include/core_cm0plus.h ****  */
 297:Generated_Source\PSoC6\pdl\cmsis/include/core_cm0plus.h **** typedef union
 298:Generated_Source\PSoC6\pdl\cmsis/include/core_cm0plus.h **** {
 299:Generated_Source\PSoC6\pdl\cmsis/include/core_cm0plus.h ****   struct
 300:Generated_Source\PSoC6\pdl\cmsis/include/core_cm0plus.h ****   {
 301:Generated_Source\PSoC6\pdl\cmsis/include/core_cm0plus.h ****     uint32_t nPRIV:1;                    /*!< bit:      0  Execution privilege in Thread mode */
 302:Generated_Source\PSoC6\pdl\cmsis/include/core_cm0plus.h ****     uint32_t SPSEL:1;                    /*!< bit:      1  Stack to be used */
 303:Generated_Source\PSoC6\pdl\cmsis/include/core_cm0plus.h ****     uint32_t _reserved1:30;              /*!< bit:  2..31  Reserved */
 304:Generated_Source\PSoC6\pdl\cmsis/include/core_cm0plus.h ****   } b;                                   /*!< Structure used for bit  access */
 305:Generated_Source\PSoC6\pdl\cmsis/include/core_cm0plus.h ****   uint32_t w;                            /*!< Type      used for word access */
 306:Generated_Source\PSoC6\pdl\cmsis/include/core_cm0plus.h **** } CONTROL_Type;
 307:Generated_Source\PSoC6\pdl\cmsis/include/core_cm0plus.h **** 
 308:Generated_Source\PSoC6\pdl\cmsis/include/core_cm0plus.h **** /* CONTROL Register Definitions */
 309:Generated_Source\PSoC6\pdl\cmsis/include/core_cm0plus.h **** #define CONTROL_SPSEL_Pos                   1U                                            /*!< CONT
 310:Generated_Source\PSoC6\pdl\cmsis/include/core_cm0plus.h **** #define CONTROL_SPSEL_Msk                  (1UL << CONTROL_SPSEL_Pos)                     /*!< CONT
 311:Generated_Source\PSoC6\pdl\cmsis/include/core_cm0plus.h **** 
 312:Generated_Source\PSoC6\pdl\cmsis/include/core_cm0plus.h **** #define CONTROL_nPRIV_Pos                   0U                                            /*!< CONT
 313:Generated_Source\PSoC6\pdl\cmsis/include/core_cm0plus.h **** #define CONTROL_nPRIV_Msk                  (1UL /*<< CONTROL_nPRIV_Pos*/)                 /*!< CONT
 314:Generated_Source\PSoC6\pdl\cmsis/include/core_cm0plus.h **** 
 315:Generated_Source\PSoC6\pdl\cmsis/include/core_cm0plus.h **** /*@} end of group CMSIS_CORE */
 316:Generated_Source\PSoC6\pdl\cmsis/include/core_cm0plus.h **** 
 317:Generated_Source\PSoC6\pdl\cmsis/include/core_cm0plus.h **** 
 318:Generated_Source\PSoC6\pdl\cmsis/include/core_cm0plus.h **** /**
 319:Generated_Source\PSoC6\pdl\cmsis/include/core_cm0plus.h ****   \ingroup    CMSIS_core_register
 320:Generated_Source\PSoC6\pdl\cmsis/include/core_cm0plus.h ****   \defgroup   CMSIS_NVIC  Nested Vectored Interrupt Controller (NVIC)
 321:Generated_Source\PSoC6\pdl\cmsis/include/core_cm0plus.h ****   \brief      Type definitions for the NVIC Registers
 322:Generated_Source\PSoC6\pdl\cmsis/include/core_cm0plus.h ****   @{
 323:Generated_Source\PSoC6\pdl\cmsis/include/core_cm0plus.h ****  */
 324:Generated_Source\PSoC6\pdl\cmsis/include/core_cm0plus.h **** 
 325:Generated_Source\PSoC6\pdl\cmsis/include/core_cm0plus.h **** /**
 326:Generated_Source\PSoC6\pdl\cmsis/include/core_cm0plus.h ****   \brief  Structure type to access the Nested Vectored Interrupt Controller (NVIC).
 327:Generated_Source\PSoC6\pdl\cmsis/include/core_cm0plus.h ****  */
 328:Generated_Source\PSoC6\pdl\cmsis/include/core_cm0plus.h **** typedef struct
 329:Generated_Source\PSoC6\pdl\cmsis/include/core_cm0plus.h **** {
 330:Generated_Source\PSoC6\pdl\cmsis/include/core_cm0plus.h ****   __IOM uint32_t ISER[1U];               /*!< Offset: 0x000 (R/W)  Interrupt Set Enable Register */
 331:Generated_Source\PSoC6\pdl\cmsis/include/core_cm0plus.h ****         uint32_t RESERVED0[31U];
 332:Generated_Source\PSoC6\pdl\cmsis/include/core_cm0plus.h ****   __IOM uint32_t ICER[1U];               /*!< Offset: 0x080 (R/W)  Interrupt Clear Enable Register 
 333:Generated_Source\PSoC6\pdl\cmsis/include/core_cm0plus.h ****         uint32_t RSERVED1[31U];
 334:Generated_Source\PSoC6\pdl\cmsis/include/core_cm0plus.h ****   __IOM uint32_t ISPR[1U];               /*!< Offset: 0x100 (R/W)  Interrupt Set Pending Register *
 335:Generated_Source\PSoC6\pdl\cmsis/include/core_cm0plus.h ****         uint32_t RESERVED2[31U];
 336:Generated_Source\PSoC6\pdl\cmsis/include/core_cm0plus.h ****   __IOM uint32_t ICPR[1U];               /*!< Offset: 0x180 (R/W)  Interrupt Clear Pending Register
 337:Generated_Source\PSoC6\pdl\cmsis/include/core_cm0plus.h ****         uint32_t RESERVED3[31U];
 338:Generated_Source\PSoC6\pdl\cmsis/include/core_cm0plus.h ****         uint32_t RESERVED4[64U];
 339:Generated_Source\PSoC6\pdl\cmsis/include/core_cm0plus.h ****   __IOM uint32_t IP[8U];                 /*!< Offset: 0x300 (R/W)  Interrupt Priority Register */
 340:Generated_Source\PSoC6\pdl\cmsis/include/core_cm0plus.h **** }  NVIC_Type;
 341:Generated_Source\PSoC6\pdl\cmsis/include/core_cm0plus.h **** 
 342:Generated_Source\PSoC6\pdl\cmsis/include/core_cm0plus.h **** /*@} end of group CMSIS_NVIC */
 343:Generated_Source\PSoC6\pdl\cmsis/include/core_cm0plus.h **** 
ARM GAS  C:\Users\enes_\AppData\Local\Temp\ccogZ4Ak.s 			page 22


 344:Generated_Source\PSoC6\pdl\cmsis/include/core_cm0plus.h **** 
 345:Generated_Source\PSoC6\pdl\cmsis/include/core_cm0plus.h **** /**
 346:Generated_Source\PSoC6\pdl\cmsis/include/core_cm0plus.h ****   \ingroup  CMSIS_core_register
 347:Generated_Source\PSoC6\pdl\cmsis/include/core_cm0plus.h ****   \defgroup CMSIS_SCB     System Control Block (SCB)
 348:Generated_Source\PSoC6\pdl\cmsis/include/core_cm0plus.h ****   \brief    Type definitions for the System Control Block Registers
 349:Generated_Source\PSoC6\pdl\cmsis/include/core_cm0plus.h ****   @{
 350:Generated_Source\PSoC6\pdl\cmsis/include/core_cm0plus.h ****  */
 351:Generated_Source\PSoC6\pdl\cmsis/include/core_cm0plus.h **** 
 352:Generated_Source\PSoC6\pdl\cmsis/include/core_cm0plus.h **** /**
 353:Generated_Source\PSoC6\pdl\cmsis/include/core_cm0plus.h ****   \brief  Structure type to access the System Control Block (SCB).
 354:Generated_Source\PSoC6\pdl\cmsis/include/core_cm0plus.h ****  */
 355:Generated_Source\PSoC6\pdl\cmsis/include/core_cm0plus.h **** typedef struct
 356:Generated_Source\PSoC6\pdl\cmsis/include/core_cm0plus.h **** {
 357:Generated_Source\PSoC6\pdl\cmsis/include/core_cm0plus.h ****   __IM  uint32_t CPUID;                  /*!< Offset: 0x000 (R/ )  CPUID Base Register */
 358:Generated_Source\PSoC6\pdl\cmsis/include/core_cm0plus.h ****   __IOM uint32_t ICSR;                   /*!< Offset: 0x004 (R/W)  Interrupt Control and State Regi
 359:Generated_Source\PSoC6\pdl\cmsis/include/core_cm0plus.h **** #if defined (__VTOR_PRESENT) && (__VTOR_PRESENT == 1U)
 360:Generated_Source\PSoC6\pdl\cmsis/include/core_cm0plus.h ****   __IOM uint32_t VTOR;                   /*!< Offset: 0x008 (R/W)  Vector Table Offset Register */
 361:Generated_Source\PSoC6\pdl\cmsis/include/core_cm0plus.h **** #else
 362:Generated_Source\PSoC6\pdl\cmsis/include/core_cm0plus.h ****         uint32_t RESERVED0;
 363:Generated_Source\PSoC6\pdl\cmsis/include/core_cm0plus.h **** #endif
 364:Generated_Source\PSoC6\pdl\cmsis/include/core_cm0plus.h ****   __IOM uint32_t AIRCR;                  /*!< Offset: 0x00C (R/W)  Application Interrupt and Reset 
 365:Generated_Source\PSoC6\pdl\cmsis/include/core_cm0plus.h ****   __IOM uint32_t SCR;                    /*!< Offset: 0x010 (R/W)  System Control Register */
 366:Generated_Source\PSoC6\pdl\cmsis/include/core_cm0plus.h ****   __IOM uint32_t CCR;                    /*!< Offset: 0x014 (R/W)  Configuration Control Register *
 367:Generated_Source\PSoC6\pdl\cmsis/include/core_cm0plus.h ****         uint32_t RESERVED1;
 368:Generated_Source\PSoC6\pdl\cmsis/include/core_cm0plus.h ****   __IOM uint32_t SHP[2U];                /*!< Offset: 0x01C (R/W)  System Handlers Priority Registe
 369:Generated_Source\PSoC6\pdl\cmsis/include/core_cm0plus.h ****   __IOM uint32_t SHCSR;                  /*!< Offset: 0x024 (R/W)  System Handler Control and State
 370:Generated_Source\PSoC6\pdl\cmsis/include/core_cm0plus.h **** } SCB_Type;
 371:Generated_Source\PSoC6\pdl\cmsis/include/core_cm0plus.h **** 
 372:Generated_Source\PSoC6\pdl\cmsis/include/core_cm0plus.h **** /* SCB CPUID Register Definitions */
 373:Generated_Source\PSoC6\pdl\cmsis/include/core_cm0plus.h **** #define SCB_CPUID_IMPLEMENTER_Pos          24U                                            /*!< SCB 
 374:Generated_Source\PSoC6\pdl\cmsis/include/core_cm0plus.h **** #define SCB_CPUID_IMPLEMENTER_Msk          (0xFFUL << SCB_CPUID_IMPLEMENTER_Pos)          /*!< SCB 
 375:Generated_Source\PSoC6\pdl\cmsis/include/core_cm0plus.h **** 
 376:Generated_Source\PSoC6\pdl\cmsis/include/core_cm0plus.h **** #define SCB_CPUID_VARIANT_Pos              20U                                            /*!< SCB 
 377:Generated_Source\PSoC6\pdl\cmsis/include/core_cm0plus.h **** #define SCB_CPUID_VARIANT_Msk              (0xFUL << SCB_CPUID_VARIANT_Pos)               /*!< SCB 
 378:Generated_Source\PSoC6\pdl\cmsis/include/core_cm0plus.h **** 
 379:Generated_Source\PSoC6\pdl\cmsis/include/core_cm0plus.h **** #define SCB_CPUID_ARCHITECTURE_Pos         16U                                            /*!< SCB 
 380:Generated_Source\PSoC6\pdl\cmsis/include/core_cm0plus.h **** #define SCB_CPUID_ARCHITECTURE_Msk         (0xFUL << SCB_CPUID_ARCHITECTURE_Pos)          /*!< SCB 
 381:Generated_Source\PSoC6\pdl\cmsis/include/core_cm0plus.h **** 
 382:Generated_Source\PSoC6\pdl\cmsis/include/core_cm0plus.h **** #define SCB_CPUID_PARTNO_Pos                4U                                            /*!< SCB 
 383:Generated_Source\PSoC6\pdl\cmsis/include/core_cm0plus.h **** #define SCB_CPUID_PARTNO_Msk               (0xFFFUL << SCB_CPUID_PARTNO_Pos)              /*!< SCB 
 384:Generated_Source\PSoC6\pdl\cmsis/include/core_cm0plus.h **** 
 385:Generated_Source\PSoC6\pdl\cmsis/include/core_cm0plus.h **** #define SCB_CPUID_REVISION_Pos              0U                                            /*!< SCB 
 386:Generated_Source\PSoC6\pdl\cmsis/include/core_cm0plus.h **** #define SCB_CPUID_REVISION_Msk             (0xFUL /*<< SCB_CPUID_REVISION_Pos*/)          /*!< SCB 
 387:Generated_Source\PSoC6\pdl\cmsis/include/core_cm0plus.h **** 
 388:Generated_Source\PSoC6\pdl\cmsis/include/core_cm0plus.h **** /* SCB Interrupt Control State Register Definitions */
 389:Generated_Source\PSoC6\pdl\cmsis/include/core_cm0plus.h **** #define SCB_ICSR_NMIPENDSET_Pos            31U                                            /*!< SCB 
 390:Generated_Source\PSoC6\pdl\cmsis/include/core_cm0plus.h **** #define SCB_ICSR_NMIPENDSET_Msk            (1UL << SCB_ICSR_NMIPENDSET_Pos)               /*!< SCB 
 391:Generated_Source\PSoC6\pdl\cmsis/include/core_cm0plus.h **** 
 392:Generated_Source\PSoC6\pdl\cmsis/include/core_cm0plus.h **** #define SCB_ICSR_PENDSVSET_Pos             28U                                            /*!< SCB 
 393:Generated_Source\PSoC6\pdl\cmsis/include/core_cm0plus.h **** #define SCB_ICSR_PENDSVSET_Msk             (1UL << SCB_ICSR_PENDSVSET_Pos)                /*!< SCB 
 394:Generated_Source\PSoC6\pdl\cmsis/include/core_cm0plus.h **** 
 395:Generated_Source\PSoC6\pdl\cmsis/include/core_cm0plus.h **** #define SCB_ICSR_PENDSVCLR_Pos             27U                                            /*!< SCB 
 396:Generated_Source\PSoC6\pdl\cmsis/include/core_cm0plus.h **** #define SCB_ICSR_PENDSVCLR_Msk             (1UL << SCB_ICSR_PENDSVCLR_Pos)                /*!< SCB 
 397:Generated_Source\PSoC6\pdl\cmsis/include/core_cm0plus.h **** 
 398:Generated_Source\PSoC6\pdl\cmsis/include/core_cm0plus.h **** #define SCB_ICSR_PENDSTSET_Pos             26U                                            /*!< SCB 
 399:Generated_Source\PSoC6\pdl\cmsis/include/core_cm0plus.h **** #define SCB_ICSR_PENDSTSET_Msk             (1UL << SCB_ICSR_PENDSTSET_Pos)                /*!< SCB 
 400:Generated_Source\PSoC6\pdl\cmsis/include/core_cm0plus.h **** 
ARM GAS  C:\Users\enes_\AppData\Local\Temp\ccogZ4Ak.s 			page 23


 401:Generated_Source\PSoC6\pdl\cmsis/include/core_cm0plus.h **** #define SCB_ICSR_PENDSTCLR_Pos             25U                                            /*!< SCB 
 402:Generated_Source\PSoC6\pdl\cmsis/include/core_cm0plus.h **** #define SCB_ICSR_PENDSTCLR_Msk             (1UL << SCB_ICSR_PENDSTCLR_Pos)                /*!< SCB 
 403:Generated_Source\PSoC6\pdl\cmsis/include/core_cm0plus.h **** 
 404:Generated_Source\PSoC6\pdl\cmsis/include/core_cm0plus.h **** #define SCB_ICSR_ISRPREEMPT_Pos            23U                                            /*!< SCB 
 405:Generated_Source\PSoC6\pdl\cmsis/include/core_cm0plus.h **** #define SCB_ICSR_ISRPREEMPT_Msk            (1UL << SCB_ICSR_ISRPREEMPT_Pos)               /*!< SCB 
 406:Generated_Source\PSoC6\pdl\cmsis/include/core_cm0plus.h **** 
 407:Generated_Source\PSoC6\pdl\cmsis/include/core_cm0plus.h **** #define SCB_ICSR_ISRPENDING_Pos            22U                                            /*!< SCB 
 408:Generated_Source\PSoC6\pdl\cmsis/include/core_cm0plus.h **** #define SCB_ICSR_ISRPENDING_Msk            (1UL << SCB_ICSR_ISRPENDING_Pos)               /*!< SCB 
 409:Generated_Source\PSoC6\pdl\cmsis/include/core_cm0plus.h **** 
 410:Generated_Source\PSoC6\pdl\cmsis/include/core_cm0plus.h **** #define SCB_ICSR_VECTPENDING_Pos           12U                                            /*!< SCB 
 411:Generated_Source\PSoC6\pdl\cmsis/include/core_cm0plus.h **** #define SCB_ICSR_VECTPENDING_Msk           (0x1FFUL << SCB_ICSR_VECTPENDING_Pos)          /*!< SCB 
 412:Generated_Source\PSoC6\pdl\cmsis/include/core_cm0plus.h **** 
 413:Generated_Source\PSoC6\pdl\cmsis/include/core_cm0plus.h **** #define SCB_ICSR_VECTACTIVE_Pos             0U                                            /*!< SCB 
 414:Generated_Source\PSoC6\pdl\cmsis/include/core_cm0plus.h **** #define SCB_ICSR_VECTACTIVE_Msk            (0x1FFUL /*<< SCB_ICSR_VECTACTIVE_Pos*/)       /*!< SCB 
 415:Generated_Source\PSoC6\pdl\cmsis/include/core_cm0plus.h **** 
 416:Generated_Source\PSoC6\pdl\cmsis/include/core_cm0plus.h **** #if defined (__VTOR_PRESENT) && (__VTOR_PRESENT == 1U)
 417:Generated_Source\PSoC6\pdl\cmsis/include/core_cm0plus.h **** /* SCB Interrupt Control State Register Definitions */
 418:Generated_Source\PSoC6\pdl\cmsis/include/core_cm0plus.h **** #define SCB_VTOR_TBLOFF_Pos                 8U                                            /*!< SCB 
 419:Generated_Source\PSoC6\pdl\cmsis/include/core_cm0plus.h **** #define SCB_VTOR_TBLOFF_Msk                (0xFFFFFFUL << SCB_VTOR_TBLOFF_Pos)            /*!< SCB 
 420:Generated_Source\PSoC6\pdl\cmsis/include/core_cm0plus.h **** #endif
 421:Generated_Source\PSoC6\pdl\cmsis/include/core_cm0plus.h **** 
 422:Generated_Source\PSoC6\pdl\cmsis/include/core_cm0plus.h **** /* SCB Application Interrupt and Reset Control Register Definitions */
 423:Generated_Source\PSoC6\pdl\cmsis/include/core_cm0plus.h **** #define SCB_AIRCR_VECTKEY_Pos              16U                                            /*!< SCB 
 424:Generated_Source\PSoC6\pdl\cmsis/include/core_cm0plus.h **** #define SCB_AIRCR_VECTKEY_Msk              (0xFFFFUL << SCB_AIRCR_VECTKEY_Pos)            /*!< SCB 
 425:Generated_Source\PSoC6\pdl\cmsis/include/core_cm0plus.h **** 
 426:Generated_Source\PSoC6\pdl\cmsis/include/core_cm0plus.h **** #define SCB_AIRCR_VECTKEYSTAT_Pos          16U                                            /*!< SCB 
 427:Generated_Source\PSoC6\pdl\cmsis/include/core_cm0plus.h **** #define SCB_AIRCR_VECTKEYSTAT_Msk          (0xFFFFUL << SCB_AIRCR_VECTKEYSTAT_Pos)        /*!< SCB 
 428:Generated_Source\PSoC6\pdl\cmsis/include/core_cm0plus.h **** 
 429:Generated_Source\PSoC6\pdl\cmsis/include/core_cm0plus.h **** #define SCB_AIRCR_ENDIANESS_Pos            15U                                            /*!< SCB 
 430:Generated_Source\PSoC6\pdl\cmsis/include/core_cm0plus.h **** #define SCB_AIRCR_ENDIANESS_Msk            (1UL << SCB_AIRCR_ENDIANESS_Pos)               /*!< SCB 
 431:Generated_Source\PSoC6\pdl\cmsis/include/core_cm0plus.h **** 
 432:Generated_Source\PSoC6\pdl\cmsis/include/core_cm0plus.h **** #define SCB_AIRCR_SYSRESETREQ_Pos           2U                                            /*!< SCB 
 433:Generated_Source\PSoC6\pdl\cmsis/include/core_cm0plus.h **** #define SCB_AIRCR_SYSRESETREQ_Msk          (1UL << SCB_AIRCR_SYSRESETREQ_Pos)             /*!< SCB 
 434:Generated_Source\PSoC6\pdl\cmsis/include/core_cm0plus.h **** 
 435:Generated_Source\PSoC6\pdl\cmsis/include/core_cm0plus.h **** #define SCB_AIRCR_VECTCLRACTIVE_Pos         1U                                            /*!< SCB 
 436:Generated_Source\PSoC6\pdl\cmsis/include/core_cm0plus.h **** #define SCB_AIRCR_VECTCLRACTIVE_Msk        (1UL << SCB_AIRCR_VECTCLRACTIVE_Pos)           /*!< SCB 
 437:Generated_Source\PSoC6\pdl\cmsis/include/core_cm0plus.h **** 
 438:Generated_Source\PSoC6\pdl\cmsis/include/core_cm0plus.h **** /* SCB System Control Register Definitions */
 439:Generated_Source\PSoC6\pdl\cmsis/include/core_cm0plus.h **** #define SCB_SCR_SEVONPEND_Pos               4U                                            /*!< SCB 
 440:Generated_Source\PSoC6\pdl\cmsis/include/core_cm0plus.h **** #define SCB_SCR_SEVONPEND_Msk              (1UL << SCB_SCR_SEVONPEND_Pos)                 /*!< SCB 
 441:Generated_Source\PSoC6\pdl\cmsis/include/core_cm0plus.h **** 
 442:Generated_Source\PSoC6\pdl\cmsis/include/core_cm0plus.h **** #define SCB_SCR_SLEEPDEEP_Pos               2U                                            /*!< SCB 
 443:Generated_Source\PSoC6\pdl\cmsis/include/core_cm0plus.h **** #define SCB_SCR_SLEEPDEEP_Msk              (1UL << SCB_SCR_SLEEPDEEP_Pos)                 /*!< SCB 
 444:Generated_Source\PSoC6\pdl\cmsis/include/core_cm0plus.h **** 
 445:Generated_Source\PSoC6\pdl\cmsis/include/core_cm0plus.h **** #define SCB_SCR_SLEEPONEXIT_Pos             1U                                            /*!< SCB 
 446:Generated_Source\PSoC6\pdl\cmsis/include/core_cm0plus.h **** #define SCB_SCR_SLEEPONEXIT_Msk            (1UL << SCB_SCR_SLEEPONEXIT_Pos)               /*!< SCB 
 447:Generated_Source\PSoC6\pdl\cmsis/include/core_cm0plus.h **** 
 448:Generated_Source\PSoC6\pdl\cmsis/include/core_cm0plus.h **** /* SCB Configuration Control Register Definitions */
 449:Generated_Source\PSoC6\pdl\cmsis/include/core_cm0plus.h **** #define SCB_CCR_STKALIGN_Pos                9U                                            /*!< SCB 
 450:Generated_Source\PSoC6\pdl\cmsis/include/core_cm0plus.h **** #define SCB_CCR_STKALIGN_Msk               (1UL << SCB_CCR_STKALIGN_Pos)                  /*!< SCB 
 451:Generated_Source\PSoC6\pdl\cmsis/include/core_cm0plus.h **** 
 452:Generated_Source\PSoC6\pdl\cmsis/include/core_cm0plus.h **** #define SCB_CCR_UNALIGN_TRP_Pos             3U                                            /*!< SCB 
 453:Generated_Source\PSoC6\pdl\cmsis/include/core_cm0plus.h **** #define SCB_CCR_UNALIGN_TRP_Msk            (1UL << SCB_CCR_UNALIGN_TRP_Pos)               /*!< SCB 
 454:Generated_Source\PSoC6\pdl\cmsis/include/core_cm0plus.h **** 
 455:Generated_Source\PSoC6\pdl\cmsis/include/core_cm0plus.h **** /* SCB System Handler Control and State Register Definitions */
 456:Generated_Source\PSoC6\pdl\cmsis/include/core_cm0plus.h **** #define SCB_SHCSR_SVCALLPENDED_Pos         15U                                            /*!< SCB 
 457:Generated_Source\PSoC6\pdl\cmsis/include/core_cm0plus.h **** #define SCB_SHCSR_SVCALLPENDED_Msk         (1UL << SCB_SHCSR_SVCALLPENDED_Pos)            /*!< SCB 
ARM GAS  C:\Users\enes_\AppData\Local\Temp\ccogZ4Ak.s 			page 24


 458:Generated_Source\PSoC6\pdl\cmsis/include/core_cm0plus.h **** 
 459:Generated_Source\PSoC6\pdl\cmsis/include/core_cm0plus.h **** /*@} end of group CMSIS_SCB */
 460:Generated_Source\PSoC6\pdl\cmsis/include/core_cm0plus.h **** 
 461:Generated_Source\PSoC6\pdl\cmsis/include/core_cm0plus.h **** 
 462:Generated_Source\PSoC6\pdl\cmsis/include/core_cm0plus.h **** /**
 463:Generated_Source\PSoC6\pdl\cmsis/include/core_cm0plus.h ****   \ingroup  CMSIS_core_register
 464:Generated_Source\PSoC6\pdl\cmsis/include/core_cm0plus.h ****   \defgroup CMSIS_SysTick     System Tick Timer (SysTick)
 465:Generated_Source\PSoC6\pdl\cmsis/include/core_cm0plus.h ****   \brief    Type definitions for the System Timer Registers.
 466:Generated_Source\PSoC6\pdl\cmsis/include/core_cm0plus.h ****   @{
 467:Generated_Source\PSoC6\pdl\cmsis/include/core_cm0plus.h ****  */
 468:Generated_Source\PSoC6\pdl\cmsis/include/core_cm0plus.h **** 
 469:Generated_Source\PSoC6\pdl\cmsis/include/core_cm0plus.h **** /**
 470:Generated_Source\PSoC6\pdl\cmsis/include/core_cm0plus.h ****   \brief  Structure type to access the System Timer (SysTick).
 471:Generated_Source\PSoC6\pdl\cmsis/include/core_cm0plus.h ****  */
 472:Generated_Source\PSoC6\pdl\cmsis/include/core_cm0plus.h **** typedef struct
 473:Generated_Source\PSoC6\pdl\cmsis/include/core_cm0plus.h **** {
 474:Generated_Source\PSoC6\pdl\cmsis/include/core_cm0plus.h ****   __IOM uint32_t CTRL;                   /*!< Offset: 0x000 (R/W)  SysTick Control and Status Regis
 475:Generated_Source\PSoC6\pdl\cmsis/include/core_cm0plus.h ****   __IOM uint32_t LOAD;                   /*!< Offset: 0x004 (R/W)  SysTick Reload Value Register */
 476:Generated_Source\PSoC6\pdl\cmsis/include/core_cm0plus.h ****   __IOM uint32_t VAL;                    /*!< Offset: 0x008 (R/W)  SysTick Current Value Register *
 477:Generated_Source\PSoC6\pdl\cmsis/include/core_cm0plus.h ****   __IM  uint32_t CALIB;                  /*!< Offset: 0x00C (R/ )  SysTick Calibration Register */
 478:Generated_Source\PSoC6\pdl\cmsis/include/core_cm0plus.h **** } SysTick_Type;
 479:Generated_Source\PSoC6\pdl\cmsis/include/core_cm0plus.h **** 
 480:Generated_Source\PSoC6\pdl\cmsis/include/core_cm0plus.h **** /* SysTick Control / Status Register Definitions */
 481:Generated_Source\PSoC6\pdl\cmsis/include/core_cm0plus.h **** #define SysTick_CTRL_COUNTFLAG_Pos         16U                                            /*!< SysT
 482:Generated_Source\PSoC6\pdl\cmsis/include/core_cm0plus.h **** #define SysTick_CTRL_COUNTFLAG_Msk         (1UL << SysTick_CTRL_COUNTFLAG_Pos)            /*!< SysT
 483:Generated_Source\PSoC6\pdl\cmsis/include/core_cm0plus.h **** 
 484:Generated_Source\PSoC6\pdl\cmsis/include/core_cm0plus.h **** #define SysTick_CTRL_CLKSOURCE_Pos          2U                                            /*!< SysT
 485:Generated_Source\PSoC6\pdl\cmsis/include/core_cm0plus.h **** #define SysTick_CTRL_CLKSOURCE_Msk         (1UL << SysTick_CTRL_CLKSOURCE_Pos)            /*!< SysT
 486:Generated_Source\PSoC6\pdl\cmsis/include/core_cm0plus.h **** 
 487:Generated_Source\PSoC6\pdl\cmsis/include/core_cm0plus.h **** #define SysTick_CTRL_TICKINT_Pos            1U                                            /*!< SysT
 488:Generated_Source\PSoC6\pdl\cmsis/include/core_cm0plus.h **** #define SysTick_CTRL_TICKINT_Msk           (1UL << SysTick_CTRL_TICKINT_Pos)              /*!< SysT
 489:Generated_Source\PSoC6\pdl\cmsis/include/core_cm0plus.h **** 
 490:Generated_Source\PSoC6\pdl\cmsis/include/core_cm0plus.h **** #define SysTick_CTRL_ENABLE_Pos             0U                                            /*!< SysT
 491:Generated_Source\PSoC6\pdl\cmsis/include/core_cm0plus.h **** #define SysTick_CTRL_ENABLE_Msk            (1UL /*<< SysTick_CTRL_ENABLE_Pos*/)           /*!< SysT
 492:Generated_Source\PSoC6\pdl\cmsis/include/core_cm0plus.h **** 
 493:Generated_Source\PSoC6\pdl\cmsis/include/core_cm0plus.h **** /* SysTick Reload Register Definitions */
 494:Generated_Source\PSoC6\pdl\cmsis/include/core_cm0plus.h **** #define SysTick_LOAD_RELOAD_Pos             0U                                            /*!< SysT
 495:Generated_Source\PSoC6\pdl\cmsis/include/core_cm0plus.h **** #define SysTick_LOAD_RELOAD_Msk            (0xFFFFFFUL /*<< SysTick_LOAD_RELOAD_Pos*/)    /*!< SysT
 496:Generated_Source\PSoC6\pdl\cmsis/include/core_cm0plus.h **** 
 497:Generated_Source\PSoC6\pdl\cmsis/include/core_cm0plus.h **** /* SysTick Current Register Definitions */
 498:Generated_Source\PSoC6\pdl\cmsis/include/core_cm0plus.h **** #define SysTick_VAL_CURRENT_Pos             0U                                            /*!< SysT
 499:Generated_Source\PSoC6\pdl\cmsis/include/core_cm0plus.h **** #define SysTick_VAL_CURRENT_Msk            (0xFFFFFFUL /*<< SysTick_VAL_CURRENT_Pos*/)    /*!< SysT
 500:Generated_Source\PSoC6\pdl\cmsis/include/core_cm0plus.h **** 
 501:Generated_Source\PSoC6\pdl\cmsis/include/core_cm0plus.h **** /* SysTick Calibration Register Definitions */
 502:Generated_Source\PSoC6\pdl\cmsis/include/core_cm0plus.h **** #define SysTick_CALIB_NOREF_Pos            31U                                            /*!< SysT
 503:Generated_Source\PSoC6\pdl\cmsis/include/core_cm0plus.h **** #define SysTick_CALIB_NOREF_Msk            (1UL << SysTick_CALIB_NOREF_Pos)               /*!< SysT
 504:Generated_Source\PSoC6\pdl\cmsis/include/core_cm0plus.h **** 
 505:Generated_Source\PSoC6\pdl\cmsis/include/core_cm0plus.h **** #define SysTick_CALIB_SKEW_Pos             30U                                            /*!< SysT
 506:Generated_Source\PSoC6\pdl\cmsis/include/core_cm0plus.h **** #define SysTick_CALIB_SKEW_Msk             (1UL << SysTick_CALIB_SKEW_Pos)                /*!< SysT
 507:Generated_Source\PSoC6\pdl\cmsis/include/core_cm0plus.h **** 
 508:Generated_Source\PSoC6\pdl\cmsis/include/core_cm0plus.h **** #define SysTick_CALIB_TENMS_Pos             0U                                            /*!< SysT
 509:Generated_Source\PSoC6\pdl\cmsis/include/core_cm0plus.h **** #define SysTick_CALIB_TENMS_Msk            (0xFFFFFFUL /*<< SysTick_CALIB_TENMS_Pos*/)    /*!< SysT
 510:Generated_Source\PSoC6\pdl\cmsis/include/core_cm0plus.h **** 
 511:Generated_Source\PSoC6\pdl\cmsis/include/core_cm0plus.h **** /*@} end of group CMSIS_SysTick */
 512:Generated_Source\PSoC6\pdl\cmsis/include/core_cm0plus.h **** 
 513:Generated_Source\PSoC6\pdl\cmsis/include/core_cm0plus.h **** #if defined (__MPU_PRESENT) && (__MPU_PRESENT == 1U)
 514:Generated_Source\PSoC6\pdl\cmsis/include/core_cm0plus.h **** /**
ARM GAS  C:\Users\enes_\AppData\Local\Temp\ccogZ4Ak.s 			page 25


 515:Generated_Source\PSoC6\pdl\cmsis/include/core_cm0plus.h ****   \ingroup  CMSIS_core_register
 516:Generated_Source\PSoC6\pdl\cmsis/include/core_cm0plus.h ****   \defgroup CMSIS_MPU     Memory Protection Unit (MPU)
 517:Generated_Source\PSoC6\pdl\cmsis/include/core_cm0plus.h ****   \brief    Type definitions for the Memory Protection Unit (MPU)
 518:Generated_Source\PSoC6\pdl\cmsis/include/core_cm0plus.h ****   @{
 519:Generated_Source\PSoC6\pdl\cmsis/include/core_cm0plus.h ****  */
 520:Generated_Source\PSoC6\pdl\cmsis/include/core_cm0plus.h **** 
 521:Generated_Source\PSoC6\pdl\cmsis/include/core_cm0plus.h **** /**
 522:Generated_Source\PSoC6\pdl\cmsis/include/core_cm0plus.h ****   \brief  Structure type to access the Memory Protection Unit (MPU).
 523:Generated_Source\PSoC6\pdl\cmsis/include/core_cm0plus.h ****  */
 524:Generated_Source\PSoC6\pdl\cmsis/include/core_cm0plus.h **** typedef struct
 525:Generated_Source\PSoC6\pdl\cmsis/include/core_cm0plus.h **** {
 526:Generated_Source\PSoC6\pdl\cmsis/include/core_cm0plus.h ****   __IM  uint32_t TYPE;                   /*!< Offset: 0x000 (R/ )  MPU Type Register */
 527:Generated_Source\PSoC6\pdl\cmsis/include/core_cm0plus.h ****   __IOM uint32_t CTRL;                   /*!< Offset: 0x004 (R/W)  MPU Control Register */
 528:Generated_Source\PSoC6\pdl\cmsis/include/core_cm0plus.h ****   __IOM uint32_t RNR;                    /*!< Offset: 0x008 (R/W)  MPU Region RNRber Register */
 529:Generated_Source\PSoC6\pdl\cmsis/include/core_cm0plus.h ****   __IOM uint32_t RBAR;                   /*!< Offset: 0x00C (R/W)  MPU Region Base Address Register
 530:Generated_Source\PSoC6\pdl\cmsis/include/core_cm0plus.h ****   __IOM uint32_t RASR;                   /*!< Offset: 0x010 (R/W)  MPU Region Attribute and Size Re
 531:Generated_Source\PSoC6\pdl\cmsis/include/core_cm0plus.h **** } MPU_Type;
 532:Generated_Source\PSoC6\pdl\cmsis/include/core_cm0plus.h **** 
 533:Generated_Source\PSoC6\pdl\cmsis/include/core_cm0plus.h **** #define MPU_TYPE_RALIASES                  1U
 534:Generated_Source\PSoC6\pdl\cmsis/include/core_cm0plus.h **** 
 535:Generated_Source\PSoC6\pdl\cmsis/include/core_cm0plus.h **** /* MPU Type Register Definitions */
 536:Generated_Source\PSoC6\pdl\cmsis/include/core_cm0plus.h **** #define MPU_TYPE_IREGION_Pos               16U                                            /*!< MPU 
 537:Generated_Source\PSoC6\pdl\cmsis/include/core_cm0plus.h **** #define MPU_TYPE_IREGION_Msk               (0xFFUL << MPU_TYPE_IREGION_Pos)               /*!< MPU 
 538:Generated_Source\PSoC6\pdl\cmsis/include/core_cm0plus.h **** 
 539:Generated_Source\PSoC6\pdl\cmsis/include/core_cm0plus.h **** #define MPU_TYPE_DREGION_Pos                8U                                            /*!< MPU 
 540:Generated_Source\PSoC6\pdl\cmsis/include/core_cm0plus.h **** #define MPU_TYPE_DREGION_Msk               (0xFFUL << MPU_TYPE_DREGION_Pos)               /*!< MPU 
 541:Generated_Source\PSoC6\pdl\cmsis/include/core_cm0plus.h **** 
 542:Generated_Source\PSoC6\pdl\cmsis/include/core_cm0plus.h **** #define MPU_TYPE_SEPARATE_Pos               0U                                            /*!< MPU 
 543:Generated_Source\PSoC6\pdl\cmsis/include/core_cm0plus.h **** #define MPU_TYPE_SEPARATE_Msk              (1UL /*<< MPU_TYPE_SEPARATE_Pos*/)             /*!< MPU 
 544:Generated_Source\PSoC6\pdl\cmsis/include/core_cm0plus.h **** 
 545:Generated_Source\PSoC6\pdl\cmsis/include/core_cm0plus.h **** /* MPU Control Register Definitions */
 546:Generated_Source\PSoC6\pdl\cmsis/include/core_cm0plus.h **** #define MPU_CTRL_PRIVDEFENA_Pos             2U                                            /*!< MPU 
 547:Generated_Source\PSoC6\pdl\cmsis/include/core_cm0plus.h **** #define MPU_CTRL_PRIVDEFENA_Msk            (1UL << MPU_CTRL_PRIVDEFENA_Pos)               /*!< MPU 
 548:Generated_Source\PSoC6\pdl\cmsis/include/core_cm0plus.h **** 
 549:Generated_Source\PSoC6\pdl\cmsis/include/core_cm0plus.h **** #define MPU_CTRL_HFNMIENA_Pos               1U                                            /*!< MPU 
 550:Generated_Source\PSoC6\pdl\cmsis/include/core_cm0plus.h **** #define MPU_CTRL_HFNMIENA_Msk              (1UL << MPU_CTRL_HFNMIENA_Pos)                 /*!< MPU 
 551:Generated_Source\PSoC6\pdl\cmsis/include/core_cm0plus.h **** 
 552:Generated_Source\PSoC6\pdl\cmsis/include/core_cm0plus.h **** #define MPU_CTRL_ENABLE_Pos                 0U                                            /*!< MPU 
 553:Generated_Source\PSoC6\pdl\cmsis/include/core_cm0plus.h **** #define MPU_CTRL_ENABLE_Msk                (1UL /*<< MPU_CTRL_ENABLE_Pos*/)               /*!< MPU 
 554:Generated_Source\PSoC6\pdl\cmsis/include/core_cm0plus.h **** 
 555:Generated_Source\PSoC6\pdl\cmsis/include/core_cm0plus.h **** /* MPU Region Number Register Definitions */
 556:Generated_Source\PSoC6\pdl\cmsis/include/core_cm0plus.h **** #define MPU_RNR_REGION_Pos                  0U                                            /*!< MPU 
 557:Generated_Source\PSoC6\pdl\cmsis/include/core_cm0plus.h **** #define MPU_RNR_REGION_Msk                 (0xFFUL /*<< MPU_RNR_REGION_Pos*/)             /*!< MPU 
 558:Generated_Source\PSoC6\pdl\cmsis/include/core_cm0plus.h **** 
 559:Generated_Source\PSoC6\pdl\cmsis/include/core_cm0plus.h **** /* MPU Region Base Address Register Definitions */
 560:Generated_Source\PSoC6\pdl\cmsis/include/core_cm0plus.h **** #define MPU_RBAR_ADDR_Pos                   8U                                            /*!< MPU 
 561:Generated_Source\PSoC6\pdl\cmsis/include/core_cm0plus.h **** #define MPU_RBAR_ADDR_Msk                  (0xFFFFFFUL << MPU_RBAR_ADDR_Pos)              /*!< MPU 
 562:Generated_Source\PSoC6\pdl\cmsis/include/core_cm0plus.h **** 
 563:Generated_Source\PSoC6\pdl\cmsis/include/core_cm0plus.h **** #define MPU_RBAR_VALID_Pos                  4U                                            /*!< MPU 
 564:Generated_Source\PSoC6\pdl\cmsis/include/core_cm0plus.h **** #define MPU_RBAR_VALID_Msk                 (1UL << MPU_RBAR_VALID_Pos)                    /*!< MPU 
 565:Generated_Source\PSoC6\pdl\cmsis/include/core_cm0plus.h **** 
 566:Generated_Source\PSoC6\pdl\cmsis/include/core_cm0plus.h **** #define MPU_RBAR_REGION_Pos                 0U                                            /*!< MPU 
 567:Generated_Source\PSoC6\pdl\cmsis/include/core_cm0plus.h **** #define MPU_RBAR_REGION_Msk                (0xFUL /*<< MPU_RBAR_REGION_Pos*/)             /*!< MPU 
 568:Generated_Source\PSoC6\pdl\cmsis/include/core_cm0plus.h **** 
 569:Generated_Source\PSoC6\pdl\cmsis/include/core_cm0plus.h **** /* MPU Region Attribute and Size Register Definitions */
 570:Generated_Source\PSoC6\pdl\cmsis/include/core_cm0plus.h **** #define MPU_RASR_ATTRS_Pos                 16U                                            /*!< MPU 
 571:Generated_Source\PSoC6\pdl\cmsis/include/core_cm0plus.h **** #define MPU_RASR_ATTRS_Msk                 (0xFFFFUL << MPU_RASR_ATTRS_Pos)               /*!< MPU 
ARM GAS  C:\Users\enes_\AppData\Local\Temp\ccogZ4Ak.s 			page 26


 572:Generated_Source\PSoC6\pdl\cmsis/include/core_cm0plus.h **** 
 573:Generated_Source\PSoC6\pdl\cmsis/include/core_cm0plus.h **** #define MPU_RASR_XN_Pos                    28U                                            /*!< MPU 
 574:Generated_Source\PSoC6\pdl\cmsis/include/core_cm0plus.h **** #define MPU_RASR_XN_Msk                    (1UL << MPU_RASR_XN_Pos)                       /*!< MPU 
 575:Generated_Source\PSoC6\pdl\cmsis/include/core_cm0plus.h **** 
 576:Generated_Source\PSoC6\pdl\cmsis/include/core_cm0plus.h **** #define MPU_RASR_AP_Pos                    24U                                            /*!< MPU 
 577:Generated_Source\PSoC6\pdl\cmsis/include/core_cm0plus.h **** #define MPU_RASR_AP_Msk                    (0x7UL << MPU_RASR_AP_Pos)                     /*!< MPU 
 578:Generated_Source\PSoC6\pdl\cmsis/include/core_cm0plus.h **** 
 579:Generated_Source\PSoC6\pdl\cmsis/include/core_cm0plus.h **** #define MPU_RASR_TEX_Pos                   19U                                            /*!< MPU 
 580:Generated_Source\PSoC6\pdl\cmsis/include/core_cm0plus.h **** #define MPU_RASR_TEX_Msk                   (0x7UL << MPU_RASR_TEX_Pos)                    /*!< MPU 
 581:Generated_Source\PSoC6\pdl\cmsis/include/core_cm0plus.h **** 
 582:Generated_Source\PSoC6\pdl\cmsis/include/core_cm0plus.h **** #define MPU_RASR_S_Pos                     18U                                            /*!< MPU 
 583:Generated_Source\PSoC6\pdl\cmsis/include/core_cm0plus.h **** #define MPU_RASR_S_Msk                     (1UL << MPU_RASR_S_Pos)                        /*!< MPU 
 584:Generated_Source\PSoC6\pdl\cmsis/include/core_cm0plus.h **** 
 585:Generated_Source\PSoC6\pdl\cmsis/include/core_cm0plus.h **** #define MPU_RASR_C_Pos                     17U                                            /*!< MPU 
 586:Generated_Source\PSoC6\pdl\cmsis/include/core_cm0plus.h **** #define MPU_RASR_C_Msk                     (1UL << MPU_RASR_C_Pos)                        /*!< MPU 
 587:Generated_Source\PSoC6\pdl\cmsis/include/core_cm0plus.h **** 
 588:Generated_Source\PSoC6\pdl\cmsis/include/core_cm0plus.h **** #define MPU_RASR_B_Pos                     16U                                            /*!< MPU 
 589:Generated_Source\PSoC6\pdl\cmsis/include/core_cm0plus.h **** #define MPU_RASR_B_Msk                     (1UL << MPU_RASR_B_Pos)                        /*!< MPU 
 590:Generated_Source\PSoC6\pdl\cmsis/include/core_cm0plus.h **** 
 591:Generated_Source\PSoC6\pdl\cmsis/include/core_cm0plus.h **** #define MPU_RASR_SRD_Pos                    8U                                            /*!< MPU 
 592:Generated_Source\PSoC6\pdl\cmsis/include/core_cm0plus.h **** #define MPU_RASR_SRD_Msk                   (0xFFUL << MPU_RASR_SRD_Pos)                   /*!< MPU 
 593:Generated_Source\PSoC6\pdl\cmsis/include/core_cm0plus.h **** 
 594:Generated_Source\PSoC6\pdl\cmsis/include/core_cm0plus.h **** #define MPU_RASR_SIZE_Pos                   1U                                            /*!< MPU 
 595:Generated_Source\PSoC6\pdl\cmsis/include/core_cm0plus.h **** #define MPU_RASR_SIZE_Msk                  (0x1FUL << MPU_RASR_SIZE_Pos)                  /*!< MPU 
 596:Generated_Source\PSoC6\pdl\cmsis/include/core_cm0plus.h **** 
 597:Generated_Source\PSoC6\pdl\cmsis/include/core_cm0plus.h **** #define MPU_RASR_ENABLE_Pos                 0U                                            /*!< MPU 
 598:Generated_Source\PSoC6\pdl\cmsis/include/core_cm0plus.h **** #define MPU_RASR_ENABLE_Msk                (1UL /*<< MPU_RASR_ENABLE_Pos*/)               /*!< MPU 
 599:Generated_Source\PSoC6\pdl\cmsis/include/core_cm0plus.h **** 
 600:Generated_Source\PSoC6\pdl\cmsis/include/core_cm0plus.h **** /*@} end of group CMSIS_MPU */
 601:Generated_Source\PSoC6\pdl\cmsis/include/core_cm0plus.h **** #endif
 602:Generated_Source\PSoC6\pdl\cmsis/include/core_cm0plus.h **** 
 603:Generated_Source\PSoC6\pdl\cmsis/include/core_cm0plus.h **** 
 604:Generated_Source\PSoC6\pdl\cmsis/include/core_cm0plus.h **** /**
 605:Generated_Source\PSoC6\pdl\cmsis/include/core_cm0plus.h ****   \ingroup  CMSIS_core_register
 606:Generated_Source\PSoC6\pdl\cmsis/include/core_cm0plus.h ****   \defgroup CMSIS_CoreDebug       Core Debug Registers (CoreDebug)
 607:Generated_Source\PSoC6\pdl\cmsis/include/core_cm0plus.h ****   \brief    Cortex-M0+ Core Debug Registers (DCB registers, SHCSR, and DFSR) are only accessible ov
 608:Generated_Source\PSoC6\pdl\cmsis/include/core_cm0plus.h ****             Therefore they are not covered by the Cortex-M0+ header file.
 609:Generated_Source\PSoC6\pdl\cmsis/include/core_cm0plus.h ****   @{
 610:Generated_Source\PSoC6\pdl\cmsis/include/core_cm0plus.h ****  */
 611:Generated_Source\PSoC6\pdl\cmsis/include/core_cm0plus.h **** /*@} end of group CMSIS_CoreDebug */
 612:Generated_Source\PSoC6\pdl\cmsis/include/core_cm0plus.h **** 
 613:Generated_Source\PSoC6\pdl\cmsis/include/core_cm0plus.h **** 
 614:Generated_Source\PSoC6\pdl\cmsis/include/core_cm0plus.h **** /**
 615:Generated_Source\PSoC6\pdl\cmsis/include/core_cm0plus.h ****   \ingroup    CMSIS_core_register
 616:Generated_Source\PSoC6\pdl\cmsis/include/core_cm0plus.h ****   \defgroup   CMSIS_core_bitfield     Core register bit field macros
 617:Generated_Source\PSoC6\pdl\cmsis/include/core_cm0plus.h ****   \brief      Macros for use with bit field definitions (xxx_Pos, xxx_Msk).
 618:Generated_Source\PSoC6\pdl\cmsis/include/core_cm0plus.h ****   @{
 619:Generated_Source\PSoC6\pdl\cmsis/include/core_cm0plus.h ****  */
 620:Generated_Source\PSoC6\pdl\cmsis/include/core_cm0plus.h **** 
 621:Generated_Source\PSoC6\pdl\cmsis/include/core_cm0plus.h **** /**
 622:Generated_Source\PSoC6\pdl\cmsis/include/core_cm0plus.h ****   \brief   Mask and shift a bit field value for use in a register bit range.
 623:Generated_Source\PSoC6\pdl\cmsis/include/core_cm0plus.h ****   \param[in] field  Name of the register bit field.
 624:Generated_Source\PSoC6\pdl\cmsis/include/core_cm0plus.h ****   \param[in] value  Value of the bit field. This parameter is interpreted as an uint32_t type.
 625:Generated_Source\PSoC6\pdl\cmsis/include/core_cm0plus.h ****   \return           Masked and shifted value.
 626:Generated_Source\PSoC6\pdl\cmsis/include/core_cm0plus.h **** */
 627:Generated_Source\PSoC6\pdl\cmsis/include/core_cm0plus.h **** #define _VAL2FLD(field, value)    (((uint32_t)(value) << field ## _Pos) & field ## _Msk)
 628:Generated_Source\PSoC6\pdl\cmsis/include/core_cm0plus.h **** 
ARM GAS  C:\Users\enes_\AppData\Local\Temp\ccogZ4Ak.s 			page 27


 629:Generated_Source\PSoC6\pdl\cmsis/include/core_cm0plus.h **** /**
 630:Generated_Source\PSoC6\pdl\cmsis/include/core_cm0plus.h ****   \brief     Mask and shift a register value to extract a bit filed value.
 631:Generated_Source\PSoC6\pdl\cmsis/include/core_cm0plus.h ****   \param[in] field  Name of the register bit field.
 632:Generated_Source\PSoC6\pdl\cmsis/include/core_cm0plus.h ****   \param[in] value  Value of register. This parameter is interpreted as an uint32_t type.
 633:Generated_Source\PSoC6\pdl\cmsis/include/core_cm0plus.h ****   \return           Masked and shifted bit field value.
 634:Generated_Source\PSoC6\pdl\cmsis/include/core_cm0plus.h **** */
 635:Generated_Source\PSoC6\pdl\cmsis/include/core_cm0plus.h **** #define _FLD2VAL(field, value)    (((uint32_t)(value) & field ## _Msk) >> field ## _Pos)
 636:Generated_Source\PSoC6\pdl\cmsis/include/core_cm0plus.h **** 
 637:Generated_Source\PSoC6\pdl\cmsis/include/core_cm0plus.h **** /*@} end of group CMSIS_core_bitfield */
 638:Generated_Source\PSoC6\pdl\cmsis/include/core_cm0plus.h **** 
 639:Generated_Source\PSoC6\pdl\cmsis/include/core_cm0plus.h **** 
 640:Generated_Source\PSoC6\pdl\cmsis/include/core_cm0plus.h **** /**
 641:Generated_Source\PSoC6\pdl\cmsis/include/core_cm0plus.h ****   \ingroup    CMSIS_core_register
 642:Generated_Source\PSoC6\pdl\cmsis/include/core_cm0plus.h ****   \defgroup   CMSIS_core_base     Core Definitions
 643:Generated_Source\PSoC6\pdl\cmsis/include/core_cm0plus.h ****   \brief      Definitions for base addresses, unions, and structures.
 644:Generated_Source\PSoC6\pdl\cmsis/include/core_cm0plus.h ****   @{
 645:Generated_Source\PSoC6\pdl\cmsis/include/core_cm0plus.h ****  */
 646:Generated_Source\PSoC6\pdl\cmsis/include/core_cm0plus.h **** 
 647:Generated_Source\PSoC6\pdl\cmsis/include/core_cm0plus.h **** /* Memory mapping of Core Hardware */
 648:Generated_Source\PSoC6\pdl\cmsis/include/core_cm0plus.h **** #define SCS_BASE            (0xE000E000UL)                            /*!< System Control Space Bas
 649:Generated_Source\PSoC6\pdl\cmsis/include/core_cm0plus.h **** #define SysTick_BASE        (SCS_BASE +  0x0010UL)                    /*!< SysTick Base Address */
 650:Generated_Source\PSoC6\pdl\cmsis/include/core_cm0plus.h **** #define NVIC_BASE           (SCS_BASE +  0x0100UL)                    /*!< NVIC Base Address */
 651:Generated_Source\PSoC6\pdl\cmsis/include/core_cm0plus.h **** #define SCB_BASE            (SCS_BASE +  0x0D00UL)                    /*!< System Control Block Bas
 652:Generated_Source\PSoC6\pdl\cmsis/include/core_cm0plus.h **** 
 653:Generated_Source\PSoC6\pdl\cmsis/include/core_cm0plus.h **** #define SCB                 ((SCB_Type       *)     SCB_BASE      )   /*!< SCB configuration struct
 654:Generated_Source\PSoC6\pdl\cmsis/include/core_cm0plus.h **** #define SysTick             ((SysTick_Type   *)     SysTick_BASE  )   /*!< SysTick configuration st
 655:Generated_Source\PSoC6\pdl\cmsis/include/core_cm0plus.h **** #define NVIC                ((NVIC_Type      *)     NVIC_BASE     )   /*!< NVIC configuration struc
 656:Generated_Source\PSoC6\pdl\cmsis/include/core_cm0plus.h **** 
 657:Generated_Source\PSoC6\pdl\cmsis/include/core_cm0plus.h **** #if defined (__MPU_PRESENT) && (__MPU_PRESENT == 1U)
 658:Generated_Source\PSoC6\pdl\cmsis/include/core_cm0plus.h ****   #define MPU_BASE          (SCS_BASE +  0x0D90UL)                    /*!< Memory Protection Unit *
 659:Generated_Source\PSoC6\pdl\cmsis/include/core_cm0plus.h ****   #define MPU               ((MPU_Type       *)     MPU_BASE      )   /*!< Memory Protection Unit *
 660:Generated_Source\PSoC6\pdl\cmsis/include/core_cm0plus.h **** #endif
 661:Generated_Source\PSoC6\pdl\cmsis/include/core_cm0plus.h **** 
 662:Generated_Source\PSoC6\pdl\cmsis/include/core_cm0plus.h **** /*@} */
 663:Generated_Source\PSoC6\pdl\cmsis/include/core_cm0plus.h **** 
 664:Generated_Source\PSoC6\pdl\cmsis/include/core_cm0plus.h **** 
 665:Generated_Source\PSoC6\pdl\cmsis/include/core_cm0plus.h **** 
 666:Generated_Source\PSoC6\pdl\cmsis/include/core_cm0plus.h **** /*******************************************************************************
 667:Generated_Source\PSoC6\pdl\cmsis/include/core_cm0plus.h ****  *                Hardware Abstraction Layer
 668:Generated_Source\PSoC6\pdl\cmsis/include/core_cm0plus.h ****   Core Function Interface contains:
 669:Generated_Source\PSoC6\pdl\cmsis/include/core_cm0plus.h ****   - Core NVIC Functions
 670:Generated_Source\PSoC6\pdl\cmsis/include/core_cm0plus.h ****   - Core SysTick Functions
 671:Generated_Source\PSoC6\pdl\cmsis/include/core_cm0plus.h ****   - Core Register Access Functions
 672:Generated_Source\PSoC6\pdl\cmsis/include/core_cm0plus.h ****  ******************************************************************************/
 673:Generated_Source\PSoC6\pdl\cmsis/include/core_cm0plus.h **** /**
 674:Generated_Source\PSoC6\pdl\cmsis/include/core_cm0plus.h ****   \defgroup CMSIS_Core_FunctionInterface Functions and Instructions Reference
 675:Generated_Source\PSoC6\pdl\cmsis/include/core_cm0plus.h **** */
 676:Generated_Source\PSoC6\pdl\cmsis/include/core_cm0plus.h **** 
 677:Generated_Source\PSoC6\pdl\cmsis/include/core_cm0plus.h **** 
 678:Generated_Source\PSoC6\pdl\cmsis/include/core_cm0plus.h **** 
 679:Generated_Source\PSoC6\pdl\cmsis/include/core_cm0plus.h **** /* ##########################   NVIC functions  #################################### */
 680:Generated_Source\PSoC6\pdl\cmsis/include/core_cm0plus.h **** /**
 681:Generated_Source\PSoC6\pdl\cmsis/include/core_cm0plus.h ****   \ingroup  CMSIS_Core_FunctionInterface
 682:Generated_Source\PSoC6\pdl\cmsis/include/core_cm0plus.h ****   \defgroup CMSIS_Core_NVICFunctions NVIC Functions
 683:Generated_Source\PSoC6\pdl\cmsis/include/core_cm0plus.h ****   \brief    Functions that manage interrupts and exceptions via the NVIC.
 684:Generated_Source\PSoC6\pdl\cmsis/include/core_cm0plus.h ****   @{
 685:Generated_Source\PSoC6\pdl\cmsis/include/core_cm0plus.h ****  */
ARM GAS  C:\Users\enes_\AppData\Local\Temp\ccogZ4Ak.s 			page 28


 686:Generated_Source\PSoC6\pdl\cmsis/include/core_cm0plus.h **** 
 687:Generated_Source\PSoC6\pdl\cmsis/include/core_cm0plus.h **** #ifdef CMSIS_NVIC_VIRTUAL
 688:Generated_Source\PSoC6\pdl\cmsis/include/core_cm0plus.h ****   #ifndef CMSIS_NVIC_VIRTUAL_HEADER_FILE
 689:Generated_Source\PSoC6\pdl\cmsis/include/core_cm0plus.h ****     #define CMSIS_NVIC_VIRTUAL_HEADER_FILE "cmsis_nvic_virtual.h"
 690:Generated_Source\PSoC6\pdl\cmsis/include/core_cm0plus.h ****   #endif
 691:Generated_Source\PSoC6\pdl\cmsis/include/core_cm0plus.h ****   #include CMSIS_NVIC_VIRTUAL_HEADER_FILE
 692:Generated_Source\PSoC6\pdl\cmsis/include/core_cm0plus.h **** #else
 693:Generated_Source\PSoC6\pdl\cmsis/include/core_cm0plus.h **** /*#define NVIC_SetPriorityGrouping    __NVIC_SetPriorityGrouping   not available for Cortex-M0+ */
 694:Generated_Source\PSoC6\pdl\cmsis/include/core_cm0plus.h **** /*#define NVIC_GetPriorityGrouping    __NVIC_GetPriorityGrouping   not available for Cortex-M0+ */
 695:Generated_Source\PSoC6\pdl\cmsis/include/core_cm0plus.h ****   #define NVIC_EnableIRQ              __NVIC_EnableIRQ
 696:Generated_Source\PSoC6\pdl\cmsis/include/core_cm0plus.h ****   #define NVIC_GetEnableIRQ           __NVIC_GetEnableIRQ
 697:Generated_Source\PSoC6\pdl\cmsis/include/core_cm0plus.h ****   #define NVIC_DisableIRQ             __NVIC_DisableIRQ
 698:Generated_Source\PSoC6\pdl\cmsis/include/core_cm0plus.h ****   #define NVIC_GetPendingIRQ          __NVIC_GetPendingIRQ
 699:Generated_Source\PSoC6\pdl\cmsis/include/core_cm0plus.h ****   #define NVIC_SetPendingIRQ          __NVIC_SetPendingIRQ
 700:Generated_Source\PSoC6\pdl\cmsis/include/core_cm0plus.h ****   #define NVIC_ClearPendingIRQ        __NVIC_ClearPendingIRQ
 701:Generated_Source\PSoC6\pdl\cmsis/include/core_cm0plus.h **** /*#define NVIC_GetActive              __NVIC_GetActive             not available for Cortex-M0+ */
 702:Generated_Source\PSoC6\pdl\cmsis/include/core_cm0plus.h ****   #define NVIC_SetPriority            __NVIC_SetPriority
 703:Generated_Source\PSoC6\pdl\cmsis/include/core_cm0plus.h ****   #define NVIC_GetPriority            __NVIC_GetPriority
 704:Generated_Source\PSoC6\pdl\cmsis/include/core_cm0plus.h ****   #define NVIC_SystemReset            __NVIC_SystemReset
 705:Generated_Source\PSoC6\pdl\cmsis/include/core_cm0plus.h **** #endif /* CMSIS_NVIC_VIRTUAL */
 706:Generated_Source\PSoC6\pdl\cmsis/include/core_cm0plus.h **** 
 707:Generated_Source\PSoC6\pdl\cmsis/include/core_cm0plus.h **** #ifdef CMSIS_VECTAB_VIRTUAL
 708:Generated_Source\PSoC6\pdl\cmsis/include/core_cm0plus.h ****   #ifndef CMSIS_VECTAB_VIRTUAL_HEADER_FILE
 709:Generated_Source\PSoC6\pdl\cmsis/include/core_cm0plus.h ****     #define CMSIS_VECTAB_VIRTUAL_HEADER_FILE "cmsis_vectab_virtual.h"
 710:Generated_Source\PSoC6\pdl\cmsis/include/core_cm0plus.h ****   #endif
 711:Generated_Source\PSoC6\pdl\cmsis/include/core_cm0plus.h ****   #include CMSIS_VECTAB_VIRTUAL_HEADER_FILE
 712:Generated_Source\PSoC6\pdl\cmsis/include/core_cm0plus.h **** #else
 713:Generated_Source\PSoC6\pdl\cmsis/include/core_cm0plus.h ****   #define NVIC_SetVector              __NVIC_SetVector
 714:Generated_Source\PSoC6\pdl\cmsis/include/core_cm0plus.h ****   #define NVIC_GetVector              __NVIC_GetVector
 715:Generated_Source\PSoC6\pdl\cmsis/include/core_cm0plus.h **** #endif  /* (CMSIS_VECTAB_VIRTUAL) */
 716:Generated_Source\PSoC6\pdl\cmsis/include/core_cm0plus.h **** 
 717:Generated_Source\PSoC6\pdl\cmsis/include/core_cm0plus.h **** #define NVIC_USER_IRQ_OFFSET          16
 718:Generated_Source\PSoC6\pdl\cmsis/include/core_cm0plus.h **** 
 719:Generated_Source\PSoC6\pdl\cmsis/include/core_cm0plus.h **** 
 720:Generated_Source\PSoC6\pdl\cmsis/include/core_cm0plus.h **** /* Interrupt Priorities are WORD accessible only under Armv6-M                  */
 721:Generated_Source\PSoC6\pdl\cmsis/include/core_cm0plus.h **** /* The following MACROS handle generation of the register offset and byte masks */
 722:Generated_Source\PSoC6\pdl\cmsis/include/core_cm0plus.h **** #define _BIT_SHIFT(IRQn)         (  ((((uint32_t)(int32_t)(IRQn))         )      &  0x03UL) * 8UL)
 723:Generated_Source\PSoC6\pdl\cmsis/include/core_cm0plus.h **** #define _SHP_IDX(IRQn)           ( (((((uint32_t)(int32_t)(IRQn)) & 0x0FUL)-8UL) >>    2UL)      )
 724:Generated_Source\PSoC6\pdl\cmsis/include/core_cm0plus.h **** #define _IP_IDX(IRQn)            (   (((uint32_t)(int32_t)(IRQn))                >>    2UL)      )
 725:Generated_Source\PSoC6\pdl\cmsis/include/core_cm0plus.h **** 
 726:Generated_Source\PSoC6\pdl\cmsis/include/core_cm0plus.h **** 
 727:Generated_Source\PSoC6\pdl\cmsis/include/core_cm0plus.h **** /**
 728:Generated_Source\PSoC6\pdl\cmsis/include/core_cm0plus.h ****   \brief   Enable Interrupt
 729:Generated_Source\PSoC6\pdl\cmsis/include/core_cm0plus.h ****   \details Enables a device specific interrupt in the NVIC interrupt controller.
 730:Generated_Source\PSoC6\pdl\cmsis/include/core_cm0plus.h ****   \param [in]      IRQn  Device specific interrupt number.
 731:Generated_Source\PSoC6\pdl\cmsis/include/core_cm0plus.h ****   \note    IRQn must not be negative.
 732:Generated_Source\PSoC6\pdl\cmsis/include/core_cm0plus.h ****  */
 733:Generated_Source\PSoC6\pdl\cmsis/include/core_cm0plus.h **** __STATIC_INLINE void __NVIC_EnableIRQ(IRQn_Type IRQn)
 734:Generated_Source\PSoC6\pdl\cmsis/include/core_cm0plus.h **** {
 735:Generated_Source\PSoC6\pdl\cmsis/include/core_cm0plus.h ****   if ((int32_t)(IRQn) >= 0)
 736:Generated_Source\PSoC6\pdl\cmsis/include/core_cm0plus.h ****   {
 737:Generated_Source\PSoC6\pdl\cmsis/include/core_cm0plus.h ****     NVIC->ISER[0U] = (uint32_t)(1UL << (((uint32_t)IRQn) & 0x1FUL));
 738:Generated_Source\PSoC6\pdl\cmsis/include/core_cm0plus.h ****   }
 739:Generated_Source\PSoC6\pdl\cmsis/include/core_cm0plus.h **** }
 740:Generated_Source\PSoC6\pdl\cmsis/include/core_cm0plus.h **** 
 741:Generated_Source\PSoC6\pdl\cmsis/include/core_cm0plus.h **** 
 742:Generated_Source\PSoC6\pdl\cmsis/include/core_cm0plus.h **** /**
ARM GAS  C:\Users\enes_\AppData\Local\Temp\ccogZ4Ak.s 			page 29


 743:Generated_Source\PSoC6\pdl\cmsis/include/core_cm0plus.h ****   \brief   Get Interrupt Enable status
 744:Generated_Source\PSoC6\pdl\cmsis/include/core_cm0plus.h ****   \details Returns a device specific interrupt enable status from the NVIC interrupt controller.
 745:Generated_Source\PSoC6\pdl\cmsis/include/core_cm0plus.h ****   \param [in]      IRQn  Device specific interrupt number.
 746:Generated_Source\PSoC6\pdl\cmsis/include/core_cm0plus.h ****   \return             0  Interrupt is not enabled.
 747:Generated_Source\PSoC6\pdl\cmsis/include/core_cm0plus.h ****   \return             1  Interrupt is enabled.
 748:Generated_Source\PSoC6\pdl\cmsis/include/core_cm0plus.h ****   \note    IRQn must not be negative.
 749:Generated_Source\PSoC6\pdl\cmsis/include/core_cm0plus.h ****  */
 750:Generated_Source\PSoC6\pdl\cmsis/include/core_cm0plus.h **** __STATIC_INLINE uint32_t __NVIC_GetEnableIRQ(IRQn_Type IRQn)
 751:Generated_Source\PSoC6\pdl\cmsis/include/core_cm0plus.h **** {
 752:Generated_Source\PSoC6\pdl\cmsis/include/core_cm0plus.h ****   if ((int32_t)(IRQn) >= 0)
 753:Generated_Source\PSoC6\pdl\cmsis/include/core_cm0plus.h ****   {
 754:Generated_Source\PSoC6\pdl\cmsis/include/core_cm0plus.h ****     return((uint32_t)(((NVIC->ISER[0U] & (1UL << (((uint32_t)IRQn) & 0x1FUL))) != 0UL) ? 1UL : 0UL)
 755:Generated_Source\PSoC6\pdl\cmsis/include/core_cm0plus.h ****   }
 756:Generated_Source\PSoC6\pdl\cmsis/include/core_cm0plus.h ****   else
 757:Generated_Source\PSoC6\pdl\cmsis/include/core_cm0plus.h ****   {
 758:Generated_Source\PSoC6\pdl\cmsis/include/core_cm0plus.h ****     return(0U);
 759:Generated_Source\PSoC6\pdl\cmsis/include/core_cm0plus.h ****   }
 760:Generated_Source\PSoC6\pdl\cmsis/include/core_cm0plus.h **** }
 761:Generated_Source\PSoC6\pdl\cmsis/include/core_cm0plus.h **** 
 762:Generated_Source\PSoC6\pdl\cmsis/include/core_cm0plus.h **** 
 763:Generated_Source\PSoC6\pdl\cmsis/include/core_cm0plus.h **** /**
 764:Generated_Source\PSoC6\pdl\cmsis/include/core_cm0plus.h ****   \brief   Disable Interrupt
 765:Generated_Source\PSoC6\pdl\cmsis/include/core_cm0plus.h ****   \details Disables a device specific interrupt in the NVIC interrupt controller.
 766:Generated_Source\PSoC6\pdl\cmsis/include/core_cm0plus.h ****   \param [in]      IRQn  Device specific interrupt number.
 767:Generated_Source\PSoC6\pdl\cmsis/include/core_cm0plus.h ****   \note    IRQn must not be negative.
 768:Generated_Source\PSoC6\pdl\cmsis/include/core_cm0plus.h ****  */
 769:Generated_Source\PSoC6\pdl\cmsis/include/core_cm0plus.h **** __STATIC_INLINE void __NVIC_DisableIRQ(IRQn_Type IRQn)
 770:Generated_Source\PSoC6\pdl\cmsis/include/core_cm0plus.h **** {
 771:Generated_Source\PSoC6\pdl\cmsis/include/core_cm0plus.h ****   if ((int32_t)(IRQn) >= 0)
 772:Generated_Source\PSoC6\pdl\cmsis/include/core_cm0plus.h ****   {
 773:Generated_Source\PSoC6\pdl\cmsis/include/core_cm0plus.h ****     NVIC->ICER[0U] = (uint32_t)(1UL << (((uint32_t)IRQn) & 0x1FUL));
 774:Generated_Source\PSoC6\pdl\cmsis/include/core_cm0plus.h ****     __DSB();
 775:Generated_Source\PSoC6\pdl\cmsis/include/core_cm0plus.h ****     __ISB();
 776:Generated_Source\PSoC6\pdl\cmsis/include/core_cm0plus.h ****   }
 777:Generated_Source\PSoC6\pdl\cmsis/include/core_cm0plus.h **** }
 778:Generated_Source\PSoC6\pdl\cmsis/include/core_cm0plus.h **** 
 779:Generated_Source\PSoC6\pdl\cmsis/include/core_cm0plus.h **** 
 780:Generated_Source\PSoC6\pdl\cmsis/include/core_cm0plus.h **** /**
 781:Generated_Source\PSoC6\pdl\cmsis/include/core_cm0plus.h ****   \brief   Get Pending Interrupt
 782:Generated_Source\PSoC6\pdl\cmsis/include/core_cm0plus.h ****   \details Reads the NVIC pending register and returns the pending bit for the specified device spe
 783:Generated_Source\PSoC6\pdl\cmsis/include/core_cm0plus.h ****   \param [in]      IRQn  Device specific interrupt number.
 784:Generated_Source\PSoC6\pdl\cmsis/include/core_cm0plus.h ****   \return             0  Interrupt status is not pending.
 785:Generated_Source\PSoC6\pdl\cmsis/include/core_cm0plus.h ****   \return             1  Interrupt status is pending.
 786:Generated_Source\PSoC6\pdl\cmsis/include/core_cm0plus.h ****   \note    IRQn must not be negative.
 787:Generated_Source\PSoC6\pdl\cmsis/include/core_cm0plus.h ****  */
 788:Generated_Source\PSoC6\pdl\cmsis/include/core_cm0plus.h **** __STATIC_INLINE uint32_t __NVIC_GetPendingIRQ(IRQn_Type IRQn)
 789:Generated_Source\PSoC6\pdl\cmsis/include/core_cm0plus.h **** {
 790:Generated_Source\PSoC6\pdl\cmsis/include/core_cm0plus.h ****   if ((int32_t)(IRQn) >= 0)
 791:Generated_Source\PSoC6\pdl\cmsis/include/core_cm0plus.h ****   {
 792:Generated_Source\PSoC6\pdl\cmsis/include/core_cm0plus.h ****     return((uint32_t)(((NVIC->ISPR[0U] & (1UL << (((uint32_t)IRQn) & 0x1FUL))) != 0UL) ? 1UL : 0UL)
 793:Generated_Source\PSoC6\pdl\cmsis/include/core_cm0plus.h ****   }
 794:Generated_Source\PSoC6\pdl\cmsis/include/core_cm0plus.h ****   else
 795:Generated_Source\PSoC6\pdl\cmsis/include/core_cm0plus.h ****   {
 796:Generated_Source\PSoC6\pdl\cmsis/include/core_cm0plus.h ****     return(0U);
 797:Generated_Source\PSoC6\pdl\cmsis/include/core_cm0plus.h ****   }
 798:Generated_Source\PSoC6\pdl\cmsis/include/core_cm0plus.h **** }
 799:Generated_Source\PSoC6\pdl\cmsis/include/core_cm0plus.h **** 
ARM GAS  C:\Users\enes_\AppData\Local\Temp\ccogZ4Ak.s 			page 30


 800:Generated_Source\PSoC6\pdl\cmsis/include/core_cm0plus.h **** 
 801:Generated_Source\PSoC6\pdl\cmsis/include/core_cm0plus.h **** /**
 802:Generated_Source\PSoC6\pdl\cmsis/include/core_cm0plus.h ****   \brief   Set Pending Interrupt
 803:Generated_Source\PSoC6\pdl\cmsis/include/core_cm0plus.h ****   \details Sets the pending bit of a device specific interrupt in the NVIC pending register.
 804:Generated_Source\PSoC6\pdl\cmsis/include/core_cm0plus.h ****   \param [in]      IRQn  Device specific interrupt number.
 805:Generated_Source\PSoC6\pdl\cmsis/include/core_cm0plus.h ****   \note    IRQn must not be negative.
 806:Generated_Source\PSoC6\pdl\cmsis/include/core_cm0plus.h ****  */
 807:Generated_Source\PSoC6\pdl\cmsis/include/core_cm0plus.h **** __STATIC_INLINE void __NVIC_SetPendingIRQ(IRQn_Type IRQn)
 808:Generated_Source\PSoC6\pdl\cmsis/include/core_cm0plus.h **** {
 809:Generated_Source\PSoC6\pdl\cmsis/include/core_cm0plus.h ****   if ((int32_t)(IRQn) >= 0)
 810:Generated_Source\PSoC6\pdl\cmsis/include/core_cm0plus.h ****   {
 811:Generated_Source\PSoC6\pdl\cmsis/include/core_cm0plus.h ****     NVIC->ISPR[0U] = (uint32_t)(1UL << (((uint32_t)IRQn) & 0x1FUL));
 812:Generated_Source\PSoC6\pdl\cmsis/include/core_cm0plus.h ****   }
 813:Generated_Source\PSoC6\pdl\cmsis/include/core_cm0plus.h **** }
 814:Generated_Source\PSoC6\pdl\cmsis/include/core_cm0plus.h **** 
 815:Generated_Source\PSoC6\pdl\cmsis/include/core_cm0plus.h **** 
 816:Generated_Source\PSoC6\pdl\cmsis/include/core_cm0plus.h **** /**
 817:Generated_Source\PSoC6\pdl\cmsis/include/core_cm0plus.h ****   \brief   Clear Pending Interrupt
 818:Generated_Source\PSoC6\pdl\cmsis/include/core_cm0plus.h ****   \details Clears the pending bit of a device specific interrupt in the NVIC pending register.
 819:Generated_Source\PSoC6\pdl\cmsis/include/core_cm0plus.h ****   \param [in]      IRQn  Device specific interrupt number.
 820:Generated_Source\PSoC6\pdl\cmsis/include/core_cm0plus.h ****   \note    IRQn must not be negative.
 821:Generated_Source\PSoC6\pdl\cmsis/include/core_cm0plus.h ****  */
 822:Generated_Source\PSoC6\pdl\cmsis/include/core_cm0plus.h **** __STATIC_INLINE void __NVIC_ClearPendingIRQ(IRQn_Type IRQn)
 823:Generated_Source\PSoC6\pdl\cmsis/include/core_cm0plus.h **** {
 824:Generated_Source\PSoC6\pdl\cmsis/include/core_cm0plus.h ****   if ((int32_t)(IRQn) >= 0)
 825:Generated_Source\PSoC6\pdl\cmsis/include/core_cm0plus.h ****   {
 826:Generated_Source\PSoC6\pdl\cmsis/include/core_cm0plus.h ****     NVIC->ICPR[0U] = (uint32_t)(1UL << (((uint32_t)IRQn) & 0x1FUL));
 827:Generated_Source\PSoC6\pdl\cmsis/include/core_cm0plus.h ****   }
 828:Generated_Source\PSoC6\pdl\cmsis/include/core_cm0plus.h **** }
 829:Generated_Source\PSoC6\pdl\cmsis/include/core_cm0plus.h **** 
 830:Generated_Source\PSoC6\pdl\cmsis/include/core_cm0plus.h **** 
 831:Generated_Source\PSoC6\pdl\cmsis/include/core_cm0plus.h **** /**
 832:Generated_Source\PSoC6\pdl\cmsis/include/core_cm0plus.h ****   \brief   Set Interrupt Priority
 833:Generated_Source\PSoC6\pdl\cmsis/include/core_cm0plus.h ****   \details Sets the priority of a device specific interrupt or a processor exception.
 834:Generated_Source\PSoC6\pdl\cmsis/include/core_cm0plus.h ****            The interrupt number can be positive to specify a device specific interrupt,
 835:Generated_Source\PSoC6\pdl\cmsis/include/core_cm0plus.h ****            or negative to specify a processor exception.
 836:Generated_Source\PSoC6\pdl\cmsis/include/core_cm0plus.h ****   \param [in]      IRQn  Interrupt number.
 837:Generated_Source\PSoC6\pdl\cmsis/include/core_cm0plus.h ****   \param [in]  priority  Priority to set.
 838:Generated_Source\PSoC6\pdl\cmsis/include/core_cm0plus.h ****   \note    The priority cannot be set for every processor exception.
 839:Generated_Source\PSoC6\pdl\cmsis/include/core_cm0plus.h ****  */
 840:Generated_Source\PSoC6\pdl\cmsis/include/core_cm0plus.h **** __STATIC_INLINE void __NVIC_SetPriority(IRQn_Type IRQn, uint32_t priority)
 841:Generated_Source\PSoC6\pdl\cmsis/include/core_cm0plus.h **** {
 842:Generated_Source\PSoC6\pdl\cmsis/include/core_cm0plus.h ****   if ((int32_t)(IRQn) >= 0)
 523              		.loc 2 842 0
 524 0036 0029     		cmp	r1, #0
 525 0038 12DB     		blt	.L34
 843:Generated_Source\PSoC6\pdl\cmsis/include/core_cm0plus.h ****   {
 844:Generated_Source\PSoC6\pdl\cmsis/include/core_cm0plus.h ****     NVIC->IP[_IP_IDX(IRQn)]  = ((uint32_t)(NVIC->IP[_IP_IDX(IRQn)]  & ~(0xFFUL << _BIT_SHIFT(IRQn))
 526              		.loc 2 844 0
 527 003a 8808     		lsrs	r0, r1, #2
 528 003c 1E4F     		ldr	r7, .L38+8
 529 003e C030     		adds	r0, r0, #192
 530 0040 8000     		lsls	r0, r0, #2
 531 0042 C559     		ldr	r5, [r0, r7]
 532 0044 0322     		movs	r2, #3
 533 0046 1140     		ands	r1, r2
 534              	.LVL57:
ARM GAS  C:\Users\enes_\AppData\Local\Temp\ccogZ4Ak.s 			page 31


 535 0048 C900     		lsls	r1, r1, #3
 536 004a FC32     		adds	r2, r2, #252
 537 004c 9046     		mov	r8, r2
 538 004e 8A40     		lsls	r2, r2, r1
 539 0050 9543     		bics	r5, r2
 845:Generated_Source\PSoC6\pdl\cmsis/include/core_cm0plus.h ****        (((priority << (8U - __NVIC_PRIO_BITS)) & (uint32_t)0xFFUL) << _BIT_SHIFT(IRQn)));
 540              		.loc 2 845 0
 541 0052 9A01     		lsls	r2, r3, #6
 542 0054 4346     		mov	r3, r8
 543              	.LVL58:
 544 0056 1340     		ands	r3, r2
 545 0058 8B40     		lsls	r3, r3, r1
 844:Generated_Source\PSoC6\pdl\cmsis/include/core_cm0plus.h ****        (((priority << (8U - __NVIC_PRIO_BITS)) & (uint32_t)0xFFUL) << _BIT_SHIFT(IRQn)));
 546              		.loc 2 844 0
 547 005a 2B43     		orrs	r3, r5
 548 005c C351     		str	r3, [r0, r7]
 549              	.LVL59:
 550 005e 16E0     		b	.L35
 551              	.LVL60:
 552              	.L34:
 846:Generated_Source\PSoC6\pdl\cmsis/include/core_cm0plus.h ****   }
 847:Generated_Source\PSoC6\pdl\cmsis/include/core_cm0plus.h ****   else
 848:Generated_Source\PSoC6\pdl\cmsis/include/core_cm0plus.h ****   {
 849:Generated_Source\PSoC6\pdl\cmsis/include/core_cm0plus.h ****     SCB->SHP[_SHP_IDX(IRQn)] = ((uint32_t)(SCB->SHP[_SHP_IDX(IRQn)] & ~(0xFFUL << _BIT_SHIFT(IRQn))
 553              		.loc 2 849 0
 554 0060 89B2     		uxth	r1, r1
 555 0062 0F22     		movs	r2, #15
 556 0064 0A40     		ands	r2, r1
 557 0066 083A     		subs	r2, r2, #8
 558 0068 9208     		lsrs	r2, r2, #2
 559 006a 0632     		adds	r2, r2, #6
 560 006c 9200     		lsls	r2, r2, #2
 561 006e 1348     		ldr	r0, .L38+12
 562 0070 1018     		adds	r0, r2, r0
 563 0072 4768     		ldr	r7, [r0, #4]
 564 0074 0322     		movs	r2, #3
 565 0076 1140     		ands	r1, r2
 566              	.LVL61:
 567 0078 C900     		lsls	r1, r1, #3
 568 007a FF25     		movs	r5, #255
 569 007c 2A00     		movs	r2, r5
 570 007e 8A40     		lsls	r2, r2, r1
 571 0080 9743     		bics	r7, r2
 850:Generated_Source\PSoC6\pdl\cmsis/include/core_cm0plus.h ****        (((priority << (8U - __NVIC_PRIO_BITS)) & (uint32_t)0xFFUL) << _BIT_SHIFT(IRQn)));
 572              		.loc 2 850 0
 573 0082 9A01     		lsls	r2, r3, #6
 574 0084 2B00     		movs	r3, r5
 575              	.LVL62:
 576 0086 1340     		ands	r3, r2
 577 0088 8B40     		lsls	r3, r3, r1
 849:Generated_Source\PSoC6\pdl\cmsis/include/core_cm0plus.h ****        (((priority << (8U - __NVIC_PRIO_BITS)) & (uint32_t)0xFFUL) << _BIT_SHIFT(IRQn)));
 578              		.loc 2 849 0
 579 008a 3B43     		orrs	r3, r7
 580 008c 4360     		str	r3, [r0, #4]
 581              	.LVL63:
 582              	.L35:
 583              	.LBE9:
ARM GAS  C:\Users\enes_\AppData\Local\Temp\ccogZ4Ak.s 			page 32


 584              	.LBE8:
  66:Generated_Source\PSoC6\pdl\drivers\peripheral\sysint/cy_sysint.c ****         {
 585              		.loc 1 66 0
 586 008e 0B4B     		ldr	r3, .L38+12
 587 0090 9A68     		ldr	r2, [r3, #8]
 588 0092 0B4B     		ldr	r3, .L38+16
 589 0094 9A42     		cmp	r2, r3
 590 0096 06D1     		bne	.L31
  68:Generated_Source\PSoC6\pdl\drivers\peripheral\sysint/cy_sysint.c ****         }
 591              		.loc 1 68 0
 592 0098 0023     		movs	r3, #0
 593 009a F05E     		ldrsh	r0, [r6, r3]
 594 009c 0199     		ldr	r1, [sp, #4]
 595 009e FFF7FEFF 		bl	Cy_SysInt_SetVector
 596              	.LVL64:
 597 00a2 00E0     		b	.L31
 598              	.LVL65:
 599              	.L36:
  73:Generated_Source\PSoC6\pdl\drivers\peripheral\sysint/cy_sysint.c ****     }
 600              		.loc 1 73 0
 601 00a4 034C     		ldr	r4, .L38+4
 602              	.LVL66:
 603              	.L31:
  77:Generated_Source\PSoC6\pdl\drivers\peripheral\sysint/cy_sysint.c **** 
 604              		.loc 1 77 0
 605 00a6 2000     		movs	r0, r4
 606 00a8 02B0     		add	sp, sp, #8
 607              		@ sp needed
 608              	.LVL67:
 609              	.LVL68:
 610 00aa 04BC     		pop	{r2}
 611 00ac 9046     		mov	r8, r2
 612 00ae F0BD     		pop	{r4, r5, r6, r7, pc}
 613              	.L39:
 614              		.align	2
 615              	.L38:
 616 00b0 00000000 		.word	.LC1
 617 00b4 01005600 		.word	5636097
 618 00b8 00E100E0 		.word	-536813312
 619 00bc 00ED00E0 		.word	-536810240
 620 00c0 00000000 		.word	__ramVectors
 621              		.cfi_endproc
 622              	.LFE47:
 623              		.size	Cy_SysInt_Init, .-Cy_SysInt_Init
 624              		.section	.text.Cy_SysInt_GetVector,"ax",%progbits
 625              		.align	2
 626              		.global	Cy_SysInt_GetVector
 627              		.code	16
 628              		.thumb_func
 629              		.type	Cy_SysInt_GetVector, %function
 630              	Cy_SysInt_GetVector:
 631              	.LFB54:
 323:Generated_Source\PSoC6\pdl\drivers\peripheral\sysint/cy_sysint.c **** 
 324:Generated_Source\PSoC6\pdl\drivers\peripheral\sysint/cy_sysint.c **** 
 325:Generated_Source\PSoC6\pdl\drivers\peripheral\sysint/cy_sysint.c **** /*******************************************************************************
 326:Generated_Source\PSoC6\pdl\drivers\peripheral\sysint/cy_sysint.c **** * Function Name: Cy_SysInt_GetVector
 327:Generated_Source\PSoC6\pdl\drivers\peripheral\sysint/cy_sysint.c **** ****************************************************************************//**
ARM GAS  C:\Users\enes_\AppData\Local\Temp\ccogZ4Ak.s 			page 33


 328:Generated_Source\PSoC6\pdl\drivers\peripheral\sysint/cy_sysint.c **** *
 329:Generated_Source\PSoC6\pdl\drivers\peripheral\sysint/cy_sysint.c **** * \brief Gets the address of the current ISR vector for the interrupt.
 330:Generated_Source\PSoC6\pdl\drivers\peripheral\sysint/cy_sysint.c **** *
 331:Generated_Source\PSoC6\pdl\drivers\peripheral\sysint/cy_sysint.c **** * This function relies on the assumption that the vector table is
 332:Generated_Source\PSoC6\pdl\drivers\peripheral\sysint/cy_sysint.c **** * relocated to __ramVectors[RAM_VECTORS_SIZE] in SRAM. Otherwise it will
 333:Generated_Source\PSoC6\pdl\drivers\peripheral\sysint/cy_sysint.c **** * return the address of the default ISR location in the flash vector table.
 334:Generated_Source\PSoC6\pdl\drivers\peripheral\sysint/cy_sysint.c **** *
 335:Generated_Source\PSoC6\pdl\drivers\peripheral\sysint/cy_sysint.c **** * \param IRQn
 336:Generated_Source\PSoC6\pdl\drivers\peripheral\sysint/cy_sysint.c **** * Interrupt source
 337:Generated_Source\PSoC6\pdl\drivers\peripheral\sysint/cy_sysint.c **** *
 338:Generated_Source\PSoC6\pdl\drivers\peripheral\sysint/cy_sysint.c **** * \return
 339:Generated_Source\PSoC6\pdl\drivers\peripheral\sysint/cy_sysint.c **** * Address of the ISR in the interrupt vector table
 340:Generated_Source\PSoC6\pdl\drivers\peripheral\sysint/cy_sysint.c **** *
 341:Generated_Source\PSoC6\pdl\drivers\peripheral\sysint/cy_sysint.c **** * \note For CM0+, this function returns the interrupt vector for the interrupt 
 342:Generated_Source\PSoC6\pdl\drivers\peripheral\sysint/cy_sysint.c **** * channel on the NVIC.
 343:Generated_Source\PSoC6\pdl\drivers\peripheral\sysint/cy_sysint.c **** *
 344:Generated_Source\PSoC6\pdl\drivers\peripheral\sysint/cy_sysint.c **** * \funcusage
 345:Generated_Source\PSoC6\pdl\drivers\peripheral\sysint/cy_sysint.c **** * \snippet sysint\1.20\snippet\main.c snippet_Cy_SysInt_SetVector
 346:Generated_Source\PSoC6\pdl\drivers\peripheral\sysint/cy_sysint.c **** *
 347:Generated_Source\PSoC6\pdl\drivers\peripheral\sysint/cy_sysint.c **** *******************************************************************************/
 348:Generated_Source\PSoC6\pdl\drivers\peripheral\sysint/cy_sysint.c **** cy_israddress Cy_SysInt_GetVector(IRQn_Type IRQn)
 349:Generated_Source\PSoC6\pdl\drivers\peripheral\sysint/cy_sysint.c **** {
 632              		.loc 1 349 0
 633              		.cfi_startproc
 634              		@ args = 0, pretend = 0, frame = 0
 635              		@ frame_needed = 0, uses_anonymous_args = 0
 636              		@ link register save eliminated.
 637              	.LVL69:
 350:Generated_Source\PSoC6\pdl\drivers\peripheral\sysint/cy_sysint.c ****     cy_israddress currIsr;
 351:Generated_Source\PSoC6\pdl\drivers\peripheral\sysint/cy_sysint.c ****     
 352:Generated_Source\PSoC6\pdl\drivers\peripheral\sysint/cy_sysint.c ****     /* Return the SRAM ISR address only if it was moved to __ramVectors */
 353:Generated_Source\PSoC6\pdl\drivers\peripheral\sysint/cy_sysint.c ****     if (SCB->VTOR == (uint32_t)&__ramVectors)
 638              		.loc 1 353 0
 639 0000 064B     		ldr	r3, .L43
 640 0002 9A68     		ldr	r2, [r3, #8]
 641 0004 064B     		ldr	r3, .L43+4
 642 0006 9A42     		cmp	r2, r3
 643 0008 03D1     		bne	.L41
 354:Generated_Source\PSoC6\pdl\drivers\peripheral\sysint/cy_sysint.c ****     {
 355:Generated_Source\PSoC6\pdl\drivers\peripheral\sysint/cy_sysint.c ****         currIsr = __ramVectors[CY_INT_IRQ_BASE + IRQn];
 644              		.loc 1 355 0
 645 000a 1030     		adds	r0, r0, #16
 646              	.LVL70:
 647 000c 8000     		lsls	r0, r0, #2
 648 000e C058     		ldr	r0, [r0, r3]
 649              	.LVL71:
 650 0010 03E0     		b	.L42
 651              	.LVL72:
 652              	.L41:
 356:Generated_Source\PSoC6\pdl\drivers\peripheral\sysint/cy_sysint.c ****     }
 357:Generated_Source\PSoC6\pdl\drivers\peripheral\sysint/cy_sysint.c ****     else
 358:Generated_Source\PSoC6\pdl\drivers\peripheral\sysint/cy_sysint.c ****     {
 359:Generated_Source\PSoC6\pdl\drivers\peripheral\sysint/cy_sysint.c ****         currIsr = __Vectors[CY_INT_IRQ_BASE + IRQn];
 653              		.loc 1 359 0
 654 0012 1030     		adds	r0, r0, #16
 655              	.LVL73:
 656 0014 8000     		lsls	r0, r0, #2
ARM GAS  C:\Users\enes_\AppData\Local\Temp\ccogZ4Ak.s 			page 34


 657 0016 034B     		ldr	r3, .L43+8
 658 0018 C058     		ldr	r0, [r0, r3]
 659              	.LVL74:
 660              	.L42:
 360:Generated_Source\PSoC6\pdl\drivers\peripheral\sysint/cy_sysint.c ****     }
 361:Generated_Source\PSoC6\pdl\drivers\peripheral\sysint/cy_sysint.c ****     
 362:Generated_Source\PSoC6\pdl\drivers\peripheral\sysint/cy_sysint.c ****     return currIsr;
 363:Generated_Source\PSoC6\pdl\drivers\peripheral\sysint/cy_sysint.c **** }
 661              		.loc 1 363 0
 662              		@ sp needed
 663 001a 7047     		bx	lr
 664              	.L44:
 665              		.align	2
 666              	.L43:
 667 001c 00ED00E0 		.word	-536810240
 668 0020 00000000 		.word	__ramVectors
 669 0024 00000000 		.word	__Vectors
 670              		.cfi_endproc
 671              	.LFE54:
 672              		.size	Cy_SysInt_GetVector, .-Cy_SysInt_GetVector
 673              		.section	.rodata.str1.4,"aMS",%progbits,1
 674              		.align	2
 675              	.LC1:
 676 0000 47656E65 		.ascii	"Generated_Source\\PSoC6\\pdl\\drivers\\peripheral\\"
 676      72617465 
 676      645F536F 
 676      75726365 
 676      5C50536F 
 677 002e 73797369 		.ascii	"sysint\\cy_sysint.c\000"
 677      6E745C63 
 677      795F7379 
 677      73696E74 
 677      2E6300
 678              		.text
 679              	.Letext0:
 680              		.file 3 "c:\\program files (x86)\\cypress\\psoc creator\\4.4\\psoc creator\\import\\gnu\\arm\\5.4.
 681              		.file 4 "c:\\program files (x86)\\cypress\\psoc creator\\4.4\\psoc creator\\import\\gnu\\arm\\5.4.
 682              		.file 5 "Generated_Source\\PSoC6\\pdl\\devices/psoc6/include/ip/cyip_cpuss.h"
 683              		.file 6 "Generated_Source\\PSoC6\\pdl\\devices/psoc6/include/ip/cyip_cpuss_v2.h"
 684              		.file 7 "Generated_Source\\PSoC6\\pdl\\drivers/peripheral/device/cy_device.h"
 685              		.file 8 "Generated_Source\\PSoC6\\pdl\\devices/psoc6/include/cy8c6247bzi_d54.h"
 686              		.file 9 "Generated_Source\\PSoC6\\pdl\\drivers/peripheral/syslib/cy_syslib.h"
 687              		.file 10 "Generated_Source\\PSoC6\\pdl\\drivers\\peripheral\\sysint\\cy_sysint.h"