ARM GAS  C:\Users\enes_\AppData\Local\Temp\ccL38cFe.s 			page 1


   1              		.syntax unified
   2              		.cpu cortex-m0plus
   3              		.fpu softvfp
   4              		.eabi_attribute 20, 1
   5              		.eabi_attribute 21, 1
   6              		.eabi_attribute 23, 3
   7              		.eabi_attribute 24, 1
   8              		.eabi_attribute 25, 1
   9              		.eabi_attribute 26, 1
  10              		.eabi_attribute 30, 1
  11              		.eabi_attribute 34, 0
  12              		.eabi_attribute 18, 4
  13              		.thumb
  14              		.syntax unified
  15              		.file	"cy_usb_dev_cdc.c"
  16              		.text
  17              	.Ltext0:
  18              		.cfi_sections	.debug_frame
  19              		.section	.text.GetInterfaceComPort,"ax",%progbits
  20              		.align	2
  21              		.code	16
  22              		.thumb_func
  23              		.type	GetInterfaceComPort, %function
  24              	GetInterfaceComPort:
  25              	.LFB201:
  26              		.file 1 "Generated_Source\\PSoC6\\pdl\\middleware\\usb_dev\\cy_usb_dev_cdc.c"
   1:Generated_Source\PSoC6\pdl\middleware\usb_dev/cy_usb_dev_cdc.c **** 
   2:Generated_Source\PSoC6\pdl\middleware\usb_dev/cy_usb_dev_cdc.c **** /***************************************************************************//**
   3:Generated_Source\PSoC6\pdl\middleware\usb_dev/cy_usb_dev_cdc.c **** * \file cy_usb_dev_cdc.c
   4:Generated_Source\PSoC6\pdl\middleware\usb_dev/cy_usb_dev_cdc.c **** * \version 1.0
   5:Generated_Source\PSoC6\pdl\middleware\usb_dev/cy_usb_dev_cdc.c **** *
   6:Generated_Source\PSoC6\pdl\middleware\usb_dev/cy_usb_dev_cdc.c **** * Provides Class Specific API implementation.
   7:Generated_Source\PSoC6\pdl\middleware\usb_dev/cy_usb_dev_cdc.c **** *
   8:Generated_Source\PSoC6\pdl\middleware\usb_dev/cy_usb_dev_cdc.c **** ********************************************************************************
   9:Generated_Source\PSoC6\pdl\middleware\usb_dev/cy_usb_dev_cdc.c **** * \copyright
  10:Generated_Source\PSoC6\pdl\middleware\usb_dev/cy_usb_dev_cdc.c **** * Copyright 2018, Cypress Semiconductor Corporation. All rights reserved.
  11:Generated_Source\PSoC6\pdl\middleware\usb_dev/cy_usb_dev_cdc.c **** * You may use this file only in accordance with the license, terms, conditions,
  12:Generated_Source\PSoC6\pdl\middleware\usb_dev/cy_usb_dev_cdc.c **** * disclaimers, and limitations in the end user license agreement accompanying
  13:Generated_Source\PSoC6\pdl\middleware\usb_dev/cy_usb_dev_cdc.c **** * the software package with which this file was provided.
  14:Generated_Source\PSoC6\pdl\middleware\usb_dev/cy_usb_dev_cdc.c **** *******************************************************************************/
  15:Generated_Source\PSoC6\pdl\middleware\usb_dev/cy_usb_dev_cdc.c **** 
  16:Generated_Source\PSoC6\pdl\middleware\usb_dev/cy_usb_dev_cdc.c **** #include "cy_usb_dev_cdc.h"
  17:Generated_Source\PSoC6\pdl\middleware\usb_dev/cy_usb_dev_cdc.c **** #include "cy_usb_dev_cdc_descr.h"
  18:Generated_Source\PSoC6\pdl\middleware\usb_dev/cy_usb_dev_cdc.c **** 
  19:Generated_Source\PSoC6\pdl\middleware\usb_dev/cy_usb_dev_cdc.c **** #if defined(__cplusplus)
  20:Generated_Source\PSoC6\pdl\middleware\usb_dev/cy_usb_dev_cdc.c **** extern "C" {
  21:Generated_Source\PSoC6\pdl\middleware\usb_dev/cy_usb_dev_cdc.c **** #endif
  22:Generated_Source\PSoC6\pdl\middleware\usb_dev/cy_usb_dev_cdc.c **** 
  23:Generated_Source\PSoC6\pdl\middleware\usb_dev/cy_usb_dev_cdc.c **** 
  24:Generated_Source\PSoC6\pdl\middleware\usb_dev/cy_usb_dev_cdc.c **** /*******************************************************************************
  25:Generated_Source\PSoC6\pdl\middleware\usb_dev/cy_usb_dev_cdc.c **** *                                Internal Constants
  26:Generated_Source\PSoC6\pdl\middleware\usb_dev/cy_usb_dev_cdc.c **** *******************************************************************************/
  27:Generated_Source\PSoC6\pdl\middleware\usb_dev/cy_usb_dev_cdc.c **** 
  28:Generated_Source\PSoC6\pdl\middleware\usb_dev/cy_usb_dev_cdc.c **** #define COM1        (0U)
  29:Generated_Source\PSoC6\pdl\middleware\usb_dev/cy_usb_dev_cdc.c **** #define COM2        (1U)
  30:Generated_Source\PSoC6\pdl\middleware\usb_dev/cy_usb_dev_cdc.c **** #define INVALID_COM (0xFFU)
  31:Generated_Source\PSoC6\pdl\middleware\usb_dev/cy_usb_dev_cdc.c **** #define IS_COM_VALID(com)   CY_USB_DEV_CDC_IS_COM_VALID(com)
ARM GAS  C:\Users\enes_\AppData\Local\Temp\ccL38cFe.s 			page 2


  32:Generated_Source\PSoC6\pdl\middleware\usb_dev/cy_usb_dev_cdc.c **** 
  33:Generated_Source\PSoC6\pdl\middleware\usb_dev/cy_usb_dev_cdc.c **** #define SET_LINE_CODING_LENGTH                  (7U)
  34:Generated_Source\PSoC6\pdl\middleware\usb_dev/cy_usb_dev_cdc.c **** #define LINE_CODING_RATE_OFFSET                 (0U) 
  35:Generated_Source\PSoC6\pdl\middleware\usb_dev/cy_usb_dev_cdc.c **** 
  36:Generated_Source\PSoC6\pdl\middleware\usb_dev/cy_usb_dev_cdc.c **** #define SERIAL_STATE_REQUEST_TYPE               (0xA1U)
  37:Generated_Source\PSoC6\pdl\middleware\usb_dev/cy_usb_dev_cdc.c **** #define SERIAL_STATE                            (0x20U)
  38:Generated_Source\PSoC6\pdl\middleware\usb_dev/cy_usb_dev_cdc.c **** #define SERIAL_STATE_LENGTH                     (0x2U)
  39:Generated_Source\PSoC6\pdl\middleware\usb_dev/cy_usb_dev_cdc.c **** 
  40:Generated_Source\PSoC6\pdl\middleware\usb_dev/cy_usb_dev_cdc.c **** #define SERIAL_STATE_WINDEX_OFFSET              (4U)
  41:Generated_Source\PSoC6\pdl\middleware\usb_dev/cy_usb_dev_cdc.c **** #define SERIAL_STATE_WSERIALSTATE_LSB_OFFSET    (8U)
  42:Generated_Source\PSoC6\pdl\middleware\usb_dev/cy_usb_dev_cdc.c **** #define SERIAL_STATE_WSERIALSTATE_MSB_OFFSET    (9U)
  43:Generated_Source\PSoC6\pdl\middleware\usb_dev/cy_usb_dev_cdc.c **** 
  44:Generated_Source\PSoC6\pdl\middleware\usb_dev/cy_usb_dev_cdc.c **** #define SINGLE_COM_PORT_EP_NUM                  (3U) 
  45:Generated_Source\PSoC6\pdl\middleware\usb_dev/cy_usb_dev_cdc.c **** #define DUAL_COM_PORT_EP_NUM                    (6U) 
  46:Generated_Source\PSoC6\pdl\middleware\usb_dev/cy_usb_dev_cdc.c **** 
  47:Generated_Source\PSoC6\pdl\middleware\usb_dev/cy_usb_dev_cdc.c **** #define INTERFACE_CLASS_POS                     (5U)    
  48:Generated_Source\PSoC6\pdl\middleware\usb_dev/cy_usb_dev_cdc.c **** 
  49:Generated_Source\PSoC6\pdl\middleware\usb_dev/cy_usb_dev_cdc.c **** #define INIT_LINES_CODING \
  50:Generated_Source\PSoC6\pdl\middleware\usb_dev/cy_usb_dev_cdc.c **** {                         \
  51:Generated_Source\PSoC6\pdl\middleware\usb_dev/cy_usb_dev_cdc.c ****     /* dwDTERate: Data terminal rate, in bits per second */ \
  52:Generated_Source\PSoC6\pdl\middleware\usb_dev/cy_usb_dev_cdc.c ****     0x00U, 0xC2U, 0x01U, 0x00U, \
  53:Generated_Source\PSoC6\pdl\middleware\usb_dev/cy_usb_dev_cdc.c ****     /* bCharFormat (Stop bits): 0 - 1bit, 1 - 1.5bits, 2 - 2bits */ \
  54:Generated_Source\PSoC6\pdl\middleware\usb_dev/cy_usb_dev_cdc.c ****     0x00U, \
  55:Generated_Source\PSoC6\pdl\middleware\usb_dev/cy_usb_dev_cdc.c ****     /* bParityType: Parity 0 - None, 1 - Odd, 2 - Even, 3 - Mark, 4 - Space */ \
  56:Generated_Source\PSoC6\pdl\middleware\usb_dev/cy_usb_dev_cdc.c ****     0x00U, \
  57:Generated_Source\PSoC6\pdl\middleware\usb_dev/cy_usb_dev_cdc.c ****     /*  Data bits (5, 6, 7, 8 or 16) */ \
  58:Generated_Source\PSoC6\pdl\middleware\usb_dev/cy_usb_dev_cdc.c ****     0x08U \
  59:Generated_Source\PSoC6\pdl\middleware\usb_dev/cy_usb_dev_cdc.c **** }
  60:Generated_Source\PSoC6\pdl\middleware\usb_dev/cy_usb_dev_cdc.c **** 
  61:Generated_Source\PSoC6\pdl\middleware\usb_dev/cy_usb_dev_cdc.c **** #define INIT_SERIAL_STATE \
  62:Generated_Source\PSoC6\pdl\middleware\usb_dev/cy_usb_dev_cdc.c **** {                         \
  63:Generated_Source\PSoC6\pdl\middleware\usb_dev/cy_usb_dev_cdc.c ****     SERIAL_STATE_REQUEST_TYPE,/* bRequestType    */ \
  64:Generated_Source\PSoC6\pdl\middleware\usb_dev/cy_usb_dev_cdc.c ****     SERIAL_STATE,             /* bNotification   */ \
  65:Generated_Source\PSoC6\pdl\middleware\usb_dev/cy_usb_dev_cdc.c ****     0U,                       /* wValue          */ \
  66:Generated_Source\PSoC6\pdl\middleware\usb_dev/cy_usb_dev_cdc.c ****     0U,                       /* wValueMSB       */ \
  67:Generated_Source\PSoC6\pdl\middleware\usb_dev/cy_usb_dev_cdc.c ****     0U,                       /* wIndex          */ \
  68:Generated_Source\PSoC6\pdl\middleware\usb_dev/cy_usb_dev_cdc.c ****     0U,                       /* wIndexMSB       */ \
  69:Generated_Source\PSoC6\pdl\middleware\usb_dev/cy_usb_dev_cdc.c ****     SERIAL_STATE_LENGTH,      /* wLength         */ \
  70:Generated_Source\PSoC6\pdl\middleware\usb_dev/cy_usb_dev_cdc.c ****     0u,                       /* wLengthMSB      */ \
  71:Generated_Source\PSoC6\pdl\middleware\usb_dev/cy_usb_dev_cdc.c ****     0U,                       /* wSerialState    */ \
  72:Generated_Source\PSoC6\pdl\middleware\usb_dev/cy_usb_dev_cdc.c ****     0U,                       /* wSerialStateMSB */ \
  73:Generated_Source\PSoC6\pdl\middleware\usb_dev/cy_usb_dev_cdc.c **** }
  74:Generated_Source\PSoC6\pdl\middleware\usb_dev/cy_usb_dev_cdc.c **** 
  75:Generated_Source\PSoC6\pdl\middleware\usb_dev/cy_usb_dev_cdc.c **** 
  76:Generated_Source\PSoC6\pdl\middleware\usb_dev/cy_usb_dev_cdc.c **** /*******************************************************************************
  77:Generated_Source\PSoC6\pdl\middleware\usb_dev/cy_usb_dev_cdc.c **** *                            Internal Functions
  78:Generated_Source\PSoC6\pdl\middleware\usb_dev/cy_usb_dev_cdc.c **** *******************************************************************************/
  79:Generated_Source\PSoC6\pdl\middleware\usb_dev/cy_usb_dev_cdc.c **** 
  80:Generated_Source\PSoC6\pdl\middleware\usb_dev/cy_usb_dev_cdc.c **** static cy_en_usb_dev_status_t HandleRequest(cy_stc_usb_dev_control_transfer_t *transfer, void *clas
  81:Generated_Source\PSoC6\pdl\middleware\usb_dev/cy_usb_dev_cdc.c ****                                             cy_stc_usb_dev_context_t *devContext);
  82:Generated_Source\PSoC6\pdl\middleware\usb_dev/cy_usb_dev_cdc.c **** 
  83:Generated_Source\PSoC6\pdl\middleware\usb_dev/cy_usb_dev_cdc.c **** static cy_en_usb_dev_status_t HandleRequestComplete(cy_stc_usb_dev_control_transfer_t *transfer, 
  84:Generated_Source\PSoC6\pdl\middleware\usb_dev/cy_usb_dev_cdc.c ****                                                       void *classContext, 
  85:Generated_Source\PSoC6\pdl\middleware\usb_dev/cy_usb_dev_cdc.c ****                                                       cy_stc_usb_dev_context_t *devContext);
  86:Generated_Source\PSoC6\pdl\middleware\usb_dev/cy_usb_dev_cdc.c **** 
  87:Generated_Source\PSoC6\pdl\middleware\usb_dev/cy_usb_dev_cdc.c **** static cy_en_usb_dev_status_t HandleSetConfig(uint32_t configuration, 
  88:Generated_Source\PSoC6\pdl\middleware\usb_dev/cy_usb_dev_cdc.c ****                                               void *classContext, 
ARM GAS  C:\Users\enes_\AppData\Local\Temp\ccL38cFe.s 			page 3


  89:Generated_Source\PSoC6\pdl\middleware\usb_dev/cy_usb_dev_cdc.c ****                                               cy_stc_usb_dev_context_t *devContext);
  90:Generated_Source\PSoC6\pdl\middleware\usb_dev/cy_usb_dev_cdc.c **** 
  91:Generated_Source\PSoC6\pdl\middleware\usb_dev/cy_usb_dev_cdc.c **** static uint32_t GetInterfaceComPort(uint32_t interface, cy_stc_usb_dev_cdc_context_t const *context
  92:Generated_Source\PSoC6\pdl\middleware\usb_dev/cy_usb_dev_cdc.c **** 
  93:Generated_Source\PSoC6\pdl\middleware\usb_dev/cy_usb_dev_cdc.c **** static uint32_t ReadInternalBuffer(cy_stc_usb_dev_cdc_comport_t* port, uint8_t *buffer, 
  94:Generated_Source\PSoC6\pdl\middleware\usb_dev/cy_usb_dev_cdc.c ****                                    uint32_t size);
  95:Generated_Source\PSoC6\pdl\middleware\usb_dev/cy_usb_dev_cdc.c **** 
  96:Generated_Source\PSoC6\pdl\middleware\usb_dev/cy_usb_dev_cdc.c **** static bool IsEndpointReady(uint32_t endpoint, cy_stc_usb_dev_context_t const *context);
  97:Generated_Source\PSoC6\pdl\middleware\usb_dev/cy_usb_dev_cdc.c **** 
  98:Generated_Source\PSoC6\pdl\middleware\usb_dev/cy_usb_dev_cdc.c **** static cy_stc_usb_dev_cdc_comport_t* GetCom(uint32_t port, cy_stc_usb_dev_cdc_context_t *context);
  99:Generated_Source\PSoC6\pdl\middleware\usb_dev/cy_usb_dev_cdc.c **** 
 100:Generated_Source\PSoC6\pdl\middleware\usb_dev/cy_usb_dev_cdc.c **** 
 101:Generated_Source\PSoC6\pdl\middleware\usb_dev/cy_usb_dev_cdc.c **** /*******************************************************************************
 102:Generated_Source\PSoC6\pdl\middleware\usb_dev/cy_usb_dev_cdc.c **** * Function Name: Cy_USB_Dev_CDC_Init
 103:Generated_Source\PSoC6\pdl\middleware\usb_dev/cy_usb_dev_cdc.c **** ****************************************************************************//**
 104:Generated_Source\PSoC6\pdl\middleware\usb_dev/cy_usb_dev_cdc.c **** *
 105:Generated_Source\PSoC6\pdl\middleware\usb_dev/cy_usb_dev_cdc.c **** * Initializes the CDC class. 
 106:Generated_Source\PSoC6\pdl\middleware\usb_dev/cy_usb_dev_cdc.c **** * This function must be called to enable USB Device CDC functionality.
 107:Generated_Source\PSoC6\pdl\middleware\usb_dev/cy_usb_dev_cdc.c **** *
 108:Generated_Source\PSoC6\pdl\middleware\usb_dev/cy_usb_dev_cdc.c **** * \param config
 109:Generated_Source\PSoC6\pdl\middleware\usb_dev/cy_usb_dev_cdc.c **** * The pointer to the CDC configuration 
 110:Generated_Source\PSoC6\pdl\middleware\usb_dev/cy_usb_dev_cdc.c **** * structure \ref cy_stc_usb_dev_cdc_config_t.
 111:Generated_Source\PSoC6\pdl\middleware\usb_dev/cy_usb_dev_cdc.c **** *
 112:Generated_Source\PSoC6\pdl\middleware\usb_dev/cy_usb_dev_cdc.c **** * \param context
 113:Generated_Source\PSoC6\pdl\middleware\usb_dev/cy_usb_dev_cdc.c **** * The pointer to the context structure \ref cy_stc_usb_dev_cdc_context_t 
 114:Generated_Source\PSoC6\pdl\middleware\usb_dev/cy_usb_dev_cdc.c **** * allocated by the user. The structure is used during the CDC Class operation  
 115:Generated_Source\PSoC6\pdl\middleware\usb_dev/cy_usb_dev_cdc.c **** * for internal configuration and data retention. The user must not modify 
 116:Generated_Source\PSoC6\pdl\middleware\usb_dev/cy_usb_dev_cdc.c **** * anything in this structure.
 117:Generated_Source\PSoC6\pdl\middleware\usb_dev/cy_usb_dev_cdc.c **** *
 118:Generated_Source\PSoC6\pdl\middleware\usb_dev/cy_usb_dev_cdc.c **** * \param devContext
 119:Generated_Source\PSoC6\pdl\middleware\usb_dev/cy_usb_dev_cdc.c **** * The pointer to the USB Device context structure \ref cy_stc_usb_dev_context_t.
 120:Generated_Source\PSoC6\pdl\middleware\usb_dev/cy_usb_dev_cdc.c **** *
 121:Generated_Source\PSoC6\pdl\middleware\usb_dev/cy_usb_dev_cdc.c **** * \return
 122:Generated_Source\PSoC6\pdl\middleware\usb_dev/cy_usb_dev_cdc.c **** * Status code of the function execution \ref cy_en_usb_dev_status_t.
 123:Generated_Source\PSoC6\pdl\middleware\usb_dev/cy_usb_dev_cdc.c **** *
 124:Generated_Source\PSoC6\pdl\middleware\usb_dev/cy_usb_dev_cdc.c **** *******************************************************************************/
 125:Generated_Source\PSoC6\pdl\middleware\usb_dev/cy_usb_dev_cdc.c **** cy_en_usb_dev_status_t Cy_USB_Dev_CDC_Init(cy_stc_usb_dev_cdc_config_t  const *config,
 126:Generated_Source\PSoC6\pdl\middleware\usb_dev/cy_usb_dev_cdc.c ****                                            cy_stc_usb_dev_cdc_context_t       *context,
 127:Generated_Source\PSoC6\pdl\middleware\usb_dev/cy_usb_dev_cdc.c ****                                            cy_stc_usb_dev_context_t           *devContext)
 128:Generated_Source\PSoC6\pdl\middleware\usb_dev/cy_usb_dev_cdc.c **** {
 129:Generated_Source\PSoC6\pdl\middleware\usb_dev/cy_usb_dev_cdc.c ****     if ((NULL == context) || (NULL == devContext))
 130:Generated_Source\PSoC6\pdl\middleware\usb_dev/cy_usb_dev_cdc.c ****     {
 131:Generated_Source\PSoC6\pdl\middleware\usb_dev/cy_usb_dev_cdc.c ****         return CY_USB_DEV_BAD_PARAM;
 132:Generated_Source\PSoC6\pdl\middleware\usb_dev/cy_usb_dev_cdc.c ****     }
 133:Generated_Source\PSoC6\pdl\middleware\usb_dev/cy_usb_dev_cdc.c **** 
 134:Generated_Source\PSoC6\pdl\middleware\usb_dev/cy_usb_dev_cdc.c ****     uint32_t portIndex;
 135:Generated_Source\PSoC6\pdl\middleware\usb_dev/cy_usb_dev_cdc.c **** 
 136:Generated_Source\PSoC6\pdl\middleware\usb_dev/cy_usb_dev_cdc.c ****     for (portIndex = 0UL; (portIndex < CY_USB_DEV_CDC_COMPORT_NUMBER); portIndex++)
 137:Generated_Source\PSoC6\pdl\middleware\usb_dev/cy_usb_dev_cdc.c ****     {
 138:Generated_Source\PSoC6\pdl\middleware\usb_dev/cy_usb_dev_cdc.c ****         /* Default value for Lines Coding and Serial State notification */
 139:Generated_Source\PSoC6\pdl\middleware\usb_dev/cy_usb_dev_cdc.c ****         const uint8_t initLinesCoding[CY_USB_DEV_CDC_LINE_CODING_SIZE]  = INIT_LINES_CODING;
 140:Generated_Source\PSoC6\pdl\middleware\usb_dev/cy_usb_dev_cdc.c ****         const uint8_t initSerialState[CY_USB_DEV_CDC_SERIAL_STATE_SIZE] = INIT_SERIAL_STATE;
 141:Generated_Source\PSoC6\pdl\middleware\usb_dev/cy_usb_dev_cdc.c **** 
 142:Generated_Source\PSoC6\pdl\middleware\usb_dev/cy_usb_dev_cdc.c ****         /* Get COM port */
 143:Generated_Source\PSoC6\pdl\middleware\usb_dev/cy_usb_dev_cdc.c ****         cy_stc_usb_dev_cdc_comport_t* com = &context->port[portIndex];
 144:Generated_Source\PSoC6\pdl\middleware\usb_dev/cy_usb_dev_cdc.c **** 
 145:Generated_Source\PSoC6\pdl\middleware\usb_dev/cy_usb_dev_cdc.c ****         /* Initialize default values: lines coding and serial state */
ARM GAS  C:\Users\enes_\AppData\Local\Temp\ccL38cFe.s 			page 4


 146:Generated_Source\PSoC6\pdl\middleware\usb_dev/cy_usb_dev_cdc.c ****         (void) memcpy((void *) com->linesCoding, initLinesCoding, CY_USB_DEV_CDC_LINE_CODING_SIZE);
 147:Generated_Source\PSoC6\pdl\middleware\usb_dev/cy_usb_dev_cdc.c ****         (void) memcpy((void *) com->serialStateNotification, initSerialState, CY_USB_DEV_CDC_SERIAL
 148:Generated_Source\PSoC6\pdl\middleware\usb_dev/cy_usb_dev_cdc.c **** 
 149:Generated_Source\PSoC6\pdl\middleware\usb_dev/cy_usb_dev_cdc.c ****         /* Set COM port disable */
 150:Generated_Source\PSoC6\pdl\middleware\usb_dev/cy_usb_dev_cdc.c ****         com->valid = false;
 151:Generated_Source\PSoC6\pdl\middleware\usb_dev/cy_usb_dev_cdc.c ****         com->writeBufIdx  = 0U;
 152:Generated_Source\PSoC6\pdl\middleware\usb_dev/cy_usb_dev_cdc.c ****         com->readBufIdx   = 0U;
 153:Generated_Source\PSoC6\pdl\middleware\usb_dev/cy_usb_dev_cdc.c ****         com->linesChanged = CY_USB_DEV_CDC_LINE_NOT_CHANGED;
 154:Generated_Source\PSoC6\pdl\middleware\usb_dev/cy_usb_dev_cdc.c ****         
 155:Generated_Source\PSoC6\pdl\middleware\usb_dev/cy_usb_dev_cdc.c ****         /* Copy data from configuration */
 156:Generated_Source\PSoC6\pdl\middleware\usb_dev/cy_usb_dev_cdc.c ****         com->buffer     = (NULL != config) ? config->buffer[portIndex] : NULL;
 157:Generated_Source\PSoC6\pdl\middleware\usb_dev/cy_usb_dev_cdc.c ****         com->bufferSize = (NULL != config) ? config->bufferSize[portIndex] : 0U;
 158:Generated_Source\PSoC6\pdl\middleware\usb_dev/cy_usb_dev_cdc.c ****     }
 159:Generated_Source\PSoC6\pdl\middleware\usb_dev/cy_usb_dev_cdc.c **** 
 160:Generated_Source\PSoC6\pdl\middleware\usb_dev/cy_usb_dev_cdc.c ****     /* Remove custom handlers */
 161:Generated_Source\PSoC6\pdl\middleware\usb_dev/cy_usb_dev_cdc.c ****     context->requestCompleted = NULL;
 162:Generated_Source\PSoC6\pdl\middleware\usb_dev/cy_usb_dev_cdc.c ****     context->requestReceived  = NULL;
 163:Generated_Source\PSoC6\pdl\middleware\usb_dev/cy_usb_dev_cdc.c ****     
 164:Generated_Source\PSoC6\pdl\middleware\usb_dev/cy_usb_dev_cdc.c ****     /* Store device context */
 165:Generated_Source\PSoC6\pdl\middleware\usb_dev/cy_usb_dev_cdc.c ****     context->devContext = devContext;
 166:Generated_Source\PSoC6\pdl\middleware\usb_dev/cy_usb_dev_cdc.c **** 
 167:Generated_Source\PSoC6\pdl\middleware\usb_dev/cy_usb_dev_cdc.c ****     /* Register CDC handlers */
 168:Generated_Source\PSoC6\pdl\middleware\usb_dev/cy_usb_dev_cdc.c ****     Cy_USB_Dev_RegisterClassSetConfigCallback(&HandleSetConfig, Cy_USB_Dev_CDC_GetClass(context));
 169:Generated_Source\PSoC6\pdl\middleware\usb_dev/cy_usb_dev_cdc.c ****     Cy_USB_Dev_RegisterClassRequestRcvdCallback(&HandleRequest, Cy_USB_Dev_CDC_GetClass(context));
 170:Generated_Source\PSoC6\pdl\middleware\usb_dev/cy_usb_dev_cdc.c ****     Cy_USB_Dev_RegisterClassRequestCmpltCallback(&HandleRequestComplete, Cy_USB_Dev_CDC_GetClass(co
 171:Generated_Source\PSoC6\pdl\middleware\usb_dev/cy_usb_dev_cdc.c **** 
 172:Generated_Source\PSoC6\pdl\middleware\usb_dev/cy_usb_dev_cdc.c ****     return Cy_USB_Dev_RegisterClass(&context->classItem, &context->class, context, devContext);
 173:Generated_Source\PSoC6\pdl\middleware\usb_dev/cy_usb_dev_cdc.c **** }
 174:Generated_Source\PSoC6\pdl\middleware\usb_dev/cy_usb_dev_cdc.c **** 
 175:Generated_Source\PSoC6\pdl\middleware\usb_dev/cy_usb_dev_cdc.c **** 
 176:Generated_Source\PSoC6\pdl\middleware\usb_dev/cy_usb_dev_cdc.c **** /*******************************************************************************
 177:Generated_Source\PSoC6\pdl\middleware\usb_dev/cy_usb_dev_cdc.c **** * Function Name: HandleSetConfig
 178:Generated_Source\PSoC6\pdl\middleware\usb_dev/cy_usb_dev_cdc.c **** ****************************************************************************//**
 179:Generated_Source\PSoC6\pdl\middleware\usb_dev/cy_usb_dev_cdc.c **** *
 180:Generated_Source\PSoC6\pdl\middleware\usb_dev/cy_usb_dev_cdc.c **** * Handles SET_CONFIGURATION request event. This function finds COM ports 
 181:Generated_Source\PSoC6\pdl\middleware\usb_dev/cy_usb_dev_cdc.c **** * information for a certain configuration: CDC interfaces and CDC endpoints.
 182:Generated_Source\PSoC6\pdl\middleware\usb_dev/cy_usb_dev_cdc.c **** * This information is used to call any CDC function.
 183:Generated_Source\PSoC6\pdl\middleware\usb_dev/cy_usb_dev_cdc.c **** *
 184:Generated_Source\PSoC6\pdl\middleware\usb_dev/cy_usb_dev_cdc.c **** * \param transfer
 185:Generated_Source\PSoC6\pdl\middleware\usb_dev/cy_usb_dev_cdc.c **** * Pointer to the structure that contains SETUP packet.
 186:Generated_Source\PSoC6\pdl\middleware\usb_dev/cy_usb_dev_cdc.c **** *
 187:Generated_Source\PSoC6\pdl\middleware\usb_dev/cy_usb_dev_cdc.c **** * \param classContext
 188:Generated_Source\PSoC6\pdl\middleware\usb_dev/cy_usb_dev_cdc.c **** * The pointer to the context structure of the Class 
 189:Generated_Source\PSoC6\pdl\middleware\usb_dev/cy_usb_dev_cdc.c **** * \ref cy_stc_usb_dev_cdc_context_t allocated by the user.
 190:Generated_Source\PSoC6\pdl\middleware\usb_dev/cy_usb_dev_cdc.c **** *
 191:Generated_Source\PSoC6\pdl\middleware\usb_dev/cy_usb_dev_cdc.c **** * \param devContext
 192:Generated_Source\PSoC6\pdl\middleware\usb_dev/cy_usb_dev_cdc.c **** * The pointer to the context structure of the Device 
 193:Generated_Source\PSoC6\pdl\middleware\usb_dev/cy_usb_dev_cdc.c **** * \ref cy_stc_usb_dev_context_t allocated by the user.
 194:Generated_Source\PSoC6\pdl\middleware\usb_dev/cy_usb_dev_cdc.c **** *
 195:Generated_Source\PSoC6\pdl\middleware\usb_dev/cy_usb_dev_cdc.c **** * \return
 196:Generated_Source\PSoC6\pdl\middleware\usb_dev/cy_usb_dev_cdc.c **** * Returns \ref CY_USB_DEV_SUCCESS. 
 197:Generated_Source\PSoC6\pdl\middleware\usb_dev/cy_usb_dev_cdc.c **** * The configuration is still valid if COM port is not found.
 198:Generated_Source\PSoC6\pdl\middleware\usb_dev/cy_usb_dev_cdc.c **** *
 199:Generated_Source\PSoC6\pdl\middleware\usb_dev/cy_usb_dev_cdc.c **** *******************************************************************************/
 200:Generated_Source\PSoC6\pdl\middleware\usb_dev/cy_usb_dev_cdc.c **** static cy_en_usb_dev_status_t HandleSetConfig(uint32_t configuration, 
 201:Generated_Source\PSoC6\pdl\middleware\usb_dev/cy_usb_dev_cdc.c ****                                               void *classContext, 
 202:Generated_Source\PSoC6\pdl\middleware\usb_dev/cy_usb_dev_cdc.c ****                                               cy_stc_usb_dev_context_t *devContext)
ARM GAS  C:\Users\enes_\AppData\Local\Temp\ccL38cFe.s 			page 5


 203:Generated_Source\PSoC6\pdl\middleware\usb_dev/cy_usb_dev_cdc.c **** {
 204:Generated_Source\PSoC6\pdl\middleware\usb_dev/cy_usb_dev_cdc.c ****     /* Get CDC context */
 205:Generated_Source\PSoC6\pdl\middleware\usb_dev/cy_usb_dev_cdc.c ****     cy_stc_usb_dev_cdc_context_t *context = (cy_stc_usb_dev_cdc_context_t *) classContext;
 206:Generated_Source\PSoC6\pdl\middleware\usb_dev/cy_usb_dev_cdc.c ****     
 207:Generated_Source\PSoC6\pdl\middleware\usb_dev/cy_usb_dev_cdc.c ****     /* Invalidate COM ports */
 208:Generated_Source\PSoC6\pdl\middleware\usb_dev/cy_usb_dev_cdc.c ****     context->port[COM1].valid = false;
 209:Generated_Source\PSoC6\pdl\middleware\usb_dev/cy_usb_dev_cdc.c ****     context->port[COM2].valid = false;
 210:Generated_Source\PSoC6\pdl\middleware\usb_dev/cy_usb_dev_cdc.c **** 
 211:Generated_Source\PSoC6\pdl\middleware\usb_dev/cy_usb_dev_cdc.c ****     if (configuration > 0U)
 212:Generated_Source\PSoC6\pdl\middleware\usb_dev/cy_usb_dev_cdc.c ****     {
 213:Generated_Source\PSoC6\pdl\middleware\usb_dev/cy_usb_dev_cdc.c ****         /* Get current configuration */
 214:Generated_Source\PSoC6\pdl\middleware\usb_dev/cy_usb_dev_cdc.c ****         cy_stc_usb_dev_configuration_t const *config = devContext->devDescriptors->configurations[c
 215:Generated_Source\PSoC6\pdl\middleware\usb_dev/cy_usb_dev_cdc.c **** 
 216:Generated_Source\PSoC6\pdl\middleware\usb_dev/cy_usb_dev_cdc.c ****         uint32_t intf;
 217:Generated_Source\PSoC6\pdl\middleware\usb_dev/cy_usb_dev_cdc.c ****         uint32_t portInt  = 0U;
 218:Generated_Source\PSoC6\pdl\middleware\usb_dev/cy_usb_dev_cdc.c ****         uint32_t portData = 0U;
 219:Generated_Source\PSoC6\pdl\middleware\usb_dev/cy_usb_dev_cdc.c ****         uint32_t cdcEpNum = 0U;
 220:Generated_Source\PSoC6\pdl\middleware\usb_dev/cy_usb_dev_cdc.c ****         
 221:Generated_Source\PSoC6\pdl\middleware\usb_dev/cy_usb_dev_cdc.c ****         for (intf = 0U; intf < config->numInterfaces; ++intf)
 222:Generated_Source\PSoC6\pdl\middleware\usb_dev/cy_usb_dev_cdc.c ****         {
 223:Generated_Source\PSoC6\pdl\middleware\usb_dev/cy_usb_dev_cdc.c ****             /* CDC does not support alternate settings */
 224:Generated_Source\PSoC6\pdl\middleware\usb_dev/cy_usb_dev_cdc.c ****             uint32_t alt = 0U;
 225:Generated_Source\PSoC6\pdl\middleware\usb_dev/cy_usb_dev_cdc.c **** 
 226:Generated_Source\PSoC6\pdl\middleware\usb_dev/cy_usb_dev_cdc.c ****             /* Get alternate settings that belong to this interface */
 227:Generated_Source\PSoC6\pdl\middleware\usb_dev/cy_usb_dev_cdc.c ****             cy_stc_usb_dev_alternate_t const **altStructs = config->interfaces[intf]->alternates;
 228:Generated_Source\PSoC6\pdl\middleware\usb_dev/cy_usb_dev_cdc.c ****             
 229:Generated_Source\PSoC6\pdl\middleware\usb_dev/cy_usb_dev_cdc.c ****             /* Get pointer to current alternate descriptor */
 230:Generated_Source\PSoC6\pdl\middleware\usb_dev/cy_usb_dev_cdc.c ****             cy_stc_usbdev_interface_descr_t const *curAlternate = (cy_stc_usbdev_interface_descr_t 
 231:Generated_Source\PSoC6\pdl\middleware\usb_dev/cy_usb_dev_cdc.c ****                                                                    altStructs[alt]->interfaceDescri
 232:Generated_Source\PSoC6\pdl\middleware\usb_dev/cy_usb_dev_cdc.c ****             
 233:Generated_Source\PSoC6\pdl\middleware\usb_dev/cy_usb_dev_cdc.c ****             /* Check interface class */
 234:Generated_Source\PSoC6\pdl\middleware\usb_dev/cy_usb_dev_cdc.c ****             if (CY_USB_DEV_CDC_CLASS == curAlternate->bInterfaceClass)
 235:Generated_Source\PSoC6\pdl\middleware\usb_dev/cy_usb_dev_cdc.c ****             {
 236:Generated_Source\PSoC6\pdl\middleware\usb_dev/cy_usb_dev_cdc.c ****                 /* Get endpoint descriptor */
 237:Generated_Source\PSoC6\pdl\middleware\usb_dev/cy_usb_dev_cdc.c ****                 cy_stc_usbdev_endpoint_descr_t const *ep = (cy_stc_usbdev_endpoint_descr_t const *)
 238:Generated_Source\PSoC6\pdl\middleware\usb_dev/cy_usb_dev_cdc.c ****                                                             altStructs[alt]->endpoints[0U]->endpoin
 239:Generated_Source\PSoC6\pdl\middleware\usb_dev/cy_usb_dev_cdc.c **** 
 240:Generated_Source\PSoC6\pdl\middleware\usb_dev/cy_usb_dev_cdc.c ****                 context->port[portInt].interfaceNum = (uint8_t) intf;
 241:Generated_Source\PSoC6\pdl\middleware\usb_dev/cy_usb_dev_cdc.c **** 
 242:Generated_Source\PSoC6\pdl\middleware\usb_dev/cy_usb_dev_cdc.c ****                 context->port[portInt].commEp       = (uint8_t) CY_USB_DEV_EPADDR2EP(ep->bEndpointA
 243:Generated_Source\PSoC6\pdl\middleware\usb_dev/cy_usb_dev_cdc.c ****                 context->port[portInt].commEpSize   = CY_USB_DEV_GET_CFG_WORD(&ep->wMaxPacketSize);
 244:Generated_Source\PSoC6\pdl\middleware\usb_dev/cy_usb_dev_cdc.c ****                 context->port[portInt].serialStateNotification[SERIAL_STATE_WINDEX_OFFSET] = (uint8
 245:Generated_Source\PSoC6\pdl\middleware\usb_dev/cy_usb_dev_cdc.c **** 
 246:Generated_Source\PSoC6\pdl\middleware\usb_dev/cy_usb_dev_cdc.c ****                 portInt = 1U;
 247:Generated_Source\PSoC6\pdl\middleware\usb_dev/cy_usb_dev_cdc.c ****                 cdcEpNum++;
 248:Generated_Source\PSoC6\pdl\middleware\usb_dev/cy_usb_dev_cdc.c ****             }
 249:Generated_Source\PSoC6\pdl\middleware\usb_dev/cy_usb_dev_cdc.c ****             else if (CY_USB_DEV_CDC_CLASS_DATA == curAlternate->bInterfaceClass)
 250:Generated_Source\PSoC6\pdl\middleware\usb_dev/cy_usb_dev_cdc.c ****             {
 251:Generated_Source\PSoC6\pdl\middleware\usb_dev/cy_usb_dev_cdc.c ****                 uint32_t endpoint;
 252:Generated_Source\PSoC6\pdl\middleware\usb_dev/cy_usb_dev_cdc.c ****                 
 253:Generated_Source\PSoC6\pdl\middleware\usb_dev/cy_usb_dev_cdc.c ****                 /* Check all endpoints that belong to interface */
 254:Generated_Source\PSoC6\pdl\middleware\usb_dev/cy_usb_dev_cdc.c ****                 for (endpoint = 0U; endpoint < altStructs[alt]->numEndpoints; ++endpoint)
 255:Generated_Source\PSoC6\pdl\middleware\usb_dev/cy_usb_dev_cdc.c ****                 {
 256:Generated_Source\PSoC6\pdl\middleware\usb_dev/cy_usb_dev_cdc.c ****                     /* Get endpoint descriptor */
 257:Generated_Source\PSoC6\pdl\middleware\usb_dev/cy_usb_dev_cdc.c ****                     cy_stc_usbdev_endpoint_descr_t const *ep = (cy_stc_usbdev_endpoint_descr_t cons
 258:Generated_Source\PSoC6\pdl\middleware\usb_dev/cy_usb_dev_cdc.c ****                                                                 altStructs[alt]->endpoints[endpoint
 259:Generated_Source\PSoC6\pdl\middleware\usb_dev/cy_usb_dev_cdc.c **** 
ARM GAS  C:\Users\enes_\AppData\Local\Temp\ccL38cFe.s 			page 6


 260:Generated_Source\PSoC6\pdl\middleware\usb_dev/cy_usb_dev_cdc.c ****                     if (CY_USB_DEV_IS_EP_DIR_IN(ep->bEndpointAddress))
 261:Generated_Source\PSoC6\pdl\middleware\usb_dev/cy_usb_dev_cdc.c ****                     {
 262:Generated_Source\PSoC6\pdl\middleware\usb_dev/cy_usb_dev_cdc.c ****                         context->port[portData].dataInEp     = (uint8_t) CY_USB_DEV_EPADDR2EP(ep->b
 263:Generated_Source\PSoC6\pdl\middleware\usb_dev/cy_usb_dev_cdc.c ****                         context->port[portData].dataInEpSize = CY_USB_DEV_GET_CFG_WORD(&ep->wMaxPac
 264:Generated_Source\PSoC6\pdl\middleware\usb_dev/cy_usb_dev_cdc.c ****                     }
 265:Generated_Source\PSoC6\pdl\middleware\usb_dev/cy_usb_dev_cdc.c ****                     else
 266:Generated_Source\PSoC6\pdl\middleware\usb_dev/cy_usb_dev_cdc.c ****                     {
 267:Generated_Source\PSoC6\pdl\middleware\usb_dev/cy_usb_dev_cdc.c ****                         context->port[portData].dataOutEp     = (uint8_t) CY_USB_DEV_EPADDR2EP(ep->
 268:Generated_Source\PSoC6\pdl\middleware\usb_dev/cy_usb_dev_cdc.c ****                         context->port[portData].dataOutEpSize = CY_USB_DEV_GET_CFG_WORD(&ep->wMaxPa
 269:Generated_Source\PSoC6\pdl\middleware\usb_dev/cy_usb_dev_cdc.c **** 
 270:Generated_Source\PSoC6\pdl\middleware\usb_dev/cy_usb_dev_cdc.c ****                         /* Enable endpoint to receive data from Host. 
 271:Generated_Source\PSoC6\pdl\middleware\usb_dev/cy_usb_dev_cdc.c ****                         * Discard status after set configuration is safe.
 272:Generated_Source\PSoC6\pdl\middleware\usb_dev/cy_usb_dev_cdc.c ****                         */
 273:Generated_Source\PSoC6\pdl\middleware\usb_dev/cy_usb_dev_cdc.c ****                         (void) Cy_USB_Dev_StartReadEp((uint32_t) context->port[portData].dataOutEp,
 274:Generated_Source\PSoC6\pdl\middleware\usb_dev/cy_usb_dev_cdc.c ****                     }
 275:Generated_Source\PSoC6\pdl\middleware\usb_dev/cy_usb_dev_cdc.c **** 
 276:Generated_Source\PSoC6\pdl\middleware\usb_dev/cy_usb_dev_cdc.c ****                     cdcEpNum++;
 277:Generated_Source\PSoC6\pdl\middleware\usb_dev/cy_usb_dev_cdc.c ****                 }
 278:Generated_Source\PSoC6\pdl\middleware\usb_dev/cy_usb_dev_cdc.c **** 
 279:Generated_Source\PSoC6\pdl\middleware\usb_dev/cy_usb_dev_cdc.c ****                 portData = 1U;
 280:Generated_Source\PSoC6\pdl\middleware\usb_dev/cy_usb_dev_cdc.c ****             }
 281:Generated_Source\PSoC6\pdl\middleware\usb_dev/cy_usb_dev_cdc.c ****             else
 282:Generated_Source\PSoC6\pdl\middleware\usb_dev/cy_usb_dev_cdc.c ****             {
 283:Generated_Source\PSoC6\pdl\middleware\usb_dev/cy_usb_dev_cdc.c ****                 /* Skip: Interface Class is not CDC */
 284:Generated_Source\PSoC6\pdl\middleware\usb_dev/cy_usb_dev_cdc.c ****             }
 285:Generated_Source\PSoC6\pdl\middleware\usb_dev/cy_usb_dev_cdc.c ****         }
 286:Generated_Source\PSoC6\pdl\middleware\usb_dev/cy_usb_dev_cdc.c **** 
 287:Generated_Source\PSoC6\pdl\middleware\usb_dev/cy_usb_dev_cdc.c ****         context->port[COM1].valid = (cdcEpNum >= SINGLE_COM_PORT_EP_NUM);
 288:Generated_Source\PSoC6\pdl\middleware\usb_dev/cy_usb_dev_cdc.c ****         context->port[COM2].valid = (DUAL_COM_PORT_EP_NUM == cdcEpNum);
 289:Generated_Source\PSoC6\pdl\middleware\usb_dev/cy_usb_dev_cdc.c ****     }
 290:Generated_Source\PSoC6\pdl\middleware\usb_dev/cy_usb_dev_cdc.c **** 
 291:Generated_Source\PSoC6\pdl\middleware\usb_dev/cy_usb_dev_cdc.c ****     /* If comport is not found, it is marked not valid */
 292:Generated_Source\PSoC6\pdl\middleware\usb_dev/cy_usb_dev_cdc.c ****     return CY_USB_DEV_SUCCESS;
 293:Generated_Source\PSoC6\pdl\middleware\usb_dev/cy_usb_dev_cdc.c **** }
 294:Generated_Source\PSoC6\pdl\middleware\usb_dev/cy_usb_dev_cdc.c ****                                                                                                    
 295:Generated_Source\PSoC6\pdl\middleware\usb_dev/cy_usb_dev_cdc.c **** 
 296:Generated_Source\PSoC6\pdl\middleware\usb_dev/cy_usb_dev_cdc.c **** /*******************************************************************************
 297:Generated_Source\PSoC6\pdl\middleware\usb_dev/cy_usb_dev_cdc.c **** * Function Name: HandleRequest
 298:Generated_Source\PSoC6\pdl\middleware\usb_dev/cy_usb_dev_cdc.c **** ****************************************************************************//**
 299:Generated_Source\PSoC6\pdl\middleware\usb_dev/cy_usb_dev_cdc.c **** *
 300:Generated_Source\PSoC6\pdl\middleware\usb_dev/cy_usb_dev_cdc.c **** * Handles CDC class requests (SETUP packet received event).
 301:Generated_Source\PSoC6\pdl\middleware\usb_dev/cy_usb_dev_cdc.c **** *
 302:Generated_Source\PSoC6\pdl\middleware\usb_dev/cy_usb_dev_cdc.c **** * \param transfer
 303:Generated_Source\PSoC6\pdl\middleware\usb_dev/cy_usb_dev_cdc.c **** * Pointer to structure that holds SETUP packet and information for 
 304:Generated_Source\PSoC6\pdl\middleware\usb_dev/cy_usb_dev_cdc.c **** * request processing.
 305:Generated_Source\PSoC6\pdl\middleware\usb_dev/cy_usb_dev_cdc.c **** *
 306:Generated_Source\PSoC6\pdl\middleware\usb_dev/cy_usb_dev_cdc.c **** * \param classContext
 307:Generated_Source\PSoC6\pdl\middleware\usb_dev/cy_usb_dev_cdc.c **** * The pointer to the context structure \ref cy_stc_usb_dev_cdc_context_t 
 308:Generated_Source\PSoC6\pdl\middleware\usb_dev/cy_usb_dev_cdc.c **** * allocated by the user. The structure is used during the CDC Class operation  
 309:Generated_Source\PSoC6\pdl\middleware\usb_dev/cy_usb_dev_cdc.c **** * for internal configuration and data retention. The user must not modify 
 310:Generated_Source\PSoC6\pdl\middleware\usb_dev/cy_usb_dev_cdc.c **** * anything in this structure.
 311:Generated_Source\PSoC6\pdl\middleware\usb_dev/cy_usb_dev_cdc.c **** *
 312:Generated_Source\PSoC6\pdl\middleware\usb_dev/cy_usb_dev_cdc.c **** * \param devContext
 313:Generated_Source\PSoC6\pdl\middleware\usb_dev/cy_usb_dev_cdc.c **** * The pointer to the context structure \ref cy_stc_usb_dev_context_t allocated
 314:Generated_Source\PSoC6\pdl\middleware\usb_dev/cy_usb_dev_cdc.c **** * by the user. The structure is used during the USB Device operation for 
 315:Generated_Source\PSoC6\pdl\middleware\usb_dev/cy_usb_dev_cdc.c **** * internal configuration and data retention. The user must not modify anything 
 316:Generated_Source\PSoC6\pdl\middleware\usb_dev/cy_usb_dev_cdc.c **** * in this structure.
ARM GAS  C:\Users\enes_\AppData\Local\Temp\ccL38cFe.s 			page 7


 317:Generated_Source\PSoC6\pdl\middleware\usb_dev/cy_usb_dev_cdc.c **** *
 318:Generated_Source\PSoC6\pdl\middleware\usb_dev/cy_usb_dev_cdc.c **** * \return
 319:Generated_Source\PSoC6\pdl\middleware\usb_dev/cy_usb_dev_cdc.c **** * Status of request processing: \ref CY_USB_DEV_SUCCESS or 
 320:Generated_Source\PSoC6\pdl\middleware\usb_dev/cy_usb_dev_cdc.c **** * \ref CY_USB_DEV_REQUEST_NOT_HANDLED.
 321:Generated_Source\PSoC6\pdl\middleware\usb_dev/cy_usb_dev_cdc.c **** *
 322:Generated_Source\PSoC6\pdl\middleware\usb_dev/cy_usb_dev_cdc.c **** *******************************************************************************/
 323:Generated_Source\PSoC6\pdl\middleware\usb_dev/cy_usb_dev_cdc.c **** static cy_en_usb_dev_status_t HandleRequest(cy_stc_usb_dev_control_transfer_t *transfer, 
 324:Generated_Source\PSoC6\pdl\middleware\usb_dev/cy_usb_dev_cdc.c ****                                             void *classContext, 
 325:Generated_Source\PSoC6\pdl\middleware\usb_dev/cy_usb_dev_cdc.c ****                                             cy_stc_usb_dev_context_t *devContext)
 326:Generated_Source\PSoC6\pdl\middleware\usb_dev/cy_usb_dev_cdc.c **** {
 327:Generated_Source\PSoC6\pdl\middleware\usb_dev/cy_usb_dev_cdc.c ****     cy_en_usb_dev_status_t retStatus = CY_USB_DEV_REQUEST_NOT_HANDLED;
 328:Generated_Source\PSoC6\pdl\middleware\usb_dev/cy_usb_dev_cdc.c ****    
 329:Generated_Source\PSoC6\pdl\middleware\usb_dev/cy_usb_dev_cdc.c ****     /* Process CDC Class requests */
 330:Generated_Source\PSoC6\pdl\middleware\usb_dev/cy_usb_dev_cdc.c ****     if (CY_USB_DEV_CLASS_TYPE == transfer->setup.bmRequestType.type)
 331:Generated_Source\PSoC6\pdl\middleware\usb_dev/cy_usb_dev_cdc.c ****     {
 332:Generated_Source\PSoC6\pdl\middleware\usb_dev/cy_usb_dev_cdc.c ****         cy_stc_usb_dev_cdc_context_t *context = (cy_stc_usb_dev_cdc_context_t *) classContext;
 333:Generated_Source\PSoC6\pdl\middleware\usb_dev/cy_usb_dev_cdc.c **** 
 334:Generated_Source\PSoC6\pdl\middleware\usb_dev/cy_usb_dev_cdc.c ****         uint32_t portNum = GetInterfaceComPort((uint32_t) transfer->setup.wIndex, context);
 335:Generated_Source\PSoC6\pdl\middleware\usb_dev/cy_usb_dev_cdc.c ****         
 336:Generated_Source\PSoC6\pdl\middleware\usb_dev/cy_usb_dev_cdc.c ****         if (IS_COM_VALID(portNum))
 337:Generated_Source\PSoC6\pdl\middleware\usb_dev/cy_usb_dev_cdc.c ****         {
 338:Generated_Source\PSoC6\pdl\middleware\usb_dev/cy_usb_dev_cdc.c ****             switch (transfer->setup.bRequest)
 339:Generated_Source\PSoC6\pdl\middleware\usb_dev/cy_usb_dev_cdc.c ****             {   
 340:Generated_Source\PSoC6\pdl\middleware\usb_dev/cy_usb_dev_cdc.c ****                 case CY_USB_DEV_CDC_RQST_SET_LINE_CODING:
 341:Generated_Source\PSoC6\pdl\middleware\usb_dev/cy_usb_dev_cdc.c ****                 {   
 342:Generated_Source\PSoC6\pdl\middleware\usb_dev/cy_usb_dev_cdc.c ****                     transfer->remaining = SET_LINE_CODING_LENGTH;
 343:Generated_Source\PSoC6\pdl\middleware\usb_dev/cy_usb_dev_cdc.c ****                     transfer->notify    = true;               
 344:Generated_Source\PSoC6\pdl\middleware\usb_dev/cy_usb_dev_cdc.c ****                     retStatus = CY_USB_DEV_SUCCESS;
 345:Generated_Source\PSoC6\pdl\middleware\usb_dev/cy_usb_dev_cdc.c ****                 }
 346:Generated_Source\PSoC6\pdl\middleware\usb_dev/cy_usb_dev_cdc.c ****                 break;
 347:Generated_Source\PSoC6\pdl\middleware\usb_dev/cy_usb_dev_cdc.c **** 
 348:Generated_Source\PSoC6\pdl\middleware\usb_dev/cy_usb_dev_cdc.c ****                 case CY_USB_DEV_CDC_RQST_GET_LINE_CODING:
 349:Generated_Source\PSoC6\pdl\middleware\usb_dev/cy_usb_dev_cdc.c ****                 {                 
 350:Generated_Source\PSoC6\pdl\middleware\usb_dev/cy_usb_dev_cdc.c ****                     transfer->ptr       = (uint8_t *) context->port[portNum].linesCoding;
 351:Generated_Source\PSoC6\pdl\middleware\usb_dev/cy_usb_dev_cdc.c ****                     transfer->remaining = SET_LINE_CODING_LENGTH;   
 352:Generated_Source\PSoC6\pdl\middleware\usb_dev/cy_usb_dev_cdc.c ****                     retStatus = CY_USB_DEV_SUCCESS;
 353:Generated_Source\PSoC6\pdl\middleware\usb_dev/cy_usb_dev_cdc.c ****                 }
 354:Generated_Source\PSoC6\pdl\middleware\usb_dev/cy_usb_dev_cdc.c ****                 break;
 355:Generated_Source\PSoC6\pdl\middleware\usb_dev/cy_usb_dev_cdc.c **** 
 356:Generated_Source\PSoC6\pdl\middleware\usb_dev/cy_usb_dev_cdc.c ****                 case CY_USB_DEV_CDC_RQST_SET_CONTROL_LINE_STATE:
 357:Generated_Source\PSoC6\pdl\middleware\usb_dev/cy_usb_dev_cdc.c ****                 {                 
 358:Generated_Source\PSoC6\pdl\middleware\usb_dev/cy_usb_dev_cdc.c ****                     context->port[portNum].linesControlBitmap = (uint8_t) transfer->setup.wValue;
 359:Generated_Source\PSoC6\pdl\middleware\usb_dev/cy_usb_dev_cdc.c ****                     context->port[portNum].linesChanged |= CY_USB_DEV_CDC_LINE_CONTROL_CHANGED;    
 360:Generated_Source\PSoC6\pdl\middleware\usb_dev/cy_usb_dev_cdc.c ****                     retStatus = CY_USB_DEV_SUCCESS; /* There is Data stage */
 361:Generated_Source\PSoC6\pdl\middleware\usb_dev/cy_usb_dev_cdc.c ****                 }
 362:Generated_Source\PSoC6\pdl\middleware\usb_dev/cy_usb_dev_cdc.c ****                 break;
 363:Generated_Source\PSoC6\pdl\middleware\usb_dev/cy_usb_dev_cdc.c **** 
 364:Generated_Source\PSoC6\pdl\middleware\usb_dev/cy_usb_dev_cdc.c ****                 default:
 365:Generated_Source\PSoC6\pdl\middleware\usb_dev/cy_usb_dev_cdc.c ****                 {
 366:Generated_Source\PSoC6\pdl\middleware\usb_dev/cy_usb_dev_cdc.c ****                     /* Request was not recognized. Try custom request handler. */
 367:Generated_Source\PSoC6\pdl\middleware\usb_dev/cy_usb_dev_cdc.c ****                     if (NULL != context->requestReceived)
 368:Generated_Source\PSoC6\pdl\middleware\usb_dev/cy_usb_dev_cdc.c ****                     {
 369:Generated_Source\PSoC6\pdl\middleware\usb_dev/cy_usb_dev_cdc.c ****                         retStatus = context->requestReceived(transfer, context, devContext);
 370:Generated_Source\PSoC6\pdl\middleware\usb_dev/cy_usb_dev_cdc.c ****                     }
 371:Generated_Source\PSoC6\pdl\middleware\usb_dev/cy_usb_dev_cdc.c ****                 }
 372:Generated_Source\PSoC6\pdl\middleware\usb_dev/cy_usb_dev_cdc.c ****                 break;
 373:Generated_Source\PSoC6\pdl\middleware\usb_dev/cy_usb_dev_cdc.c ****             }
ARM GAS  C:\Users\enes_\AppData\Local\Temp\ccL38cFe.s 			page 8


 374:Generated_Source\PSoC6\pdl\middleware\usb_dev/cy_usb_dev_cdc.c ****         }
 375:Generated_Source\PSoC6\pdl\middleware\usb_dev/cy_usb_dev_cdc.c ****     }
 376:Generated_Source\PSoC6\pdl\middleware\usb_dev/cy_usb_dev_cdc.c ****     
 377:Generated_Source\PSoC6\pdl\middleware\usb_dev/cy_usb_dev_cdc.c ****     return retStatus;
 378:Generated_Source\PSoC6\pdl\middleware\usb_dev/cy_usb_dev_cdc.c **** }
 379:Generated_Source\PSoC6\pdl\middleware\usb_dev/cy_usb_dev_cdc.c **** 
 380:Generated_Source\PSoC6\pdl\middleware\usb_dev/cy_usb_dev_cdc.c **** 
 381:Generated_Source\PSoC6\pdl\middleware\usb_dev/cy_usb_dev_cdc.c **** /*******************************************************************************
 382:Generated_Source\PSoC6\pdl\middleware\usb_dev/cy_usb_dev_cdc.c **** * Function Name: HandleRequestComplete
 383:Generated_Source\PSoC6\pdl\middleware\usb_dev/cy_usb_dev_cdc.c **** ****************************************************************************//**
 384:Generated_Source\PSoC6\pdl\middleware\usb_dev/cy_usb_dev_cdc.c **** *
 385:Generated_Source\PSoC6\pdl\middleware\usb_dev/cy_usb_dev_cdc.c **** * Completes handling CDC class requests that expect data from the Host.
 386:Generated_Source\PSoC6\pdl\middleware\usb_dev/cy_usb_dev_cdc.c **** * Involved when data from the Host has been received.
 387:Generated_Source\PSoC6\pdl\middleware\usb_dev/cy_usb_dev_cdc.c **** *
 388:Generated_Source\PSoC6\pdl\middleware\usb_dev/cy_usb_dev_cdc.c **** * \param transfer
 389:Generated_Source\PSoC6\pdl\middleware\usb_dev/cy_usb_dev_cdc.c **** * Pointer to structure that holds SETUP packet and information for 
 390:Generated_Source\PSoC6\pdl\middleware\usb_dev/cy_usb_dev_cdc.c **** * request processing.
 391:Generated_Source\PSoC6\pdl\middleware\usb_dev/cy_usb_dev_cdc.c **** *
 392:Generated_Source\PSoC6\pdl\middleware\usb_dev/cy_usb_dev_cdc.c **** * \param classContext
 393:Generated_Source\PSoC6\pdl\middleware\usb_dev/cy_usb_dev_cdc.c **** * The pointer to the context structure \ref cy_stc_usb_dev_cdc_context_t 
 394:Generated_Source\PSoC6\pdl\middleware\usb_dev/cy_usb_dev_cdc.c **** * allocated by the user. The structure is used during the CDC Class operation  
 395:Generated_Source\PSoC6\pdl\middleware\usb_dev/cy_usb_dev_cdc.c **** * for internal configuration and data retention. The user must not modify 
 396:Generated_Source\PSoC6\pdl\middleware\usb_dev/cy_usb_dev_cdc.c **** * anything in this structure.
 397:Generated_Source\PSoC6\pdl\middleware\usb_dev/cy_usb_dev_cdc.c **** *
 398:Generated_Source\PSoC6\pdl\middleware\usb_dev/cy_usb_dev_cdc.c **** * \param devContext
 399:Generated_Source\PSoC6\pdl\middleware\usb_dev/cy_usb_dev_cdc.c **** * The pointer to the context structure \ref cy_stc_usb_dev_context_t allocated
 400:Generated_Source\PSoC6\pdl\middleware\usb_dev/cy_usb_dev_cdc.c **** * by the user. The structure is used during the USB Device operation for 
 401:Generated_Source\PSoC6\pdl\middleware\usb_dev/cy_usb_dev_cdc.c **** * internal configuration and data retention. The user must not modify anything 
 402:Generated_Source\PSoC6\pdl\middleware\usb_dev/cy_usb_dev_cdc.c **** * in this structure.
 403:Generated_Source\PSoC6\pdl\middleware\usb_dev/cy_usb_dev_cdc.c **** *
 404:Generated_Source\PSoC6\pdl\middleware\usb_dev/cy_usb_dev_cdc.c **** * \return
 405:Generated_Source\PSoC6\pdl\middleware\usb_dev/cy_usb_dev_cdc.c **** * Status of request processing: \ref CY_USB_DEV_SUCCESS or 
 406:Generated_Source\PSoC6\pdl\middleware\usb_dev/cy_usb_dev_cdc.c **** * \ref CY_USB_DEV_REQUEST_NOT_HANDLED.
 407:Generated_Source\PSoC6\pdl\middleware\usb_dev/cy_usb_dev_cdc.c **** *
 408:Generated_Source\PSoC6\pdl\middleware\usb_dev/cy_usb_dev_cdc.c **** *******************************************************************************/
 409:Generated_Source\PSoC6\pdl\middleware\usb_dev/cy_usb_dev_cdc.c **** static cy_en_usb_dev_status_t HandleRequestComplete(cy_stc_usb_dev_control_transfer_t *transfer, 
 410:Generated_Source\PSoC6\pdl\middleware\usb_dev/cy_usb_dev_cdc.c ****                                                     void *classContext, 
 411:Generated_Source\PSoC6\pdl\middleware\usb_dev/cy_usb_dev_cdc.c ****                                                     cy_stc_usb_dev_context_t *devContext)
 412:Generated_Source\PSoC6\pdl\middleware\usb_dev/cy_usb_dev_cdc.c **** {
 413:Generated_Source\PSoC6\pdl\middleware\usb_dev/cy_usb_dev_cdc.c ****     cy_en_usb_dev_status_t retStatus = CY_USB_DEV_REQUEST_NOT_HANDLED;
 414:Generated_Source\PSoC6\pdl\middleware\usb_dev/cy_usb_dev_cdc.c ****    
 415:Generated_Source\PSoC6\pdl\middleware\usb_dev/cy_usb_dev_cdc.c ****     /* Process CDC Class requests */
 416:Generated_Source\PSoC6\pdl\middleware\usb_dev/cy_usb_dev_cdc.c ****     if (CY_USB_DEV_CLASS_TYPE == transfer->setup.bmRequestType.type)
 417:Generated_Source\PSoC6\pdl\middleware\usb_dev/cy_usb_dev_cdc.c ****     {
 418:Generated_Source\PSoC6\pdl\middleware\usb_dev/cy_usb_dev_cdc.c ****         cy_stc_usb_dev_cdc_context_t *context = (cy_stc_usb_dev_cdc_context_t *) classContext;
 419:Generated_Source\PSoC6\pdl\middleware\usb_dev/cy_usb_dev_cdc.c **** 
 420:Generated_Source\PSoC6\pdl\middleware\usb_dev/cy_usb_dev_cdc.c ****         uint32_t portNum = GetInterfaceComPort((uint32_t) transfer->setup.wIndex, context);
 421:Generated_Source\PSoC6\pdl\middleware\usb_dev/cy_usb_dev_cdc.c **** 
 422:Generated_Source\PSoC6\pdl\middleware\usb_dev/cy_usb_dev_cdc.c ****         if (IS_COM_VALID(portNum))
 423:Generated_Source\PSoC6\pdl\middleware\usb_dev/cy_usb_dev_cdc.c ****         {
 424:Generated_Source\PSoC6\pdl\middleware\usb_dev/cy_usb_dev_cdc.c ****             switch (transfer->setup.bRequest)
 425:Generated_Source\PSoC6\pdl\middleware\usb_dev/cy_usb_dev_cdc.c ****             {   
 426:Generated_Source\PSoC6\pdl\middleware\usb_dev/cy_usb_dev_cdc.c ****                 case CY_USB_DEV_CDC_RQST_SET_LINE_CODING:
 427:Generated_Source\PSoC6\pdl\middleware\usb_dev/cy_usb_dev_cdc.c ****                 {   
 428:Generated_Source\PSoC6\pdl\middleware\usb_dev/cy_usb_dev_cdc.c ****                     /* Copy received data */
 429:Generated_Source\PSoC6\pdl\middleware\usb_dev/cy_usb_dev_cdc.c ****                     (void) memcpy((void *) context->port[portNum].linesCoding, transfer->ptr, CY_US
 430:Generated_Source\PSoC6\pdl\middleware\usb_dev/cy_usb_dev_cdc.c ****                     
ARM GAS  C:\Users\enes_\AppData\Local\Temp\ccL38cFe.s 			page 9


 431:Generated_Source\PSoC6\pdl\middleware\usb_dev/cy_usb_dev_cdc.c ****                     context->port[portNum].linesChanged |= CY_USB_DEV_CDC_LINE_CODING_CHANGED;
 432:Generated_Source\PSoC6\pdl\middleware\usb_dev/cy_usb_dev_cdc.c ****                     
 433:Generated_Source\PSoC6\pdl\middleware\usb_dev/cy_usb_dev_cdc.c ****                     retStatus = CY_USB_DEV_SUCCESS;
 434:Generated_Source\PSoC6\pdl\middleware\usb_dev/cy_usb_dev_cdc.c ****                 }
 435:Generated_Source\PSoC6\pdl\middleware\usb_dev/cy_usb_dev_cdc.c ****                 break;
 436:Generated_Source\PSoC6\pdl\middleware\usb_dev/cy_usb_dev_cdc.c **** 
 437:Generated_Source\PSoC6\pdl\middleware\usb_dev/cy_usb_dev_cdc.c ****                 default:
 438:Generated_Source\PSoC6\pdl\middleware\usb_dev/cy_usb_dev_cdc.c ****                 {
 439:Generated_Source\PSoC6\pdl\middleware\usb_dev/cy_usb_dev_cdc.c ****                     /* Request was not recognized. Try custom request handler. */
 440:Generated_Source\PSoC6\pdl\middleware\usb_dev/cy_usb_dev_cdc.c ****                     if (NULL != context->requestCompleted)
 441:Generated_Source\PSoC6\pdl\middleware\usb_dev/cy_usb_dev_cdc.c ****                     {
 442:Generated_Source\PSoC6\pdl\middleware\usb_dev/cy_usb_dev_cdc.c ****                         retStatus = context->requestCompleted(transfer, context, devContext);
 443:Generated_Source\PSoC6\pdl\middleware\usb_dev/cy_usb_dev_cdc.c ****                     }     
 444:Generated_Source\PSoC6\pdl\middleware\usb_dev/cy_usb_dev_cdc.c ****                 }
 445:Generated_Source\PSoC6\pdl\middleware\usb_dev/cy_usb_dev_cdc.c ****                 break;
 446:Generated_Source\PSoC6\pdl\middleware\usb_dev/cy_usb_dev_cdc.c ****             }
 447:Generated_Source\PSoC6\pdl\middleware\usb_dev/cy_usb_dev_cdc.c ****         }
 448:Generated_Source\PSoC6\pdl\middleware\usb_dev/cy_usb_dev_cdc.c ****     }
 449:Generated_Source\PSoC6\pdl\middleware\usb_dev/cy_usb_dev_cdc.c ****     
 450:Generated_Source\PSoC6\pdl\middleware\usb_dev/cy_usb_dev_cdc.c ****     return retStatus;
 451:Generated_Source\PSoC6\pdl\middleware\usb_dev/cy_usb_dev_cdc.c **** }
 452:Generated_Source\PSoC6\pdl\middleware\usb_dev/cy_usb_dev_cdc.c **** 
 453:Generated_Source\PSoC6\pdl\middleware\usb_dev/cy_usb_dev_cdc.c **** 
 454:Generated_Source\PSoC6\pdl\middleware\usb_dev/cy_usb_dev_cdc.c **** /*******************************************************************************
 455:Generated_Source\PSoC6\pdl\middleware\usb_dev/cy_usb_dev_cdc.c **** * Function Name: GetInterfaceComPort
 456:Generated_Source\PSoC6\pdl\middleware\usb_dev/cy_usb_dev_cdc.c **** ****************************************************************************//**
 457:Generated_Source\PSoC6\pdl\middleware\usb_dev/cy_usb_dev_cdc.c **** *  
 458:Generated_Source\PSoC6\pdl\middleware\usb_dev/cy_usb_dev_cdc.c **** * Returns number of COM port number that belong to a certain CDC interface.
 459:Generated_Source\PSoC6\pdl\middleware\usb_dev/cy_usb_dev_cdc.c **** *
 460:Generated_Source\PSoC6\pdl\middleware\usb_dev/cy_usb_dev_cdc.c **** * \param interface
 461:Generated_Source\PSoC6\pdl\middleware\usb_dev/cy_usb_dev_cdc.c **** * Interface number.
 462:Generated_Source\PSoC6\pdl\middleware\usb_dev/cy_usb_dev_cdc.c **** *
 463:Generated_Source\PSoC6\pdl\middleware\usb_dev/cy_usb_dev_cdc.c **** * \param context
 464:Generated_Source\PSoC6\pdl\middleware\usb_dev/cy_usb_dev_cdc.c **** * The pointer to the context structure \ref cy_stc_usb_dev_cdc_context_t 
 465:Generated_Source\PSoC6\pdl\middleware\usb_dev/cy_usb_dev_cdc.c **** * allocated by the user. The structure is used during the CDC Class operation  
 466:Generated_Source\PSoC6\pdl\middleware\usb_dev/cy_usb_dev_cdc.c **** * for internal configuration and data retention. The user must not modify 
 467:Generated_Source\PSoC6\pdl\middleware\usb_dev/cy_usb_dev_cdc.c **** * anything in this structure.
 468:Generated_Source\PSoC6\pdl\middleware\usb_dev/cy_usb_dev_cdc.c **** *
 469:Generated_Source\PSoC6\pdl\middleware\usb_dev/cy_usb_dev_cdc.c **** * \return
 470:Generated_Source\PSoC6\pdl\middleware\usb_dev/cy_usb_dev_cdc.c **** * COM port number (COM1 or COM2). INVALID_COM if COM port does not exist.
 471:Generated_Source\PSoC6\pdl\middleware\usb_dev/cy_usb_dev_cdc.c **** *
 472:Generated_Source\PSoC6\pdl\middleware\usb_dev/cy_usb_dev_cdc.c **** *******************************************************************************/
 473:Generated_Source\PSoC6\pdl\middleware\usb_dev/cy_usb_dev_cdc.c **** static uint32_t GetInterfaceComPort(uint32_t interface, cy_stc_usb_dev_cdc_context_t const *context
 474:Generated_Source\PSoC6\pdl\middleware\usb_dev/cy_usb_dev_cdc.c **** {
  27              		.loc 1 474 0
  28              		.cfi_startproc
  29              		@ args = 0, pretend = 0, frame = 0
  30              		@ frame_needed = 0, uses_anonymous_args = 0
  31              		@ link register save eliminated.
  32              	.LVL0:
 475:Generated_Source\PSoC6\pdl\middleware\usb_dev/cy_usb_dev_cdc.c ****     uint32_t portNum;
 476:Generated_Source\PSoC6\pdl\middleware\usb_dev/cy_usb_dev_cdc.c ****     uint32_t locInterface = (uint32_t) CY_LO8(interface);
  33              		.loc 1 476 0
  34 0000 FF23     		movs	r3, #255
  35 0002 1840     		ands	r0, r3
  36              	.LVL1:
 477:Generated_Source\PSoC6\pdl\middleware\usb_dev/cy_usb_dev_cdc.c **** 
ARM GAS  C:\Users\enes_\AppData\Local\Temp\ccL38cFe.s 			page 10


 478:Generated_Source\PSoC6\pdl\middleware\usb_dev/cy_usb_dev_cdc.c ****     if (context->port[COM1].interfaceNum == locInterface)
  37              		.loc 1 478 0
  38 0004 0B7D     		ldrb	r3, [r1, #20]
  39 0006 DBB2     		uxtb	r3, r3
  40 0008 9842     		cmp	r0, r3
  41 000a 06D0     		beq	.L3
 479:Generated_Source\PSoC6\pdl\middleware\usb_dev/cy_usb_dev_cdc.c ****     {
 480:Generated_Source\PSoC6\pdl\middleware\usb_dev/cy_usb_dev_cdc.c ****         portNum = COM1;
 481:Generated_Source\PSoC6\pdl\middleware\usb_dev/cy_usb_dev_cdc.c ****     }
 482:Generated_Source\PSoC6\pdl\middleware\usb_dev/cy_usb_dev_cdc.c ****     else if (context->port[COM2].interfaceNum == locInterface)
  42              		.loc 1 482 0
  43 000c 4C23     		movs	r3, #76
  44 000e CB5C     		ldrb	r3, [r1, r3]
  45 0010 DBB2     		uxtb	r3, r3
  46 0012 9842     		cmp	r0, r3
  47 0014 03D1     		bne	.L4
 483:Generated_Source\PSoC6\pdl\middleware\usb_dev/cy_usb_dev_cdc.c ****     {
 484:Generated_Source\PSoC6\pdl\middleware\usb_dev/cy_usb_dev_cdc.c ****         portNum = COM2;
  48              		.loc 1 484 0
  49 0016 0120     		movs	r0, #1
  50              	.LVL2:
  51 0018 02E0     		b	.L2
  52              	.LVL3:
  53              	.L3:
 480:Generated_Source\PSoC6\pdl\middleware\usb_dev/cy_usb_dev_cdc.c ****     }
  54              		.loc 1 480 0
  55 001a 0020     		movs	r0, #0
  56              	.LVL4:
  57 001c 00E0     		b	.L2
  58              	.LVL5:
  59              	.L4:
 485:Generated_Source\PSoC6\pdl\middleware\usb_dev/cy_usb_dev_cdc.c ****     }
 486:Generated_Source\PSoC6\pdl\middleware\usb_dev/cy_usb_dev_cdc.c ****     else
 487:Generated_Source\PSoC6\pdl\middleware\usb_dev/cy_usb_dev_cdc.c ****     {
 488:Generated_Source\PSoC6\pdl\middleware\usb_dev/cy_usb_dev_cdc.c ****         portNum = INVALID_COM;
  60              		.loc 1 488 0
  61 001e FF20     		movs	r0, #255
  62              	.LVL6:
  63              	.L2:
 489:Generated_Source\PSoC6\pdl\middleware\usb_dev/cy_usb_dev_cdc.c ****     }
 490:Generated_Source\PSoC6\pdl\middleware\usb_dev/cy_usb_dev_cdc.c **** 
 491:Generated_Source\PSoC6\pdl\middleware\usb_dev/cy_usb_dev_cdc.c ****     return (portNum);
 492:Generated_Source\PSoC6\pdl\middleware\usb_dev/cy_usb_dev_cdc.c **** }
  64              		.loc 1 492 0
  65              		@ sp needed
  66 0020 7047     		bx	lr
  67              		.cfi_endproc
  68              	.LFE201:
  69              		.size	GetInterfaceComPort, .-GetInterfaceComPort
  70 0022 C046     		.section	.text.HandleRequest,"ax",%progbits
  71              		.align	2
  72              		.code	16
  73              		.thumb_func
  74              		.type	HandleRequest, %function
  75              	HandleRequest:
  76              	.LFB199:
 326:Generated_Source\PSoC6\pdl\middleware\usb_dev/cy_usb_dev_cdc.c ****     cy_en_usb_dev_status_t retStatus = CY_USB_DEV_REQUEST_NOT_HANDLED;
ARM GAS  C:\Users\enes_\AppData\Local\Temp\ccL38cFe.s 			page 11


  77              		.loc 1 326 0
  78              		.cfi_startproc
  79              		@ args = 0, pretend = 0, frame = 0
  80              		@ frame_needed = 0, uses_anonymous_args = 0
  81              	.LVL7:
  82 0000 70B5     		push	{r4, r5, r6, lr}
  83              		.cfi_def_cfa_offset 16
  84              		.cfi_offset 4, -16
  85              		.cfi_offset 5, -12
  86              		.cfi_offset 6, -8
  87              		.cfi_offset 14, -4
  88 0002 0400     		movs	r4, r0
  89 0004 0D00     		movs	r5, r1
  90 0006 1600     		movs	r6, r2
  91              	.LVL8:
 330:Generated_Source\PSoC6\pdl\middleware\usb_dev/cy_usb_dev_cdc.c ****     {
  92              		.loc 1 330 0
  93 0008 4378     		ldrb	r3, [r0, #1]
  94 000a 012B     		cmp	r3, #1
  95 000c 39D1     		bne	.L11
  96              	.LVL9:
  97              	.LBB21:
 334:Generated_Source\PSoC6\pdl\middleware\usb_dev/cy_usb_dev_cdc.c ****         
  98              		.loc 1 334 0
  99 000e C088     		ldrh	r0, [r0, #6]
 100              	.LVL10:
 101 0010 FFF7FEFF 		bl	GetInterfaceComPort
 102              	.LVL11:
 336:Generated_Source\PSoC6\pdl\middleware\usb_dev/cy_usb_dev_cdc.c ****         {
 103              		.loc 1 336 0
 104 0014 0228     		cmp	r0, #2
 105 0016 36D8     		bhi	.L12
 338:Generated_Source\PSoC6\pdl\middleware\usb_dev/cy_usb_dev_cdc.c ****             {   
 106              		.loc 1 338 0
 107 0018 E378     		ldrb	r3, [r4, #3]
 108 001a 212B     		cmp	r3, #33
 109 001c 09D0     		beq	.L8
 110 001e 222B     		cmp	r3, #34
 111 0020 12D0     		beq	.L9
 112 0022 202B     		cmp	r3, #32
 113 0024 24D1     		bne	.L14
 342:Generated_Source\PSoC6\pdl\middleware\usb_dev/cy_usb_dev_cdc.c ****                     transfer->notify    = true;               
 114              		.loc 1 342 0
 115 0026 193B     		subs	r3, r3, #25
 116 0028 A382     		strh	r3, [r4, #20]
 343:Generated_Source\PSoC6\pdl\middleware\usb_dev/cy_usb_dev_cdc.c ****                     retStatus = CY_USB_DEV_SUCCESS;
 117              		.loc 1 343 0
 118 002a 063B     		subs	r3, r3, #6
 119 002c 2377     		strb	r3, [r4, #28]
 120              	.LVL12:
 344:Generated_Source\PSoC6\pdl\middleware\usb_dev/cy_usb_dev_cdc.c ****                 }
 121              		.loc 1 344 0
 122 002e 0020     		movs	r0, #0
 123              	.LVL13:
 346:Generated_Source\PSoC6\pdl\middleware\usb_dev/cy_usb_dev_cdc.c **** 
 124              		.loc 1 346 0
 125 0030 2CE0     		b	.L6
ARM GAS  C:\Users\enes_\AppData\Local\Temp\ccL38cFe.s 			page 12


 126              	.LVL14:
 127              	.L8:
 350:Generated_Source\PSoC6\pdl\middleware\usb_dev/cy_usb_dev_cdc.c ****                     transfer->remaining = SET_LINE_CODING_LENGTH;   
 128              		.loc 1 350 0
 129 0032 C300     		lsls	r3, r0, #3
 130 0034 181A     		subs	r0, r3, r0
 131              	.LVL15:
 132 0036 C300     		lsls	r3, r0, #3
 133 0038 1833     		adds	r3, r3, #24
 134 003a ED18     		adds	r5, r5, r3
 135              	.LVL16:
 136 003c 0435     		adds	r5, r5, #4
 137 003e E560     		str	r5, [r4, #12]
 351:Generated_Source\PSoC6\pdl\middleware\usb_dev/cy_usb_dev_cdc.c ****                     retStatus = CY_USB_DEV_SUCCESS;
 138              		.loc 1 351 0
 139 0040 0723     		movs	r3, #7
 140 0042 A382     		strh	r3, [r4, #20]
 141              	.LVL17:
 352:Generated_Source\PSoC6\pdl\middleware\usb_dev/cy_usb_dev_cdc.c ****                 }
 142              		.loc 1 352 0
 143 0044 0020     		movs	r0, #0
 354:Generated_Source\PSoC6\pdl\middleware\usb_dev/cy_usb_dev_cdc.c **** 
 144              		.loc 1 354 0
 145 0046 21E0     		b	.L6
 146              	.LVL18:
 147              	.L9:
 358:Generated_Source\PSoC6\pdl\middleware\usb_dev/cy_usb_dev_cdc.c ****                     context->port[portNum].linesChanged |= CY_USB_DEV_CDC_LINE_CONTROL_CHANGED;    
 148              		.loc 1 358 0
 149 0048 2479     		ldrb	r4, [r4, #4]
 150              	.LVL19:
 151 004a C100     		lsls	r1, r0, #3
 152 004c 0A1A     		subs	r2, r1, r0
 153 004e D300     		lsls	r3, r2, #3
 154 0050 EB18     		adds	r3, r5, r3
 155 0052 1A00     		movs	r2, r3
 156 0054 2432     		adds	r2, r2, #36
 157 0056 1470     		strb	r4, [r2]
 359:Generated_Source\PSoC6\pdl\middleware\usb_dev/cy_usb_dev_cdc.c ****                     retStatus = CY_USB_DEV_SUCCESS; /* There is Data stage */
 158              		.loc 1 359 0
 159 0058 2333     		adds	r3, r3, #35
 160 005a 1A78     		ldrb	r2, [r3]
 161 005c 0223     		movs	r3, #2
 162 005e 1A43     		orrs	r2, r3
 163 0060 D2B2     		uxtb	r2, r2
 164 0062 081A     		subs	r0, r1, r0
 165              	.LVL20:
 166 0064 C300     		lsls	r3, r0, #3
 167 0066 ED18     		adds	r5, r5, r3
 168              	.LVL21:
 169 0068 2335     		adds	r5, r5, #35
 170 006a 2A70     		strb	r2, [r5]
 171              	.LVL22:
 360:Generated_Source\PSoC6\pdl\middleware\usb_dev/cy_usb_dev_cdc.c ****                 }
 172              		.loc 1 360 0
 173 006c 0020     		movs	r0, #0
 362:Generated_Source\PSoC6\pdl\middleware\usb_dev/cy_usb_dev_cdc.c **** 
 174              		.loc 1 362 0
ARM GAS  C:\Users\enes_\AppData\Local\Temp\ccL38cFe.s 			page 13


 175 006e 0DE0     		b	.L6
 176              	.LVL23:
 177              	.L14:
 367:Generated_Source\PSoC6\pdl\middleware\usb_dev/cy_usb_dev_cdc.c ****                     {
 178              		.loc 1 367 0
 179 0070 9423     		movs	r3, #148
 180 0072 EB58     		ldr	r3, [r5, r3]
 181 0074 002B     		cmp	r3, #0
 182 0076 08D0     		beq	.L13
 369:Generated_Source\PSoC6\pdl\middleware\usb_dev/cy_usb_dev_cdc.c ****                     }
 183              		.loc 1 369 0
 184 0078 3200     		movs	r2, r6
 185 007a 2900     		movs	r1, r5
 186 007c 2000     		movs	r0, r4
 187              	.LVL24:
 188 007e 9847     		blx	r3
 189              	.LVL25:
 190 0080 04E0     		b	.L6
 191              	.LVL26:
 192              	.L11:
 193              	.LBE21:
 327:Generated_Source\PSoC6\pdl\middleware\usb_dev/cy_usb_dev_cdc.c ****    
 194              		.loc 1 327 0
 195 0082 0348     		ldr	r0, .L15
 196              	.LVL27:
 197 0084 02E0     		b	.L6
 198              	.LVL28:
 199              	.L12:
 200 0086 0248     		ldr	r0, .L15
 201              	.LVL29:
 202 0088 00E0     		b	.L6
 203              	.LVL30:
 204              	.L13:
 205 008a 0148     		ldr	r0, .L15
 206              	.LVL31:
 207              	.L6:
 378:Generated_Source\PSoC6\pdl\middleware\usb_dev/cy_usb_dev_cdc.c **** 
 208              		.loc 1 378 0
 209              		@ sp needed
 210              	.LVL32:
 211 008c 70BD     		pop	{r4, r5, r6, pc}
 212              	.L16:
 213 008e C046     		.align	2
 214              	.L15:
 215 0090 02002200 		.word	2228226
 216              		.cfi_endproc
 217              	.LFE199:
 218              		.size	HandleRequest, .-HandleRequest
 219              		.section	.text.GetCom,"ax",%progbits
 220              		.align	2
 221              		.code	16
 222              		.thumb_func
 223              		.type	GetCom, %function
 224              	GetCom:
 225              	.LFB205:
 493:Generated_Source\PSoC6\pdl\middleware\usb_dev/cy_usb_dev_cdc.c **** 
 494:Generated_Source\PSoC6\pdl\middleware\usb_dev/cy_usb_dev_cdc.c **** 
ARM GAS  C:\Users\enes_\AppData\Local\Temp\ccL38cFe.s 			page 14


 495:Generated_Source\PSoC6\pdl\middleware\usb_dev/cy_usb_dev_cdc.c **** /*******************************************************************************
 496:Generated_Source\PSoC6\pdl\middleware\usb_dev/cy_usb_dev_cdc.c **** * Function Name: Cy_USB_Dev_CDC_PutData
 497:Generated_Source\PSoC6\pdl\middleware\usb_dev/cy_usb_dev_cdc.c **** ****************************************************************************//**
 498:Generated_Source\PSoC6\pdl\middleware\usb_dev/cy_usb_dev_cdc.c **** *
 499:Generated_Source\PSoC6\pdl\middleware\usb_dev/cy_usb_dev_cdc.c **** * Sends a specified number of bytes to USB Host.
 500:Generated_Source\PSoC6\pdl\middleware\usb_dev/cy_usb_dev_cdc.c **** * Call \ref Cy_USB_Dev_CDC_IsReady function to ensure that the COM port 
 501:Generated_Source\PSoC6\pdl\middleware\usb_dev/cy_usb_dev_cdc.c **** * (CDC Data interface) is ready for sending data to the USB Host before calling 
 502:Generated_Source\PSoC6\pdl\middleware\usb_dev/cy_usb_dev_cdc.c **** * this function.
 503:Generated_Source\PSoC6\pdl\middleware\usb_dev/cy_usb_dev_cdc.c **** *
 504:Generated_Source\PSoC6\pdl\middleware\usb_dev/cy_usb_dev_cdc.c **** * \param port
 505:Generated_Source\PSoC6\pdl\middleware\usb_dev/cy_usb_dev_cdc.c **** * COM port number. Valid ports are 0 and 1.
 506:Generated_Source\PSoC6\pdl\middleware\usb_dev/cy_usb_dev_cdc.c **** *
 507:Generated_Source\PSoC6\pdl\middleware\usb_dev/cy_usb_dev_cdc.c **** * \param buffer
 508:Generated_Source\PSoC6\pdl\middleware\usb_dev/cy_usb_dev_cdc.c **** * The pointer to the buffer containing data bytes to be sent. \n
 509:Generated_Source\PSoC6\pdl\middleware\usb_dev/cy_usb_dev_cdc.c **** * Allocate buffer using \ref CY_USB_DEV_ALLOC_ENDPOINT_BUFFER macro to make 
 510:Generated_Source\PSoC6\pdl\middleware\usb_dev/cy_usb_dev_cdc.c **** * it USBFS driver configuration independent (See \ref group_usb_dev_ep_buf_alloc
 511:Generated_Source\PSoC6\pdl\middleware\usb_dev/cy_usb_dev_cdc.c **** * for more information).
 512:Generated_Source\PSoC6\pdl\middleware\usb_dev/cy_usb_dev_cdc.c **** *
 513:Generated_Source\PSoC6\pdl\middleware\usb_dev/cy_usb_dev_cdc.c **** * \param size
 514:Generated_Source\PSoC6\pdl\middleware\usb_dev/cy_usb_dev_cdc.c **** * The number of bytes to send.
 515:Generated_Source\PSoC6\pdl\middleware\usb_dev/cy_usb_dev_cdc.c **** * This value must be less than or equal to the maximum packet size of the 
 516:Generated_Source\PSoC6\pdl\middleware\usb_dev/cy_usb_dev_cdc.c **** * CDC Data interface IN endpoint that belongs to the specified COM port.
 517:Generated_Source\PSoC6\pdl\middleware\usb_dev/cy_usb_dev_cdc.c **** *
 518:Generated_Source\PSoC6\pdl\middleware\usb_dev/cy_usb_dev_cdc.c **** * \param context
 519:Generated_Source\PSoC6\pdl\middleware\usb_dev/cy_usb_dev_cdc.c **** * The pointer to the context structure \ref cy_stc_usb_dev_cdc_context_t 
 520:Generated_Source\PSoC6\pdl\middleware\usb_dev/cy_usb_dev_cdc.c **** * allocated by the user. The structure is used during the CDC Class operation  
 521:Generated_Source\PSoC6\pdl\middleware\usb_dev/cy_usb_dev_cdc.c **** * for internal configuration and data retention. The user must not modify 
 522:Generated_Source\PSoC6\pdl\middleware\usb_dev/cy_usb_dev_cdc.c **** * anything in this structure.
 523:Generated_Source\PSoC6\pdl\middleware\usb_dev/cy_usb_dev_cdc.c **** *
 524:Generated_Source\PSoC6\pdl\middleware\usb_dev/cy_usb_dev_cdc.c **** * \return
 525:Generated_Source\PSoC6\pdl\middleware\usb_dev/cy_usb_dev_cdc.c **** * Status code of the function execution \ref cy_en_usb_dev_status_t.
 526:Generated_Source\PSoC6\pdl\middleware\usb_dev/cy_usb_dev_cdc.c **** *
 527:Generated_Source\PSoC6\pdl\middleware\usb_dev/cy_usb_dev_cdc.c **** *******************************************************************************/
 528:Generated_Source\PSoC6\pdl\middleware\usb_dev/cy_usb_dev_cdc.c **** cy_en_usb_dev_status_t Cy_USB_Dev_CDC_PutData(uint32_t port, uint8_t const *buffer, uint32_t size, 
 529:Generated_Source\PSoC6\pdl\middleware\usb_dev/cy_usb_dev_cdc.c ****                                               cy_stc_usb_dev_cdc_context_t *context)
 530:Generated_Source\PSoC6\pdl\middleware\usb_dev/cy_usb_dev_cdc.c **** {
 531:Generated_Source\PSoC6\pdl\middleware\usb_dev/cy_usb_dev_cdc.c ****     CY_ASSERT_L1(IS_COM_VALID(port));
 532:Generated_Source\PSoC6\pdl\middleware\usb_dev/cy_usb_dev_cdc.c **** 
 533:Generated_Source\PSoC6\pdl\middleware\usb_dev/cy_usb_dev_cdc.c ****     cy_en_usb_dev_status_t retStatus = CY_USB_DEV_BAD_PARAM;
 534:Generated_Source\PSoC6\pdl\middleware\usb_dev/cy_usb_dev_cdc.c ****     cy_stc_usb_dev_cdc_comport_t* com = GetCom(port, context);
 535:Generated_Source\PSoC6\pdl\middleware\usb_dev/cy_usb_dev_cdc.c ****     
 536:Generated_Source\PSoC6\pdl\middleware\usb_dev/cy_usb_dev_cdc.c ****     if (com->valid)
 537:Generated_Source\PSoC6\pdl\middleware\usb_dev/cy_usb_dev_cdc.c ****     {
 538:Generated_Source\PSoC6\pdl\middleware\usb_dev/cy_usb_dev_cdc.c ****         retStatus = Cy_USB_Dev_WriteEpNonBlocking((uint32_t) com->dataInEp, buffer, size, context->
 539:Generated_Source\PSoC6\pdl\middleware\usb_dev/cy_usb_dev_cdc.c ****     }
 540:Generated_Source\PSoC6\pdl\middleware\usb_dev/cy_usb_dev_cdc.c ****     
 541:Generated_Source\PSoC6\pdl\middleware\usb_dev/cy_usb_dev_cdc.c ****     return retStatus;
 542:Generated_Source\PSoC6\pdl\middleware\usb_dev/cy_usb_dev_cdc.c **** }
 543:Generated_Source\PSoC6\pdl\middleware\usb_dev/cy_usb_dev_cdc.c **** 
 544:Generated_Source\PSoC6\pdl\middleware\usb_dev/cy_usb_dev_cdc.c **** 
 545:Generated_Source\PSoC6\pdl\middleware\usb_dev/cy_usb_dev_cdc.c **** /*******************************************************************************
 546:Generated_Source\PSoC6\pdl\middleware\usb_dev/cy_usb_dev_cdc.c **** * Function Name: Cy_USB_Dev_CDC_PutString
 547:Generated_Source\PSoC6\pdl\middleware\usb_dev/cy_usb_dev_cdc.c **** ****************************************************************************//**
 548:Generated_Source\PSoC6\pdl\middleware\usb_dev/cy_usb_dev_cdc.c **** *
 549:Generated_Source\PSoC6\pdl\middleware\usb_dev/cy_usb_dev_cdc.c **** * Sends a null terminated string to the USB Host. This function is blocking and 
 550:Generated_Source\PSoC6\pdl\middleware\usb_dev/cy_usb_dev_cdc.c **** * returns after successful USB Host transfer, or an error or timeout occurred.
 551:Generated_Source\PSoC6\pdl\middleware\usb_dev/cy_usb_dev_cdc.c **** * Call \ref Cy_USB_Dev_CDC_IsReady function to ensure that the COM port 
ARM GAS  C:\Users\enes_\AppData\Local\Temp\ccL38cFe.s 			page 15


 552:Generated_Source\PSoC6\pdl\middleware\usb_dev/cy_usb_dev_cdc.c **** * (CDC Data interface) is ready for sending data to the USB Host before calling 
 553:Generated_Source\PSoC6\pdl\middleware\usb_dev/cy_usb_dev_cdc.c **** * this function.
 554:Generated_Source\PSoC6\pdl\middleware\usb_dev/cy_usb_dev_cdc.c **** *
 555:Generated_Source\PSoC6\pdl\middleware\usb_dev/cy_usb_dev_cdc.c **** * \param port
 556:Generated_Source\PSoC6\pdl\middleware\usb_dev/cy_usb_dev_cdc.c **** * COM port number. Valid ports are 0 and 1.
 557:Generated_Source\PSoC6\pdl\middleware\usb_dev/cy_usb_dev_cdc.c **** *
 558:Generated_Source\PSoC6\pdl\middleware\usb_dev/cy_usb_dev_cdc.c **** * \param string
 559:Generated_Source\PSoC6\pdl\middleware\usb_dev/cy_usb_dev_cdc.c **** * The pointer to the string to be sent. \n
 560:Generated_Source\PSoC6\pdl\middleware\usb_dev/cy_usb_dev_cdc.c **** * The string must be allocated following rules in the section 
 561:Generated_Source\PSoC6\pdl\middleware\usb_dev/cy_usb_dev_cdc.c **** * \ref group_usb_dev_ep_buf_alloc to be USBFS driver configuration 
 562:Generated_Source\PSoC6\pdl\middleware\usb_dev/cy_usb_dev_cdc.c **** * independent.
 563:Generated_Source\PSoC6\pdl\middleware\usb_dev/cy_usb_dev_cdc.c **** *
 564:Generated_Source\PSoC6\pdl\middleware\usb_dev/cy_usb_dev_cdc.c **** * \param timeout
 565:Generated_Source\PSoC6\pdl\middleware\usb_dev/cy_usb_dev_cdc.c **** * Defines in milliseconds the time for which this function can block.
 566:Generated_Source\PSoC6\pdl\middleware\usb_dev/cy_usb_dev_cdc.c **** * If that time expires, the function returns. 
 567:Generated_Source\PSoC6\pdl\middleware\usb_dev/cy_usb_dev_cdc.c **** * To wait forever, pass \ref CY_USB_DEV_WAIT_FOREVER.
 568:Generated_Source\PSoC6\pdl\middleware\usb_dev/cy_usb_dev_cdc.c **** *
 569:Generated_Source\PSoC6\pdl\middleware\usb_dev/cy_usb_dev_cdc.c **** * \param context
 570:Generated_Source\PSoC6\pdl\middleware\usb_dev/cy_usb_dev_cdc.c **** * The pointer to the context structure \ref cy_stc_usb_dev_cdc_context_t 
 571:Generated_Source\PSoC6\pdl\middleware\usb_dev/cy_usb_dev_cdc.c **** * allocated by the user. The structure is used during the CDC Class operation  
 572:Generated_Source\PSoC6\pdl\middleware\usb_dev/cy_usb_dev_cdc.c **** * for internal configuration and data retention. The user must not modify 
 573:Generated_Source\PSoC6\pdl\middleware\usb_dev/cy_usb_dev_cdc.c **** * anything in this structure.
 574:Generated_Source\PSoC6\pdl\middleware\usb_dev/cy_usb_dev_cdc.c **** *
 575:Generated_Source\PSoC6\pdl\middleware\usb_dev/cy_usb_dev_cdc.c **** * \return
 576:Generated_Source\PSoC6\pdl\middleware\usb_dev/cy_usb_dev_cdc.c **** * Status code of the function execution \ref cy_en_usb_dev_status_t.
 577:Generated_Source\PSoC6\pdl\middleware\usb_dev/cy_usb_dev_cdc.c **** *
 578:Generated_Source\PSoC6\pdl\middleware\usb_dev/cy_usb_dev_cdc.c **** * \note
 579:Generated_Source\PSoC6\pdl\middleware\usb_dev/cy_usb_dev_cdc.c **** * If string parameter is a constant string (example: "USBUART"), it is stored 
 580:Generated_Source\PSoC6\pdl\middleware\usb_dev/cy_usb_dev_cdc.c **** * in the stack and aligned to 4 bytes boundary what makes it USBFS 
 581:Generated_Source\PSoC6\pdl\middleware\usb_dev/cy_usb_dev_cdc.c **** * driver configuration independent.
 582:Generated_Source\PSoC6\pdl\middleware\usb_dev/cy_usb_dev_cdc.c **** *
 583:Generated_Source\PSoC6\pdl\middleware\usb_dev/cy_usb_dev_cdc.c **** *******************************************************************************/
 584:Generated_Source\PSoC6\pdl\middleware\usb_dev/cy_usb_dev_cdc.c **** cy_en_usb_dev_status_t Cy_USB_Dev_CDC_PutString(uint32_t port, char_t const *string, int32_t timeou
 585:Generated_Source\PSoC6\pdl\middleware\usb_dev/cy_usb_dev_cdc.c ****                                                 cy_stc_usb_dev_cdc_context_t *context)
 586:Generated_Source\PSoC6\pdl\middleware\usb_dev/cy_usb_dev_cdc.c **** {
 587:Generated_Source\PSoC6\pdl\middleware\usb_dev/cy_usb_dev_cdc.c ****     CY_ASSERT_L1(IS_COM_VALID(port));
 588:Generated_Source\PSoC6\pdl\middleware\usb_dev/cy_usb_dev_cdc.c **** 
 589:Generated_Source\PSoC6\pdl\middleware\usb_dev/cy_usb_dev_cdc.c ****     cy_en_usb_dev_status_t retStatus = CY_USB_DEV_BAD_PARAM;
 590:Generated_Source\PSoC6\pdl\middleware\usb_dev/cy_usb_dev_cdc.c ****     cy_stc_usb_dev_cdc_comport_t* com = GetCom(port, context);
 591:Generated_Source\PSoC6\pdl\middleware\usb_dev/cy_usb_dev_cdc.c **** 
 592:Generated_Source\PSoC6\pdl\middleware\usb_dev/cy_usb_dev_cdc.c ****     if (com->valid)
 593:Generated_Source\PSoC6\pdl\middleware\usb_dev/cy_usb_dev_cdc.c ****     {
 594:Generated_Source\PSoC6\pdl\middleware\usb_dev/cy_usb_dev_cdc.c ****         uint32_t endpoint = com->dataInEp;
 595:Generated_Source\PSoC6\pdl\middleware\usb_dev/cy_usb_dev_cdc.c ****         uint32_t stringLen = strlen(string);
 596:Generated_Source\PSoC6\pdl\middleware\usb_dev/cy_usb_dev_cdc.c ****         uint32_t sendLen = 0U;
 597:Generated_Source\PSoC6\pdl\middleware\usb_dev/cy_usb_dev_cdc.c ****         uint32_t sendIndex = 0U;
 598:Generated_Source\PSoC6\pdl\middleware\usb_dev/cy_usb_dev_cdc.c ****         uint32_t bufSize = com->dataInEpSize;
 599:Generated_Source\PSoC6\pdl\middleware\usb_dev/cy_usb_dev_cdc.c **** 
 600:Generated_Source\PSoC6\pdl\middleware\usb_dev/cy_usb_dev_cdc.c ****         do
 601:Generated_Source\PSoC6\pdl\middleware\usb_dev/cy_usb_dev_cdc.c ****         {
 602:Generated_Source\PSoC6\pdl\middleware\usb_dev/cy_usb_dev_cdc.c ****             /* Send size equal to endpoint max packet sizes */
 603:Generated_Source\PSoC6\pdl\middleware\usb_dev/cy_usb_dev_cdc.c ****             sendLen = (stringLen > bufSize) ? bufSize : stringLen;
 604:Generated_Source\PSoC6\pdl\middleware\usb_dev/cy_usb_dev_cdc.c ****             
 605:Generated_Source\PSoC6\pdl\middleware\usb_dev/cy_usb_dev_cdc.c ****             retStatus = Cy_USB_Dev_WriteEpBlocking(endpoint, (uint8_t const *) &string[sendIndex],
 606:Generated_Source\PSoC6\pdl\middleware\usb_dev/cy_usb_dev_cdc.c ****                                                    sendLen, timeout, context->devContext);
 607:Generated_Source\PSoC6\pdl\middleware\usb_dev/cy_usb_dev_cdc.c ****             stringLen -= sendLen;
 608:Generated_Source\PSoC6\pdl\middleware\usb_dev/cy_usb_dev_cdc.c ****             sendIndex += sendLen;
ARM GAS  C:\Users\enes_\AppData\Local\Temp\ccL38cFe.s 			page 16


 609:Generated_Source\PSoC6\pdl\middleware\usb_dev/cy_usb_dev_cdc.c ****         }
 610:Generated_Source\PSoC6\pdl\middleware\usb_dev/cy_usb_dev_cdc.c ****         while ((stringLen > 0U) && (CY_USB_DEV_SUCCESS == retStatus));
 611:Generated_Source\PSoC6\pdl\middleware\usb_dev/cy_usb_dev_cdc.c ****         
 612:Generated_Source\PSoC6\pdl\middleware\usb_dev/cy_usb_dev_cdc.c ****         /* If last packet is exactly maximum packet size, it shall be followed
 613:Generated_Source\PSoC6\pdl\middleware\usb_dev/cy_usb_dev_cdc.c ****         * by a zero-length packet to assure the end of segment is properly
 614:Generated_Source\PSoC6\pdl\middleware\usb_dev/cy_usb_dev_cdc.c ****         * identified by the terminal.
 615:Generated_Source\PSoC6\pdl\middleware\usb_dev/cy_usb_dev_cdc.c ****         */
 616:Generated_Source\PSoC6\pdl\middleware\usb_dev/cy_usb_dev_cdc.c ****         if ((sendLen == bufSize) && (CY_USB_DEV_SUCCESS == retStatus))
 617:Generated_Source\PSoC6\pdl\middleware\usb_dev/cy_usb_dev_cdc.c ****         {
 618:Generated_Source\PSoC6\pdl\middleware\usb_dev/cy_usb_dev_cdc.c ****             uint8_t dummyByte = 0U;
 619:Generated_Source\PSoC6\pdl\middleware\usb_dev/cy_usb_dev_cdc.c ****             retStatus = Cy_USB_Dev_WriteEpBlocking(endpoint, &dummyByte, 
 620:Generated_Source\PSoC6\pdl\middleware\usb_dev/cy_usb_dev_cdc.c ****                                                    0U, timeout, context->devContext);
 621:Generated_Source\PSoC6\pdl\middleware\usb_dev/cy_usb_dev_cdc.c ****         }
 622:Generated_Source\PSoC6\pdl\middleware\usb_dev/cy_usb_dev_cdc.c ****     }
 623:Generated_Source\PSoC6\pdl\middleware\usb_dev/cy_usb_dev_cdc.c **** 
 624:Generated_Source\PSoC6\pdl\middleware\usb_dev/cy_usb_dev_cdc.c ****     return retStatus;
 625:Generated_Source\PSoC6\pdl\middleware\usb_dev/cy_usb_dev_cdc.c **** }
 626:Generated_Source\PSoC6\pdl\middleware\usb_dev/cy_usb_dev_cdc.c **** 
 627:Generated_Source\PSoC6\pdl\middleware\usb_dev/cy_usb_dev_cdc.c **** 
 628:Generated_Source\PSoC6\pdl\middleware\usb_dev/cy_usb_dev_cdc.c **** /*******************************************************************************
 629:Generated_Source\PSoC6\pdl\middleware\usb_dev/cy_usb_dev_cdc.c **** * Function Name: Cy_USB_Dev_CDC_GetCount
 630:Generated_Source\PSoC6\pdl\middleware\usb_dev/cy_usb_dev_cdc.c **** ****************************************************************************//**
 631:Generated_Source\PSoC6\pdl\middleware\usb_dev/cy_usb_dev_cdc.c **** *
 632:Generated_Source\PSoC6\pdl\middleware\usb_dev/cy_usb_dev_cdc.c **** * Returns the number of bytes that were received from the USB Host and can be 
 633:Generated_Source\PSoC6\pdl\middleware\usb_dev/cy_usb_dev_cdc.c **** * read using \ref Cy_USB_Dev_CDC_GetData or \ref Cy_USB_Dev_CDC_GetChar 
 634:Generated_Source\PSoC6\pdl\middleware\usb_dev/cy_usb_dev_cdc.c **** * functions. 
 635:Generated_Source\PSoC6\pdl\middleware\usb_dev/cy_usb_dev_cdc.c **** *
 636:Generated_Source\PSoC6\pdl\middleware\usb_dev/cy_usb_dev_cdc.c **** * \param port
 637:Generated_Source\PSoC6\pdl\middleware\usb_dev/cy_usb_dev_cdc.c **** * COM port number. Valid ports are 0 and 1.
 638:Generated_Source\PSoC6\pdl\middleware\usb_dev/cy_usb_dev_cdc.c **** *
 639:Generated_Source\PSoC6\pdl\middleware\usb_dev/cy_usb_dev_cdc.c **** * \param context
 640:Generated_Source\PSoC6\pdl\middleware\usb_dev/cy_usb_dev_cdc.c **** * The pointer to the context structure \ref cy_stc_usb_dev_cdc_context_t 
 641:Generated_Source\PSoC6\pdl\middleware\usb_dev/cy_usb_dev_cdc.c **** * allocated by the user. The structure is used during the CDC Class operation  
 642:Generated_Source\PSoC6\pdl\middleware\usb_dev/cy_usb_dev_cdc.c **** * for internal configuration and data retention. The user must not modify 
 643:Generated_Source\PSoC6\pdl\middleware\usb_dev/cy_usb_dev_cdc.c **** * anything in this structure.
 644:Generated_Source\PSoC6\pdl\middleware\usb_dev/cy_usb_dev_cdc.c **** *
 645:Generated_Source\PSoC6\pdl\middleware\usb_dev/cy_usb_dev_cdc.c **** * \return
 646:Generated_Source\PSoC6\pdl\middleware\usb_dev/cy_usb_dev_cdc.c **** * Returns the number of bytes that were received.
 647:Generated_Source\PSoC6\pdl\middleware\usb_dev/cy_usb_dev_cdc.c **** *
 648:Generated_Source\PSoC6\pdl\middleware\usb_dev/cy_usb_dev_cdc.c **** *******************************************************************************/
 649:Generated_Source\PSoC6\pdl\middleware\usb_dev/cy_usb_dev_cdc.c **** uint32_t Cy_USB_Dev_CDC_GetCount(uint32_t port, cy_stc_usb_dev_cdc_context_t *context)
 650:Generated_Source\PSoC6\pdl\middleware\usb_dev/cy_usb_dev_cdc.c **** {
 651:Generated_Source\PSoC6\pdl\middleware\usb_dev/cy_usb_dev_cdc.c ****     CY_ASSERT_L1(IS_COM_VALID(port));
 652:Generated_Source\PSoC6\pdl\middleware\usb_dev/cy_usb_dev_cdc.c **** 
 653:Generated_Source\PSoC6\pdl\middleware\usb_dev/cy_usb_dev_cdc.c ****     uint32_t count = 0U;
 654:Generated_Source\PSoC6\pdl\middleware\usb_dev/cy_usb_dev_cdc.c ****     cy_stc_usb_dev_cdc_comport_t *com = GetCom(port, context);
 655:Generated_Source\PSoC6\pdl\middleware\usb_dev/cy_usb_dev_cdc.c ****     
 656:Generated_Source\PSoC6\pdl\middleware\usb_dev/cy_usb_dev_cdc.c ****     if (com->valid)
 657:Generated_Source\PSoC6\pdl\middleware\usb_dev/cy_usb_dev_cdc.c ****     {
 658:Generated_Source\PSoC6\pdl\middleware\usb_dev/cy_usb_dev_cdc.c ****         /* Read number of bytes in local buffer */
 659:Generated_Source\PSoC6\pdl\middleware\usb_dev/cy_usb_dev_cdc.c ****         count = com->writeBufIdx;
 660:Generated_Source\PSoC6\pdl\middleware\usb_dev/cy_usb_dev_cdc.c **** 
 661:Generated_Source\PSoC6\pdl\middleware\usb_dev/cy_usb_dev_cdc.c ****         /* Local buffer is empty. Check if there is data in the endpoint buffer */
 662:Generated_Source\PSoC6\pdl\middleware\usb_dev/cy_usb_dev_cdc.c ****         if (0U == count)
 663:Generated_Source\PSoC6\pdl\middleware\usb_dev/cy_usb_dev_cdc.c ****         {
 664:Generated_Source\PSoC6\pdl\middleware\usb_dev/cy_usb_dev_cdc.c ****             if (IsEndpointReady((uint32_t) com->dataOutEp, context->devContext))
 665:Generated_Source\PSoC6\pdl\middleware\usb_dev/cy_usb_dev_cdc.c ****             {
ARM GAS  C:\Users\enes_\AppData\Local\Temp\ccL38cFe.s 			page 17


 666:Generated_Source\PSoC6\pdl\middleware\usb_dev/cy_usb_dev_cdc.c ****                 /* Update count if Host wrote anything into the endpoint */
 667:Generated_Source\PSoC6\pdl\middleware\usb_dev/cy_usb_dev_cdc.c ****                 count = Cy_USB_Dev_GetEpNumToRead((uint32_t) com->dataOutEp, context->devContext);
 668:Generated_Source\PSoC6\pdl\middleware\usb_dev/cy_usb_dev_cdc.c ****             }
 669:Generated_Source\PSoC6\pdl\middleware\usb_dev/cy_usb_dev_cdc.c ****         }
 670:Generated_Source\PSoC6\pdl\middleware\usb_dev/cy_usb_dev_cdc.c ****     }
 671:Generated_Source\PSoC6\pdl\middleware\usb_dev/cy_usb_dev_cdc.c **** 
 672:Generated_Source\PSoC6\pdl\middleware\usb_dev/cy_usb_dev_cdc.c ****     return count;
 673:Generated_Source\PSoC6\pdl\middleware\usb_dev/cy_usb_dev_cdc.c **** }
 674:Generated_Source\PSoC6\pdl\middleware\usb_dev/cy_usb_dev_cdc.c **** 
 675:Generated_Source\PSoC6\pdl\middleware\usb_dev/cy_usb_dev_cdc.c **** 
 676:Generated_Source\PSoC6\pdl\middleware\usb_dev/cy_usb_dev_cdc.c **** /*******************************************************************************
 677:Generated_Source\PSoC6\pdl\middleware\usb_dev/cy_usb_dev_cdc.c **** * Function Name: GetCom
 678:Generated_Source\PSoC6\pdl\middleware\usb_dev/cy_usb_dev_cdc.c **** ****************************************************************************//**
 679:Generated_Source\PSoC6\pdl\middleware\usb_dev/cy_usb_dev_cdc.c **** *
 680:Generated_Source\PSoC6\pdl\middleware\usb_dev/cy_usb_dev_cdc.c **** * Returns pointer to port structure \ref cy_stc_usb_dev_cdc_comport_t 
 681:Generated_Source\PSoC6\pdl\middleware\usb_dev/cy_usb_dev_cdc.c **** *
 682:Generated_Source\PSoC6\pdl\middleware\usb_dev/cy_usb_dev_cdc.c **** * \param port
 683:Generated_Source\PSoC6\pdl\middleware\usb_dev/cy_usb_dev_cdc.c **** * COM port number. Valid ports are 0 and 1.
 684:Generated_Source\PSoC6\pdl\middleware\usb_dev/cy_usb_dev_cdc.c **** *
 685:Generated_Source\PSoC6\pdl\middleware\usb_dev/cy_usb_dev_cdc.c **** * \param context
 686:Generated_Source\PSoC6\pdl\middleware\usb_dev/cy_usb_dev_cdc.c **** * The pointer to the context structure \ref cy_stc_usb_dev_cdc_context_t 
 687:Generated_Source\PSoC6\pdl\middleware\usb_dev/cy_usb_dev_cdc.c **** * allocated by the user. The structure is used during the CDC Class operation  
 688:Generated_Source\PSoC6\pdl\middleware\usb_dev/cy_usb_dev_cdc.c **** * for internal configuration and data retention. The user must not modify 
 689:Generated_Source\PSoC6\pdl\middleware\usb_dev/cy_usb_dev_cdc.c **** * anything in this structure.
 690:Generated_Source\PSoC6\pdl\middleware\usb_dev/cy_usb_dev_cdc.c **** *
 691:Generated_Source\PSoC6\pdl\middleware\usb_dev/cy_usb_dev_cdc.c **** * \return
 692:Generated_Source\PSoC6\pdl\middleware\usb_dev/cy_usb_dev_cdc.c **** * Pointer to port structure \ref cy_stc_usb_dev_cdc_comport_t
 693:Generated_Source\PSoC6\pdl\middleware\usb_dev/cy_usb_dev_cdc.c **** *
 694:Generated_Source\PSoC6\pdl\middleware\usb_dev/cy_usb_dev_cdc.c **** *******************************************************************************/
 695:Generated_Source\PSoC6\pdl\middleware\usb_dev/cy_usb_dev_cdc.c **** static cy_stc_usb_dev_cdc_comport_t* GetCom(uint32_t port, cy_stc_usb_dev_cdc_context_t *context)
 696:Generated_Source\PSoC6\pdl\middleware\usb_dev/cy_usb_dev_cdc.c **** {
 226              		.loc 1 696 0
 227              		.cfi_startproc
 228              		@ args = 0, pretend = 0, frame = 0
 229              		@ frame_needed = 0, uses_anonymous_args = 0
 230              		@ link register save eliminated.
 231              	.LVL33:
 697:Generated_Source\PSoC6\pdl\middleware\usb_dev/cy_usb_dev_cdc.c ****     return &context->port[port];
 232              		.loc 1 697 0
 233 0000 C200     		lsls	r2, r0, #3
 234 0002 121A     		subs	r2, r2, r0
 235 0004 D300     		lsls	r3, r2, #3
 236 0006 C818     		adds	r0, r1, r3
 237              	.LVL34:
 698:Generated_Source\PSoC6\pdl\middleware\usb_dev/cy_usb_dev_cdc.c **** }
 238              		.loc 1 698 0
 239              		@ sp needed
 240 0008 7047     		bx	lr
 241              		.cfi_endproc
 242              	.LFE205:
 243              		.size	GetCom, .-GetCom
 244              		.section	.text.HandleRequestComplete,"ax",%progbits
 245              		.align	2
 246              		.code	16
 247              		.thumb_func
 248              		.type	HandleRequestComplete, %function
 249              	HandleRequestComplete:
ARM GAS  C:\Users\enes_\AppData\Local\Temp\ccL38cFe.s 			page 18


 250              	.LFB200:
 412:Generated_Source\PSoC6\pdl\middleware\usb_dev/cy_usb_dev_cdc.c ****     cy_en_usb_dev_status_t retStatus = CY_USB_DEV_REQUEST_NOT_HANDLED;
 251              		.loc 1 412 0
 252              		.cfi_startproc
 253              		@ args = 0, pretend = 0, frame = 0
 254              		@ frame_needed = 0, uses_anonymous_args = 0
 255              	.LVL35:
 256 0000 F8B5     		push	{r3, r4, r5, r6, r7, lr}
 257              		.cfi_def_cfa_offset 24
 258              		.cfi_offset 3, -24
 259              		.cfi_offset 4, -20
 260              		.cfi_offset 5, -16
 261              		.cfi_offset 6, -12
 262              		.cfi_offset 7, -8
 263              		.cfi_offset 14, -4
 264 0002 0400     		movs	r4, r0
 265 0004 0D00     		movs	r5, r1
 266 0006 1600     		movs	r6, r2
 267              	.LVL36:
 416:Generated_Source\PSoC6\pdl\middleware\usb_dev/cy_usb_dev_cdc.c ****     {
 268              		.loc 1 416 0
 269 0008 4378     		ldrb	r3, [r0, #1]
 270 000a 012B     		cmp	r3, #1
 271 000c 2AD1     		bne	.L22
 272              	.LVL37:
 273              	.LBB22:
 420:Generated_Source\PSoC6\pdl\middleware\usb_dev/cy_usb_dev_cdc.c **** 
 274              		.loc 1 420 0
 275 000e C088     		ldrh	r0, [r0, #6]
 276              	.LVL38:
 277 0010 FFF7FEFF 		bl	GetInterfaceComPort
 278              	.LVL39:
 279 0014 0700     		movs	r7, r0
 280              	.LVL40:
 422:Generated_Source\PSoC6\pdl\middleware\usb_dev/cy_usb_dev_cdc.c ****         {
 281              		.loc 1 422 0
 282 0016 0228     		cmp	r0, #2
 283 0018 26D8     		bhi	.L23
 424:Generated_Source\PSoC6\pdl\middleware\usb_dev/cy_usb_dev_cdc.c ****             {   
 284              		.loc 1 424 0
 285 001a E378     		ldrb	r3, [r4, #3]
 286 001c 202B     		cmp	r3, #32
 287 001e 18D1     		bne	.L25
 429:Generated_Source\PSoC6\pdl\middleware\usb_dev/cy_usb_dev_cdc.c ****                     
 288              		.loc 1 429 0
 289 0020 C600     		lsls	r6, r0, #3
 290              	.LVL41:
 291 0022 321A     		subs	r2, r6, r0
 292 0024 D300     		lsls	r3, r2, #3
 293 0026 1833     		adds	r3, r3, #24
 294 0028 EB18     		adds	r3, r5, r3
 295 002a 181D     		adds	r0, r3, #4
 296              	.LVL42:
 297 002c E168     		ldr	r1, [r4, #12]
 298 002e 0722     		movs	r2, #7
 299 0030 FFF7FEFF 		bl	memcpy
 300              	.LVL43:
ARM GAS  C:\Users\enes_\AppData\Local\Temp\ccL38cFe.s 			page 19


 431:Generated_Source\PSoC6\pdl\middleware\usb_dev/cy_usb_dev_cdc.c ****                     
 301              		.loc 1 431 0
 302 0034 F21B     		subs	r2, r6, r7
 303 0036 D300     		lsls	r3, r2, #3
 304 0038 EB18     		adds	r3, r5, r3
 305 003a 2333     		adds	r3, r3, #35
 306 003c 1A78     		ldrb	r2, [r3]
 307 003e 0123     		movs	r3, #1
 308 0040 1A43     		orrs	r2, r3
 309 0042 D2B2     		uxtb	r2, r2
 310 0044 F71B     		subs	r7, r6, r7
 311              	.LVL44:
 312 0046 FB00     		lsls	r3, r7, #3
 313 0048 ED18     		adds	r5, r5, r3
 314              	.LVL45:
 315 004a 2335     		adds	r5, r5, #35
 316 004c 2A70     		strb	r2, [r5]
 317              	.LVL46:
 433:Generated_Source\PSoC6\pdl\middleware\usb_dev/cy_usb_dev_cdc.c ****                 }
 318              		.loc 1 433 0
 319 004e 0020     		movs	r0, #0
 435:Generated_Source\PSoC6\pdl\middleware\usb_dev/cy_usb_dev_cdc.c **** 
 320              		.loc 1 435 0
 321 0050 0DE0     		b	.L19
 322              	.LVL47:
 323              	.L25:
 440:Generated_Source\PSoC6\pdl\middleware\usb_dev/cy_usb_dev_cdc.c ****                     {
 324              		.loc 1 440 0
 325 0052 9823     		movs	r3, #152
 326 0054 EB58     		ldr	r3, [r5, r3]
 327 0056 002B     		cmp	r3, #0
 328 0058 08D0     		beq	.L24
 442:Generated_Source\PSoC6\pdl\middleware\usb_dev/cy_usb_dev_cdc.c ****                     }     
 329              		.loc 1 442 0
 330 005a 3200     		movs	r2, r6
 331 005c 2900     		movs	r1, r5
 332 005e 2000     		movs	r0, r4
 333              	.LVL48:
 334 0060 9847     		blx	r3
 335              	.LVL49:
 336 0062 04E0     		b	.L19
 337              	.LVL50:
 338              	.L22:
 339              	.LBE22:
 413:Generated_Source\PSoC6\pdl\middleware\usb_dev/cy_usb_dev_cdc.c ****    
 340              		.loc 1 413 0
 341 0064 0248     		ldr	r0, .L26
 342              	.LVL51:
 343 0066 02E0     		b	.L19
 344              	.LVL52:
 345              	.L23:
 346 0068 0148     		ldr	r0, .L26
 347              	.LVL53:
 348 006a 00E0     		b	.L19
 349              	.LVL54:
 350              	.L24:
 351 006c 0048     		ldr	r0, .L26
ARM GAS  C:\Users\enes_\AppData\Local\Temp\ccL38cFe.s 			page 20


 352              	.LVL55:
 353              	.L19:
 451:Generated_Source\PSoC6\pdl\middleware\usb_dev/cy_usb_dev_cdc.c **** 
 354              		.loc 1 451 0
 355              		@ sp needed
 356              	.LVL56:
 357 006e F8BD     		pop	{r3, r4, r5, r6, r7, pc}
 358              	.L27:
 359              		.align	2
 360              	.L26:
 361 0070 02002200 		.word	2228226
 362              		.cfi_endproc
 363              	.LFE200:
 364              		.size	HandleRequestComplete, .-HandleRequestComplete
 365              		.section	.text.ReadInternalBuffer,"ax",%progbits
 366              		.align	2
 367              		.code	16
 368              		.thumb_func
 369              		.type	ReadInternalBuffer, %function
 370              	ReadInternalBuffer:
 371              	.LFB209:
 699:Generated_Source\PSoC6\pdl\middleware\usb_dev/cy_usb_dev_cdc.c **** 
 700:Generated_Source\PSoC6\pdl\middleware\usb_dev/cy_usb_dev_cdc.c **** 
 701:Generated_Source\PSoC6\pdl\middleware\usb_dev/cy_usb_dev_cdc.c **** /*******************************************************************************
 702:Generated_Source\PSoC6\pdl\middleware\usb_dev/cy_usb_dev_cdc.c **** * Function Name: IsEndpointReady
 703:Generated_Source\PSoC6\pdl\middleware\usb_dev/cy_usb_dev_cdc.c **** ****************************************************************************//**
 704:Generated_Source\PSoC6\pdl\middleware\usb_dev/cy_usb_dev_cdc.c **** *
 705:Generated_Source\PSoC6\pdl\middleware\usb_dev/cy_usb_dev_cdc.c **** * Check if endpoint state is IDLE or COMPLETED.
 706:Generated_Source\PSoC6\pdl\middleware\usb_dev/cy_usb_dev_cdc.c **** *
 707:Generated_Source\PSoC6\pdl\middleware\usb_dev/cy_usb_dev_cdc.c **** * \param endpoint
 708:Generated_Source\PSoC6\pdl\middleware\usb_dev/cy_usb_dev_cdc.c **** * The endpoint number.
 709:Generated_Source\PSoC6\pdl\middleware\usb_dev/cy_usb_dev_cdc.c **** *
 710:Generated_Source\PSoC6\pdl\middleware\usb_dev/cy_usb_dev_cdc.c **** * \param context
 711:Generated_Source\PSoC6\pdl\middleware\usb_dev/cy_usb_dev_cdc.c **** * The pointer to the context structure \ref cy_stc_usb_dev_cdc_context_t 
 712:Generated_Source\PSoC6\pdl\middleware\usb_dev/cy_usb_dev_cdc.c **** * allocated by the user. The structure is used during the CDC Class operation  
 713:Generated_Source\PSoC6\pdl\middleware\usb_dev/cy_usb_dev_cdc.c **** * for internal configuration and data retention. The user must not modify 
 714:Generated_Source\PSoC6\pdl\middleware\usb_dev/cy_usb_dev_cdc.c **** * anything in this structure.
 715:Generated_Source\PSoC6\pdl\middleware\usb_dev/cy_usb_dev_cdc.c **** *
 716:Generated_Source\PSoC6\pdl\middleware\usb_dev/cy_usb_dev_cdc.c **** * \return
 717:Generated_Source\PSoC6\pdl\middleware\usb_dev/cy_usb_dev_cdc.c **** * True - endpoint is ready. False - endpoint is not ready.
 718:Generated_Source\PSoC6\pdl\middleware\usb_dev/cy_usb_dev_cdc.c **** *
 719:Generated_Source\PSoC6\pdl\middleware\usb_dev/cy_usb_dev_cdc.c **** *******************************************************************************/
 720:Generated_Source\PSoC6\pdl\middleware\usb_dev/cy_usb_dev_cdc.c **** static bool IsEndpointReady(uint32_t endpoint, cy_stc_usb_dev_context_t const *context)
 721:Generated_Source\PSoC6\pdl\middleware\usb_dev/cy_usb_dev_cdc.c **** { 
 722:Generated_Source\PSoC6\pdl\middleware\usb_dev/cy_usb_dev_cdc.c ****     cy_en_usb_dev_ep_state_t epState;
 723:Generated_Source\PSoC6\pdl\middleware\usb_dev/cy_usb_dev_cdc.c **** 
 724:Generated_Source\PSoC6\pdl\middleware\usb_dev/cy_usb_dev_cdc.c ****     epState = Cy_USBFS_Dev_Drv_GetEndpointState(context->drvBase, 
 725:Generated_Source\PSoC6\pdl\middleware\usb_dev/cy_usb_dev_cdc.c ****                                                 endpoint, 
 726:Generated_Source\PSoC6\pdl\middleware\usb_dev/cy_usb_dev_cdc.c ****                                                 context->drvContext);
 727:Generated_Source\PSoC6\pdl\middleware\usb_dev/cy_usb_dev_cdc.c **** 
 728:Generated_Source\PSoC6\pdl\middleware\usb_dev/cy_usb_dev_cdc.c ****     return ((CY_USB_DEV_EP_IDLE == epState) || (CY_USB_DEV_EP_COMPLETED == epState));
 729:Generated_Source\PSoC6\pdl\middleware\usb_dev/cy_usb_dev_cdc.c **** }
 730:Generated_Source\PSoC6\pdl\middleware\usb_dev/cy_usb_dev_cdc.c **** 
 731:Generated_Source\PSoC6\pdl\middleware\usb_dev/cy_usb_dev_cdc.c **** 
 732:Generated_Source\PSoC6\pdl\middleware\usb_dev/cy_usb_dev_cdc.c **** /*******************************************************************************
 733:Generated_Source\PSoC6\pdl\middleware\usb_dev/cy_usb_dev_cdc.c **** * Function Name: Cy_USB_Dev_CDC_IsDataReady
 734:Generated_Source\PSoC6\pdl\middleware\usb_dev/cy_usb_dev_cdc.c **** ****************************************************************************//**
ARM GAS  C:\Users\enes_\AppData\Local\Temp\ccL38cFe.s 			page 21


 735:Generated_Source\PSoC6\pdl\middleware\usb_dev/cy_usb_dev_cdc.c **** *
 736:Generated_Source\PSoC6\pdl\middleware\usb_dev/cy_usb_dev_cdc.c **** * Returns status if the COM port (CDC Data interface) received data from the 
 737:Generated_Source\PSoC6\pdl\middleware\usb_dev/cy_usb_dev_cdc.c **** * USB Host (including zero-length packet).
 738:Generated_Source\PSoC6\pdl\middleware\usb_dev/cy_usb_dev_cdc.c **** *
 739:Generated_Source\PSoC6\pdl\middleware\usb_dev/cy_usb_dev_cdc.c **** * \param port
 740:Generated_Source\PSoC6\pdl\middleware\usb_dev/cy_usb_dev_cdc.c **** * COM port number. Valid ports are 0 and 1.
 741:Generated_Source\PSoC6\pdl\middleware\usb_dev/cy_usb_dev_cdc.c **** *
 742:Generated_Source\PSoC6\pdl\middleware\usb_dev/cy_usb_dev_cdc.c **** * \param context
 743:Generated_Source\PSoC6\pdl\middleware\usb_dev/cy_usb_dev_cdc.c **** * The pointer to the context structure \ref cy_stc_usb_dev_cdc_context_t 
 744:Generated_Source\PSoC6\pdl\middleware\usb_dev/cy_usb_dev_cdc.c **** * allocated by the user. The structure is used during the CDC Class operation  
 745:Generated_Source\PSoC6\pdl\middleware\usb_dev/cy_usb_dev_cdc.c **** * for internal configuration and data retention. The user must not modify 
 746:Generated_Source\PSoC6\pdl\middleware\usb_dev/cy_usb_dev_cdc.c **** * anything in this structure.
 747:Generated_Source\PSoC6\pdl\middleware\usb_dev/cy_usb_dev_cdc.c **** *
 748:Generated_Source\PSoC6\pdl\middleware\usb_dev/cy_usb_dev_cdc.c **** * \return
 749:Generated_Source\PSoC6\pdl\middleware\usb_dev/cy_usb_dev_cdc.c **** * * True - the COM port (CDC Data interface) received data from the USB Host. 
 750:Generated_Source\PSoC6\pdl\middleware\usb_dev/cy_usb_dev_cdc.c **** * * False - the COM port (CDC Data interface) is waiting for data from the 
 751:Generated_Source\PSoC6\pdl\middleware\usb_dev/cy_usb_dev_cdc.c **** *           USB Host.
 752:Generated_Source\PSoC6\pdl\middleware\usb_dev/cy_usb_dev_cdc.c **** *
 753:Generated_Source\PSoC6\pdl\middleware\usb_dev/cy_usb_dev_cdc.c **** *******************************************************************************/
 754:Generated_Source\PSoC6\pdl\middleware\usb_dev/cy_usb_dev_cdc.c **** bool Cy_USB_Dev_CDC_IsDataReady(uint32_t port, cy_stc_usb_dev_cdc_context_t *context)
 755:Generated_Source\PSoC6\pdl\middleware\usb_dev/cy_usb_dev_cdc.c **** {
 756:Generated_Source\PSoC6\pdl\middleware\usb_dev/cy_usb_dev_cdc.c ****     CY_ASSERT_L1(IS_COM_VALID(port));
 757:Generated_Source\PSoC6\pdl\middleware\usb_dev/cy_usb_dev_cdc.c **** 
 758:Generated_Source\PSoC6\pdl\middleware\usb_dev/cy_usb_dev_cdc.c ****     bool retStatus = false;
 759:Generated_Source\PSoC6\pdl\middleware\usb_dev/cy_usb_dev_cdc.c ****     cy_stc_usb_dev_cdc_comport_t* com = GetCom(port, context);
 760:Generated_Source\PSoC6\pdl\middleware\usb_dev/cy_usb_dev_cdc.c ****     
 761:Generated_Source\PSoC6\pdl\middleware\usb_dev/cy_usb_dev_cdc.c ****     if (com->valid)
 762:Generated_Source\PSoC6\pdl\middleware\usb_dev/cy_usb_dev_cdc.c ****     {
 763:Generated_Source\PSoC6\pdl\middleware\usb_dev/cy_usb_dev_cdc.c ****         retStatus = IsEndpointReady((uint32_t) com->dataOutEp, context->devContext);
 764:Generated_Source\PSoC6\pdl\middleware\usb_dev/cy_usb_dev_cdc.c ****     }
 765:Generated_Source\PSoC6\pdl\middleware\usb_dev/cy_usb_dev_cdc.c **** 
 766:Generated_Source\PSoC6\pdl\middleware\usb_dev/cy_usb_dev_cdc.c ****     return retStatus;
 767:Generated_Source\PSoC6\pdl\middleware\usb_dev/cy_usb_dev_cdc.c **** }
 768:Generated_Source\PSoC6\pdl\middleware\usb_dev/cy_usb_dev_cdc.c **** 
 769:Generated_Source\PSoC6\pdl\middleware\usb_dev/cy_usb_dev_cdc.c **** 
 770:Generated_Source\PSoC6\pdl\middleware\usb_dev/cy_usb_dev_cdc.c **** /*******************************************************************************
 771:Generated_Source\PSoC6\pdl\middleware\usb_dev/cy_usb_dev_cdc.c **** * Function Name: Cy_USB_Dev_CDC_IsReady
 772:Generated_Source\PSoC6\pdl\middleware\usb_dev/cy_usb_dev_cdc.c **** ****************************************************************************//**
 773:Generated_Source\PSoC6\pdl\middleware\usb_dev/cy_usb_dev_cdc.c **** *
 774:Generated_Source\PSoC6\pdl\middleware\usb_dev/cy_usb_dev_cdc.c **** * Returns status if the COM port (CDC Data interface) is ready for sending 
 775:Generated_Source\PSoC6\pdl\middleware\usb_dev/cy_usb_dev_cdc.c **** * new data.
 776:Generated_Source\PSoC6\pdl\middleware\usb_dev/cy_usb_dev_cdc.c **** *
 777:Generated_Source\PSoC6\pdl\middleware\usb_dev/cy_usb_dev_cdc.c **** * \param port
 778:Generated_Source\PSoC6\pdl\middleware\usb_dev/cy_usb_dev_cdc.c **** * COM port number. Valid ports are 0 and 1.
 779:Generated_Source\PSoC6\pdl\middleware\usb_dev/cy_usb_dev_cdc.c **** *
 780:Generated_Source\PSoC6\pdl\middleware\usb_dev/cy_usb_dev_cdc.c **** * \param context
 781:Generated_Source\PSoC6\pdl\middleware\usb_dev/cy_usb_dev_cdc.c **** * The pointer to the context structure \ref cy_stc_usb_dev_cdc_context_t 
 782:Generated_Source\PSoC6\pdl\middleware\usb_dev/cy_usb_dev_cdc.c **** * allocated by the user. The structure is used during the CDC Class operation  
 783:Generated_Source\PSoC6\pdl\middleware\usb_dev/cy_usb_dev_cdc.c **** * for internal configuration and data retention. The user must not modify 
 784:Generated_Source\PSoC6\pdl\middleware\usb_dev/cy_usb_dev_cdc.c **** * anything in this structure.
 785:Generated_Source\PSoC6\pdl\middleware\usb_dev/cy_usb_dev_cdc.c **** *
 786:Generated_Source\PSoC6\pdl\middleware\usb_dev/cy_usb_dev_cdc.c **** * \return
 787:Generated_Source\PSoC6\pdl\middleware\usb_dev/cy_usb_dev_cdc.c **** * * True - the COM port (CDC Data interface) is ready for sending new data. 
 788:Generated_Source\PSoC6\pdl\middleware\usb_dev/cy_usb_dev_cdc.c **** * * False - the COM port (CDC Data interface) is waiting for the USB Host to 
 789:Generated_Source\PSoC6\pdl\middleware\usb_dev/cy_usb_dev_cdc.c **** *           read previous data.
 790:Generated_Source\PSoC6\pdl\middleware\usb_dev/cy_usb_dev_cdc.c **** *
 791:Generated_Source\PSoC6\pdl\middleware\usb_dev/cy_usb_dev_cdc.c **** *******************************************************************************/
ARM GAS  C:\Users\enes_\AppData\Local\Temp\ccL38cFe.s 			page 22


 792:Generated_Source\PSoC6\pdl\middleware\usb_dev/cy_usb_dev_cdc.c **** bool Cy_USB_Dev_CDC_IsReady(uint32_t port, cy_stc_usb_dev_cdc_context_t *context)
 793:Generated_Source\PSoC6\pdl\middleware\usb_dev/cy_usb_dev_cdc.c **** {
 794:Generated_Source\PSoC6\pdl\middleware\usb_dev/cy_usb_dev_cdc.c ****     CY_ASSERT_L1(IS_COM_VALID(port));
 795:Generated_Source\PSoC6\pdl\middleware\usb_dev/cy_usb_dev_cdc.c **** 
 796:Generated_Source\PSoC6\pdl\middleware\usb_dev/cy_usb_dev_cdc.c ****     bool retStatus = false;
 797:Generated_Source\PSoC6\pdl\middleware\usb_dev/cy_usb_dev_cdc.c ****     cy_stc_usb_dev_cdc_comport_t* com = GetCom(port, context);
 798:Generated_Source\PSoC6\pdl\middleware\usb_dev/cy_usb_dev_cdc.c **** 
 799:Generated_Source\PSoC6\pdl\middleware\usb_dev/cy_usb_dev_cdc.c ****     if (com->valid)
 800:Generated_Source\PSoC6\pdl\middleware\usb_dev/cy_usb_dev_cdc.c ****     {
 801:Generated_Source\PSoC6\pdl\middleware\usb_dev/cy_usb_dev_cdc.c ****         retStatus = IsEndpointReady((uint32_t) com->dataInEp, context->devContext);
 802:Generated_Source\PSoC6\pdl\middleware\usb_dev/cy_usb_dev_cdc.c ****     }
 803:Generated_Source\PSoC6\pdl\middleware\usb_dev/cy_usb_dev_cdc.c **** 
 804:Generated_Source\PSoC6\pdl\middleware\usb_dev/cy_usb_dev_cdc.c ****     return retStatus;
 805:Generated_Source\PSoC6\pdl\middleware\usb_dev/cy_usb_dev_cdc.c **** }
 806:Generated_Source\PSoC6\pdl\middleware\usb_dev/cy_usb_dev_cdc.c **** 
 807:Generated_Source\PSoC6\pdl\middleware\usb_dev/cy_usb_dev_cdc.c **** 
 808:Generated_Source\PSoC6\pdl\middleware\usb_dev/cy_usb_dev_cdc.c **** /*******************************************************************************
 809:Generated_Source\PSoC6\pdl\middleware\usb_dev/cy_usb_dev_cdc.c **** * Function Name: ReadInternalBuffer
 810:Generated_Source\PSoC6\pdl\middleware\usb_dev/cy_usb_dev_cdc.c **** ****************************************************************************//**
 811:Generated_Source\PSoC6\pdl\middleware\usb_dev/cy_usb_dev_cdc.c **** *
 812:Generated_Source\PSoC6\pdl\middleware\usb_dev/cy_usb_dev_cdc.c **** * Internal function used for copy data from internal buffer
 813:Generated_Source\PSoC6\pdl\middleware\usb_dev/cy_usb_dev_cdc.c **** *
 814:Generated_Source\PSoC6\pdl\middleware\usb_dev/cy_usb_dev_cdc.c **** * \param port
 815:Generated_Source\PSoC6\pdl\middleware\usb_dev/cy_usb_dev_cdc.c **** * Pointer to the port structure.
 816:Generated_Source\PSoC6\pdl\middleware\usb_dev/cy_usb_dev_cdc.c **** *
 817:Generated_Source\PSoC6\pdl\middleware\usb_dev/cy_usb_dev_cdc.c **** * \param buffer
 818:Generated_Source\PSoC6\pdl\middleware\usb_dev/cy_usb_dev_cdc.c **** * Pointer to the data array where data will be placed.
 819:Generated_Source\PSoC6\pdl\middleware\usb_dev/cy_usb_dev_cdc.c **** *
 820:Generated_Source\PSoC6\pdl\middleware\usb_dev/cy_usb_dev_cdc.c **** * \param size
 821:Generated_Source\PSoC6\pdl\middleware\usb_dev/cy_usb_dev_cdc.c **** * Number of bytes to read into the data array from the RX buffer. The maximum
 822:Generated_Source\PSoC6\pdl\middleware\usb_dev/cy_usb_dev_cdc.c **** * length is limited by the number of received bytes.
 823:Generated_Source\PSoC6\pdl\middleware\usb_dev/cy_usb_dev_cdc.c **** *
 824:Generated_Source\PSoC6\pdl\middleware\usb_dev/cy_usb_dev_cdc.c **** * \return
 825:Generated_Source\PSoC6\pdl\middleware\usb_dev/cy_usb_dev_cdc.c **** * Number of copied bytes.
 826:Generated_Source\PSoC6\pdl\middleware\usb_dev/cy_usb_dev_cdc.c **** *
 827:Generated_Source\PSoC6\pdl\middleware\usb_dev/cy_usb_dev_cdc.c **** *******************************************************************************/
 828:Generated_Source\PSoC6\pdl\middleware\usb_dev/cy_usb_dev_cdc.c **** static uint32_t ReadInternalBuffer(cy_stc_usb_dev_cdc_comport_t* port, uint8_t *buffer, 
 829:Generated_Source\PSoC6\pdl\middleware\usb_dev/cy_usb_dev_cdc.c ****                          uint32_t size)
 830:Generated_Source\PSoC6\pdl\middleware\usb_dev/cy_usb_dev_cdc.c **** {
 372              		.loc 1 830 0
 373              		.cfi_startproc
 374              		@ args = 0, pretend = 0, frame = 0
 375              		@ frame_needed = 0, uses_anonymous_args = 0
 376              	.LVL57:
 377 0000 70B5     		push	{r4, r5, r6, lr}
 378              		.cfi_def_cfa_offset 16
 379              		.cfi_offset 4, -16
 380              		.cfi_offset 5, -12
 381              		.cfi_offset 6, -8
 382              		.cfi_offset 14, -4
 383 0002 0400     		movs	r4, r0
 384 0004 0800     		movs	r0, r1
 385              	.LVL58:
 831:Generated_Source\PSoC6\pdl\middleware\usb_dev/cy_usb_dev_cdc.c ****     uint32_t numBytes = port->writeBufIdx;
 386              		.loc 1 831 0
 387 0006 E668     		ldr	r6, [r4, #12]
 388              	.LVL59:
ARM GAS  C:\Users\enes_\AppData\Local\Temp\ccL38cFe.s 			page 23


 832:Generated_Source\PSoC6\pdl\middleware\usb_dev/cy_usb_dev_cdc.c ****     uint32_t idx = port->readBufIdx;
 389              		.loc 1 832 0
 390 0008 2169     		ldr	r1, [r4, #16]
 391              	.LVL60:
 833:Generated_Source\PSoC6\pdl\middleware\usb_dev/cy_usb_dev_cdc.c ****     uint32_t numToCopy = (size > numBytes) ? numBytes : size;
 392              		.loc 1 833 0
 393 000a 3500     		movs	r5, r6
 394 000c 9642     		cmp	r6, r2
 395 000e 00D9     		bls	.L29
 396 0010 1500     		movs	r5, r2
 397              	.L29:
 398              	.LVL61:
 834:Generated_Source\PSoC6\pdl\middleware\usb_dev/cy_usb_dev_cdc.c **** 
 835:Generated_Source\PSoC6\pdl\middleware\usb_dev/cy_usb_dev_cdc.c ****     /* Copy data from internal buffer to the user buffer */
 836:Generated_Source\PSoC6\pdl\middleware\usb_dev/cy_usb_dev_cdc.c ****     (void) memcpy(buffer, &port->buffer[idx], numToCopy);
 399              		.loc 1 836 0
 400 0012 6368     		ldr	r3, [r4, #4]
 401 0014 9C46     		mov	ip, r3
 402 0016 6144     		add	r1, r1, ip
 403              	.LVL62:
 404 0018 2A00     		movs	r2, r5
 405              	.LVL63:
 406 001a FFF7FEFF 		bl	memcpy
 407              	.LVL64:
 837:Generated_Source\PSoC6\pdl\middleware\usb_dev/cy_usb_dev_cdc.c ****     numBytes -= numToCopy;
 838:Generated_Source\PSoC6\pdl\middleware\usb_dev/cy_usb_dev_cdc.c ****     
 839:Generated_Source\PSoC6\pdl\middleware\usb_dev/cy_usb_dev_cdc.c ****     /* Adjust buffer pointers */
 840:Generated_Source\PSoC6\pdl\middleware\usb_dev/cy_usb_dev_cdc.c ****     if (0U == numBytes)
 408              		.loc 1 840 0
 409 001e AE42     		cmp	r6, r5
 410 0020 03D1     		bne	.L30
 841:Generated_Source\PSoC6\pdl\middleware\usb_dev/cy_usb_dev_cdc.c ****     {
 842:Generated_Source\PSoC6\pdl\middleware\usb_dev/cy_usb_dev_cdc.c ****         port->readBufIdx  = 0U;
 411              		.loc 1 842 0
 412 0022 0023     		movs	r3, #0
 413 0024 2361     		str	r3, [r4, #16]
 843:Generated_Source\PSoC6\pdl\middleware\usb_dev/cy_usb_dev_cdc.c ****         port->writeBufIdx = 0U;
 414              		.loc 1 843 0
 415 0026 E360     		str	r3, [r4, #12]
 416 0028 05E0     		b	.L31
 417              	.L30:
 844:Generated_Source\PSoC6\pdl\middleware\usb_dev/cy_usb_dev_cdc.c ****     }
 845:Generated_Source\PSoC6\pdl\middleware\usb_dev/cy_usb_dev_cdc.c ****     else
 846:Generated_Source\PSoC6\pdl\middleware\usb_dev/cy_usb_dev_cdc.c ****     {
 847:Generated_Source\PSoC6\pdl\middleware\usb_dev/cy_usb_dev_cdc.c ****         port->readBufIdx  += numToCopy;
 418              		.loc 1 847 0
 419 002a 2369     		ldr	r3, [r4, #16]
 420 002c 5B19     		adds	r3, r3, r5
 421 002e 2361     		str	r3, [r4, #16]
 848:Generated_Source\PSoC6\pdl\middleware\usb_dev/cy_usb_dev_cdc.c ****         port->writeBufIdx -= numToCopy;
 422              		.loc 1 848 0
 423 0030 E368     		ldr	r3, [r4, #12]
 424 0032 5B1B     		subs	r3, r3, r5
 425 0034 E360     		str	r3, [r4, #12]
 426              	.L31:
 849:Generated_Source\PSoC6\pdl\middleware\usb_dev/cy_usb_dev_cdc.c ****     }
 850:Generated_Source\PSoC6\pdl\middleware\usb_dev/cy_usb_dev_cdc.c **** 
ARM GAS  C:\Users\enes_\AppData\Local\Temp\ccL38cFe.s 			page 24


 851:Generated_Source\PSoC6\pdl\middleware\usb_dev/cy_usb_dev_cdc.c ****     return numToCopy;
 852:Generated_Source\PSoC6\pdl\middleware\usb_dev/cy_usb_dev_cdc.c **** }
 427              		.loc 1 852 0
 428 0036 2800     		movs	r0, r5
 429              		@ sp needed
 430              	.LVL65:
 431              	.LVL66:
 432              	.LVL67:
 433 0038 70BD     		pop	{r4, r5, r6, pc}
 434              		.cfi_endproc
 435              	.LFE209:
 436              		.size	ReadInternalBuffer, .-ReadInternalBuffer
 437 003a C046     		.section	.text.HandleSetConfig,"ax",%progbits
 438              		.align	2
 439              		.code	16
 440              		.thumb_func
 441              		.type	HandleSetConfig, %function
 442              	HandleSetConfig:
 443              	.LFB198:
 203:Generated_Source\PSoC6\pdl\middleware\usb_dev/cy_usb_dev_cdc.c ****     /* Get CDC context */
 444              		.loc 1 203 0
 445              		.cfi_startproc
 446              		@ args = 0, pretend = 0, frame = 8
 447              		@ frame_needed = 0, uses_anonymous_args = 0
 448              	.LVL68:
 449 0000 F0B5     		push	{r4, r5, r6, r7, lr}
 450              		.cfi_def_cfa_offset 20
 451              		.cfi_offset 4, -20
 452              		.cfi_offset 5, -16
 453              		.cfi_offset 6, -12
 454              		.cfi_offset 7, -8
 455              		.cfi_offset 14, -4
 456 0002 5F46     		mov	r7, fp
 457 0004 5646     		mov	r6, r10
 458 0006 4D46     		mov	r5, r9
 459 0008 4446     		mov	r4, r8
 460 000a F0B4     		push	{r4, r5, r6, r7}
 461              		.cfi_def_cfa_offset 36
 462              		.cfi_offset 8, -36
 463              		.cfi_offset 9, -32
 464              		.cfi_offset 10, -28
 465              		.cfi_offset 11, -24
 466 000c 83B0     		sub	sp, sp, #12
 467              		.cfi_def_cfa_offset 48
 468 000e 8946     		mov	r9, r1
 469 0010 1100     		movs	r1, r2
 470              	.LVL69:
 471 0012 0192     		str	r2, [sp, #4]
 472              	.LVL70:
 208:Generated_Source\PSoC6\pdl\middleware\usb_dev/cy_usb_dev_cdc.c ****     context->port[COM2].valid = false;
 473              		.loc 1 208 0
 474 0014 0023     		movs	r3, #0
 475 0016 4A46     		mov	r2, r9
 476              	.LVL71:
 477 0018 1370     		strb	r3, [r2]
 209:Generated_Source\PSoC6\pdl\middleware\usb_dev/cy_usb_dev_cdc.c **** 
 478              		.loc 1 209 0
ARM GAS  C:\Users\enes_\AppData\Local\Temp\ccL38cFe.s 			page 25


 479 001a 3822     		movs	r2, #56
 480 001c 4C46     		mov	r4, r9
 481 001e A354     		strb	r3, [r4, r2]
 211:Generated_Source\PSoC6\pdl\middleware\usb_dev/cy_usb_dev_cdc.c ****     {
 482              		.loc 1 211 0
 483 0020 0028     		cmp	r0, #0
 484 0022 00D1     		bne	.LCB505
 485 0024 86E0     		b	.L33	@long jump
 486              	.LCB505:
 487              	.LBB23:
 214:Generated_Source\PSoC6\pdl\middleware\usb_dev/cy_usb_dev_cdc.c **** 
 488              		.loc 1 214 0
 489 0026 4B6D     		ldr	r3, [r1, #84]
 490 0028 1B69     		ldr	r3, [r3, #16]
 491 002a 464A     		ldr	r2, .L43
 492 002c 9446     		mov	ip, r2
 493 002e 6044     		add	r0, r0, ip
 494              	.LVL72:
 495 0030 8000     		lsls	r0, r0, #2
 496              	.LVL73:
 497 0032 1B58     		ldr	r3, [r3, r0]
 498 0034 9A46     		mov	r10, r3
 499              	.LVL74:
 219:Generated_Source\PSoC6\pdl\middleware\usb_dev/cy_usb_dev_cdc.c ****         
 500              		.loc 1 219 0
 501 0036 0025     		movs	r5, #0
 218:Generated_Source\PSoC6\pdl\middleware\usb_dev/cy_usb_dev_cdc.c ****         uint32_t cdcEpNum = 0U;
 502              		.loc 1 218 0
 503 0038 0027     		movs	r7, #0
 217:Generated_Source\PSoC6\pdl\middleware\usb_dev/cy_usb_dev_cdc.c ****         uint32_t portData = 0U;
 504              		.loc 1 217 0
 505 003a 0023     		movs	r3, #0
 506              	.LVL75:
 507 003c 9B46     		mov	fp, r3
 221:Generated_Source\PSoC6\pdl\middleware\usb_dev/cy_usb_dev_cdc.c ****         {
 508              		.loc 1 221 0
 509 003e 0026     		movs	r6, #0
 510 0040 67E0     		b	.L34
 511              	.LVL76:
 512              	.L41:
 513              	.LBB24:
 227:Generated_Source\PSoC6\pdl\middleware\usb_dev/cy_usb_dev_cdc.c ****             
 514              		.loc 1 227 0
 515 0042 B300     		lsls	r3, r6, #2
 516 0044 5246     		mov	r2, r10
 517 0046 9268     		ldr	r2, [r2, #8]
 518 0048 9B58     		ldr	r3, [r3, r2]
 519 004a 5B68     		ldr	r3, [r3, #4]
 520 004c 9846     		mov	r8, r3
 521              	.LVL77:
 231:Generated_Source\PSoC6\pdl\middleware\usb_dev/cy_usb_dev_cdc.c ****             
 522              		.loc 1 231 0
 523 004e 1A68     		ldr	r2, [r3]
 524              	.LVL78:
 234:Generated_Source\PSoC6\pdl\middleware\usb_dev/cy_usb_dev_cdc.c ****             {
 525              		.loc 1 234 0
 526 0050 1368     		ldr	r3, [r2]
ARM GAS  C:\Users\enes_\AppData\Local\Temp\ccL38cFe.s 			page 26


 527              	.LVL79:
 528 0052 5B79     		ldrb	r3, [r3, #5]
 529 0054 022B     		cmp	r3, #2
 530 0056 24D1     		bne	.L35
 531              	.LBB25:
 238:Generated_Source\PSoC6\pdl\middleware\usb_dev/cy_usb_dev_cdc.c **** 
 532              		.loc 1 238 0
 533 0058 5368     		ldr	r3, [r2, #4]
 534 005a 1B68     		ldr	r3, [r3]
 237:Generated_Source\PSoC6\pdl\middleware\usb_dev/cy_usb_dev_cdc.c ****                                                             altStructs[alt]->endpoints[0U]->endpoin
 535              		.loc 1 237 0
 536 005c 1C68     		ldr	r4, [r3]
 537              	.LVL80:
 240:Generated_Source\PSoC6\pdl\middleware\usb_dev/cy_usb_dev_cdc.c **** 
 538              		.loc 1 240 0
 539 005e F1B2     		uxtb	r1, r6
 540 0060 5B46     		mov	r3, fp
 541 0062 DB00     		lsls	r3, r3, #3
 542 0064 9846     		mov	r8, r3
 543              	.LVL81:
 544 0066 5B46     		mov	r3, fp
 545 0068 4246     		mov	r2, r8
 546              	.LVL82:
 547 006a D01A     		subs	r0, r2, r3
 548 006c C300     		lsls	r3, r0, #3
 549 006e 4B44     		add	r3, r3, r9
 550 0070 1975     		strb	r1, [r3, #20]
 551              	.LVL83:
 242:Generated_Source\PSoC6\pdl\middleware\usb_dev/cy_usb_dev_cdc.c ****                 context->port[portInt].commEpSize   = CY_USB_DEV_GET_CFG_WORD(&ep->wMaxPacketSize);
 552              		.loc 1 242 0
 553 0072 A078     		ldrb	r0, [r4, #2]
 554 0074 0F22     		movs	r2, #15
 555 0076 1040     		ands	r0, r2
 556 0078 2532     		adds	r2, r2, #37
 557 007a 9446     		mov	ip, r2
 558 007c 9C44     		add	ip, ip, r3
 559 007e 6246     		mov	r2, ip
 560 0080 1070     		strb	r0, [r2]
 243:Generated_Source\PSoC6\pdl\middleware\usb_dev/cy_usb_dev_cdc.c ****                 context->port[portInt].serialStateNotification[SERIAL_STATE_WINDEX_OFFSET] = (uint8
 561              		.loc 1 243 0
 562 0082 6079     		ldrb	r0, [r4, #5]
 563 0084 0002     		lsls	r0, r0, #8
 564 0086 2479     		ldrb	r4, [r4, #4]
 565              	.LVL84:
 566 0088 2043     		orrs	r0, r4
 567 008a 5883     		strh	r0, [r3, #26]
 244:Generated_Source\PSoC6\pdl\middleware\usb_dev/cy_usb_dev_cdc.c **** 
 568              		.loc 1 244 0
 569 008c 5B46     		mov	r3, fp
 570 008e 4246     		mov	r2, r8
 571 0090 D21A     		subs	r2, r2, r3
 572 0092 D300     		lsls	r3, r2, #3
 573 0094 4B44     		add	r3, r3, r9
 574 0096 2C33     		adds	r3, r3, #44
 575 0098 1970     		strb	r1, [r3]
 576              	.LVL85:
 247:Generated_Source\PSoC6\pdl\middleware\usb_dev/cy_usb_dev_cdc.c ****             }
ARM GAS  C:\Users\enes_\AppData\Local\Temp\ccL38cFe.s 			page 27


 577              		.loc 1 247 0
 578 009a 0135     		adds	r5, r5, #1
 579              	.LVL86:
 246:Generated_Source\PSoC6\pdl\middleware\usb_dev/cy_usb_dev_cdc.c ****                 cdcEpNum++;
 580              		.loc 1 246 0
 581 009c 0123     		movs	r3, #1
 582 009e 9B46     		mov	fp, r3
 583              	.LBE25:
 584 00a0 36E0     		b	.L36
 585              	.LVL87:
 586              	.L35:
 249:Generated_Source\PSoC6\pdl\middleware\usb_dev/cy_usb_dev_cdc.c ****             {
 587              		.loc 1 249 0
 588 00a2 0A2B     		cmp	r3, #10
 589 00a4 34D1     		bne	.L36
 590 00a6 2CE0     		b	.L42
 591              	.LVL88:
 592              	.L40:
 593              	.LBB26:
 594              	.LBB27:
 258:Generated_Source\PSoC6\pdl\middleware\usb_dev/cy_usb_dev_cdc.c **** 
 595              		.loc 1 258 0
 596 00a8 5B68     		ldr	r3, [r3, #4]
 597 00aa A200     		lsls	r2, r4, #2
 598 00ac D358     		ldr	r3, [r2, r3]
 257:Generated_Source\PSoC6\pdl\middleware\usb_dev/cy_usb_dev_cdc.c ****                                                                 altStructs[alt]->endpoints[endpoint
 599              		.loc 1 257 0
 600 00ae 1A68     		ldr	r2, [r3]
 601              	.LVL89:
 260:Generated_Source\PSoC6\pdl\middleware\usb_dev/cy_usb_dev_cdc.c ****                     {
 602              		.loc 1 260 0
 603 00b0 9378     		ldrb	r3, [r2, #2]
 604 00b2 59B2     		sxtb	r1, r3
 605 00b4 0029     		cmp	r1, #0
 606 00b6 0EDA     		bge	.L38
 262:Generated_Source\PSoC6\pdl\middleware\usb_dev/cy_usb_dev_cdc.c ****                         context->port[portData].dataInEpSize = CY_USB_DEV_GET_CFG_WORD(&ep->wMaxPac
 607              		.loc 1 262 0
 608 00b8 0F21     		movs	r1, #15
 609 00ba 0B40     		ands	r3, r1
 610 00bc F800     		lsls	r0, r7, #3
 611 00be C01B     		subs	r0, r0, r7
 612 00c0 C100     		lsls	r1, r0, #3
 613 00c2 4944     		add	r1, r1, r9
 614 00c4 0800     		movs	r0, r1
 615 00c6 3230     		adds	r0, r0, #50
 616 00c8 0370     		strb	r3, [r0]
 263:Generated_Source\PSoC6\pdl\middleware\usb_dev/cy_usb_dev_cdc.c ****                     }
 617              		.loc 1 263 0
 618 00ca 5379     		ldrb	r3, [r2, #5]
 619 00cc 1B02     		lsls	r3, r3, #8
 620 00ce 1279     		ldrb	r2, [r2, #4]
 621              	.LVL90:
 622 00d0 1343     		orrs	r3, r2
 623 00d2 CB82     		strh	r3, [r1, #22]
 624 00d4 12E0     		b	.L39
 625              	.LVL91:
 626              	.L38:
ARM GAS  C:\Users\enes_\AppData\Local\Temp\ccL38cFe.s 			page 28


 267:Generated_Source\PSoC6\pdl\middleware\usb_dev/cy_usb_dev_cdc.c ****                         context->port[portData].dataOutEpSize = CY_USB_DEV_GET_CFG_WORD(&ep->wMaxPa
 627              		.loc 1 267 0
 628 00d6 0F21     		movs	r1, #15
 629 00d8 0B40     		ands	r3, r1
 630 00da F800     		lsls	r0, r7, #3
 631 00dc C01B     		subs	r0, r0, r7
 632 00de C100     		lsls	r1, r0, #3
 633 00e0 4944     		add	r1, r1, r9
 634 00e2 0800     		movs	r0, r1
 635 00e4 3330     		adds	r0, r0, #51
 636 00e6 0370     		strb	r3, [r0]
 268:Generated_Source\PSoC6\pdl\middleware\usb_dev/cy_usb_dev_cdc.c **** 
 637              		.loc 1 268 0
 638 00e8 5379     		ldrb	r3, [r2, #5]
 639 00ea 1B02     		lsls	r3, r3, #8
 640 00ec 1279     		ldrb	r2, [r2, #4]
 641              	.LVL92:
 642 00ee 1343     		orrs	r3, r2
 643 00f0 0B83     		strh	r3, [r1, #24]
 273:Generated_Source\PSoC6\pdl\middleware\usb_dev/cy_usb_dev_cdc.c ****                     }
 644              		.loc 1 273 0
 645 00f2 0078     		ldrb	r0, [r0]
 646 00f4 C0B2     		uxtb	r0, r0
 647 00f6 0199     		ldr	r1, [sp, #4]
 648 00f8 FFF7FEFF 		bl	Cy_USB_Dev_StartReadEp
 649              	.LVL93:
 650              	.L39:
 276:Generated_Source\PSoC6\pdl\middleware\usb_dev/cy_usb_dev_cdc.c ****                 }
 651              		.loc 1 276 0 discriminator 2
 652 00fc 0135     		adds	r5, r5, #1
 653              	.LVL94:
 654              	.LBE27:
 254:Generated_Source\PSoC6\pdl\middleware\usb_dev/cy_usb_dev_cdc.c ****                 {
 655              		.loc 1 254 0 discriminator 2
 656 00fe 0134     		adds	r4, r4, #1
 657              	.LVL95:
 658 0100 00E0     		b	.L37
 659              	.LVL96:
 660              	.L42:
 661              	.LBE26:
 662 0102 0024     		movs	r4, #0
 663              	.LVL97:
 664              	.L37:
 665              	.LBB28:
 254:Generated_Source\PSoC6\pdl\middleware\usb_dev/cy_usb_dev_cdc.c ****                 {
 666              		.loc 1 254 0 is_stmt 0 discriminator 1
 667 0104 4346     		mov	r3, r8
 668 0106 1B68     		ldr	r3, [r3]
 669 0108 1A7A     		ldrb	r2, [r3, #8]
 670 010a 9442     		cmp	r4, r2
 671 010c CCD3     		bcc	.L40
 279:Generated_Source\PSoC6\pdl\middleware\usb_dev/cy_usb_dev_cdc.c ****             }
 672              		.loc 1 279 0 is_stmt 1
 673 010e 0127     		movs	r7, #1
 674              	.LVL98:
 675              	.L36:
 676              	.LBE28:
ARM GAS  C:\Users\enes_\AppData\Local\Temp\ccL38cFe.s 			page 29


 677              	.LBE24:
 221:Generated_Source\PSoC6\pdl\middleware\usb_dev/cy_usb_dev_cdc.c ****         {
 678              		.loc 1 221 0 discriminator 2
 679 0110 0136     		adds	r6, r6, #1
 680              	.LVL99:
 681              	.L34:
 221:Generated_Source\PSoC6\pdl\middleware\usb_dev/cy_usb_dev_cdc.c ****         {
 682              		.loc 1 221 0 is_stmt 0 discriminator 1
 683 0112 5346     		mov	r3, r10
 684 0114 1B78     		ldrb	r3, [r3]
 685 0116 9E42     		cmp	r6, r3
 686 0118 93D3     		bcc	.L41
 287:Generated_Source\PSoC6\pdl\middleware\usb_dev/cy_usb_dev_cdc.c ****         context->port[COM2].valid = (DUAL_COM_PORT_EP_NUM == cdcEpNum);
 687              		.loc 1 287 0 is_stmt 1
 688 011a 0223     		movs	r3, #2
 689 011c AB42     		cmp	r3, r5
 690 011e 9B41     		sbcs	r3, r3, r3
 691 0120 5B42     		rsbs	r3, r3, #0
 692 0122 4A46     		mov	r2, r9
 693 0124 1370     		strb	r3, [r2]
 288:Generated_Source\PSoC6\pdl\middleware\usb_dev/cy_usb_dev_cdc.c ****     }
 694              		.loc 1 288 0
 695 0126 063D     		subs	r5, r5, #6
 696              	.LVL100:
 697 0128 6A42     		rsbs	r2, r5, #0
 698 012a 6A41     		adcs	r2, r2, r5
 699 012c D5B2     		uxtb	r5, r2
 700              	.LVL101:
 701 012e 3823     		movs	r3, #56
 702 0130 4A46     		mov	r2, r9
 703 0132 D554     		strb	r5, [r2, r3]
 704              	.LVL102:
 705              	.L33:
 706              	.LBE23:
 293:Generated_Source\PSoC6\pdl\middleware\usb_dev/cy_usb_dev_cdc.c ****                                                                                                    
 707              		.loc 1 293 0
 708 0134 0020     		movs	r0, #0
 709 0136 03B0     		add	sp, sp, #12
 710              		@ sp needed
 711              	.LVL103:
 712 0138 3CBC     		pop	{r2, r3, r4, r5}
 713 013a 9046     		mov	r8, r2
 714 013c 9946     		mov	r9, r3
 715 013e A246     		mov	r10, r4
 716 0140 AB46     		mov	fp, r5
 717 0142 F0BD     		pop	{r4, r5, r6, r7, pc}
 718              	.L44:
 719              		.align	2
 720              	.L43:
 721 0144 FFFFFF3F 		.word	1073741823
 722              		.cfi_endproc
 723              	.LFE198:
 724              		.size	HandleSetConfig, .-HandleSetConfig
 725              		.section	.text.IsEndpointReady,"ax",%progbits
 726              		.align	2
 727              		.code	16
 728              		.thumb_func
ARM GAS  C:\Users\enes_\AppData\Local\Temp\ccL38cFe.s 			page 30


 729              		.type	IsEndpointReady, %function
 730              	IsEndpointReady:
 731              	.LFB206:
 721:Generated_Source\PSoC6\pdl\middleware\usb_dev/cy_usb_dev_cdc.c ****     cy_en_usb_dev_ep_state_t epState;
 732              		.loc 1 721 0
 733              		.cfi_startproc
 734              		@ args = 0, pretend = 0, frame = 0
 735              		@ frame_needed = 0, uses_anonymous_args = 0
 736              	.LVL104:
 737 0000 70B5     		push	{r4, r5, r6, lr}
 738              		.cfi_def_cfa_offset 16
 739              		.cfi_offset 4, -16
 740              		.cfi_offset 5, -12
 741              		.cfi_offset 6, -8
 742              		.cfi_offset 14, -4
 726:Generated_Source\PSoC6\pdl\middleware\usb_dev/cy_usb_dev_cdc.c **** 
 743              		.loc 1 726 0
 744 0002 0D6F     		ldr	r5, [r1, #112]
 745              	.LVL105:
 746              	.LBB29:
 747              	.LBB30:
 748              		.file 2 "Generated_Source\\PSoC6\\pdl\\drivers/peripheral/usbfs/cy_usbfs_dev_drv.h"
   1:Generated_Source\PSoC6\pdl\drivers/peripheral/usbfs/cy_usbfs_dev_drv.h **** /***************************************************************************//**
   2:Generated_Source\PSoC6\pdl\drivers/peripheral/usbfs/cy_usbfs_dev_drv.h **** * \file cy_usbfs_dev_drv.h
   3:Generated_Source\PSoC6\pdl\drivers/peripheral/usbfs/cy_usbfs_dev_drv.h **** * \version 1.0
   4:Generated_Source\PSoC6\pdl\drivers/peripheral/usbfs/cy_usbfs_dev_drv.h **** *
   5:Generated_Source\PSoC6\pdl\drivers/peripheral/usbfs/cy_usbfs_dev_drv.h **** * Provides API declarations of the USBFS driver.
   6:Generated_Source\PSoC6\pdl\drivers/peripheral/usbfs/cy_usbfs_dev_drv.h **** *
   7:Generated_Source\PSoC6\pdl\drivers/peripheral/usbfs/cy_usbfs_dev_drv.h **** ********************************************************************************
   8:Generated_Source\PSoC6\pdl\drivers/peripheral/usbfs/cy_usbfs_dev_drv.h **** * \copyright
   9:Generated_Source\PSoC6\pdl\drivers/peripheral/usbfs/cy_usbfs_dev_drv.h **** * Copyright 2018, Cypress Semiconductor Corporation.  All rights reserved.
  10:Generated_Source\PSoC6\pdl\drivers/peripheral/usbfs/cy_usbfs_dev_drv.h **** * You may use this file only in accordance with the license, terms, conditions,
  11:Generated_Source\PSoC6\pdl\drivers/peripheral/usbfs/cy_usbfs_dev_drv.h **** * disclaimers, and limitations in the end user license agreement accompanying
  12:Generated_Source\PSoC6\pdl\drivers/peripheral/usbfs/cy_usbfs_dev_drv.h **** * the software package with which this file was provided.
  13:Generated_Source\PSoC6\pdl\drivers/peripheral/usbfs/cy_usbfs_dev_drv.h **** *******************************************************************************/
  14:Generated_Source\PSoC6\pdl\drivers/peripheral/usbfs/cy_usbfs_dev_drv.h **** 
  15:Generated_Source\PSoC6\pdl\drivers/peripheral/usbfs/cy_usbfs_dev_drv.h **** 
  16:Generated_Source\PSoC6\pdl\drivers/peripheral/usbfs/cy_usbfs_dev_drv.h **** /**
  17:Generated_Source\PSoC6\pdl\drivers/peripheral/usbfs/cy_usbfs_dev_drv.h **** * \addtogroup group_usbfs_dev_drv
  18:Generated_Source\PSoC6\pdl\drivers/peripheral/usbfs/cy_usbfs_dev_drv.h **** * \{
  19:Generated_Source\PSoC6\pdl\drivers/peripheral/usbfs/cy_usbfs_dev_drv.h **** * The USBFS driver provides API to interact with a fixed-function USB block.
  20:Generated_Source\PSoC6\pdl\drivers/peripheral/usbfs/cy_usbfs_dev_drv.h **** *
  21:Generated_Source\PSoC6\pdl\drivers/peripheral/usbfs/cy_usbfs_dev_drv.h **** * The functions and other declarations used in this driver are in cy_usbfs_dev_drv.h. 
  22:Generated_Source\PSoC6\pdl\drivers/peripheral/usbfs/cy_usbfs_dev_drv.h **** * You can include cy_pdl.h (ModusToolbox only) to get access to all functions 
  23:Generated_Source\PSoC6\pdl\drivers/peripheral/usbfs/cy_usbfs_dev_drv.h **** * and declarations in the PDL. 
  24:Generated_Source\PSoC6\pdl\drivers/peripheral/usbfs/cy_usbfs_dev_drv.h **** * 
  25:Generated_Source\PSoC6\pdl\drivers/peripheral/usbfs/cy_usbfs_dev_drv.h **** * The USB block supports Host and Device modes of operation. This version of the
  26:Generated_Source\PSoC6\pdl\drivers/peripheral/usbfs/cy_usbfs_dev_drv.h **** * driver supports only Device mode.
  27:Generated_Source\PSoC6\pdl\drivers/peripheral/usbfs/cy_usbfs_dev_drv.h **** *
  28:Generated_Source\PSoC6\pdl\drivers/peripheral/usbfs/cy_usbfs_dev_drv.h **** * <b>Features:</b>
  29:Generated_Source\PSoC6\pdl\drivers/peripheral/usbfs/cy_usbfs_dev_drv.h **** * * Complies with USB Specification 2.0
  30:Generated_Source\PSoC6\pdl\drivers/peripheral/usbfs/cy_usbfs_dev_drv.h **** * * Supports full-speed peripheral device operation with a signaling bit 
  31:Generated_Source\PSoC6\pdl\drivers/peripheral/usbfs/cy_usbfs_dev_drv.h **** *   rate of 12 Mbps.
  32:Generated_Source\PSoC6\pdl\drivers/peripheral/usbfs/cy_usbfs_dev_drv.h **** * * Supports eight data endpoints and one control endpoint
  33:Generated_Source\PSoC6\pdl\drivers/peripheral/usbfs/cy_usbfs_dev_drv.h **** * * Provides shared 512-byte buffer for data endpoints
  34:Generated_Source\PSoC6\pdl\drivers/peripheral/usbfs/cy_usbfs_dev_drv.h **** * * Provides dedicated 8-byte memory for control endpoint (EP0)
  35:Generated_Source\PSoC6\pdl\drivers/peripheral/usbfs/cy_usbfs_dev_drv.h **** * * Supports four types of transfers: bulk, interrupt, isochronous, and control
ARM GAS  C:\Users\enes_\AppData\Local\Temp\ccL38cFe.s 			page 31


  36:Generated_Source\PSoC6\pdl\drivers/peripheral/usbfs/cy_usbfs_dev_drv.h **** * * Supports bus- and self-powered configurations
  37:Generated_Source\PSoC6\pdl\drivers/peripheral/usbfs/cy_usbfs_dev_drv.h **** * * Supports USB suspend, resume, and remove wakeup
  38:Generated_Source\PSoC6\pdl\drivers/peripheral/usbfs/cy_usbfs_dev_drv.h **** * * Supports three types of logical transfer modes: 
  39:Generated_Source\PSoC6\pdl\drivers/peripheral/usbfs/cy_usbfs_dev_drv.h **** *   * CPU (No DMA) mode (Mode 1).
  40:Generated_Source\PSoC6\pdl\drivers/peripheral/usbfs/cy_usbfs_dev_drv.h **** *   * Manual DMA mode (Mode 2).
  41:Generated_Source\PSoC6\pdl\drivers/peripheral/usbfs/cy_usbfs_dev_drv.h **** *   * Automatic DMA mode (Mode 3).
  42:Generated_Source\PSoC6\pdl\drivers/peripheral/usbfs/cy_usbfs_dev_drv.h **** * * Supports maximum packet size: 
  43:Generated_Source\PSoC6\pdl\drivers/peripheral/usbfs/cy_usbfs_dev_drv.h **** *   * 512 bytes using Mode 1 and Mode 2.
  44:Generated_Source\PSoC6\pdl\drivers/peripheral/usbfs/cy_usbfs_dev_drv.h **** *   * 1023 bytes for isochronous transfer using Mode 3.
  45:Generated_Source\PSoC6\pdl\drivers/peripheral/usbfs/cy_usbfs_dev_drv.h **** * * Provides integrated 22 Ohm USB termination resistors on D+ and D- lines, 
  46:Generated_Source\PSoC6\pdl\drivers/peripheral/usbfs/cy_usbfs_dev_drv.h **** *   and 1.5 kOhm pull-up resistor on the D+ line
  47:Generated_Source\PSoC6\pdl\drivers/peripheral/usbfs/cy_usbfs_dev_drv.h **** * * Supports USB 2.0 Link Power Management (LPM)
  48:Generated_Source\PSoC6\pdl\drivers/peripheral/usbfs/cy_usbfs_dev_drv.h **** *
  49:Generated_Source\PSoC6\pdl\drivers/peripheral/usbfs/cy_usbfs_dev_drv.h **** *
  50:Generated_Source\PSoC6\pdl\drivers/peripheral/usbfs/cy_usbfs_dev_drv.h **** ********************************************************************************
  51:Generated_Source\PSoC6\pdl\drivers/peripheral/usbfs/cy_usbfs_dev_drv.h **** * \section group_usbfs_dev_drv_use_cases Common Use Cases
  52:Generated_Source\PSoC6\pdl\drivers/peripheral/usbfs/cy_usbfs_dev_drv.h **** ********************************************************************************
  53:Generated_Source\PSoC6\pdl\drivers/peripheral/usbfs/cy_usbfs_dev_drv.h **** *
  54:Generated_Source\PSoC6\pdl\drivers/peripheral/usbfs/cy_usbfs_dev_drv.h **** * <b>The primary usage model for the USBFS driver is to provide a defined API 
  55:Generated_Source\PSoC6\pdl\drivers/peripheral/usbfs/cy_usbfs_dev_drv.h **** * interface to <a href="../../usbfs_dev_api_reference_manual.html" target="_blank">USB Device Middl
  56:Generated_Source\PSoC6\pdl\drivers/peripheral/usbfs/cy_usbfs_dev_drv.h **** * component that works on top of it.</b> \n
  57:Generated_Source\PSoC6\pdl\drivers/peripheral/usbfs/cy_usbfs_dev_drv.h **** * The driver also provides an API interface for the application to implement required 
  58:Generated_Source\PSoC6\pdl\drivers/peripheral/usbfs/cy_usbfs_dev_drv.h **** * functionality: 
  59:Generated_Source\PSoC6\pdl\drivers/peripheral/usbfs/cy_usbfs_dev_drv.h **** *  * \ref group_usbfs_dev_drv_callbacks
  60:Generated_Source\PSoC6\pdl\drivers/peripheral/usbfs/cy_usbfs_dev_drv.h **** *  * \ref group_usbfs_dev_drv_low_power
  61:Generated_Source\PSoC6\pdl\drivers/peripheral/usbfs/cy_usbfs_dev_drv.h **** *  * \ref group_usbfs_dev_drv_lpm
  62:Generated_Source\PSoC6\pdl\drivers/peripheral/usbfs/cy_usbfs_dev_drv.h **** *  * \ref group_usbfs_dev_drv_vbus
  63:Generated_Source\PSoC6\pdl\drivers/peripheral/usbfs/cy_usbfs_dev_drv.h **** *
  64:Generated_Source\PSoC6\pdl\drivers/peripheral/usbfs/cy_usbfs_dev_drv.h **** ********************************************************************************
  65:Generated_Source\PSoC6\pdl\drivers/peripheral/usbfs/cy_usbfs_dev_drv.h **** * \section group_usbfs_dev_drv_configuration Configuration Considerations
  66:Generated_Source\PSoC6\pdl\drivers/peripheral/usbfs/cy_usbfs_dev_drv.h **** ********************************************************************************
  67:Generated_Source\PSoC6\pdl\drivers/peripheral/usbfs/cy_usbfs_dev_drv.h **** * 
  68:Generated_Source\PSoC6\pdl\drivers/peripheral/usbfs/cy_usbfs_dev_drv.h **** * This section explains how to configure USBFS driver and system resources to 
  69:Generated_Source\PSoC6\pdl\drivers/peripheral/usbfs/cy_usbfs_dev_drv.h **** * enable USB Device operation. The pointers to populated \ref cy_stc_usbfs_dev_drv_config_t configu
  70:Generated_Source\PSoC6\pdl\drivers/peripheral/usbfs/cy_usbfs_dev_drv.h **** * structure and allocated context are passed in the middleware initialization 
  71:Generated_Source\PSoC6\pdl\drivers/peripheral/usbfs/cy_usbfs_dev_drv.h **** * function Cy_USB_Dev_Init. After middleware initialization, it calls 
  72:Generated_Source\PSoC6\pdl\drivers/peripheral/usbfs/cy_usbfs_dev_drv.h **** * \ref Cy_USBFS_Dev_Drv_Init to initialize the USBFS driver for Device operation.
  73:Generated_Source\PSoC6\pdl\drivers/peripheral/usbfs/cy_usbfs_dev_drv.h **** 
  74:Generated_Source\PSoC6\pdl\drivers/peripheral/usbfs/cy_usbfs_dev_drv.h **** ********************************************************************************
  75:Generated_Source\PSoC6\pdl\drivers/peripheral/usbfs/cy_usbfs_dev_drv.h **** * \subsection group_usbfs_dev_drv_config Configure Driver
  76:Generated_Source\PSoC6\pdl\drivers/peripheral/usbfs/cy_usbfs_dev_drv.h **** ********************************************************************************
  77:Generated_Source\PSoC6\pdl\drivers/peripheral/usbfs/cy_usbfs_dev_drv.h **** * 
  78:Generated_Source\PSoC6\pdl\drivers/peripheral/usbfs/cy_usbfs_dev_drv.h **** * To configure the USBFS driver in Device mode, the configuration structure 
  79:Generated_Source\PSoC6\pdl\drivers/peripheral/usbfs/cy_usbfs_dev_drv.h **** * \ref cy_stc_usbfs_dev_drv_config_t parameters must be populated. 
  80:Generated_Source\PSoC6\pdl\drivers/peripheral/usbfs/cy_usbfs_dev_drv.h **** * The configuration structure content significantly depends on the selected 
  81:Generated_Source\PSoC6\pdl\drivers/peripheral/usbfs/cy_usbfs_dev_drv.h **** * endpoints management mode parameter:
  82:Generated_Source\PSoC6\pdl\drivers/peripheral/usbfs/cy_usbfs_dev_drv.h **** *
  83:Generated_Source\PSoC6\pdl\drivers/peripheral/usbfs/cy_usbfs_dev_drv.h **** * * \ref CY_USBFS_DEV_DRV_EP_MANAGEMENT_CPU \n
  84:Generated_Source\PSoC6\pdl\drivers/peripheral/usbfs/cy_usbfs_dev_drv.h **** *   The <i>epAccess, intrLevelSel and enableLpm</i> must be provided. All 
  85:Generated_Source\PSoC6\pdl\drivers/peripheral/usbfs/cy_usbfs_dev_drv.h **** *   other parameters are do not cares for this mode. Refer to section 
  86:Generated_Source\PSoC6\pdl\drivers/peripheral/usbfs/cy_usbfs_dev_drv.h **** *   \ref group_usbfs_dev_drv_intr to get information about <i>intrLevelSel</i> 
  87:Generated_Source\PSoC6\pdl\drivers/peripheral/usbfs/cy_usbfs_dev_drv.h **** *   configuration.
  88:Generated_Source\PSoC6\pdl\drivers/peripheral/usbfs/cy_usbfs_dev_drv.h **** *
  89:Generated_Source\PSoC6\pdl\drivers/peripheral/usbfs/cy_usbfs_dev_drv.h **** *   \snippet usbfs/1.0/snippet/main.c snipped_Cy_USBFS_Dev_Drv_CfgCpu
  90:Generated_Source\PSoC6\pdl\drivers/peripheral/usbfs/cy_usbfs_dev_drv.h **** *
  91:Generated_Source\PSoC6\pdl\drivers/peripheral/usbfs/cy_usbfs_dev_drv.h **** * * \ref CY_USBFS_DEV_DRV_EP_MANAGEMENT_DMA \n
  92:Generated_Source\PSoC6\pdl\drivers/peripheral/usbfs/cy_usbfs_dev_drv.h **** *   To enable DMA operation the DMA channels must be assigned for each endpoint 
ARM GAS  C:\Users\enes_\AppData\Local\Temp\ccL38cFe.s 			page 32


  93:Generated_Source\PSoC6\pdl\drivers/peripheral/usbfs/cy_usbfs_dev_drv.h **** *   that will be used. Each DMA channel needs a single DMA descriptor to 
  94:Generated_Source\PSoC6\pdl\drivers/peripheral/usbfs/cy_usbfs_dev_drv.h **** *   operate. The USBFS driver defines DMA configuration structure 
  95:Generated_Source\PSoC6\pdl\drivers/peripheral/usbfs/cy_usbfs_dev_drv.h **** *   \ref cy_stc_usbfs_dev_drv_dma_config_t, which must be populated for each DMA 
  96:Generated_Source\PSoC6\pdl\drivers/peripheral/usbfs/cy_usbfs_dev_drv.h **** *   channel.
  97:Generated_Source\PSoC6\pdl\drivers/peripheral/usbfs/cy_usbfs_dev_drv.h **** *   The code example below provides initialized USBFS driver DMA configuration 
  98:Generated_Source\PSoC6\pdl\drivers/peripheral/usbfs/cy_usbfs_dev_drv.h **** *   structure:
  99:Generated_Source\PSoC6\pdl\drivers/peripheral/usbfs/cy_usbfs_dev_drv.h **** *   
 100:Generated_Source\PSoC6\pdl\drivers/peripheral/usbfs/cy_usbfs_dev_drv.h **** *   \snippet usbfs/1.0/snippet/main.c snipped_Cy_USBFS_Dev_Drv_CfgDma_DmaInit
 101:Generated_Source\PSoC6\pdl\drivers/peripheral/usbfs/cy_usbfs_dev_drv.h **** *
 102:Generated_Source\PSoC6\pdl\drivers/peripheral/usbfs/cy_usbfs_dev_drv.h **** *   The pointers to the DMA configuration structure must provided into the 
 103:Generated_Source\PSoC6\pdl\drivers/peripheral/usbfs/cy_usbfs_dev_drv.h **** *   \ref cy_stc_usbfs_dev_drv_config_t USBFS driver configuration structure
 104:Generated_Source\PSoC6\pdl\drivers/peripheral/usbfs/cy_usbfs_dev_drv.h **** *   to allow USBFS driver use DMA channels for used endpoints. 
 105:Generated_Source\PSoC6\pdl\drivers/peripheral/usbfs/cy_usbfs_dev_drv.h **** *   The <i>dmaConfig[0]</i> field expects a pointer to DMA configuration for 
 106:Generated_Source\PSoC6\pdl\drivers/peripheral/usbfs/cy_usbfs_dev_drv.h **** *   data endpoint 1, the <i>dmaConfig[1]</i> field pointer to DMA configuration 
 107:Generated_Source\PSoC6\pdl\drivers/peripheral/usbfs/cy_usbfs_dev_drv.h **** *   for data endpoint 2, and so on up to data endpoint 8.
 108:Generated_Source\PSoC6\pdl\drivers/peripheral/usbfs/cy_usbfs_dev_drv.h **** *   The code example below provides initialized USBFS driver configuration 
 109:Generated_Source\PSoC6\pdl\drivers/peripheral/usbfs/cy_usbfs_dev_drv.h **** *   structure which use endpoint 1:
 110:Generated_Source\PSoC6\pdl\drivers/peripheral/usbfs/cy_usbfs_dev_drv.h **** *
 111:Generated_Source\PSoC6\pdl\drivers/peripheral/usbfs/cy_usbfs_dev_drv.h **** *   \snippet usbfs/1.0/snippet/main.c snipped_Cy_USBFS_Dev_Drv_CfgDma
 112:Generated_Source\PSoC6\pdl\drivers/peripheral/usbfs/cy_usbfs_dev_drv.h **** *   
 113:Generated_Source\PSoC6\pdl\drivers/peripheral/usbfs/cy_usbfs_dev_drv.h **** * * \ref CY_USBFS_DEV_DRV_EP_MANAGEMENT_DMA_AUTO \n
 114:Generated_Source\PSoC6\pdl\drivers/peripheral/usbfs/cy_usbfs_dev_drv.h **** *   DMA Automatic mode needs the similar DMA channels configuration as described 
 115:Generated_Source\PSoC6\pdl\drivers/peripheral/usbfs/cy_usbfs_dev_drv.h **** *   above. But it also requires one more DMA descriptor for each DMA channel and 
 116:Generated_Source\PSoC6\pdl\drivers/peripheral/usbfs/cy_usbfs_dev_drv.h **** *   DMA output trigger multiplexer. Find more information about trigger multiplexer 
 117:Generated_Source\PSoC6\pdl\drivers/peripheral/usbfs/cy_usbfs_dev_drv.h **** *   in the \ref group_usbfs_dev_drv_dma section.
 118:Generated_Source\PSoC6\pdl\drivers/peripheral/usbfs/cy_usbfs_dev_drv.h **** *   The code example below provides initialized USBFS driver DMA configuration 
 119:Generated_Source\PSoC6\pdl\drivers/peripheral/usbfs/cy_usbfs_dev_drv.h **** *   structure:
 120:Generated_Source\PSoC6\pdl\drivers/peripheral/usbfs/cy_usbfs_dev_drv.h **** *   
 121:Generated_Source\PSoC6\pdl\drivers/peripheral/usbfs/cy_usbfs_dev_drv.h **** *   \snippet usbfs/1.0/snippet/main.c snipped_Cy_USBFS_Dev_Drv_CfgDmaAuto_DmaInit
 122:Generated_Source\PSoC6\pdl\drivers/peripheral/usbfs/cy_usbfs_dev_drv.h **** *
 123:Generated_Source\PSoC6\pdl\drivers/peripheral/usbfs/cy_usbfs_dev_drv.h **** *   The driver requires a buffer for data endpoints to operate. This buffer must be
 124:Generated_Source\PSoC6\pdl\drivers/peripheral/usbfs/cy_usbfs_dev_drv.h **** *   allocated by the user. The buffer size is equal to the sum of all used 
 125:Generated_Source\PSoC6\pdl\drivers/peripheral/usbfs/cy_usbfs_dev_drv.h **** *   endpoints maximum packet sizes. If an endpoint belongs to more than 
 126:Generated_Source\PSoC6\pdl\drivers/peripheral/usbfs/cy_usbfs_dev_drv.h **** *   one alternate setting, select the greatest maximum packet size for this 
 127:Generated_Source\PSoC6\pdl\drivers/peripheral/usbfs/cy_usbfs_dev_drv.h **** *   endpoint. The driver configuration structure \ref cy_stc_usbfs_dev_drv_config_t 
 128:Generated_Source\PSoC6\pdl\drivers/peripheral/usbfs/cy_usbfs_dev_drv.h **** *   parameters have <i>epBuffer and epBufferSize</i> to pass the buffer to the driver.
 129:Generated_Source\PSoC6\pdl\drivers/peripheral/usbfs/cy_usbfs_dev_drv.h **** *
 130:Generated_Source\PSoC6\pdl\drivers/peripheral/usbfs/cy_usbfs_dev_drv.h **** *   The code example below provides initialized USBFS driver configuration 
 131:Generated_Source\PSoC6\pdl\drivers/peripheral/usbfs/cy_usbfs_dev_drv.h **** *   structure that uses data endpoint 1 with a maximum packet size of 63 bytes and 
 132:Generated_Source\PSoC6\pdl\drivers/peripheral/usbfs/cy_usbfs_dev_drv.h **** *   set 16-bit access:
 133:Generated_Source\PSoC6\pdl\drivers/peripheral/usbfs/cy_usbfs_dev_drv.h **** *    
 134:Generated_Source\PSoC6\pdl\drivers/peripheral/usbfs/cy_usbfs_dev_drv.h **** *   \snippet usbfs/1.0/snippet/main.c snipped_Cy_USBFS_Dev_Drv_CfgDmaAuto
 135:Generated_Source\PSoC6\pdl\drivers/peripheral/usbfs/cy_usbfs_dev_drv.h **** *
 136:Generated_Source\PSoC6\pdl\drivers/peripheral/usbfs/cy_usbfs_dev_drv.h **** *
 137:Generated_Source\PSoC6\pdl\drivers/peripheral/usbfs/cy_usbfs_dev_drv.h **** * \note
 138:Generated_Source\PSoC6\pdl\drivers/peripheral/usbfs/cy_usbfs_dev_drv.h **** * The endpoint buffer allocation depends on the access type used: 8-bit or 16-bit. 
 139:Generated_Source\PSoC6\pdl\drivers/peripheral/usbfs/cy_usbfs_dev_drv.h **** * Refer to \ref group_usbfs_dev_drv_ep_management_buf_access for more information.
 140:Generated_Source\PSoC6\pdl\drivers/peripheral/usbfs/cy_usbfs_dev_drv.h **** *
 141:Generated_Source\PSoC6\pdl\drivers/peripheral/usbfs/cy_usbfs_dev_drv.h **** ********************************************************************************
 142:Generated_Source\PSoC6\pdl\drivers/peripheral/usbfs/cy_usbfs_dev_drv.h **** * \subsection group_usbfs_dev_drv_pins Assign and Configure Pins
 143:Generated_Source\PSoC6\pdl\drivers/peripheral/usbfs/cy_usbfs_dev_drv.h **** ********************************************************************************
 144:Generated_Source\PSoC6\pdl\drivers/peripheral/usbfs/cy_usbfs_dev_drv.h **** *
 145:Generated_Source\PSoC6\pdl\drivers/peripheral/usbfs/cy_usbfs_dev_drv.h **** * Only dedicated USB pins can be used for USB operation. Keep the default 
 146:Generated_Source\PSoC6\pdl\drivers/peripheral/usbfs/cy_usbfs_dev_drv.h **** * USB pins configuration because after the USBFS driver initializes, the 
 147:Generated_Source\PSoC6\pdl\drivers/peripheral/usbfs/cy_usbfs_dev_drv.h **** * USB block takes control over the pins and drives them properly.
 148:Generated_Source\PSoC6\pdl\drivers/peripheral/usbfs/cy_usbfs_dev_drv.h **** *
 149:Generated_Source\PSoC6\pdl\drivers/peripheral/usbfs/cy_usbfs_dev_drv.h **** ********************************************************************************
ARM GAS  C:\Users\enes_\AppData\Local\Temp\ccL38cFe.s 			page 33


 150:Generated_Source\PSoC6\pdl\drivers/peripheral/usbfs/cy_usbfs_dev_drv.h **** * \subsection group_usbfs_dev_drv_clock Assign and Configure Clocks
 151:Generated_Source\PSoC6\pdl\drivers/peripheral/usbfs/cy_usbfs_dev_drv.h **** ********************************************************************************
 152:Generated_Source\PSoC6\pdl\drivers/peripheral/usbfs/cy_usbfs_dev_drv.h **** *
 153:Generated_Source\PSoC6\pdl\drivers/peripheral/usbfs/cy_usbfs_dev_drv.h **** * The USB hardware block requires two clock sources for operation:
 154:Generated_Source\PSoC6\pdl\drivers/peripheral/usbfs/cy_usbfs_dev_drv.h **** * * Clk_HF3 (USB clock) must be 48 MHz. The accuracy of the USB clock must be 
 155:Generated_Source\PSoC6\pdl\drivers/peripheral/usbfs/cy_usbfs_dev_drv.h **** *   within -/+ 0.25%. Note that Clk_HF3 has an integer divider so the input 
 156:Generated_Source\PSoC6\pdl\drivers/peripheral/usbfs/cy_usbfs_dev_drv.h **** *   clock can be a multiple of 48. The valid options to get an internal USB 
 157:Generated_Source\PSoC6\pdl\drivers/peripheral/usbfs/cy_usbfs_dev_drv.h **** *   clock are PLL or ECO.\n
 158:Generated_Source\PSoC6\pdl\drivers/peripheral/usbfs/cy_usbfs_dev_drv.h **** *   <b>The typical configuration is:</b> the IMO output is used by the PLL to 
 159:Generated_Source\PSoC6\pdl\drivers/peripheral/usbfs/cy_usbfs_dev_drv.h **** *   generate Clk_HF3 (USB clock). To meet USB clock accuracy requirements 
 160:Generated_Source\PSoC6\pdl\drivers/peripheral/usbfs/cy_usbfs_dev_drv.h **** *   the IMO must be trimmed with USB SOF signal. Therefore, the driver 
 161:Generated_Source\PSoC6\pdl\drivers/peripheral/usbfs/cy_usbfs_dev_drv.h **** *   \ref Cy_USBFS_Dev_Drv_Init function enables the IMO trim from USB.
 162:Generated_Source\PSoC6\pdl\drivers/peripheral/usbfs/cy_usbfs_dev_drv.h **** *
 163:Generated_Source\PSoC6\pdl\drivers/peripheral/usbfs/cy_usbfs_dev_drv.h **** * * Divided Clk_Peri clock (PCLK_USB_CLOCK_DEV_BRS) equal to 100 kHz, which is 
 164:Generated_Source\PSoC6\pdl\drivers/peripheral/usbfs/cy_usbfs_dev_drv.h **** *   used to detect a Bus Reset event. Use one of the 8-bit or 16-bit dividers 
 165:Generated_Source\PSoC6\pdl\drivers/peripheral/usbfs/cy_usbfs_dev_drv.h **** *   to provide required clock frequency.
 166:Generated_Source\PSoC6\pdl\drivers/peripheral/usbfs/cy_usbfs_dev_drv.h **** *
 167:Generated_Source\PSoC6\pdl\drivers/peripheral/usbfs/cy_usbfs_dev_drv.h **** * The code example below shows connection source path 1 
 168:Generated_Source\PSoC6\pdl\drivers/peripheral/usbfs/cy_usbfs_dev_drv.h **** * (which expected provide 48 MHz -/+ 0.25% clock) to Clk_HF3 and Bus Reset clock 
 169:Generated_Source\PSoC6\pdl\drivers/peripheral/usbfs/cy_usbfs_dev_drv.h **** * (Clk_Peri assumed to be 50 MHz):
 170:Generated_Source\PSoC6\pdl\drivers/peripheral/usbfs/cy_usbfs_dev_drv.h **** *    
 171:Generated_Source\PSoC6\pdl\drivers/peripheral/usbfs/cy_usbfs_dev_drv.h **** * \snippet usbfs/1.0/snippet/main.c snipped_Cy_USBFS_Dev_Drv_ClockInit
 172:Generated_Source\PSoC6\pdl\drivers/peripheral/usbfs/cy_usbfs_dev_drv.h **** *
 173:Generated_Source\PSoC6\pdl\drivers/peripheral/usbfs/cy_usbfs_dev_drv.h **** * Refer to \ref group_sysclk driver API for more detail about clock 
 174:Generated_Source\PSoC6\pdl\drivers/peripheral/usbfs/cy_usbfs_dev_drv.h **** * configuration.
 175:Generated_Source\PSoC6\pdl\drivers/peripheral/usbfs/cy_usbfs_dev_drv.h **** *
 176:Generated_Source\PSoC6\pdl\drivers/peripheral/usbfs/cy_usbfs_dev_drv.h **** ********************************************************************************
 177:Generated_Source\PSoC6\pdl\drivers/peripheral/usbfs/cy_usbfs_dev_drv.h **** * \subsection group_usbfs_dev_drv_dma Assign and Route DMA Channels
 178:Generated_Source\PSoC6\pdl\drivers/peripheral/usbfs/cy_usbfs_dev_drv.h **** ********************************************************************************
 179:Generated_Source\PSoC6\pdl\drivers/peripheral/usbfs/cy_usbfs_dev_drv.h **** *
 180:Generated_Source\PSoC6\pdl\drivers/peripheral/usbfs/cy_usbfs_dev_drv.h **** * The USBFS driver requires the DMA controller to operate in DMA Manual and Automatic modes. 
 181:Generated_Source\PSoC6\pdl\drivers/peripheral/usbfs/cy_usbfs_dev_drv.h **** * The USB hardware block supports the DMA request and feedback lines for each 
 182:Generated_Source\PSoC6\pdl\drivers/peripheral/usbfs/cy_usbfs_dev_drv.h **** * data endpoint. Therefore, up to eight DMA channels are needed to service eight data 
 183:Generated_Source\PSoC6\pdl\drivers/peripheral/usbfs/cy_usbfs_dev_drv.h **** * endpoints. 
 184:Generated_Source\PSoC6\pdl\drivers/peripheral/usbfs/cy_usbfs_dev_drv.h **** * The connection between the USB block and the DMA channels is established using the trigger 
 185:Generated_Source\PSoC6\pdl\drivers/peripheral/usbfs/cy_usbfs_dev_drv.h **** * muxes infrastructure. The USB block output DMA request line is connected to 
 186:Generated_Source\PSoC6\pdl\drivers/peripheral/usbfs/cy_usbfs_dev_drv.h **** * the DMA channel trigger input. This allows the USB block to request a DMA transfer. 
 187:Generated_Source\PSoC6\pdl\drivers/peripheral/usbfs/cy_usbfs_dev_drv.h **** * The DMA completion output is connected to the USB block burst end input. 
 188:Generated_Source\PSoC6\pdl\drivers/peripheral/usbfs/cy_usbfs_dev_drv.h **** * This allows the USB block get notification that a DMA transfer has been completed 
 189:Generated_Source\PSoC6\pdl\drivers/peripheral/usbfs/cy_usbfs_dev_drv.h **** * and next DMA request can be sent. The USBFS driver DMA configuration 
 190:Generated_Source\PSoC6\pdl\drivers/peripheral/usbfs/cy_usbfs_dev_drv.h **** * structure requires the <i>outTrigMux</i> field to provide the trigger mux that 
 191:Generated_Source\PSoC6\pdl\drivers/peripheral/usbfs/cy_usbfs_dev_drv.h **** * performs DMA completion and USB block burst end connection.
 192:Generated_Source\PSoC6\pdl\drivers/peripheral/usbfs/cy_usbfs_dev_drv.h **** *
 193:Generated_Source\PSoC6\pdl\drivers/peripheral/usbfs/cy_usbfs_dev_drv.h **** * Refer to \ref group_trigmux to get more information about routing capabilities.
 194:Generated_Source\PSoC6\pdl\drivers/peripheral/usbfs/cy_usbfs_dev_drv.h **** * 
 195:Generated_Source\PSoC6\pdl\drivers/peripheral/usbfs/cy_usbfs_dev_drv.h **** * The code examples below shows connection DMA channel and USB block and define 
 196:Generated_Source\PSoC6\pdl\drivers/peripheral/usbfs/cy_usbfs_dev_drv.h **** * for <i>outTrigMux</i> field initialization for CY8C6xx6 or CY8C6xx7 devices.
 197:Generated_Source\PSoC6\pdl\drivers/peripheral/usbfs/cy_usbfs_dev_drv.h **** *
 198:Generated_Source\PSoC6\pdl\drivers/peripheral/usbfs/cy_usbfs_dev_drv.h **** * \snippet usbfs/1.0/snippet/main.c snipped_Cy_USBFS_Dev_Drv_DmaConnect
 199:Generated_Source\PSoC6\pdl\drivers/peripheral/usbfs/cy_usbfs_dev_drv.h **** *
 200:Generated_Source\PSoC6\pdl\drivers/peripheral/usbfs/cy_usbfs_dev_drv.h **** ********************************************************************************
 201:Generated_Source\PSoC6\pdl\drivers/peripheral/usbfs/cy_usbfs_dev_drv.h **** * \subsection group_usbfs_dev_drv_intr Configure Interrupts
 202:Generated_Source\PSoC6\pdl\drivers/peripheral/usbfs/cy_usbfs_dev_drv.h **** ********************************************************************************
 203:Generated_Source\PSoC6\pdl\drivers/peripheral/usbfs/cy_usbfs_dev_drv.h **** *
 204:Generated_Source\PSoC6\pdl\drivers/peripheral/usbfs/cy_usbfs_dev_drv.h **** * <b>The interrupts are mandatory for the USBFS driver operation.</b>
 205:Generated_Source\PSoC6\pdl\drivers/peripheral/usbfs/cy_usbfs_dev_drv.h **** * The USBFS block provides multiple interrupt sources, which can be assigned to 
 206:Generated_Source\PSoC6\pdl\drivers/peripheral/usbfs/cy_usbfs_dev_drv.h **** * trigger one of the three interrupts: Low, Medium, or High. This allows to 
ARM GAS  C:\Users\enes_\AppData\Local\Temp\ccL38cFe.s 			page 34


 207:Generated_Source\PSoC6\pdl\drivers/peripheral/usbfs/cy_usbfs_dev_drv.h **** * assign different priority for interrupt sources handling.
 208:Generated_Source\PSoC6\pdl\drivers/peripheral/usbfs/cy_usbfs_dev_drv.h **** * The \ref cy_stc_usbfs_dev_drv_config_t structure provides field 
 209:Generated_Source\PSoC6\pdl\drivers/peripheral/usbfs/cy_usbfs_dev_drv.h **** * <i>intrLevelSel</i> that initializes the INTR_LVL_SEL 
 210:Generated_Source\PSoC6\pdl\drivers/peripheral/usbfs/cy_usbfs_dev_drv.h **** * register that configures to which interrupt is triggered by interrupt source. 
 211:Generated_Source\PSoC6\pdl\drivers/peripheral/usbfs/cy_usbfs_dev_drv.h **** * 
 212:Generated_Source\PSoC6\pdl\drivers/peripheral/usbfs/cy_usbfs_dev_drv.h **** * \note
 213:Generated_Source\PSoC6\pdl\drivers/peripheral/usbfs/cy_usbfs_dev_drv.h **** * The interrupt name (Low, Medium, or High) does not specify the interrupt 
 214:Generated_Source\PSoC6\pdl\drivers/peripheral/usbfs/cy_usbfs_dev_drv.h **** * priority. The interrupt priority is configured in the NVIC.
 215:Generated_Source\PSoC6\pdl\drivers/peripheral/usbfs/cy_usbfs_dev_drv.h **** *
 216:Generated_Source\PSoC6\pdl\drivers/peripheral/usbfs/cy_usbfs_dev_drv.h **** * The recommended/default configuration is: 
 217:Generated_Source\PSoC6\pdl\drivers/peripheral/usbfs/cy_usbfs_dev_drv.h **** * * Interrupt Low: Bus Reset, Control Endpoint and SOF.
 218:Generated_Source\PSoC6\pdl\drivers/peripheral/usbfs/cy_usbfs_dev_drv.h **** * * Interrupt Medium: Endpoint 1-8 Completion. 
 219:Generated_Source\PSoC6\pdl\drivers/peripheral/usbfs/cy_usbfs_dev_drv.h **** * * Interrupt High: Arbiter and LPM. 
 220:Generated_Source\PSoC6\pdl\drivers/peripheral/usbfs/cy_usbfs_dev_drv.h **** *
 221:Generated_Source\PSoC6\pdl\drivers/peripheral/usbfs/cy_usbfs_dev_drv.h **** * However, the final configuration must be defined by the application.
 222:Generated_Source\PSoC6\pdl\drivers/peripheral/usbfs/cy_usbfs_dev_drv.h **** *
 223:Generated_Source\PSoC6\pdl\drivers/peripheral/usbfs/cy_usbfs_dev_drv.h **** * \snippet usbfs/1.0/snippet/main.c snipped_Cy_USBFS_Dev_Drv_UserLvlSel
 224:Generated_Source\PSoC6\pdl\drivers/peripheral/usbfs/cy_usbfs_dev_drv.h **** *
 225:Generated_Source\PSoC6\pdl\drivers/peripheral/usbfs/cy_usbfs_dev_drv.h **** * The \ref Cy_USBFS_Dev_Drv_Interrupt function must be called in the interrupt 
 226:Generated_Source\PSoC6\pdl\drivers/peripheral/usbfs/cy_usbfs_dev_drv.h **** * handler for the selected USB block instance. Note that 
 227:Generated_Source\PSoC6\pdl\drivers/peripheral/usbfs/cy_usbfs_dev_drv.h **** * the \ref Cy_USBFS_Dev_Drv_Interrupt has the parameter <i>intrCause</i> that 
 228:Generated_Source\PSoC6\pdl\drivers/peripheral/usbfs/cy_usbfs_dev_drv.h **** * must be assigned by calling the appropriate interrupt cause function: 
 229:Generated_Source\PSoC6\pdl\drivers/peripheral/usbfs/cy_usbfs_dev_drv.h **** * * \ref Cy_USBFS_Dev_Drv_GetInterruptCauseHi 
 230:Generated_Source\PSoC6\pdl\drivers/peripheral/usbfs/cy_usbfs_dev_drv.h **** * * \ref Cy_USBFS_Dev_Drv_GetInterruptCauseMed 
 231:Generated_Source\PSoC6\pdl\drivers/peripheral/usbfs/cy_usbfs_dev_drv.h **** * * \ref Cy_USBFS_Dev_Drv_GetInterruptCauseLo
 232:Generated_Source\PSoC6\pdl\drivers/peripheral/usbfs/cy_usbfs_dev_drv.h **** *
 233:Generated_Source\PSoC6\pdl\drivers/peripheral/usbfs/cy_usbfs_dev_drv.h **** * \snippet usbfs/1.0/snippet/main.c snipped_Cy_USBFS_Dev_Drv_IntrHandlers
 234:Generated_Source\PSoC6\pdl\drivers/peripheral/usbfs/cy_usbfs_dev_drv.h **** *
 235:Generated_Source\PSoC6\pdl\drivers/peripheral/usbfs/cy_usbfs_dev_drv.h **** * Finally, the interrupts must be configured and interrupt handler routines 
 236:Generated_Source\PSoC6\pdl\drivers/peripheral/usbfs/cy_usbfs_dev_drv.h **** * hooked up to NVIC. The code below assigns interrupt priorities accordingly 
 237:Generated_Source\PSoC6\pdl\drivers/peripheral/usbfs/cy_usbfs_dev_drv.h **** * to interrupt names: High interrupt has the greater priority than Low and 
 238:Generated_Source\PSoC6\pdl\drivers/peripheral/usbfs/cy_usbfs_dev_drv.h **** * Medium interrupts, the Medium interrupt has the greater priority that 
 239:Generated_Source\PSoC6\pdl\drivers/peripheral/usbfs/cy_usbfs_dev_drv.h **** * Low interrupt and Low interrupt has lowest priority among USBFS interrupts.
 240:Generated_Source\PSoC6\pdl\drivers/peripheral/usbfs/cy_usbfs_dev_drv.h **** *
 241:Generated_Source\PSoC6\pdl\drivers/peripheral/usbfs/cy_usbfs_dev_drv.h **** * \note
 242:Generated_Source\PSoC6\pdl\drivers/peripheral/usbfs/cy_usbfs_dev_drv.h **** * For proper operation in Manual DMA mode (Mode 2) the Arbiter interrupt source 
 243:Generated_Source\PSoC6\pdl\drivers/peripheral/usbfs/cy_usbfs_dev_drv.h **** * must be assigned to interrupt which priority is greater than interrupt 
 244:Generated_Source\PSoC6\pdl\drivers/peripheral/usbfs/cy_usbfs_dev_drv.h **** * triggered by Data Endpoint 1-8 Completion interrupt sources. \n
 245:Generated_Source\PSoC6\pdl\drivers/peripheral/usbfs/cy_usbfs_dev_drv.h **** * For Automatic DMA mode (Mode 3) the rule above is recommend to follow.
 246:Generated_Source\PSoC6\pdl\drivers/peripheral/usbfs/cy_usbfs_dev_drv.h **** *
 247:Generated_Source\PSoC6\pdl\drivers/peripheral/usbfs/cy_usbfs_dev_drv.h **** * \snippet usbfs/1.0/snippet/main.c snipped_Cy_USBFS_Dev_Drv_IntrCfg
 248:Generated_Source\PSoC6\pdl\drivers/peripheral/usbfs/cy_usbfs_dev_drv.h **** * \snippet usbfs/1.0/snippet/main.c snipped_Cy_USBFS_Dev_Drv_IntrCfgHook
 249:Generated_Source\PSoC6\pdl\drivers/peripheral/usbfs/cy_usbfs_dev_drv.h **** * 
 250:Generated_Source\PSoC6\pdl\drivers/peripheral/usbfs/cy_usbfs_dev_drv.h **** ********************************************************************************
 251:Generated_Source\PSoC6\pdl\drivers/peripheral/usbfs/cy_usbfs_dev_drv.h **** * \section group_usbfs_dev_drv_ep_management Endpoint Buffer Management Modes
 252:Generated_Source\PSoC6\pdl\drivers/peripheral/usbfs/cy_usbfs_dev_drv.h **** ********************************************************************************
 253:Generated_Source\PSoC6\pdl\drivers/peripheral/usbfs/cy_usbfs_dev_drv.h **** * 
 254:Generated_Source\PSoC6\pdl\drivers/peripheral/usbfs/cy_usbfs_dev_drv.h **** * The USBFS hardware block supports three endpoint buffer management modes:
 255:Generated_Source\PSoC6\pdl\drivers/peripheral/usbfs/cy_usbfs_dev_drv.h **** * CPU (No DMA) mode (Mode 1), Manual DMA mode (Mode 2) and Automatic DMA mode (Mode 3).
 256:Generated_Source\PSoC6\pdl\drivers/peripheral/usbfs/cy_usbfs_dev_drv.h **** * These modes are listed using enum \ref cy_en_usbfs_dev_drv_ep_management_mode_t.
 257:Generated_Source\PSoC6\pdl\drivers/peripheral/usbfs/cy_usbfs_dev_drv.h **** * The following sub-sections provide more information about endpoint buffer 
 258:Generated_Source\PSoC6\pdl\drivers/peripheral/usbfs/cy_usbfs_dev_drv.h **** * management.
 259:Generated_Source\PSoC6\pdl\drivers/peripheral/usbfs/cy_usbfs_dev_drv.h **** *
 260:Generated_Source\PSoC6\pdl\drivers/peripheral/usbfs/cy_usbfs_dev_drv.h **** ********************************************************************************
 261:Generated_Source\PSoC6\pdl\drivers/peripheral/usbfs/cy_usbfs_dev_drv.h **** * \subsection group_usbfs_dev_drv_ep_management_buff Hardware buffers
 262:Generated_Source\PSoC6\pdl\drivers/peripheral/usbfs/cy_usbfs_dev_drv.h **** ********************************************************************************
 263:Generated_Source\PSoC6\pdl\drivers/peripheral/usbfs/cy_usbfs_dev_drv.h **** *
ARM GAS  C:\Users\enes_\AppData\Local\Temp\ccL38cFe.s 			page 35


 264:Generated_Source\PSoC6\pdl\drivers/peripheral/usbfs/cy_usbfs_dev_drv.h **** * The USBFS block has a 512-byte hardware buffer that is divided between all 
 265:Generated_Source\PSoC6\pdl\drivers/peripheral/usbfs/cy_usbfs_dev_drv.h **** * data endpoints used in the selected configuration. How the hardware buffer 
 266:Generated_Source\PSoC6\pdl\drivers/peripheral/usbfs/cy_usbfs_dev_drv.h **** * is divided between endpoints depends on the selected endpoint buffer management
 267:Generated_Source\PSoC6\pdl\drivers/peripheral/usbfs/cy_usbfs_dev_drv.h **** * modes:
 268:Generated_Source\PSoC6\pdl\drivers/peripheral/usbfs/cy_usbfs_dev_drv.h **** *  
 269:Generated_Source\PSoC6\pdl\drivers/peripheral/usbfs/cy_usbfs_dev_drv.h **** * * \ref group_usbfs_dev_drv_ep_management_mode1 and \ref  group_usbfs_dev_drv_ep_management_mode2
 270:Generated_Source\PSoC6\pdl\drivers/peripheral/usbfs/cy_usbfs_dev_drv.h **** *   Each data endpoint consumes space (number of bytes) in the hardware buffer 
 271:Generated_Source\PSoC6\pdl\drivers/peripheral/usbfs/cy_usbfs_dev_drv.h **** *   that is equal to the endpoint maximum packet size defined in the endpoint 
 272:Generated_Source\PSoC6\pdl\drivers/peripheral/usbfs/cy_usbfs_dev_drv.h **** *   descriptor. The total space consumed by all endpoints is restricted
 273:Generated_Source\PSoC6\pdl\drivers/peripheral/usbfs/cy_usbfs_dev_drv.h **** *   by the size of hardware buffer (512 bytes). When an endpoint appears in the 
 274:Generated_Source\PSoC6\pdl\drivers/peripheral/usbfs/cy_usbfs_dev_drv.h **** *   different alternate settings and has a different maximum packet size, the greatest 
 275:Generated_Source\PSoC6\pdl\drivers/peripheral/usbfs/cy_usbfs_dev_drv.h **** *   value is selected to the allocate space of the endpoint in the 
 276:Generated_Source\PSoC6\pdl\drivers/peripheral/usbfs/cy_usbfs_dev_drv.h **** *   hardware buffer. This is to ensure correct USB Device operation when interface 
 277:Generated_Source\PSoC6\pdl\drivers/peripheral/usbfs/cy_usbfs_dev_drv.h **** *   alternate settings are changed. Note that endpoint can consume extra byte in 
 278:Generated_Source\PSoC6\pdl\drivers/peripheral/usbfs/cy_usbfs_dev_drv.h **** *   the hardware buffer when 16-bit access is used (See \ref 
 279:Generated_Source\PSoC6\pdl\drivers/peripheral/usbfs/cy_usbfs_dev_drv.h **** *   group_usbfs_dev_drv_ep_management_buf_access for more information).
 280:Generated_Source\PSoC6\pdl\drivers/peripheral/usbfs/cy_usbfs_dev_drv.h **** *
 281:Generated_Source\PSoC6\pdl\drivers/peripheral/usbfs/cy_usbfs_dev_drv.h **** * * \ref group_usbfs_dev_drv_ep_management_mode3
 282:Generated_Source\PSoC6\pdl\drivers/peripheral/usbfs/cy_usbfs_dev_drv.h **** *   Each data endpoint consumes 32 bytes in the hardware buffer (if all eight 
 283:Generated_Source\PSoC6\pdl\drivers/peripheral/usbfs/cy_usbfs_dev_drv.h **** *   endpoints are used, consumed buffer space is 32 * 8 = 256 byte). 
 284:Generated_Source\PSoC6\pdl\drivers/peripheral/usbfs/cy_usbfs_dev_drv.h **** *   This buffer is called the dedicated endpoint buffer. It acts as an endpoint 
 285:Generated_Source\PSoC6\pdl\drivers/peripheral/usbfs/cy_usbfs_dev_drv.h **** *   FIFO. The remaining space (256 bytes, if all eight endpoints are 
 286:Generated_Source\PSoC6\pdl\drivers/peripheral/usbfs/cy_usbfs_dev_drv.h **** *   used) in the hardware buffer is used by any endpoint that currently 
 287:Generated_Source\PSoC6\pdl\drivers/peripheral/usbfs/cy_usbfs_dev_drv.h **** *   communicates. This part of the buffer is called the common area. This hardware 
 288:Generated_Source\PSoC6\pdl\drivers/peripheral/usbfs/cy_usbfs_dev_drv.h **** *   buffer configuration gives sufficient dedicated buffer size for each used 
 289:Generated_Source\PSoC6\pdl\drivers/peripheral/usbfs/cy_usbfs_dev_drv.h **** *   endpoint and common area for operation. The total space consumed by all 
 290:Generated_Source\PSoC6\pdl\drivers/peripheral/usbfs/cy_usbfs_dev_drv.h **** *   endpoints is not restricted by the size of hardware buffer.
 291:Generated_Source\PSoC6\pdl\drivers/peripheral/usbfs/cy_usbfs_dev_drv.h **** *
 292:Generated_Source\PSoC6\pdl\drivers/peripheral/usbfs/cy_usbfs_dev_drv.h **** * To access the hardware buffer, the endpoint data register is read or written by 
 293:Generated_Source\PSoC6\pdl\drivers/peripheral/usbfs/cy_usbfs_dev_drv.h **** * the CPU or DMA. On each read or write, the buffer pointers are updated to access
 294:Generated_Source\PSoC6\pdl\drivers/peripheral/usbfs/cy_usbfs_dev_drv.h **** * the next data element.
 295:Generated_Source\PSoC6\pdl\drivers/peripheral/usbfs/cy_usbfs_dev_drv.h **** *
 296:Generated_Source\PSoC6\pdl\drivers/peripheral/usbfs/cy_usbfs_dev_drv.h **** ********************************************************************************
 297:Generated_Source\PSoC6\pdl\drivers/peripheral/usbfs/cy_usbfs_dev_drv.h **** * \subsection group_usbfs_dev_drv_ep_management_buf_access Hardware Buffer Access
 298:Generated_Source\PSoC6\pdl\drivers/peripheral/usbfs/cy_usbfs_dev_drv.h **** ********************************************************************************
 299:Generated_Source\PSoC6\pdl\drivers/peripheral/usbfs/cy_usbfs_dev_drv.h **** *
 300:Generated_Source\PSoC6\pdl\drivers/peripheral/usbfs/cy_usbfs_dev_drv.h **** * The USBFS block provides two sets of data registers: 8-bit and 16-bit. Either
 301:Generated_Source\PSoC6\pdl\drivers/peripheral/usbfs/cy_usbfs_dev_drv.h **** * the 8-bit endpoint data register or the 16-bit endpoint data register can 
 302:Generated_Source\PSoC6\pdl\drivers/peripheral/usbfs/cy_usbfs_dev_drv.h **** * be used to read/write to the endpoint buffer. The buffer access is controlled 
 303:Generated_Source\PSoC6\pdl\drivers/peripheral/usbfs/cy_usbfs_dev_drv.h **** * by the <i>epAccess</i> field of the driver configuration structure 
 304:Generated_Source\PSoC6\pdl\drivers/peripheral/usbfs/cy_usbfs_dev_drv.h **** * \ref cy_stc_usbfs_dev_drv_config_t. 
 305:Generated_Source\PSoC6\pdl\drivers/peripheral/usbfs/cy_usbfs_dev_drv.h **** * The endpoint hardware buffer and SRAM buffer must be allocated using the 
 306:Generated_Source\PSoC6\pdl\drivers/peripheral/usbfs/cy_usbfs_dev_drv.h **** * rules below when 16-bit access is used:
 307:Generated_Source\PSoC6\pdl\drivers/peripheral/usbfs/cy_usbfs_dev_drv.h **** * * Buffer size must be even. If endpoint maximum packet size is odd 
 308:Generated_Source\PSoC6\pdl\drivers/peripheral/usbfs/cy_usbfs_dev_drv.h **** *   the allocated buffer size must be equal to (maximum packet size + 1).
 309:Generated_Source\PSoC6\pdl\drivers/peripheral/usbfs/cy_usbfs_dev_drv.h **** * * Buffer must be aligned to 2-byte boundary.
 310:Generated_Source\PSoC6\pdl\drivers/peripheral/usbfs/cy_usbfs_dev_drv.h **** *
 311:Generated_Source\PSoC6\pdl\drivers/peripheral/usbfs/cy_usbfs_dev_drv.h **** * The driver provides the \ref CY_USBFS_DEV_DRV_ALLOC_ENDPOINT_BUFFER macro that 
 312:Generated_Source\PSoC6\pdl\drivers/peripheral/usbfs/cy_usbfs_dev_drv.h **** * applying rules above to allocate the SRAM buffer for endpoint. This macro 
 313:Generated_Source\PSoC6\pdl\drivers/peripheral/usbfs/cy_usbfs_dev_drv.h **** * should be used by application to hide configuration differences. 
 314:Generated_Source\PSoC6\pdl\drivers/peripheral/usbfs/cy_usbfs_dev_drv.h **** * <b>However, in this case the application must ignore extra bytes in the buffer.</b>
 315:Generated_Source\PSoC6\pdl\drivers/peripheral/usbfs/cy_usbfs_dev_drv.h **** * Alternately, apply rules above only for 16-bits access type configuration.
 316:Generated_Source\PSoC6\pdl\drivers/peripheral/usbfs/cy_usbfs_dev_drv.h **** *
 317:Generated_Source\PSoC6\pdl\drivers/peripheral/usbfs/cy_usbfs_dev_drv.h **** * The driver firmware allocates endpoint hardware buffer (dividing hardware buffer 
 318:Generated_Source\PSoC6\pdl\drivers/peripheral/usbfs/cy_usbfs_dev_drv.h **** * between utilized endpoints). Therefore, for \ref group_usbfs_dev_drv_ep_management_mode1 
 319:Generated_Source\PSoC6\pdl\drivers/peripheral/usbfs/cy_usbfs_dev_drv.h **** * and \ref group_usbfs_dev_drv_ep_management_mode2, the endpoints whose 
 320:Generated_Source\PSoC6\pdl\drivers/peripheral/usbfs/cy_usbfs_dev_drv.h **** * maximum packet size is odd consumes an extra byte in the hardware buffer 
ARM GAS  C:\Users\enes_\AppData\Local\Temp\ccL38cFe.s 			page 36


 321:Generated_Source\PSoC6\pdl\drivers/peripheral/usbfs/cy_usbfs_dev_drv.h **** * when 16-bit access is used. This is not applicable for \ref group_usbfs_dev_drv_ep_management_mod
 322:Generated_Source\PSoC6\pdl\drivers/peripheral/usbfs/cy_usbfs_dev_drv.h **** * because endpoints dedicated buffer are even and aligned.
 323:Generated_Source\PSoC6\pdl\drivers/peripheral/usbfs/cy_usbfs_dev_drv.h **** *
 324:Generated_Source\PSoC6\pdl\drivers/peripheral/usbfs/cy_usbfs_dev_drv.h **** * In addition, to operate in \ref group_usbfs_dev_drv_ep_management_mode3, 
 325:Generated_Source\PSoC6\pdl\drivers/peripheral/usbfs/cy_usbfs_dev_drv.h **** * the driver needs an internal SRAM buffer for endpoints. The buffer size is a 
 326:Generated_Source\PSoC6\pdl\drivers/peripheral/usbfs/cy_usbfs_dev_drv.h **** * sum of all endpoint buffers. When 16-bit access is used, each endpoint buffer 
 327:Generated_Source\PSoC6\pdl\drivers/peripheral/usbfs/cy_usbfs_dev_drv.h **** * must be allocated using the rules above. The driver configuration structure 
 328:Generated_Source\PSoC6\pdl\drivers/peripheral/usbfs/cy_usbfs_dev_drv.h **** * \ref cy_stc_usbfs_dev_drv_config_t has <i>epBuffer and epBufferSize</i> fields 
 329:Generated_Source\PSoC6\pdl\drivers/peripheral/usbfs/cy_usbfs_dev_drv.h **** * to pass the allocated buffer to the driver. \n
 330:Generated_Source\PSoC6\pdl\drivers/peripheral/usbfs/cy_usbfs_dev_drv.h **** * For example: the USB Device uses three data endpoint whose max packets are
 331:Generated_Source\PSoC6\pdl\drivers/peripheral/usbfs/cy_usbfs_dev_drv.h **** * 63 bytes, 63 bytes, and 8 bytes. The endpoints buffer for the driver must be 
 332:Generated_Source\PSoC6\pdl\drivers/peripheral/usbfs/cy_usbfs_dev_drv.h **** * allocated as follows:
 333:Generated_Source\PSoC6\pdl\drivers/peripheral/usbfs/cy_usbfs_dev_drv.h **** * *  8-bits: uint8_t endpointsBuffer[63 + 63 + 8];
 334:Generated_Source\PSoC6\pdl\drivers/peripheral/usbfs/cy_usbfs_dev_drv.h **** * * 16-bits: uint8_t endpointsBuffer[(63+1) + (63+1) + 8] CY_ALLIGN(2); or 
 335:Generated_Source\PSoC6\pdl\drivers/peripheral/usbfs/cy_usbfs_dev_drv.h **** *   CY_USBFS_DEV_DRV_ALLOC_ENDPOINT_BUFFER((63+1) + (63+1) + 8);
 336:Generated_Source\PSoC6\pdl\drivers/peripheral/usbfs/cy_usbfs_dev_drv.h **** * 
 337:Generated_Source\PSoC6\pdl\drivers/peripheral/usbfs/cy_usbfs_dev_drv.h **** ********************************************************************************
 338:Generated_Source\PSoC6\pdl\drivers/peripheral/usbfs/cy_usbfs_dev_drv.h **** * \subsection group_usbfs_dev_drv_ep_management_mode1 CPU mode (Mode 1)
 339:Generated_Source\PSoC6\pdl\drivers/peripheral/usbfs/cy_usbfs_dev_drv.h **** ********************************************************************************
 340:Generated_Source\PSoC6\pdl\drivers/peripheral/usbfs/cy_usbfs_dev_drv.h **** *
 341:Generated_Source\PSoC6\pdl\drivers/peripheral/usbfs/cy_usbfs_dev_drv.h **** * The CPU handles data transfers between the user provided SRAM endpoint buffer 
 342:Generated_Source\PSoC6\pdl\drivers/peripheral/usbfs/cy_usbfs_dev_drv.h **** * and the USB block hardware buffer when \ref Cy_USBFS_Dev_Drv_ReadOutEndpoint 
 343:Generated_Source\PSoC6\pdl\drivers/peripheral/usbfs/cy_usbfs_dev_drv.h **** * or \ref Cy_USBFS_Dev_Drv_LoadInEndpoint is called.
 344:Generated_Source\PSoC6\pdl\drivers/peripheral/usbfs/cy_usbfs_dev_drv.h **** *
 345:Generated_Source\PSoC6\pdl\drivers/peripheral/usbfs/cy_usbfs_dev_drv.h **** * \image html usbfs_ep_mngmnt_mode1.png
 346:Generated_Source\PSoC6\pdl\drivers/peripheral/usbfs/cy_usbfs_dev_drv.h **** *
 347:Generated_Source\PSoC6\pdl\drivers/peripheral/usbfs/cy_usbfs_dev_drv.h **** ********************************************************************************
 348:Generated_Source\PSoC6\pdl\drivers/peripheral/usbfs/cy_usbfs_dev_drv.h **** * \subsection group_usbfs_dev_drv_ep_management_mode2 Manual DMA mode (Mode 2)
 349:Generated_Source\PSoC6\pdl\drivers/peripheral/usbfs/cy_usbfs_dev_drv.h **** ********************************************************************************
 350:Generated_Source\PSoC6\pdl\drivers/peripheral/usbfs/cy_usbfs_dev_drv.h **** *
 351:Generated_Source\PSoC6\pdl\drivers/peripheral/usbfs/cy_usbfs_dev_drv.h **** * The DMA handles data transfers between the user-provided SRAM endpoint 
 352:Generated_Source\PSoC6\pdl\drivers/peripheral/usbfs/cy_usbfs_dev_drv.h **** * buffer and the USB block hardware buffer. The DMA request is issued by the CPU 
 353:Generated_Source\PSoC6\pdl\drivers/peripheral/usbfs/cy_usbfs_dev_drv.h **** * to execute a data transfer when \ref Cy_USBFS_Dev_Drv_ReadOutEndpoint or 
 354:Generated_Source\PSoC6\pdl\drivers/peripheral/usbfs/cy_usbfs_dev_drv.h **** * \ref Cy_USBFS_Dev_Drv_LoadInEndpoint.
 355:Generated_Source\PSoC6\pdl\drivers/peripheral/usbfs/cy_usbfs_dev_drv.h **** *
 356:Generated_Source\PSoC6\pdl\drivers/peripheral/usbfs/cy_usbfs_dev_drv.h **** * \image html usbfs_ep_mngmnt_mode2.png
 357:Generated_Source\PSoC6\pdl\drivers/peripheral/usbfs/cy_usbfs_dev_drv.h **** *
 358:Generated_Source\PSoC6\pdl\drivers/peripheral/usbfs/cy_usbfs_dev_drv.h **** ********************************************************************************
 359:Generated_Source\PSoC6\pdl\drivers/peripheral/usbfs/cy_usbfs_dev_drv.h **** * \subsection group_usbfs_dev_drv_ep_management_mode3 Automatic DMA mode (Mode 3)
 360:Generated_Source\PSoC6\pdl\drivers/peripheral/usbfs/cy_usbfs_dev_drv.h **** ********************************************************************************
 361:Generated_Source\PSoC6\pdl\drivers/peripheral/usbfs/cy_usbfs_dev_drv.h **** * 
 362:Generated_Source\PSoC6\pdl\drivers/peripheral/usbfs/cy_usbfs_dev_drv.h **** * The DMA handles data transfers between the driver SRAM endpoints buffer and 
 363:Generated_Source\PSoC6\pdl\drivers/peripheral/usbfs/cy_usbfs_dev_drv.h **** * the USB block hardware buffer. The USB block generates DMA requests  
 364:Generated_Source\PSoC6\pdl\drivers/peripheral/usbfs/cy_usbfs_dev_drv.h **** * automatically. When USB transfer starts, the USB block triggers DMA 
 365:Generated_Source\PSoC6\pdl\drivers/peripheral/usbfs/cy_usbfs_dev_drv.h **** * requests to transfer data between the driver endpoint buffer and the hardware 
 366:Generated_Source\PSoC6\pdl\drivers/peripheral/usbfs/cy_usbfs_dev_drv.h **** * buffer until transfer completion. The common area acts as a FIFO to (and keeps 
 367:Generated_Source\PSoC6\pdl\drivers/peripheral/usbfs/cy_usbfs_dev_drv.h **** * data that does not fit into) the endpoint dedicated buffer. For IN endpoints, 
 368:Generated_Source\PSoC6\pdl\drivers/peripheral/usbfs/cy_usbfs_dev_drv.h **** * the dedicated buffer is pre-loaded before enabling USB Host access to the endpoint. 
 369:Generated_Source\PSoC6\pdl\drivers/peripheral/usbfs/cy_usbfs_dev_drv.h **** * This gives time for the DMA to provide remaining data before underflow 
 370:Generated_Source\PSoC6\pdl\drivers/peripheral/usbfs/cy_usbfs_dev_drv.h **** * occurs. The USB block hardware has a feedback connection with the DMA 
 371:Generated_Source\PSoC6\pdl\drivers/peripheral/usbfs/cy_usbfs_dev_drv.h **** * and does not issue new DMA request until it receives notification that the 
 372:Generated_Source\PSoC6\pdl\drivers/peripheral/usbfs/cy_usbfs_dev_drv.h **** * previous DMA transfer completed. 
 373:Generated_Source\PSoC6\pdl\drivers/peripheral/usbfs/cy_usbfs_dev_drv.h **** * When the \ref Cy_USBFS_Dev_Drv_ReadOutEndpoint or \ref Cy_USBFS_Dev_Drv_LoadInEndpoint 
 374:Generated_Source\PSoC6\pdl\drivers/peripheral/usbfs/cy_usbfs_dev_drv.h **** * function is called, the memcpy function is used to copy data from/into 
 375:Generated_Source\PSoC6\pdl\drivers/peripheral/usbfs/cy_usbfs_dev_drv.h **** * driver endpoints buffer to the user-provided endpoint buffer.
 376:Generated_Source\PSoC6\pdl\drivers/peripheral/usbfs/cy_usbfs_dev_drv.h **** * The driver provides the \ref Cy_USBFS_Dev_Drv_OverwriteMemcpy function to 
 377:Generated_Source\PSoC6\pdl\drivers/peripheral/usbfs/cy_usbfs_dev_drv.h **** * replace memcpy function by one that has been custom implemented (the DMA can be used for data cop
ARM GAS  C:\Users\enes_\AppData\Local\Temp\ccL38cFe.s 			page 37


 378:Generated_Source\PSoC6\pdl\drivers/peripheral/usbfs/cy_usbfs_dev_drv.h **** * 
 379:Generated_Source\PSoC6\pdl\drivers/peripheral/usbfs/cy_usbfs_dev_drv.h **** * \image html usbfs_ep_mngmnt_mode3.png
 380:Generated_Source\PSoC6\pdl\drivers/peripheral/usbfs/cy_usbfs_dev_drv.h **** *
 381:Generated_Source\PSoC6\pdl\drivers/peripheral/usbfs/cy_usbfs_dev_drv.h **** * \warning 
 382:Generated_Source\PSoC6\pdl\drivers/peripheral/usbfs/cy_usbfs_dev_drv.h **** * When the DMA is not capable of transferring data fast enough, the overflow or 
 383:Generated_Source\PSoC6\pdl\drivers/peripheral/usbfs/cy_usbfs_dev_drv.h **** * underflow interrupt triggers for impacted endpoint. This must never happen 
 384:Generated_Source\PSoC6\pdl\drivers/peripheral/usbfs/cy_usbfs_dev_drv.h **** * because this error condition indicates system failure with no recovery. 
 385:Generated_Source\PSoC6\pdl\drivers/peripheral/usbfs/cy_usbfs_dev_drv.h **** * To fix this, give the DMA channel assigned to this endpoint greater priority or 
 386:Generated_Source\PSoC6\pdl\drivers/peripheral/usbfs/cy_usbfs_dev_drv.h **** * increase the clock that the DMA operates.
 387:Generated_Source\PSoC6\pdl\drivers/peripheral/usbfs/cy_usbfs_dev_drv.h **** *
 388:Generated_Source\PSoC6\pdl\drivers/peripheral/usbfs/cy_usbfs_dev_drv.h **** ********************************************************************************
 389:Generated_Source\PSoC6\pdl\drivers/peripheral/usbfs/cy_usbfs_dev_drv.h **** * \section group_usbfs_dev_drv_callbacks Callbacks Usage
 390:Generated_Source\PSoC6\pdl\drivers/peripheral/usbfs/cy_usbfs_dev_drv.h **** ********************************************************************************
 391:Generated_Source\PSoC6\pdl\drivers/peripheral/usbfs/cy_usbfs_dev_drv.h **** *
 392:Generated_Source\PSoC6\pdl\drivers/peripheral/usbfs/cy_usbfs_dev_drv.h **** * The driver provides following callbacks that can be used by the application:
 393:Generated_Source\PSoC6\pdl\drivers/peripheral/usbfs/cy_usbfs_dev_drv.h **** * 1. Data endpoint 1-8 completion. This callback is invoked when the USB Host 
 394:Generated_Source\PSoC6\pdl\drivers/peripheral/usbfs/cy_usbfs_dev_drv.h **** * completed communication with the endpoint. For IN endpoints, it means that data has 
 395:Generated_Source\PSoC6\pdl\drivers/peripheral/usbfs/cy_usbfs_dev_drv.h **** * been read by the USB Host. For OUT endpoints, it means that data has been written 
 396:Generated_Source\PSoC6\pdl\drivers/peripheral/usbfs/cy_usbfs_dev_drv.h **** * by the USB Host. Call \ref Cy_USBFS_Dev_Drv_RegisterEndpointCallback to 
 397:Generated_Source\PSoC6\pdl\drivers/peripheral/usbfs/cy_usbfs_dev_drv.h **** * register callback function.
 398:Generated_Source\PSoC6\pdl\drivers/peripheral/usbfs/cy_usbfs_dev_drv.h **** * 
 399:Generated_Source\PSoC6\pdl\drivers/peripheral/usbfs/cy_usbfs_dev_drv.h **** * 2. Start Of Frame packet received. This can be used in the application to 
 400:Generated_Source\PSoC6\pdl\drivers/peripheral/usbfs/cy_usbfs_dev_drv.h **** * synchronize with SOF packets or for monitoring the bus activity. 
 401:Generated_Source\PSoC6\pdl\drivers/peripheral/usbfs/cy_usbfs_dev_drv.h **** * Call \ref Cy_USBFS_Dev_Drv_RegisterSofCallback to register callback function. 
 402:Generated_Source\PSoC6\pdl\drivers/peripheral/usbfs/cy_usbfs_dev_drv.h **** * 
 403:Generated_Source\PSoC6\pdl\drivers/peripheral/usbfs/cy_usbfs_dev_drv.h **** * 3. LPM (Link Power Management) packet received. This must be used to implement 
 404:Generated_Source\PSoC6\pdl\drivers/peripheral/usbfs/cy_usbfs_dev_drv.h **** * LPM power optimization. Call \ref Cy_USBFS_Dev_Drv_RegisterLpmCallback to 
 405:Generated_Source\PSoC6\pdl\drivers/peripheral/usbfs/cy_usbfs_dev_drv.h **** * register callback function.
 406:Generated_Source\PSoC6\pdl\drivers/peripheral/usbfs/cy_usbfs_dev_drv.h **** * 
 407:Generated_Source\PSoC6\pdl\drivers/peripheral/usbfs/cy_usbfs_dev_drv.h **** * Also the driver provides callbacks for a Bus Reset event and Control Endpoint 0 
 408:Generated_Source\PSoC6\pdl\drivers/peripheral/usbfs/cy_usbfs_dev_drv.h **** * communication events (setup packet, in packet, out packet). But these 
 409:Generated_Source\PSoC6\pdl\drivers/peripheral/usbfs/cy_usbfs_dev_drv.h **** * callbacks are used by middleware and must not be used by the application directly. 
 410:Generated_Source\PSoC6\pdl\drivers/peripheral/usbfs/cy_usbfs_dev_drv.h **** * The middleware provides appropriate hooks for these events.
 411:Generated_Source\PSoC6\pdl\drivers/peripheral/usbfs/cy_usbfs_dev_drv.h **** *
 412:Generated_Source\PSoC6\pdl\drivers/peripheral/usbfs/cy_usbfs_dev_drv.h **** ********************************************************************************
 413:Generated_Source\PSoC6\pdl\drivers/peripheral/usbfs/cy_usbfs_dev_drv.h **** * \section group_usbfs_dev_drv_vbus VBUS Detection
 414:Generated_Source\PSoC6\pdl\drivers/peripheral/usbfs/cy_usbfs_dev_drv.h **** ********************************************************************************
 415:Generated_Source\PSoC6\pdl\drivers/peripheral/usbfs/cy_usbfs_dev_drv.h **** *
 416:Generated_Source\PSoC6\pdl\drivers/peripheral/usbfs/cy_usbfs_dev_drv.h **** * The USB specification requires that no device supplies current on VBUS at its 
 417:Generated_Source\PSoC6\pdl\drivers/peripheral/usbfs/cy_usbfs_dev_drv.h **** * upstream facing port at any time. To meet this requirement, the device must 
 418:Generated_Source\PSoC6\pdl\drivers/peripheral/usbfs/cy_usbfs_dev_drv.h **** * monitor for the presence or absence of VBUS and remove power from the Dp/Dm 
 419:Generated_Source\PSoC6\pdl\drivers/peripheral/usbfs/cy_usbfs_dev_drv.h **** * pull-up resistor if VBUS is absent. The USBFS driver does not provide any 
 420:Generated_Source\PSoC6\pdl\drivers/peripheral/usbfs/cy_usbfs_dev_drv.h **** * support of VBUS monitoring or detection. The application firmware must implement 
 421:Generated_Source\PSoC6\pdl\drivers/peripheral/usbfs/cy_usbfs_dev_drv.h **** * required functionality using a VDDUSB power pad or GPIO. Refer to the section 
 422:Generated_Source\PSoC6\pdl\drivers/peripheral/usbfs/cy_usbfs_dev_drv.h **** * Universal Serial Bus (USB) Device Mode sub-section VBUS Detection in the technical 
 423:Generated_Source\PSoC6\pdl\drivers/peripheral/usbfs/cy_usbfs_dev_drv.h **** * reference manual (TRM).
 424:Generated_Source\PSoC6\pdl\drivers/peripheral/usbfs/cy_usbfs_dev_drv.h **** * 
 425:Generated_Source\PSoC6\pdl\drivers/peripheral/usbfs/cy_usbfs_dev_drv.h **** * Connect the VBUS through the resistive network when the 
 426:Generated_Source\PSoC6\pdl\drivers/peripheral/usbfs/cy_usbfs_dev_drv.h **** * regular GPIO is used for VBUS detection to save the pin from voltage picks on VBUS, 
 427:Generated_Source\PSoC6\pdl\drivers/peripheral/usbfs/cy_usbfs_dev_drv.h **** * or use GPIO that is tolerant over voltage. An example schematic is shown below.
 428:Generated_Source\PSoC6\pdl\drivers/peripheral/usbfs/cy_usbfs_dev_drv.h **** * 
 429:Generated_Source\PSoC6\pdl\drivers/peripheral/usbfs/cy_usbfs_dev_drv.h **** * \image html usbfs_vbus_connect_schem.png
 430:Generated_Source\PSoC6\pdl\drivers/peripheral/usbfs/cy_usbfs_dev_drv.h **** * 
 431:Generated_Source\PSoC6\pdl\drivers/peripheral/usbfs/cy_usbfs_dev_drv.h **** * \note The power is removed when the USB cable is removed from the USB Host 
 432:Generated_Source\PSoC6\pdl\drivers/peripheral/usbfs/cy_usbfs_dev_drv.h **** * for bus-powered USB Device. Therefore, such a USB Device complies with 
 433:Generated_Source\PSoC6\pdl\drivers/peripheral/usbfs/cy_usbfs_dev_drv.h **** * specification requirement above.
 434:Generated_Source\PSoC6\pdl\drivers/peripheral/usbfs/cy_usbfs_dev_drv.h **** *
ARM GAS  C:\Users\enes_\AppData\Local\Temp\ccL38cFe.s 			page 38


 435:Generated_Source\PSoC6\pdl\drivers/peripheral/usbfs/cy_usbfs_dev_drv.h **** ********************************************************************************
 436:Generated_Source\PSoC6\pdl\drivers/peripheral/usbfs/cy_usbfs_dev_drv.h **** * \section group_usbfs_dev_drv_low_power Low Power Support
 437:Generated_Source\PSoC6\pdl\drivers/peripheral/usbfs/cy_usbfs_dev_drv.h **** ********************************************************************************
 438:Generated_Source\PSoC6\pdl\drivers/peripheral/usbfs/cy_usbfs_dev_drv.h **** *
 439:Generated_Source\PSoC6\pdl\drivers/peripheral/usbfs/cy_usbfs_dev_drv.h **** * The USBFS driver supports USB Suspend, Resume, and Remote Wakeup functionality. 
 440:Generated_Source\PSoC6\pdl\drivers/peripheral/usbfs/cy_usbfs_dev_drv.h **** * This functionality is tightly related with the user application. The USBFS 
 441:Generated_Source\PSoC6\pdl\drivers/peripheral/usbfs/cy_usbfs_dev_drv.h **** * driver provides only the API interface, which helps the user achieve desired 
 442:Generated_Source\PSoC6\pdl\drivers/peripheral/usbfs/cy_usbfs_dev_drv.h **** * low-power behavior. The additional processing is required from the user application. 
 443:Generated_Source\PSoC6\pdl\drivers/peripheral/usbfs/cy_usbfs_dev_drv.h **** * The description of application processing is provided below.
 444:Generated_Source\PSoC6\pdl\drivers/peripheral/usbfs/cy_usbfs_dev_drv.h **** *
 445:Generated_Source\PSoC6\pdl\drivers/peripheral/usbfs/cy_usbfs_dev_drv.h **** * Normally, the USB Host sends SOF packet every 1 ms (at full speed), and this is
 446:Generated_Source\PSoC6\pdl\drivers/peripheral/usbfs/cy_usbfs_dev_drv.h **** * what keeps the USB Device awake. The USB Host suspends the USB Device by not 
 447:Generated_Source\PSoC6\pdl\drivers/peripheral/usbfs/cy_usbfs_dev_drv.h **** * sending anything to the USB Device for 3 ms. To recognize this condition, the bus 
 448:Generated_Source\PSoC6\pdl\drivers/peripheral/usbfs/cy_usbfs_dev_drv.h **** * activity must be checked. This can be done using the \ref Cy_USBFS_Dev_Drv_CheckActivity 
 449:Generated_Source\PSoC6\pdl\drivers/peripheral/usbfs/cy_usbfs_dev_drv.h **** * function or by monitoring the SOF interrupt. A suspended device may draw no 
 450:Generated_Source\PSoC6\pdl\drivers/peripheral/usbfs/cy_usbfs_dev_drv.h **** * more than 0.5 mA from VBUS. Therefore, put device into low-power
 451:Generated_Source\PSoC6\pdl\drivers/peripheral/usbfs/cy_usbfs_dev_drv.h **** * mode to consume less current. 
 452:Generated_Source\PSoC6\pdl\drivers/peripheral/usbfs/cy_usbfs_dev_drv.h **** * The \ref Cy_USBFS_Dev_Drv_Suspend function must be called before entering 
 453:Generated_Source\PSoC6\pdl\drivers/peripheral/usbfs/cy_usbfs_dev_drv.h **** * low-power mode. When the USB Host wants to wake the device after a suspend, 
 454:Generated_Source\PSoC6\pdl\drivers/peripheral/usbfs/cy_usbfs_dev_drv.h **** * it does so by reversing the polarity of the signal on the data lines for at 
 455:Generated_Source\PSoC6\pdl\drivers/peripheral/usbfs/cy_usbfs_dev_drv.h **** * least 20 ms. The resume signaling is completed with a low-speed end-of-packet 
 456:Generated_Source\PSoC6\pdl\drivers/peripheral/usbfs/cy_usbfs_dev_drv.h **** * signal. The USB block is disabled during Deep Sleep or Hibernate low-power modes. 
 457:Generated_Source\PSoC6\pdl\drivers/peripheral/usbfs/cy_usbfs_dev_drv.h **** * To exit a low-power mode when USB Host drives resume, a falling edge interrupt 
 458:Generated_Source\PSoC6\pdl\drivers/peripheral/usbfs/cy_usbfs_dev_drv.h **** * on Dp must be configured before entering these modes. The \ref Cy_USBFS_Dev_Drv_Resume 
 459:Generated_Source\PSoC6\pdl\drivers/peripheral/usbfs/cy_usbfs_dev_drv.h **** * function must be called after exiting the low-power mode. To resume communication with 
 460:Generated_Source\PSoC6\pdl\drivers/peripheral/usbfs/cy_usbfs_dev_drv.h **** * the USB Host, the data endpoints must be managed: the OUT endpoints must be 
 461:Generated_Source\PSoC6\pdl\drivers/peripheral/usbfs/cy_usbfs_dev_drv.h **** * enabled and IN endpoints must be loaded with data.
 462:Generated_Source\PSoC6\pdl\drivers/peripheral/usbfs/cy_usbfs_dev_drv.h **** * 
 463:Generated_Source\PSoC6\pdl\drivers/peripheral/usbfs/cy_usbfs_dev_drv.h **** * \note After entering low-power mode, the data which was left in the IN or OUT 
 464:Generated_Source\PSoC6\pdl\drivers/peripheral/usbfs/cy_usbfs_dev_drv.h **** * endpoint buffers is not restored after device wakes up and is lost. Therefore, 
 465:Generated_Source\PSoC6\pdl\drivers/peripheral/usbfs/cy_usbfs_dev_drv.h **** * it must be stored in the SRAM for OUT endpoint or read by the Host for IN 
 466:Generated_Source\PSoC6\pdl\drivers/peripheral/usbfs/cy_usbfs_dev_drv.h **** * endpoint before entering low-power mode.
 467:Generated_Source\PSoC6\pdl\drivers/peripheral/usbfs/cy_usbfs_dev_drv.h **** *
 468:Generated_Source\PSoC6\pdl\drivers/peripheral/usbfs/cy_usbfs_dev_drv.h **** * If the USB Device supports remote wakeup functionality, the application has 
 469:Generated_Source\PSoC6\pdl\drivers/peripheral/usbfs/cy_usbfs_dev_drv.h **** * to use middleware function Cy_USB_Dev_IsRemoteWakeupEnabled to determine whether 
 470:Generated_Source\PSoC6\pdl\drivers/peripheral/usbfs/cy_usbfs_dev_drv.h **** * remote wakeup was enabled by the USB Host. When the device is suspended and 
 471:Generated_Source\PSoC6\pdl\drivers/peripheral/usbfs/cy_usbfs_dev_drv.h **** * it determines the conditions to initiate a remote wakeup are met, 
 472:Generated_Source\PSoC6\pdl\drivers/peripheral/usbfs/cy_usbfs_dev_drv.h **** * the application must call the \ref Cy_USBFS_Dev_Drv_Force
 473:Generated_Source\PSoC6\pdl\drivers/peripheral/usbfs/cy_usbfs_dev_drv.h **** * function to force the appropriate J and K states onto the USB bus, signaling a 
 474:Generated_Source\PSoC6\pdl\drivers/peripheral/usbfs/cy_usbfs_dev_drv.h **** * remote wakeup condition. Note that \ref Cy_USBFS_Dev_Drv_Resume must be called 
 475:Generated_Source\PSoC6\pdl\drivers/peripheral/usbfs/cy_usbfs_dev_drv.h **** * first to restore the condition.
 476:Generated_Source\PSoC6\pdl\drivers/peripheral/usbfs/cy_usbfs_dev_drv.h **** * 
 477:Generated_Source\PSoC6\pdl\drivers/peripheral/usbfs/cy_usbfs_dev_drv.h **** ********************************************************************************
 478:Generated_Source\PSoC6\pdl\drivers/peripheral/usbfs/cy_usbfs_dev_drv.h **** * \section group_usbfs_dev_drv_lpm Link Power Management (LPM)
 479:Generated_Source\PSoC6\pdl\drivers/peripheral/usbfs/cy_usbfs_dev_drv.h **** ********************************************************************************
 480:Generated_Source\PSoC6\pdl\drivers/peripheral/usbfs/cy_usbfs_dev_drv.h **** *
 481:Generated_Source\PSoC6\pdl\drivers/peripheral/usbfs/cy_usbfs_dev_drv.h **** * Link Power Management is a USB low-power mode feature that provides more 
 482:Generated_Source\PSoC6\pdl\drivers/peripheral/usbfs/cy_usbfs_dev_drv.h **** * flexibility in terms of features than the existing resume mode. This feature 
 483:Generated_Source\PSoC6\pdl\drivers/peripheral/usbfs/cy_usbfs_dev_drv.h **** * is similar to the existing Suspend/Resume, but has transitional latencies of 
 484:Generated_Source\PSoC6\pdl\drivers/peripheral/usbfs/cy_usbfs_dev_drv.h **** * tens of microseconds between power states (instead of 3 to greater than 20 
 485:Generated_Source\PSoC6\pdl\drivers/peripheral/usbfs/cy_usbfs_dev_drv.h **** * millisecond latencies of the USB 2.0 Suspend/Resume).
 486:Generated_Source\PSoC6\pdl\drivers/peripheral/usbfs/cy_usbfs_dev_drv.h **** * 
 487:Generated_Source\PSoC6\pdl\drivers/peripheral/usbfs/cy_usbfs_dev_drv.h **** * USB2.0 Power states are re-arranged as below with the introduction of LPM. 
 488:Generated_Source\PSoC6\pdl\drivers/peripheral/usbfs/cy_usbfs_dev_drv.h **** * The existing power states are re-named with LPM:
 489:Generated_Source\PSoC6\pdl\drivers/peripheral/usbfs/cy_usbfs_dev_drv.h **** * * L0 (On) 
 490:Generated_Source\PSoC6\pdl\drivers/peripheral/usbfs/cy_usbfs_dev_drv.h **** * * L1 (Sleep) -- Newly Introduced State in LPM 
 491:Generated_Source\PSoC6\pdl\drivers/peripheral/usbfs/cy_usbfs_dev_drv.h **** * * L2 (Suspend) 
ARM GAS  C:\Users\enes_\AppData\Local\Temp\ccL38cFe.s 			page 39


 492:Generated_Source\PSoC6\pdl\drivers/peripheral/usbfs/cy_usbfs_dev_drv.h **** * * L3 (Powered-Off)
 493:Generated_Source\PSoC6\pdl\drivers/peripheral/usbfs/cy_usbfs_dev_drv.h **** * 
 494:Generated_Source\PSoC6\pdl\drivers/peripheral/usbfs/cy_usbfs_dev_drv.h **** * LPM state transitions between is shown below:
 495:Generated_Source\PSoC6\pdl\drivers/peripheral/usbfs/cy_usbfs_dev_drv.h **** *
 496:Generated_Source\PSoC6\pdl\drivers/peripheral/usbfs/cy_usbfs_dev_drv.h **** * \image html usbfs_lpm_state_transition.png
 497:Generated_Source\PSoC6\pdl\drivers/peripheral/usbfs/cy_usbfs_dev_drv.h **** * 
 498:Generated_Source\PSoC6\pdl\drivers/peripheral/usbfs/cy_usbfs_dev_drv.h **** * For example, a USB Host must transition a link from L1 (Sleep) to L0 before 
 499:Generated_Source\PSoC6\pdl\drivers/peripheral/usbfs/cy_usbfs_dev_drv.h **** * transitioning it to L2 (Suspend), and similarly when transitioning from L2 to L1.
 500:Generated_Source\PSoC6\pdl\drivers/peripheral/usbfs/cy_usbfs_dev_drv.h **** * 
 501:Generated_Source\PSoC6\pdl\drivers/peripheral/usbfs/cy_usbfs_dev_drv.h **** * When a USB Host is ready to transition a USB Device from L0 to a deeper power 
 502:Generated_Source\PSoC6\pdl\drivers/peripheral/usbfs/cy_usbfs_dev_drv.h **** * savings state, it issues an LPM transaction to the USB Device. The USB Device 
 503:Generated_Source\PSoC6\pdl\drivers/peripheral/usbfs/cy_usbfs_dev_drv.h **** * function responds with an ACK if it is ready to make the transition or a NYET 
 504:Generated_Source\PSoC6\pdl\drivers/peripheral/usbfs/cy_usbfs_dev_drv.h **** * (Not Yet) if it is not ready (usually because it is has data pending for the 
 505:Generated_Source\PSoC6\pdl\drivers/peripheral/usbfs/cy_usbfs_dev_drv.h **** * USB Host). A USB Device will transmit a STALL handshake if it does not support 
 506:Generated_Source\PSoC6\pdl\drivers/peripheral/usbfs/cy_usbfs_dev_drv.h **** * the requested link state. If the USB Device detects errors in either of the 
 507:Generated_Source\PSoC6\pdl\drivers/peripheral/usbfs/cy_usbfs_dev_drv.h **** * token packets or does not understand the protocol extension transaction, 
 508:Generated_Source\PSoC6\pdl\drivers/peripheral/usbfs/cy_usbfs_dev_drv.h **** * no handshake is returned.
 509:Generated_Source\PSoC6\pdl\drivers/peripheral/usbfs/cy_usbfs_dev_drv.h **** *
 510:Generated_Source\PSoC6\pdl\drivers/peripheral/usbfs/cy_usbfs_dev_drv.h **** * \image html usbfs_lpm_responses.png
 511:Generated_Source\PSoC6\pdl\drivers/peripheral/usbfs/cy_usbfs_dev_drv.h **** * 
 512:Generated_Source\PSoC6\pdl\drivers/peripheral/usbfs/cy_usbfs_dev_drv.h **** * After USB Device is initialized the LPM transaction are to acknowledged (ACKed) 
 513:Generated_Source\PSoC6\pdl\drivers/peripheral/usbfs/cy_usbfs_dev_drv.h **** * meaning that device is ready to enter requested low-power mode. To override this 
 514:Generated_Source\PSoC6\pdl\drivers/peripheral/usbfs/cy_usbfs_dev_drv.h **** * behavior, use \ref Cy_USBFS_Dev_Drv_Lpm_SetResponse. \n
 515:Generated_Source\PSoC6\pdl\drivers/peripheral/usbfs/cy_usbfs_dev_drv.h **** * 
 516:Generated_Source\PSoC6\pdl\drivers/peripheral/usbfs/cy_usbfs_dev_drv.h **** * The USB block provides an interrupt source to define that LPM transaction was 
 517:Generated_Source\PSoC6\pdl\drivers/peripheral/usbfs/cy_usbfs_dev_drv.h **** * received and acknowledged (ACKed). Use the \ref Cy_USBFS_Dev_Drv_RegisterLpmCallback 
 518:Generated_Source\PSoC6\pdl\drivers/peripheral/usbfs/cy_usbfs_dev_drv.h **** * function to register application level callback function to service the LPM 
 519:Generated_Source\PSoC6\pdl\drivers/peripheral/usbfs/cy_usbfs_dev_drv.h **** * transaction. The callback function can notify the application about an LPM transaction
 520:Generated_Source\PSoC6\pdl\drivers/peripheral/usbfs/cy_usbfs_dev_drv.h **** * and can use \ref Cy_USBFS_Dev_Drv_Lpm_GetBeslValue read to read Best Effort Service 
 521:Generated_Source\PSoC6\pdl\drivers/peripheral/usbfs/cy_usbfs_dev_drv.h **** * Latency (BESL) values provided as part of an LPM transaction. The BESL value 
 522:Generated_Source\PSoC6\pdl\drivers/peripheral/usbfs/cy_usbfs_dev_drv.h **** * indicates the  amount of time from the start of a resume to when the USB Host 
 523:Generated_Source\PSoC6\pdl\drivers/peripheral/usbfs/cy_usbfs_dev_drv.h **** * attempts to begin issuing transactions to the USB Device. The 
 524:Generated_Source\PSoC6\pdl\drivers/peripheral/usbfs/cy_usbfs_dev_drv.h **** * application must use the value BESL to decide which low-power mode is entered
 525:Generated_Source\PSoC6\pdl\drivers/peripheral/usbfs/cy_usbfs_dev_drv.h **** * to meet wakeup timing. The LPM transaction also contains the field that allows 
 526:Generated_Source\PSoC6\pdl\drivers/peripheral/usbfs/cy_usbfs_dev_drv.h **** * remote wake up. Use \ref Cy_USBFS_Dev_Drv_Lpm_RemoteWakeUpAllowed to get its 
 527:Generated_Source\PSoC6\pdl\drivers/peripheral/usbfs/cy_usbfs_dev_drv.h **** * value.
 528:Generated_Source\PSoC6\pdl\drivers/peripheral/usbfs/cy_usbfs_dev_drv.h **** * 
 529:Generated_Source\PSoC6\pdl\drivers/peripheral/usbfs/cy_usbfs_dev_drv.h **** * LPM related USB 2.0 Extension Descriptor provides attributes fields named 
 530:Generated_Source\PSoC6\pdl\drivers/peripheral/usbfs/cy_usbfs_dev_drv.h **** * baseline BESL and deep BESL to provide a range of values for different low-power
 531:Generated_Source\PSoC6\pdl\drivers/peripheral/usbfs/cy_usbfs_dev_drv.h **** * optimization. The recommended use of these fields is that the 
 532:Generated_Source\PSoC6\pdl\drivers/peripheral/usbfs/cy_usbfs_dev_drv.h **** * baseline BESL field will have a value less than the deep BESL field. The 
 533:Generated_Source\PSoC6\pdl\drivers/peripheral/usbfs/cy_usbfs_dev_drv.h **** * expected use is the baseline BESL value communicates a nominal power savings 
 534:Generated_Source\PSoC6\pdl\drivers/peripheral/usbfs/cy_usbfs_dev_drv.h **** * design point and the deep BESL value communicates a significant power saving 
 535:Generated_Source\PSoC6\pdl\drivers/peripheral/usbfs/cy_usbfs_dev_drv.h **** * design point.
 536:Generated_Source\PSoC6\pdl\drivers/peripheral/usbfs/cy_usbfs_dev_drv.h **** * For example when the received BESL is less than baseline BESL, leave the device in the 
 537:Generated_Source\PSoC6\pdl\drivers/peripheral/usbfs/cy_usbfs_dev_drv.h **** * Active mode. When it is between baseline BESL and deep BESL, put the device into 
 538:Generated_Source\PSoC6\pdl\drivers/peripheral/usbfs/cy_usbfs_dev_drv.h **** * the Deep Sleep mode. When it is greater than deep BESL, put the device into 
 539:Generated_Source\PSoC6\pdl\drivers/peripheral/usbfs/cy_usbfs_dev_drv.h **** * Hibernate mode.
 540:Generated_Source\PSoC6\pdl\drivers/peripheral/usbfs/cy_usbfs_dev_drv.h **** * 
 541:Generated_Source\PSoC6\pdl\drivers/peripheral/usbfs/cy_usbfs_dev_drv.h **** * \note 
 542:Generated_Source\PSoC6\pdl\drivers/peripheral/usbfs/cy_usbfs_dev_drv.h **** * The driver implements the USB Full-Speed device which does not support LPM 
 543:Generated_Source\PSoC6\pdl\drivers/peripheral/usbfs/cy_usbfs_dev_drv.h **** * NYET response.
 544:Generated_Source\PSoC6\pdl\drivers/peripheral/usbfs/cy_usbfs_dev_drv.h **** *
 545:Generated_Source\PSoC6\pdl\drivers/peripheral/usbfs/cy_usbfs_dev_drv.h **** * \note 
 546:Generated_Source\PSoC6\pdl\drivers/peripheral/usbfs/cy_usbfs_dev_drv.h **** * The device will restart after Hibernate mode and the USB Device must 
 547:Generated_Source\PSoC6\pdl\drivers/peripheral/usbfs/cy_usbfs_dev_drv.h **** * be initialized at the application level. Call initialization functions 
 548:Generated_Source\PSoC6\pdl\drivers/peripheral/usbfs/cy_usbfs_dev_drv.h **** * instead of \ref Cy_USBFS_Dev_Drv_Resume. The application must ensure that 
ARM GAS  C:\Users\enes_\AppData\Local\Temp\ccL38cFe.s 			page 40


 549:Generated_Source\PSoC6\pdl\drivers/peripheral/usbfs/cy_usbfs_dev_drv.h **** * the device will resume within the time defined in the BESL value of LPM request.  
 550:Generated_Source\PSoC6\pdl\drivers/peripheral/usbfs/cy_usbfs_dev_drv.h **** *
 551:Generated_Source\PSoC6\pdl\drivers/peripheral/usbfs/cy_usbfs_dev_drv.h **** ********************************************************************************
 552:Generated_Source\PSoC6\pdl\drivers/peripheral/usbfs/cy_usbfs_dev_drv.h **** * \section group_usbfs_drv_more_information More Information
 553:Generated_Source\PSoC6\pdl\drivers/peripheral/usbfs/cy_usbfs_dev_drv.h **** ********************************************************************************
 554:Generated_Source\PSoC6\pdl\drivers/peripheral/usbfs/cy_usbfs_dev_drv.h **** * 
 555:Generated_Source\PSoC6\pdl\drivers/peripheral/usbfs/cy_usbfs_dev_drv.h **** * For more information on the USB Full-Speed Device peripheral, refer to the 
 556:Generated_Source\PSoC6\pdl\drivers/peripheral/usbfs/cy_usbfs_dev_drv.h **** * section Universal Serial Bus (USB) Device Mode in technical reference 
 557:Generated_Source\PSoC6\pdl\drivers/peripheral/usbfs/cy_usbfs_dev_drv.h **** * manual (TRM).
 558:Generated_Source\PSoC6\pdl\drivers/peripheral/usbfs/cy_usbfs_dev_drv.h **** *
 559:Generated_Source\PSoC6\pdl\drivers/peripheral/usbfs/cy_usbfs_dev_drv.h **** ********************************************************************************
 560:Generated_Source\PSoC6\pdl\drivers/peripheral/usbfs/cy_usbfs_dev_drv.h **** * \section group_usbfs_drv_MISRA MISRA-C Compliance
 561:Generated_Source\PSoC6\pdl\drivers/peripheral/usbfs/cy_usbfs_dev_drv.h **** ********************************************************************************
 562:Generated_Source\PSoC6\pdl\drivers/peripheral/usbfs/cy_usbfs_dev_drv.h **** *
 563:Generated_Source\PSoC6\pdl\drivers/peripheral/usbfs/cy_usbfs_dev_drv.h **** * <table class="doxtable">
 564:Generated_Source\PSoC6\pdl\drivers/peripheral/usbfs/cy_usbfs_dev_drv.h **** *   <tr>
 565:Generated_Source\PSoC6\pdl\drivers/peripheral/usbfs/cy_usbfs_dev_drv.h **** *     <th>MISRA Rule</th>
 566:Generated_Source\PSoC6\pdl\drivers/peripheral/usbfs/cy_usbfs_dev_drv.h **** *     <th>Rule Class (Required/Advisory)</th>
 567:Generated_Source\PSoC6\pdl\drivers/peripheral/usbfs/cy_usbfs_dev_drv.h **** *     <th>Rule Description</th>
 568:Generated_Source\PSoC6\pdl\drivers/peripheral/usbfs/cy_usbfs_dev_drv.h **** *     <th>Description of Deviation(s)</th>
 569:Generated_Source\PSoC6\pdl\drivers/peripheral/usbfs/cy_usbfs_dev_drv.h **** *   </tr>
 570:Generated_Source\PSoC6\pdl\drivers/peripheral/usbfs/cy_usbfs_dev_drv.h **** *   <tr>
 571:Generated_Source\PSoC6\pdl\drivers/peripheral/usbfs/cy_usbfs_dev_drv.h **** *     <td>11.4</td>
 572:Generated_Source\PSoC6\pdl\drivers/peripheral/usbfs/cy_usbfs_dev_drv.h **** *     <td>A</td>
 573:Generated_Source\PSoC6\pdl\drivers/peripheral/usbfs/cy_usbfs_dev_drv.h **** *     <td>A cast should not be performed between a pointer to object type and
 574:Generated_Source\PSoC6\pdl\drivers/peripheral/usbfs/cy_usbfs_dev_drv.h **** *         a different pointer to object type.</td>
 575:Generated_Source\PSoC6\pdl\drivers/peripheral/usbfs/cy_usbfs_dev_drv.h **** *     <td>The function \ref Cy_USBFS_Dev_Drv_LoadInEndpoint and 
 576:Generated_Source\PSoC6\pdl\drivers/peripheral/usbfs/cy_usbfs_dev_drv.h **** *         \ref Cy_USBFS_Dev_Drv_ReadOutEndpoint cast buffer parameters from 
 577:Generated_Source\PSoC6\pdl\drivers/peripheral/usbfs/cy_usbfs_dev_drv.h **** *         (uint8_t *) to (uint16_t *) when 16-bit access is enabled. 
 578:Generated_Source\PSoC6\pdl\drivers/peripheral/usbfs/cy_usbfs_dev_drv.h **** *         To handle alignment issues the macro  
 579:Generated_Source\PSoC6\pdl\drivers/peripheral/usbfs/cy_usbfs_dev_drv.h **** *         \ref CY_USBFS_DEV_DRV_ALLOC_ENDPOINT_BUFFER must be used to 
 580:Generated_Source\PSoC6\pdl\drivers/peripheral/usbfs/cy_usbfs_dev_drv.h **** *        allocate the buffer for the endpoint.</td>
 581:Generated_Source\PSoC6\pdl\drivers/peripheral/usbfs/cy_usbfs_dev_drv.h **** *   </tr>
 582:Generated_Source\PSoC6\pdl\drivers/peripheral/usbfs/cy_usbfs_dev_drv.h **** *   <tr>
 583:Generated_Source\PSoC6\pdl\drivers/peripheral/usbfs/cy_usbfs_dev_drv.h **** *     <td>11.5</td>
 584:Generated_Source\PSoC6\pdl\drivers/peripheral/usbfs/cy_usbfs_dev_drv.h **** *     <td>R</td>
 585:Generated_Source\PSoC6\pdl\drivers/peripheral/usbfs/cy_usbfs_dev_drv.h **** *     <td>A cast shall not be performed that removes any const or volatile
 586:Generated_Source\PSoC6\pdl\drivers/peripheral/usbfs/cy_usbfs_dev_drv.h **** *         qualification from the type addressed by a pointer.</td>
 587:Generated_Source\PSoC6\pdl\drivers/peripheral/usbfs/cy_usbfs_dev_drv.h **** *     <td>
 588:Generated_Source\PSoC6\pdl\drivers/peripheral/usbfs/cy_usbfs_dev_drv.h **** *      1. The register access macros cast base pointers to USBFS peripheral 
 589:Generated_Source\PSoC6\pdl\drivers/peripheral/usbfs/cy_usbfs_dev_drv.h **** *         registers losing const qualification. Despite the qualification being 
 590:Generated_Source\PSoC6\pdl\drivers/peripheral/usbfs/cy_usbfs_dev_drv.h **** *         lost, the driver ensures proper registers access.
 591:Generated_Source\PSoC6\pdl\drivers/peripheral/usbfs/cy_usbfs_dev_drv.h **** *      2. The volatile qualification is lost when a register address is passed 
 592:Generated_Source\PSoC6\pdl\drivers/peripheral/usbfs/cy_usbfs_dev_drv.h **** *         as source or destination to the DMA channel. This does not cause any 
 593:Generated_Source\PSoC6\pdl\drivers/peripheral/usbfs/cy_usbfs_dev_drv.h **** *         negative impact because the DMA does not optimize any memory access.
 594:Generated_Source\PSoC6\pdl\drivers/peripheral/usbfs/cy_usbfs_dev_drv.h **** *     </td>
 595:Generated_Source\PSoC6\pdl\drivers/peripheral/usbfs/cy_usbfs_dev_drv.h **** *   </tr>
 596:Generated_Source\PSoC6\pdl\drivers/peripheral/usbfs/cy_usbfs_dev_drv.h **** *   <tr>
 597:Generated_Source\PSoC6\pdl\drivers/peripheral/usbfs/cy_usbfs_dev_drv.h **** *     <td>14.7</td>
 598:Generated_Source\PSoC6\pdl\drivers/peripheral/usbfs/cy_usbfs_dev_drv.h **** *     <td>R</td>
 599:Generated_Source\PSoC6\pdl\drivers/peripheral/usbfs/cy_usbfs_dev_drv.h **** *     <td>A function shall have a single point of exit at the end of the
 600:Generated_Source\PSoC6\pdl\drivers/peripheral/usbfs/cy_usbfs_dev_drv.h **** *         function.</td>
 601:Generated_Source\PSoC6\pdl\drivers/peripheral/usbfs/cy_usbfs_dev_drv.h **** *     <td>The functions can return from several points. This is typically 
 602:Generated_Source\PSoC6\pdl\drivers/peripheral/usbfs/cy_usbfs_dev_drv.h **** *         done to improve code clarity when returning error status code if 
 603:Generated_Source\PSoC6\pdl\drivers/peripheral/usbfs/cy_usbfs_dev_drv.h **** *         input parameters validation fail.</td>
 604:Generated_Source\PSoC6\pdl\drivers/peripheral/usbfs/cy_usbfs_dev_drv.h **** *   </tr>
 605:Generated_Source\PSoC6\pdl\drivers/peripheral/usbfs/cy_usbfs_dev_drv.h **** *   <tr>
ARM GAS  C:\Users\enes_\AppData\Local\Temp\ccL38cFe.s 			page 41


 606:Generated_Source\PSoC6\pdl\drivers/peripheral/usbfs/cy_usbfs_dev_drv.h **** *     <td>16.7</td>
 607:Generated_Source\PSoC6\pdl\drivers/peripheral/usbfs/cy_usbfs_dev_drv.h **** *     <td>A</td>
 608:Generated_Source\PSoC6\pdl\drivers/peripheral/usbfs/cy_usbfs_dev_drv.h **** *     <td>A pointer parameter in a function prototype should be declared as
 609:Generated_Source\PSoC6\pdl\drivers/peripheral/usbfs/cy_usbfs_dev_drv.h **** *         pointer to const if the pointer is not used to modify the addressed
 610:Generated_Source\PSoC6\pdl\drivers/peripheral/usbfs/cy_usbfs_dev_drv.h **** *         object.</td>
 611:Generated_Source\PSoC6\pdl\drivers/peripheral/usbfs/cy_usbfs_dev_drv.h **** *     <td>The middleware and USBFS driver defines general function 
 612:Generated_Source\PSoC6\pdl\drivers/peripheral/usbfs/cy_usbfs_dev_drv.h **** *         prototypes and pointers to function types but the function's 
 613:Generated_Source\PSoC6\pdl\drivers/peripheral/usbfs/cy_usbfs_dev_drv.h **** *         implementation depends on configuration. Therefore, 
 614:Generated_Source\PSoC6\pdl\drivers/peripheral/usbfs/cy_usbfs_dev_drv.h **** *         some functions' implementations require parameters to be pointer to 
 615:Generated_Source\PSoC6\pdl\drivers/peripheral/usbfs/cy_usbfs_dev_drv.h **** *         const but this is not met because of the generalized implementation 
 616:Generated_Source\PSoC6\pdl\drivers/peripheral/usbfs/cy_usbfs_dev_drv.h **** *         approach.</td>
 617:Generated_Source\PSoC6\pdl\drivers/peripheral/usbfs/cy_usbfs_dev_drv.h **** *   </tr>
 618:Generated_Source\PSoC6\pdl\drivers/peripheral/usbfs/cy_usbfs_dev_drv.h **** * </table>
 619:Generated_Source\PSoC6\pdl\drivers/peripheral/usbfs/cy_usbfs_dev_drv.h **** *
 620:Generated_Source\PSoC6\pdl\drivers/peripheral/usbfs/cy_usbfs_dev_drv.h **** ********************************************************************************
 621:Generated_Source\PSoC6\pdl\drivers/peripheral/usbfs/cy_usbfs_dev_drv.h **** * \section group_usbfs_drv_changelog Changelog
 622:Generated_Source\PSoC6\pdl\drivers/peripheral/usbfs/cy_usbfs_dev_drv.h **** ********************************************************************************
 623:Generated_Source\PSoC6\pdl\drivers/peripheral/usbfs/cy_usbfs_dev_drv.h **** *
 624:Generated_Source\PSoC6\pdl\drivers/peripheral/usbfs/cy_usbfs_dev_drv.h **** * <table class="doxtable">
 625:Generated_Source\PSoC6\pdl\drivers/peripheral/usbfs/cy_usbfs_dev_drv.h **** *   <tr><th>Version</th><th>Changes</th><th>Reason for Change</th></tr>
 626:Generated_Source\PSoC6\pdl\drivers/peripheral/usbfs/cy_usbfs_dev_drv.h **** *   <tr>
 627:Generated_Source\PSoC6\pdl\drivers/peripheral/usbfs/cy_usbfs_dev_drv.h **** *     <td>1.0</td>
 628:Generated_Source\PSoC6\pdl\drivers/peripheral/usbfs/cy_usbfs_dev_drv.h **** *     <td>The initial version.</td>
 629:Generated_Source\PSoC6\pdl\drivers/peripheral/usbfs/cy_usbfs_dev_drv.h **** *     <td></td>
 630:Generated_Source\PSoC6\pdl\drivers/peripheral/usbfs/cy_usbfs_dev_drv.h **** *   </tr>
 631:Generated_Source\PSoC6\pdl\drivers/peripheral/usbfs/cy_usbfs_dev_drv.h **** * </table>
 632:Generated_Source\PSoC6\pdl\drivers/peripheral/usbfs/cy_usbfs_dev_drv.h **** *
 633:Generated_Source\PSoC6\pdl\drivers/peripheral/usbfs/cy_usbfs_dev_drv.h **** ********************************************************************************
 634:Generated_Source\PSoC6\pdl\drivers/peripheral/usbfs/cy_usbfs_dev_drv.h **** *
 635:Generated_Source\PSoC6\pdl\drivers/peripheral/usbfs/cy_usbfs_dev_drv.h **** * \defgroup group_usbfs_dev_drv_macros Macros
 636:Generated_Source\PSoC6\pdl\drivers/peripheral/usbfs/cy_usbfs_dev_drv.h **** * \{
 637:Generated_Source\PSoC6\pdl\drivers/peripheral/usbfs/cy_usbfs_dev_drv.h ****       \defgroup group_usbfs_dev_drv_macros_intr_level Interrupt Level
 638:Generated_Source\PSoC6\pdl\drivers/peripheral/usbfs/cy_usbfs_dev_drv.h **** *     \defgroup group_usbfs_dev_drv_macros_intr_cause Interrupt Cause
 639:Generated_Source\PSoC6\pdl\drivers/peripheral/usbfs/cy_usbfs_dev_drv.h **** *     \defgroup group_usbfs_dev_drv_macros_ep_xfer_err Transfer Errors
 640:Generated_Source\PSoC6\pdl\drivers/peripheral/usbfs/cy_usbfs_dev_drv.h **** * \}
 641:Generated_Source\PSoC6\pdl\drivers/peripheral/usbfs/cy_usbfs_dev_drv.h **** * \defgroup group_usbfs_dev_drv_functions Functions
 642:Generated_Source\PSoC6\pdl\drivers/peripheral/usbfs/cy_usbfs_dev_drv.h **** * \{
 643:Generated_Source\PSoC6\pdl\drivers/peripheral/usbfs/cy_usbfs_dev_drv.h **** *     \defgroup group_usbfs_dev_hal_functions_common          Initialization Functions
 644:Generated_Source\PSoC6\pdl\drivers/peripheral/usbfs/cy_usbfs_dev_drv.h **** *     \defgroup group_usbfs_dev_drv_functions_interrupts      Interrupt Functions
 645:Generated_Source\PSoC6\pdl\drivers/peripheral/usbfs/cy_usbfs_dev_drv.h **** *     \defgroup group_usbfs_dev_hal_functions_ep0_service     Endpoint 0 Service Functions
 646:Generated_Source\PSoC6\pdl\drivers/peripheral/usbfs/cy_usbfs_dev_drv.h **** *     \defgroup group_usbfs_dev_hal_functions_endpoint_config Data Endpoint Configuration Functions
 647:Generated_Source\PSoC6\pdl\drivers/peripheral/usbfs/cy_usbfs_dev_drv.h **** *     \defgroup group_usbfs_dev_hal_functions_data_xfer       Data Endpoint Transfer Functions
 648:Generated_Source\PSoC6\pdl\drivers/peripheral/usbfs/cy_usbfs_dev_drv.h **** *     \defgroup group_usbfs_dev_drv_functions_low_power       Low Power Functions
 649:Generated_Source\PSoC6\pdl\drivers/peripheral/usbfs/cy_usbfs_dev_drv.h **** *     \defgroup group_usbfs_dev_drv_functions_lpm             LPM (Link Power Management) Functions
 650:Generated_Source\PSoC6\pdl\drivers/peripheral/usbfs/cy_usbfs_dev_drv.h **** * \} 
 651:Generated_Source\PSoC6\pdl\drivers/peripheral/usbfs/cy_usbfs_dev_drv.h **** * \defgroup group_usbfs_dev_drv_data_structures Data Structures
 652:Generated_Source\PSoC6\pdl\drivers/peripheral/usbfs/cy_usbfs_dev_drv.h **** * \defgroup group_usbfs_dev_drv_enums           Enumerated Types
 653:Generated_Source\PSoC6\pdl\drivers/peripheral/usbfs/cy_usbfs_dev_drv.h **** * \} 
 654:Generated_Source\PSoC6\pdl\drivers/peripheral/usbfs/cy_usbfs_dev_drv.h **** */
 655:Generated_Source\PSoC6\pdl\drivers/peripheral/usbfs/cy_usbfs_dev_drv.h **** 
 656:Generated_Source\PSoC6\pdl\drivers/peripheral/usbfs/cy_usbfs_dev_drv.h **** 
 657:Generated_Source\PSoC6\pdl\drivers/peripheral/usbfs/cy_usbfs_dev_drv.h **** #if !defined(CY_USBFS_DEV_DRV_H)
 658:Generated_Source\PSoC6\pdl\drivers/peripheral/usbfs/cy_usbfs_dev_drv.h **** #define CY_USBFS_DEV_DRV_H
 659:Generated_Source\PSoC6\pdl\drivers/peripheral/usbfs/cy_usbfs_dev_drv.h **** 
 660:Generated_Source\PSoC6\pdl\drivers/peripheral/usbfs/cy_usbfs_dev_drv.h **** #include "cy_dma.h"
 661:Generated_Source\PSoC6\pdl\drivers/peripheral/usbfs/cy_usbfs_dev_drv.h **** #include "cy_trigmux.h"
 662:Generated_Source\PSoC6\pdl\drivers/peripheral/usbfs/cy_usbfs_dev_drv.h **** #include "cy_usbfs_dev_drv_reg.h"
ARM GAS  C:\Users\enes_\AppData\Local\Temp\ccL38cFe.s 			page 42


 663:Generated_Source\PSoC6\pdl\drivers/peripheral/usbfs/cy_usbfs_dev_drv.h **** 
 664:Generated_Source\PSoC6\pdl\drivers/peripheral/usbfs/cy_usbfs_dev_drv.h **** #ifdef CY_IP_MXUSBFS
 665:Generated_Source\PSoC6\pdl\drivers/peripheral/usbfs/cy_usbfs_dev_drv.h **** 
 666:Generated_Source\PSoC6\pdl\drivers/peripheral/usbfs/cy_usbfs_dev_drv.h **** #if defined(__cplusplus)
 667:Generated_Source\PSoC6\pdl\drivers/peripheral/usbfs/cy_usbfs_dev_drv.h **** extern "C" {
 668:Generated_Source\PSoC6\pdl\drivers/peripheral/usbfs/cy_usbfs_dev_drv.h **** #endif
 669:Generated_Source\PSoC6\pdl\drivers/peripheral/usbfs/cy_usbfs_dev_drv.h **** 
 670:Generated_Source\PSoC6\pdl\drivers/peripheral/usbfs/cy_usbfs_dev_drv.h **** /*******************************************************************************
 671:Generated_Source\PSoC6\pdl\drivers/peripheral/usbfs/cy_usbfs_dev_drv.h **** *                           Driver version and ID
 672:Generated_Source\PSoC6\pdl\drivers/peripheral/usbfs/cy_usbfs_dev_drv.h **** *******************************************************************************/
 673:Generated_Source\PSoC6\pdl\drivers/peripheral/usbfs/cy_usbfs_dev_drv.h **** 
 674:Generated_Source\PSoC6\pdl\drivers/peripheral/usbfs/cy_usbfs_dev_drv.h **** /**
 675:Generated_Source\PSoC6\pdl\drivers/peripheral/usbfs/cy_usbfs_dev_drv.h **** * \addtogroup group_usbfs_dev_drv_macros
 676:Generated_Source\PSoC6\pdl\drivers/peripheral/usbfs/cy_usbfs_dev_drv.h **** * \{
 677:Generated_Source\PSoC6\pdl\drivers/peripheral/usbfs/cy_usbfs_dev_drv.h **** */
 678:Generated_Source\PSoC6\pdl\drivers/peripheral/usbfs/cy_usbfs_dev_drv.h **** 
 679:Generated_Source\PSoC6\pdl\drivers/peripheral/usbfs/cy_usbfs_dev_drv.h **** /** USBFS Driver major version */
 680:Generated_Source\PSoC6\pdl\drivers/peripheral/usbfs/cy_usbfs_dev_drv.h **** #define CY_USBFS_VERSION_MAJOR      (1)
 681:Generated_Source\PSoC6\pdl\drivers/peripheral/usbfs/cy_usbfs_dev_drv.h **** 
 682:Generated_Source\PSoC6\pdl\drivers/peripheral/usbfs/cy_usbfs_dev_drv.h **** /** USBFS Driver minor version */
 683:Generated_Source\PSoC6\pdl\drivers/peripheral/usbfs/cy_usbfs_dev_drv.h **** #define CY_USBFS_VERSION_MINOR      (0)
 684:Generated_Source\PSoC6\pdl\drivers/peripheral/usbfs/cy_usbfs_dev_drv.h **** 
 685:Generated_Source\PSoC6\pdl\drivers/peripheral/usbfs/cy_usbfs_dev_drv.h **** /** USBFS Driver identifier */
 686:Generated_Source\PSoC6\pdl\drivers/peripheral/usbfs/cy_usbfs_dev_drv.h **** #define CY_USBFS_ID                 CY_PDL_DRV_ID(0x3BU)
 687:Generated_Source\PSoC6\pdl\drivers/peripheral/usbfs/cy_usbfs_dev_drv.h **** 
 688:Generated_Source\PSoC6\pdl\drivers/peripheral/usbfs/cy_usbfs_dev_drv.h **** /** USBFS Driver mode position in STATUS CODE: 0 - Device, 1 - Host */
 689:Generated_Source\PSoC6\pdl\drivers/peripheral/usbfs/cy_usbfs_dev_drv.h **** #define CY_USBFS_MODE_POS           (15UL)
 690:Generated_Source\PSoC6\pdl\drivers/peripheral/usbfs/cy_usbfs_dev_drv.h **** 
 691:Generated_Source\PSoC6\pdl\drivers/peripheral/usbfs/cy_usbfs_dev_drv.h **** /** USBFS Driver status code Device */
 692:Generated_Source\PSoC6\pdl\drivers/peripheral/usbfs/cy_usbfs_dev_drv.h **** #define CY_USBFS_DEV_DRV_STATUS_CODE    (0U)
 693:Generated_Source\PSoC6\pdl\drivers/peripheral/usbfs/cy_usbfs_dev_drv.h **** /** \} group_usbfs_dev_drv_macros */
 694:Generated_Source\PSoC6\pdl\drivers/peripheral/usbfs/cy_usbfs_dev_drv.h **** 
 695:Generated_Source\PSoC6\pdl\drivers/peripheral/usbfs/cy_usbfs_dev_drv.h **** 
 696:Generated_Source\PSoC6\pdl\drivers/peripheral/usbfs/cy_usbfs_dev_drv.h **** /*******************************************************************************
 697:Generated_Source\PSoC6\pdl\drivers/peripheral/usbfs/cy_usbfs_dev_drv.h **** *                           Enumerated Types
 698:Generated_Source\PSoC6\pdl\drivers/peripheral/usbfs/cy_usbfs_dev_drv.h **** *******************************************************************************/
 699:Generated_Source\PSoC6\pdl\drivers/peripheral/usbfs/cy_usbfs_dev_drv.h **** 
 700:Generated_Source\PSoC6\pdl\drivers/peripheral/usbfs/cy_usbfs_dev_drv.h **** /**
 701:Generated_Source\PSoC6\pdl\drivers/peripheral/usbfs/cy_usbfs_dev_drv.h **** * \addtogroup group_usbfs_dev_drv_enums
 702:Generated_Source\PSoC6\pdl\drivers/peripheral/usbfs/cy_usbfs_dev_drv.h **** * \{
 703:Generated_Source\PSoC6\pdl\drivers/peripheral/usbfs/cy_usbfs_dev_drv.h **** */
 704:Generated_Source\PSoC6\pdl\drivers/peripheral/usbfs/cy_usbfs_dev_drv.h **** /** USBFS Device Driver return codes */
 705:Generated_Source\PSoC6\pdl\drivers/peripheral/usbfs/cy_usbfs_dev_drv.h **** typedef enum
 706:Generated_Source\PSoC6\pdl\drivers/peripheral/usbfs/cy_usbfs_dev_drv.h **** {
 707:Generated_Source\PSoC6\pdl\drivers/peripheral/usbfs/cy_usbfs_dev_drv.h ****     /** Operation completed successfully */
 708:Generated_Source\PSoC6\pdl\drivers/peripheral/usbfs/cy_usbfs_dev_drv.h ****     CY_USBFS_DEV_DRV_SUCCESS = 0U,
 709:Generated_Source\PSoC6\pdl\drivers/peripheral/usbfs/cy_usbfs_dev_drv.h ****     
 710:Generated_Source\PSoC6\pdl\drivers/peripheral/usbfs/cy_usbfs_dev_drv.h ****     /** One or more input parameters are invalid */                                
 711:Generated_Source\PSoC6\pdl\drivers/peripheral/usbfs/cy_usbfs_dev_drv.h ****     CY_USBFS_DEV_DRV_BAD_PARAM               = (CY_USBFS_ID | CY_PDL_STATUS_ERROR | CY_USBFS_DEV_DR
 712:Generated_Source\PSoC6\pdl\drivers/peripheral/usbfs/cy_usbfs_dev_drv.h ****     
 713:Generated_Source\PSoC6\pdl\drivers/peripheral/usbfs/cy_usbfs_dev_drv.h ****     /** There is not enough space in the buffer to be allocated for endpoint (hardware or RAM) */ 
 714:Generated_Source\PSoC6\pdl\drivers/peripheral/usbfs/cy_usbfs_dev_drv.h ****     CY_USBFS_DEV_DRV_BUF_ALLOC_FAILED        = (CY_USBFS_ID | CY_PDL_STATUS_ERROR | CY_USBFS_DEV_DR
 715:Generated_Source\PSoC6\pdl\drivers/peripheral/usbfs/cy_usbfs_dev_drv.h ****     
 716:Generated_Source\PSoC6\pdl\drivers/peripheral/usbfs/cy_usbfs_dev_drv.h ****     /** Failure during DMA configuration */                                                     
 717:Generated_Source\PSoC6\pdl\drivers/peripheral/usbfs/cy_usbfs_dev_drv.h ****     CY_USBFS_DEV_DRV_DMA_CFG_FAILED          = (CY_USBFS_ID | CY_PDL_STATUS_ERROR | CY_USBFS_DEV_DR
 718:Generated_Source\PSoC6\pdl\drivers/peripheral/usbfs/cy_usbfs_dev_drv.h ****     
 719:Generated_Source\PSoC6\pdl\drivers/peripheral/usbfs/cy_usbfs_dev_drv.h ****     /** Timeout during dynamic reconfiguration */                                            
ARM GAS  C:\Users\enes_\AppData\Local\Temp\ccL38cFe.s 			page 43


 720:Generated_Source\PSoC6\pdl\drivers/peripheral/usbfs/cy_usbfs_dev_drv.h ****     CY_USBFS_DEV_DRV_EP_DYN_RECONFIG_TIMEOUT = (CY_USBFS_ID | CY_PDL_STATUS_ERROR | CY_USBFS_DEV_DR
 721:Generated_Source\PSoC6\pdl\drivers/peripheral/usbfs/cy_usbfs_dev_drv.h ****     
 722:Generated_Source\PSoC6\pdl\drivers/peripheral/usbfs/cy_usbfs_dev_drv.h ****     /** Timeout during execution of the DMA read request for OUT endpoint 
 723:Generated_Source\PSoC6\pdl\drivers/peripheral/usbfs/cy_usbfs_dev_drv.h ****     * (only applicable in \ref group_usbfs_dev_drv_ep_management_mode2) 
 724:Generated_Source\PSoC6\pdl\drivers/peripheral/usbfs/cy_usbfs_dev_drv.h ****     */
 725:Generated_Source\PSoC6\pdl\drivers/peripheral/usbfs/cy_usbfs_dev_drv.h ****     CY_USBFS_DEV_DRV_EP_DMA_READ_TIMEOUT     = (CY_USBFS_ID | CY_PDL_STATUS_ERROR | CY_USBFS_DEV_DR
 726:Generated_Source\PSoC6\pdl\drivers/peripheral/usbfs/cy_usbfs_dev_drv.h **** 
 727:Generated_Source\PSoC6\pdl\drivers/peripheral/usbfs/cy_usbfs_dev_drv.h ****     /** Timeout during execution of the DMA read request for OUT endpoint 
 728:Generated_Source\PSoC6\pdl\drivers/peripheral/usbfs/cy_usbfs_dev_drv.h ****     * (only applicable in \ref group_usbfs_dev_drv_ep_management_mode2) 
 729:Generated_Source\PSoC6\pdl\drivers/peripheral/usbfs/cy_usbfs_dev_drv.h ****     */
 730:Generated_Source\PSoC6\pdl\drivers/peripheral/usbfs/cy_usbfs_dev_drv.h ****     CY_USBFS_DEV_DRV_EP_DMA_WRITE_TIMEOUT     = (CY_USBFS_ID | CY_PDL_STATUS_ERROR | CY_USBFS_DEV_D
 731:Generated_Source\PSoC6\pdl\drivers/peripheral/usbfs/cy_usbfs_dev_drv.h **** 
 732:Generated_Source\PSoC6\pdl\drivers/peripheral/usbfs/cy_usbfs_dev_drv.h **** } cy_en_usbfs_dev_drv_status_t; 
 733:Generated_Source\PSoC6\pdl\drivers/peripheral/usbfs/cy_usbfs_dev_drv.h **** 
 734:Generated_Source\PSoC6\pdl\drivers/peripheral/usbfs/cy_usbfs_dev_drv.h **** 
 735:Generated_Source\PSoC6\pdl\drivers/peripheral/usbfs/cy_usbfs_dev_drv.h **** /** Data Endpoints Buffer Management Mode */
 736:Generated_Source\PSoC6\pdl\drivers/peripheral/usbfs/cy_usbfs_dev_drv.h **** typedef enum
 737:Generated_Source\PSoC6\pdl\drivers/peripheral/usbfs/cy_usbfs_dev_drv.h **** {
 738:Generated_Source\PSoC6\pdl\drivers/peripheral/usbfs/cy_usbfs_dev_drv.h ****     /** The CPU manages data transfer between the hardware endpoints buffer 
 739:Generated_Source\PSoC6\pdl\drivers/peripheral/usbfs/cy_usbfs_dev_drv.h ****     * and the user SRAM
 740:Generated_Source\PSoC6\pdl\drivers/peripheral/usbfs/cy_usbfs_dev_drv.h ****     */
 741:Generated_Source\PSoC6\pdl\drivers/peripheral/usbfs/cy_usbfs_dev_drv.h ****     CY_USBFS_DEV_DRV_EP_MANAGEMENT_CPU = 0,
 742:Generated_Source\PSoC6\pdl\drivers/peripheral/usbfs/cy_usbfs_dev_drv.h ****     
 743:Generated_Source\PSoC6\pdl\drivers/peripheral/usbfs/cy_usbfs_dev_drv.h ****     /** The DMA manages data transfer between the hardware endpoints buffer and
 744:Generated_Source\PSoC6\pdl\drivers/peripheral/usbfs/cy_usbfs_dev_drv.h ****     * the user SRAM
 745:Generated_Source\PSoC6\pdl\drivers/peripheral/usbfs/cy_usbfs_dev_drv.h ****     */
 746:Generated_Source\PSoC6\pdl\drivers/peripheral/usbfs/cy_usbfs_dev_drv.h ****     CY_USBFS_DEV_DRV_EP_MANAGEMENT_DMA = 1,
 747:Generated_Source\PSoC6\pdl\drivers/peripheral/usbfs/cy_usbfs_dev_drv.h **** 
 748:Generated_Source\PSoC6\pdl\drivers/peripheral/usbfs/cy_usbfs_dev_drv.h ****     /** The DMA automatically manages data transfer between the hardware endpoints 
 749:Generated_Source\PSoC6\pdl\drivers/peripheral/usbfs/cy_usbfs_dev_drv.h ****     * FIFO buffer and the user SRAM
 750:Generated_Source\PSoC6\pdl\drivers/peripheral/usbfs/cy_usbfs_dev_drv.h ****     */
 751:Generated_Source\PSoC6\pdl\drivers/peripheral/usbfs/cy_usbfs_dev_drv.h ****     CY_USBFS_DEV_DRV_EP_MANAGEMENT_DMA_AUTO = 2,
 752:Generated_Source\PSoC6\pdl\drivers/peripheral/usbfs/cy_usbfs_dev_drv.h **** } cy_en_usbfs_dev_drv_ep_management_mode_t;
 753:Generated_Source\PSoC6\pdl\drivers/peripheral/usbfs/cy_usbfs_dev_drv.h **** 
 754:Generated_Source\PSoC6\pdl\drivers/peripheral/usbfs/cy_usbfs_dev_drv.h **** /** Data Endpoint Register Access Type */
 755:Generated_Source\PSoC6\pdl\drivers/peripheral/usbfs/cy_usbfs_dev_drv.h **** typedef enum
 756:Generated_Source\PSoC6\pdl\drivers/peripheral/usbfs/cy_usbfs_dev_drv.h **** {
 757:Generated_Source\PSoC6\pdl\drivers/peripheral/usbfs/cy_usbfs_dev_drv.h ****     CY_USBFS_DEV_DRV_USE_8_BITS_DR,     /**< Use 8-bits registers to access data endpoints */
 758:Generated_Source\PSoC6\pdl\drivers/peripheral/usbfs/cy_usbfs_dev_drv.h ****     CY_USBFS_DEV_DRV_USE_16_BITS_DR,    /**< Use 16-bits registers to access data endpoints */
 759:Generated_Source\PSoC6\pdl\drivers/peripheral/usbfs/cy_usbfs_dev_drv.h **** } cy_en_usbfs_dev_ep_access_t;
 760:Generated_Source\PSoC6\pdl\drivers/peripheral/usbfs/cy_usbfs_dev_drv.h **** 
 761:Generated_Source\PSoC6\pdl\drivers/peripheral/usbfs/cy_usbfs_dev_drv.h **** /** Service Callback Events (this enumerated type is used by middleware) */
 762:Generated_Source\PSoC6\pdl\drivers/peripheral/usbfs/cy_usbfs_dev_drv.h **** typedef enum
 763:Generated_Source\PSoC6\pdl\drivers/peripheral/usbfs/cy_usbfs_dev_drv.h **** {
 764:Generated_Source\PSoC6\pdl\drivers/peripheral/usbfs/cy_usbfs_dev_drv.h ****     CY_USB_DEV_BUS_RESET = 0U,   /**< Callback hooked to bus reset interrupt */
 765:Generated_Source\PSoC6\pdl\drivers/peripheral/usbfs/cy_usbfs_dev_drv.h ****     CY_USB_DEV_EP0_SETUP = 1U,   /**< Callback hooked to endpoint 0 SETUP packet interrupt */
 766:Generated_Source\PSoC6\pdl\drivers/peripheral/usbfs/cy_usbfs_dev_drv.h ****     CY_USB_DEV_EP0_IN    = 2U,   /**< Callback hooked to endpoint 0 IN packet interrupt */
 767:Generated_Source\PSoC6\pdl\drivers/peripheral/usbfs/cy_usbfs_dev_drv.h ****     CY_USB_DEV_EP0_OUT   = 3U,   /**< Callback hooked to endpoint 0 OUT packet interrupt */
 768:Generated_Source\PSoC6\pdl\drivers/peripheral/usbfs/cy_usbfs_dev_drv.h **** } cy_en_usb_dev_service_cb_t;
 769:Generated_Source\PSoC6\pdl\drivers/peripheral/usbfs/cy_usbfs_dev_drv.h **** 
 770:Generated_Source\PSoC6\pdl\drivers/peripheral/usbfs/cy_usbfs_dev_drv.h **** /** Callback Sources */
 771:Generated_Source\PSoC6\pdl\drivers/peripheral/usbfs/cy_usbfs_dev_drv.h **** typedef enum
 772:Generated_Source\PSoC6\pdl\drivers/peripheral/usbfs/cy_usbfs_dev_drv.h **** {
 773:Generated_Source\PSoC6\pdl\drivers/peripheral/usbfs/cy_usbfs_dev_drv.h ****     CY_USBFS_DEV_DRV_EP1 = 0U,   /**< Callback hooked to Data Endpoint 1 completion interrupt */
 774:Generated_Source\PSoC6\pdl\drivers/peripheral/usbfs/cy_usbfs_dev_drv.h ****     CY_USBFS_DEV_DRV_EP2 = 1U,   /**< Callback hooked to Data Endpoint 2 completion interrupt */
 775:Generated_Source\PSoC6\pdl\drivers/peripheral/usbfs/cy_usbfs_dev_drv.h ****     CY_USBFS_DEV_DRV_EP3 = 2U,   /**< Callback hooked to Data Endpoint 3 completion interrupt */
 776:Generated_Source\PSoC6\pdl\drivers/peripheral/usbfs/cy_usbfs_dev_drv.h ****     CY_USBFS_DEV_DRV_EP4 = 3U,   /**< Callback hooked to Data Endpoint 4 completion interrupt */
ARM GAS  C:\Users\enes_\AppData\Local\Temp\ccL38cFe.s 			page 44


 777:Generated_Source\PSoC6\pdl\drivers/peripheral/usbfs/cy_usbfs_dev_drv.h ****     CY_USBFS_DEV_DRV_EP5 = 4U,   /**< Callback hooked to Data Endpoint 5 completion interrupt */
 778:Generated_Source\PSoC6\pdl\drivers/peripheral/usbfs/cy_usbfs_dev_drv.h ****     CY_USBFS_DEV_DRV_EP6 = 5U,   /**< Callback hooked to Data Endpoint 6 completion interrupt */
 779:Generated_Source\PSoC6\pdl\drivers/peripheral/usbfs/cy_usbfs_dev_drv.h ****     CY_USBFS_DEV_DRV_EP7 = 6U,   /**< Callback hooked to Data Endpoint 7 completion interrupt */
 780:Generated_Source\PSoC6\pdl\drivers/peripheral/usbfs/cy_usbfs_dev_drv.h ****     CY_USBFS_DEV_DRV_EP8 = 7U,   /**< Callback hooked to Data Endpoint 8 completion interrupt */
 781:Generated_Source\PSoC6\pdl\drivers/peripheral/usbfs/cy_usbfs_dev_drv.h ****     CY_USBFS_DEV_DRV_SOF = 8U,   /**< Callback hooked to SOF packet received interrupt */
 782:Generated_Source\PSoC6\pdl\drivers/peripheral/usbfs/cy_usbfs_dev_drv.h ****     CY_USBFS_DEV_DRV_LPM = 9U,   /**< Callback hooked to LPM request received interrupt */
 783:Generated_Source\PSoC6\pdl\drivers/peripheral/usbfs/cy_usbfs_dev_drv.h **** } cy_en_usbfs_dev_drv_cb_source_t;
 784:Generated_Source\PSoC6\pdl\drivers/peripheral/usbfs/cy_usbfs_dev_drv.h **** 
 785:Generated_Source\PSoC6\pdl\drivers/peripheral/usbfs/cy_usbfs_dev_drv.h **** /** Data Endpoint States (this enumerated type is used by middleware) */
 786:Generated_Source\PSoC6\pdl\drivers/peripheral/usbfs/cy_usbfs_dev_drv.h **** typedef enum
 787:Generated_Source\PSoC6\pdl\drivers/peripheral/usbfs/cy_usbfs_dev_drv.h **** {
 788:Generated_Source\PSoC6\pdl\drivers/peripheral/usbfs/cy_usbfs_dev_drv.h ****     CY_USB_DEV_EP_IDLE,       /**< Endpoint is in idle state after configuration is set */
 789:Generated_Source\PSoC6\pdl\drivers/peripheral/usbfs/cy_usbfs_dev_drv.h ****     CY_USB_DEV_EP_PENDING,    /**< Transfer targeted to an endpoint is in progress */
 790:Generated_Source\PSoC6\pdl\drivers/peripheral/usbfs/cy_usbfs_dev_drv.h ****     CY_USB_DEV_EP_COMPLETED,  /**< Transfer targeted to an endpoint is completed */
 791:Generated_Source\PSoC6\pdl\drivers/peripheral/usbfs/cy_usbfs_dev_drv.h ****     CY_USB_DEV_EP_STALLED,    /**< Endpoint is stalled */
 792:Generated_Source\PSoC6\pdl\drivers/peripheral/usbfs/cy_usbfs_dev_drv.h ****     CY_USB_DEV_EP_DISABLED,   /**< Endpoint is disabled (not used in this configuration) */
 793:Generated_Source\PSoC6\pdl\drivers/peripheral/usbfs/cy_usbfs_dev_drv.h ****     CY_USB_DEV_EP_INVALID,     /**< Endpoint does not supported by the hardware */
 794:Generated_Source\PSoC6\pdl\drivers/peripheral/usbfs/cy_usbfs_dev_drv.h **** }  cy_en_usb_dev_ep_state_t;
 795:Generated_Source\PSoC6\pdl\drivers/peripheral/usbfs/cy_usbfs_dev_drv.h **** 
 796:Generated_Source\PSoC6\pdl\drivers/peripheral/usbfs/cy_usbfs_dev_drv.h **** /** USB Lines Control */
 797:Generated_Source\PSoC6\pdl\drivers/peripheral/usbfs/cy_usbfs_dev_drv.h **** typedef enum
 798:Generated_Source\PSoC6\pdl\drivers/peripheral/usbfs/cy_usbfs_dev_drv.h **** {
 799:Generated_Source\PSoC6\pdl\drivers/peripheral/usbfs/cy_usbfs_dev_drv.h ****     CY_USBFS_DEV_DRV_FORCE_STATE_J    = 0xA0U,  /**< Force a J State onto the USB lines */
 800:Generated_Source\PSoC6\pdl\drivers/peripheral/usbfs/cy_usbfs_dev_drv.h ****     CY_USBFS_DEV_DRV_FORCE_STATE_K    = 0x80U,  /**< Force a K State onto the USB lines */
 801:Generated_Source\PSoC6\pdl\drivers/peripheral/usbfs/cy_usbfs_dev_drv.h ****     CY_USBFS_DEV_DRV_FORCE_STATE_SE0  = 0xC0U,  /**< Force a Single Ended 0 onto the USB lines */
 802:Generated_Source\PSoC6\pdl\drivers/peripheral/usbfs/cy_usbfs_dev_drv.h ****     CY_USBFS_DEV_DRV_FORCE_STATE_NONE = 0x00U   /**< Return bus to SIE control */
 803:Generated_Source\PSoC6\pdl\drivers/peripheral/usbfs/cy_usbfs_dev_drv.h **** } cy_en_usbfs_dev_drv_force_bus_state_t;
 804:Generated_Source\PSoC6\pdl\drivers/peripheral/usbfs/cy_usbfs_dev_drv.h **** 
 805:Generated_Source\PSoC6\pdl\drivers/peripheral/usbfs/cy_usbfs_dev_drv.h **** /** LPM (Link Power Management) Responses */
 806:Generated_Source\PSoC6\pdl\drivers/peripheral/usbfs/cy_usbfs_dev_drv.h **** typedef enum
 807:Generated_Source\PSoC6\pdl\drivers/peripheral/usbfs/cy_usbfs_dev_drv.h **** {
 808:Generated_Source\PSoC6\pdl\drivers/peripheral/usbfs/cy_usbfs_dev_drv.h ****     /** The next LPM request will be responded with NACK */
 809:Generated_Source\PSoC6\pdl\drivers/peripheral/usbfs/cy_usbfs_dev_drv.h ****     CY_USBFS_DEV_DRV_LPM_REQ_NACK = 0x0U,  
 810:Generated_Source\PSoC6\pdl\drivers/peripheral/usbfs/cy_usbfs_dev_drv.h **** 
 811:Generated_Source\PSoC6\pdl\drivers/peripheral/usbfs/cy_usbfs_dev_drv.h ****     /** The next LPM request will be responded with ACK */
 812:Generated_Source\PSoC6\pdl\drivers/peripheral/usbfs/cy_usbfs_dev_drv.h ****     CY_USBFS_DEV_DRV_LPM_REQ_ACK  = 0x1U,
 813:Generated_Source\PSoC6\pdl\drivers/peripheral/usbfs/cy_usbfs_dev_drv.h **** } cy_en_usbfs_dev_drv_lpm_req_t;
 814:Generated_Source\PSoC6\pdl\drivers/peripheral/usbfs/cy_usbfs_dev_drv.h **** /** \} group_usbfs_dev_drv_enums */
 815:Generated_Source\PSoC6\pdl\drivers/peripheral/usbfs/cy_usbfs_dev_drv.h **** 
 816:Generated_Source\PSoC6\pdl\drivers/peripheral/usbfs/cy_usbfs_dev_drv.h **** 
 817:Generated_Source\PSoC6\pdl\drivers/peripheral/usbfs/cy_usbfs_dev_drv.h **** /*******************************************************************************
 818:Generated_Source\PSoC6\pdl\drivers/peripheral/usbfs/cy_usbfs_dev_drv.h **** *                                  Type Definitions
 819:Generated_Source\PSoC6\pdl\drivers/peripheral/usbfs/cy_usbfs_dev_drv.h **** *******************************************************************************/
 820:Generated_Source\PSoC6\pdl\drivers/peripheral/usbfs/cy_usbfs_dev_drv.h **** 
 821:Generated_Source\PSoC6\pdl\drivers/peripheral/usbfs/cy_usbfs_dev_drv.h **** /**
 822:Generated_Source\PSoC6\pdl\drivers/peripheral/usbfs/cy_usbfs_dev_drv.h **** * \addtogroup group_usbfs_dev_drv_data_structures
 823:Generated_Source\PSoC6\pdl\drivers/peripheral/usbfs/cy_usbfs_dev_drv.h **** * \{
 824:Generated_Source\PSoC6\pdl\drivers/peripheral/usbfs/cy_usbfs_dev_drv.h **** */
 825:Generated_Source\PSoC6\pdl\drivers/peripheral/usbfs/cy_usbfs_dev_drv.h **** 
 826:Generated_Source\PSoC6\pdl\drivers/peripheral/usbfs/cy_usbfs_dev_drv.h **** /** Data Endpoint Configuration Structure */
 827:Generated_Source\PSoC6\pdl\drivers/peripheral/usbfs/cy_usbfs_dev_drv.h **** typedef struct
 828:Generated_Source\PSoC6\pdl\drivers/peripheral/usbfs/cy_usbfs_dev_drv.h **** {
 829:Generated_Source\PSoC6\pdl\drivers/peripheral/usbfs/cy_usbfs_dev_drv.h ****     bool     enableEndpoint;    /**< Defines if endpoint becomes active after configuration */
 830:Generated_Source\PSoC6\pdl\drivers/peripheral/usbfs/cy_usbfs_dev_drv.h ****     bool     allocBuffer;       /**< Defines if buffer allocation is need for endpoint */
 831:Generated_Source\PSoC6\pdl\drivers/peripheral/usbfs/cy_usbfs_dev_drv.h ****     uint16_t maxPacketSize;     /**< Endpoint max packet size */
 832:Generated_Source\PSoC6\pdl\drivers/peripheral/usbfs/cy_usbfs_dev_drv.h ****     uint16_t bufferSize;        /**< Endpoint buffer size (the biggest max packet size
 833:Generated_Source\PSoC6\pdl\drivers/peripheral/usbfs/cy_usbfs_dev_drv.h ****                                      across all alternate for this endpoint) */
ARM GAS  C:\Users\enes_\AppData\Local\Temp\ccL38cFe.s 			page 45


 834:Generated_Source\PSoC6\pdl\drivers/peripheral/usbfs/cy_usbfs_dev_drv.h ****     uint8_t  endpointAddr;      /**< Endpoint address (number plus direction bit) */
 835:Generated_Source\PSoC6\pdl\drivers/peripheral/usbfs/cy_usbfs_dev_drv.h ****     uint8_t  attributes;        /**< Endpoint attributes */ 
 836:Generated_Source\PSoC6\pdl\drivers/peripheral/usbfs/cy_usbfs_dev_drv.h **** } cy_stc_usb_dev_ep_config_t;
 837:Generated_Source\PSoC6\pdl\drivers/peripheral/usbfs/cy_usbfs_dev_drv.h **** 
 838:Generated_Source\PSoC6\pdl\drivers/peripheral/usbfs/cy_usbfs_dev_drv.h **** /**
 839:Generated_Source\PSoC6\pdl\drivers/peripheral/usbfs/cy_usbfs_dev_drv.h **** * Driver context structure prototype.
 840:Generated_Source\PSoC6\pdl\drivers/peripheral/usbfs/cy_usbfs_dev_drv.h **** * The driver define this structure type \ref cy_stc_usbfs_dev_drv_context_t.
 841:Generated_Source\PSoC6\pdl\drivers/peripheral/usbfs/cy_usbfs_dev_drv.h **** */
 842:Generated_Source\PSoC6\pdl\drivers/peripheral/usbfs/cy_usbfs_dev_drv.h **** struct cy_stc_usbfs_dev_drv_context;
 843:Generated_Source\PSoC6\pdl\drivers/peripheral/usbfs/cy_usbfs_dev_drv.h **** 
 844:Generated_Source\PSoC6\pdl\drivers/peripheral/usbfs/cy_usbfs_dev_drv.h **** /**
 845:Generated_Source\PSoC6\pdl\drivers/peripheral/usbfs/cy_usbfs_dev_drv.h **** * Provides the typedef for the callback function called in the
 846:Generated_Source\PSoC6\pdl\drivers/peripheral/usbfs/cy_usbfs_dev_drv.h **** * \ref Cy_USBFS_Dev_Drv_Interrupt to notify the user interrupt events.
 847:Generated_Source\PSoC6\pdl\drivers/peripheral/usbfs/cy_usbfs_dev_drv.h **** */
 848:Generated_Source\PSoC6\pdl\drivers/peripheral/usbfs/cy_usbfs_dev_drv.h **** typedef void (* cy_cb_usbfs_dev_drv_callback_t)(USBFS_Type *base, 
 849:Generated_Source\PSoC6\pdl\drivers/peripheral/usbfs/cy_usbfs_dev_drv.h ****                                                 struct cy_stc_usbfs_dev_drv_context *context);
 850:Generated_Source\PSoC6\pdl\drivers/peripheral/usbfs/cy_usbfs_dev_drv.h **** 
 851:Generated_Source\PSoC6\pdl\drivers/peripheral/usbfs/cy_usbfs_dev_drv.h **** /**
 852:Generated_Source\PSoC6\pdl\drivers/peripheral/usbfs/cy_usbfs_dev_drv.h **** * Provides the typedef for the callback function called in the
 853:Generated_Source\PSoC6\pdl\drivers/peripheral/usbfs/cy_usbfs_dev_drv.h **** * \ref Cy_USBFS_Dev_Drv_Interrupt to notify the user about endpoint transfer 
 854:Generated_Source\PSoC6\pdl\drivers/peripheral/usbfs/cy_usbfs_dev_drv.h **** * completion event.
 855:Generated_Source\PSoC6\pdl\drivers/peripheral/usbfs/cy_usbfs_dev_drv.h **** */
 856:Generated_Source\PSoC6\pdl\drivers/peripheral/usbfs/cy_usbfs_dev_drv.h **** typedef void (* cy_cb_usbfs_dev_drv_ep_callback_t)(USBFS_Type *base, 
 857:Generated_Source\PSoC6\pdl\drivers/peripheral/usbfs/cy_usbfs_dev_drv.h ****                                                    uint32_t errorType, 
 858:Generated_Source\PSoC6\pdl\drivers/peripheral/usbfs/cy_usbfs_dev_drv.h ****                                                    struct cy_stc_usbfs_dev_drv_context *context);
 859:Generated_Source\PSoC6\pdl\drivers/peripheral/usbfs/cy_usbfs_dev_drv.h **** 
 860:Generated_Source\PSoC6\pdl\drivers/peripheral/usbfs/cy_usbfs_dev_drv.h **** /**
 861:Generated_Source\PSoC6\pdl\drivers/peripheral/usbfs/cy_usbfs_dev_drv.h **** * Provides the typedef for the user defined function to replace library provided 
 862:Generated_Source\PSoC6\pdl\drivers/peripheral/usbfs/cy_usbfs_dev_drv.h **** * memcpy function to copy data from endpoint buffer to the user buffer.
 863:Generated_Source\PSoC6\pdl\drivers/peripheral/usbfs/cy_usbfs_dev_drv.h **** */
 864:Generated_Source\PSoC6\pdl\drivers/peripheral/usbfs/cy_usbfs_dev_drv.h **** typedef uint8_t * (* cy_fn_usbfs_dev_drv_memcpy_ptr_t)(uint8_t *dest, 
 865:Generated_Source\PSoC6\pdl\drivers/peripheral/usbfs/cy_usbfs_dev_drv.h ****                                                        const uint8_t *src, 
 866:Generated_Source\PSoC6\pdl\drivers/peripheral/usbfs/cy_usbfs_dev_drv.h ****                                                        uint32_t size);
 867:Generated_Source\PSoC6\pdl\drivers/peripheral/usbfs/cy_usbfs_dev_drv.h **** 
 868:Generated_Source\PSoC6\pdl\drivers/peripheral/usbfs/cy_usbfs_dev_drv.h **** /** \cond INTERNAL*/
 869:Generated_Source\PSoC6\pdl\drivers/peripheral/usbfs/cy_usbfs_dev_drv.h **** 
 870:Generated_Source\PSoC6\pdl\drivers/peripheral/usbfs/cy_usbfs_dev_drv.h **** /**
 871:Generated_Source\PSoC6\pdl\drivers/peripheral/usbfs/cy_usbfs_dev_drv.h **** * Specifies the typedef for the pointer to the function that adds a data endpoint
 872:Generated_Source\PSoC6\pdl\drivers/peripheral/usbfs/cy_usbfs_dev_drv.h **** */
 873:Generated_Source\PSoC6\pdl\drivers/peripheral/usbfs/cy_usbfs_dev_drv.h **** typedef cy_en_usbfs_dev_drv_status_t (* cy_fn_usbfs_dev_drv_add_ep_ptr_t)
 874:Generated_Source\PSoC6\pdl\drivers/peripheral/usbfs/cy_usbfs_dev_drv.h ****                                         (USBFS_Type *base,
 875:Generated_Source\PSoC6\pdl\drivers/peripheral/usbfs/cy_usbfs_dev_drv.h ****                                          cy_stc_usb_dev_ep_config_t const *config,
 876:Generated_Source\PSoC6\pdl\drivers/peripheral/usbfs/cy_usbfs_dev_drv.h ****                                          struct cy_stc_usbfs_dev_drv_context     *context);
 877:Generated_Source\PSoC6\pdl\drivers/peripheral/usbfs/cy_usbfs_dev_drv.h **** 
 878:Generated_Source\PSoC6\pdl\drivers/peripheral/usbfs/cy_usbfs_dev_drv.h **** /**
 879:Generated_Source\PSoC6\pdl\drivers/peripheral/usbfs/cy_usbfs_dev_drv.h **** * Specifies the typedef for the pointer to the function that loads data into
 880:Generated_Source\PSoC6\pdl\drivers/peripheral/usbfs/cy_usbfs_dev_drv.h **** * the data endpoint.
 881:Generated_Source\PSoC6\pdl\drivers/peripheral/usbfs/cy_usbfs_dev_drv.h **** */
 882:Generated_Source\PSoC6\pdl\drivers/peripheral/usbfs/cy_usbfs_dev_drv.h **** typedef cy_en_usbfs_dev_drv_status_t (* cy_fn_usbfs_dev_drv_load_ep_ptr_t)
 883:Generated_Source\PSoC6\pdl\drivers/peripheral/usbfs/cy_usbfs_dev_drv.h ****                                         (USBFS_Type    *base,
 884:Generated_Source\PSoC6\pdl\drivers/peripheral/usbfs/cy_usbfs_dev_drv.h ****                                          uint32_t       endpoint,
 885:Generated_Source\PSoC6\pdl\drivers/peripheral/usbfs/cy_usbfs_dev_drv.h ****                                          const uint8_t *buffer,
 886:Generated_Source\PSoC6\pdl\drivers/peripheral/usbfs/cy_usbfs_dev_drv.h ****                                          uint32_t       size,
 887:Generated_Source\PSoC6\pdl\drivers/peripheral/usbfs/cy_usbfs_dev_drv.h ****                                          struct cy_stc_usbfs_dev_drv_context *context);
 888:Generated_Source\PSoC6\pdl\drivers/peripheral/usbfs/cy_usbfs_dev_drv.h **** 
 889:Generated_Source\PSoC6\pdl\drivers/peripheral/usbfs/cy_usbfs_dev_drv.h **** /**
 890:Generated_Source\PSoC6\pdl\drivers/peripheral/usbfs/cy_usbfs_dev_drv.h **** * Specifies the typedef for the pointer to the function that reads data from
ARM GAS  C:\Users\enes_\AppData\Local\Temp\ccL38cFe.s 			page 46


 891:Generated_Source\PSoC6\pdl\drivers/peripheral/usbfs/cy_usbfs_dev_drv.h **** * the data endpoint.
 892:Generated_Source\PSoC6\pdl\drivers/peripheral/usbfs/cy_usbfs_dev_drv.h **** */
 893:Generated_Source\PSoC6\pdl\drivers/peripheral/usbfs/cy_usbfs_dev_drv.h **** typedef cy_en_usbfs_dev_drv_status_t (* cy_fn_usbfs_dev_drv_read_ep_ptr_t)
 894:Generated_Source\PSoC6\pdl\drivers/peripheral/usbfs/cy_usbfs_dev_drv.h ****                                         (USBFS_Type *base,
 895:Generated_Source\PSoC6\pdl\drivers/peripheral/usbfs/cy_usbfs_dev_drv.h ****                                          uint32_t    endpoint,
 896:Generated_Source\PSoC6\pdl\drivers/peripheral/usbfs/cy_usbfs_dev_drv.h ****                                          uint8_t    *buffer,
 897:Generated_Source\PSoC6\pdl\drivers/peripheral/usbfs/cy_usbfs_dev_drv.h ****                                          uint32_t    size,
 898:Generated_Source\PSoC6\pdl\drivers/peripheral/usbfs/cy_usbfs_dev_drv.h ****                                          uint32_t   *actSize,
 899:Generated_Source\PSoC6\pdl\drivers/peripheral/usbfs/cy_usbfs_dev_drv.h ****                                          struct cy_stc_usbfs_dev_drv_context *context);
 900:Generated_Source\PSoC6\pdl\drivers/peripheral/usbfs/cy_usbfs_dev_drv.h **** /** \endcond */
 901:Generated_Source\PSoC6\pdl\drivers/peripheral/usbfs/cy_usbfs_dev_drv.h **** 
 902:Generated_Source\PSoC6\pdl\drivers/peripheral/usbfs/cy_usbfs_dev_drv.h **** /** DMA Channel Configuration Structure */
 903:Generated_Source\PSoC6\pdl\drivers/peripheral/usbfs/cy_usbfs_dev_drv.h **** typedef struct
 904:Generated_Source\PSoC6\pdl\drivers/peripheral/usbfs/cy_usbfs_dev_drv.h **** {
 905:Generated_Source\PSoC6\pdl\drivers/peripheral/usbfs/cy_usbfs_dev_drv.h ****     DW_Type *base;          /**< Pointer to the DMA base */
 906:Generated_Source\PSoC6\pdl\drivers/peripheral/usbfs/cy_usbfs_dev_drv.h ****     uint32_t chNum;         /**< Channel number */
