ARM GAS  C:\Users\enes_\AppData\Local\Temp\ccUvgHSW.s 			page 1


   1              		.syntax unified
   2              		.cpu cortex-m0plus
   3              		.fpu softvfp
   4              		.eabi_attribute 20, 1
   5              		.eabi_attribute 21, 1
   6              		.eabi_attribute 23, 3
   7              		.eabi_attribute 24, 1
   8              		.eabi_attribute 25, 1
   9              		.eabi_attribute 26, 1
  10              		.eabi_attribute 30, 1
  11              		.eabi_attribute 34, 0
  12              		.eabi_attribute 18, 4
  13              		.thumb
  14              		.syntax unified
  15              		.file	"cy_usbfs_dev_drv.c"
  16              		.text
  17              	.Ltext0:
  18              		.cfi_sections	.debug_frame
  19              		.section	.text.LpmIntrHandler,"ax",%progbits
  20              		.align	2
  21              		.code	16
  22              		.thumb_func
  23              		.type	LpmIntrHandler, %function
  24              	LpmIntrHandler:
  25              	.LFB174:
  26              		.file 1 "Generated_Source\\PSoC6\\pdl\\drivers\\peripheral\\usbfs\\cy_usbfs_dev_drv.c"
   1:Generated_Source\PSoC6\pdl\drivers\peripheral\usbfs/cy_usbfs_dev_drv.c **** /***************************************************************************//**
   2:Generated_Source\PSoC6\pdl\drivers\peripheral\usbfs/cy_usbfs_dev_drv.c **** * \file cy_usbfs_dev_drv.c
   3:Generated_Source\PSoC6\pdl\drivers\peripheral\usbfs/cy_usbfs_dev_drv.c **** * \version 1.0
   4:Generated_Source\PSoC6\pdl\drivers\peripheral\usbfs/cy_usbfs_dev_drv.c **** *
   5:Generated_Source\PSoC6\pdl\drivers\peripheral\usbfs/cy_usbfs_dev_drv.c **** * Provides general API implementation of the USBFS driver.
   6:Generated_Source\PSoC6\pdl\drivers\peripheral\usbfs/cy_usbfs_dev_drv.c **** *
   7:Generated_Source\PSoC6\pdl\drivers\peripheral\usbfs/cy_usbfs_dev_drv.c **** ********************************************************************************
   8:Generated_Source\PSoC6\pdl\drivers\peripheral\usbfs/cy_usbfs_dev_drv.c **** * \copyright
   9:Generated_Source\PSoC6\pdl\drivers\peripheral\usbfs/cy_usbfs_dev_drv.c **** * Copyright 2018, Cypress Semiconductor Corporation. All rights reserved.
  10:Generated_Source\PSoC6\pdl\drivers\peripheral\usbfs/cy_usbfs_dev_drv.c **** * You may use this file only in accordance with the license, terms, conditions,
  11:Generated_Source\PSoC6\pdl\drivers\peripheral\usbfs/cy_usbfs_dev_drv.c **** * disclaimers, and limitations in the end user license agreement accompanying
  12:Generated_Source\PSoC6\pdl\drivers\peripheral\usbfs/cy_usbfs_dev_drv.c **** * the software package with which this file was provided.
  13:Generated_Source\PSoC6\pdl\drivers\peripheral\usbfs/cy_usbfs_dev_drv.c **** *******************************************************************************/
  14:Generated_Source\PSoC6\pdl\drivers\peripheral\usbfs/cy_usbfs_dev_drv.c **** 
  15:Generated_Source\PSoC6\pdl\drivers\peripheral\usbfs/cy_usbfs_dev_drv.c **** #include "cy_usbfs_dev_drv.h"
  16:Generated_Source\PSoC6\pdl\drivers\peripheral\usbfs/cy_usbfs_dev_drv.c **** #include "cy_usbfs_dev_drv_pvt.h"
  17:Generated_Source\PSoC6\pdl\drivers\peripheral\usbfs/cy_usbfs_dev_drv.c **** 
  18:Generated_Source\PSoC6\pdl\drivers\peripheral\usbfs/cy_usbfs_dev_drv.c **** #ifdef CY_IP_MXUSBFS
  19:Generated_Source\PSoC6\pdl\drivers\peripheral\usbfs/cy_usbfs_dev_drv.c **** 
  20:Generated_Source\PSoC6\pdl\drivers\peripheral\usbfs/cy_usbfs_dev_drv.c **** #if defined(__cplusplus)
  21:Generated_Source\PSoC6\pdl\drivers\peripheral\usbfs/cy_usbfs_dev_drv.c **** extern "C" {
  22:Generated_Source\PSoC6\pdl\drivers\peripheral\usbfs/cy_usbfs_dev_drv.c **** #endif
  23:Generated_Source\PSoC6\pdl\drivers\peripheral\usbfs/cy_usbfs_dev_drv.c **** 
  24:Generated_Source\PSoC6\pdl\drivers\peripheral\usbfs/cy_usbfs_dev_drv.c **** /*******************************************************************************
  25:Generated_Source\PSoC6\pdl\drivers\peripheral\usbfs/cy_usbfs_dev_drv.c **** *                        Internal Constants
  26:Generated_Source\PSoC6\pdl\drivers\peripheral\usbfs/cy_usbfs_dev_drv.c **** *******************************************************************************/
  27:Generated_Source\PSoC6\pdl\drivers\peripheral\usbfs/cy_usbfs_dev_drv.c **** 
  28:Generated_Source\PSoC6\pdl\drivers\peripheral\usbfs/cy_usbfs_dev_drv.c **** /* After suspend, disable wait 2 us per MKAD-172 */
  29:Generated_Source\PSoC6\pdl\drivers\peripheral\usbfs/cy_usbfs_dev_drv.c **** #define WAIT_SUSPEND_DISABLE    (2U)
  30:Generated_Source\PSoC6\pdl\drivers\peripheral\usbfs/cy_usbfs_dev_drv.c **** 
  31:Generated_Source\PSoC6\pdl\drivers\peripheral\usbfs/cy_usbfs_dev_drv.c **** /* The bus reset counter is driven by 100 kHz clock and detects bus reset
ARM GAS  C:\Users\enes_\AppData\Local\Temp\ccUvgHSW.s 			page 2


  32:Generated_Source\PSoC6\pdl\drivers\peripheral\usbfs/cy_usbfs_dev_drv.c **** * condition after 100 us.
  33:Generated_Source\PSoC6\pdl\drivers\peripheral\usbfs/cy_usbfs_dev_drv.c **** */
  34:Generated_Source\PSoC6\pdl\drivers\peripheral\usbfs/cy_usbfs_dev_drv.c **** #define BUS_RESET_PERIOD        (10UL)
  35:Generated_Source\PSoC6\pdl\drivers\peripheral\usbfs/cy_usbfs_dev_drv.c **** 
  36:Generated_Source\PSoC6\pdl\drivers\peripheral\usbfs/cy_usbfs_dev_drv.c **** 
  37:Generated_Source\PSoC6\pdl\drivers\peripheral\usbfs/cy_usbfs_dev_drv.c **** /*******************************************************************************
  38:Generated_Source\PSoC6\pdl\drivers\peripheral\usbfs/cy_usbfs_dev_drv.c **** *                        Internal Functions Prototypes
  39:Generated_Source\PSoC6\pdl\drivers\peripheral\usbfs/cy_usbfs_dev_drv.c **** *******************************************************************************/
  40:Generated_Source\PSoC6\pdl\drivers\peripheral\usbfs/cy_usbfs_dev_drv.c **** 
  41:Generated_Source\PSoC6\pdl\drivers\peripheral\usbfs/cy_usbfs_dev_drv.c **** static void LpmIntrHandler(USBFS_Type *base, cy_stc_usbfs_dev_drv_context_t *context);
  42:Generated_Source\PSoC6\pdl\drivers\peripheral\usbfs/cy_usbfs_dev_drv.c **** static void SofIntrHandler(USBFS_Type *base, cy_stc_usbfs_dev_drv_context_t *context);
  43:Generated_Source\PSoC6\pdl\drivers\peripheral\usbfs/cy_usbfs_dev_drv.c **** static void Ep0IntrHandler(USBFS_Type *base, cy_stc_usbfs_dev_drv_context_t *context);
  44:Generated_Source\PSoC6\pdl\drivers\peripheral\usbfs/cy_usbfs_dev_drv.c **** static void BusResetIntrHandler(USBFS_Type *base, cy_stc_usbfs_dev_drv_context_t *context);
  45:Generated_Source\PSoC6\pdl\drivers\peripheral\usbfs/cy_usbfs_dev_drv.c **** static void ArbiterIntrHandler (USBFS_Type *base, cy_stc_usbfs_dev_drv_context_t *context);
  46:Generated_Source\PSoC6\pdl\drivers\peripheral\usbfs/cy_usbfs_dev_drv.c **** static void SieEnpointIntrHandler(USBFS_Type *base, uint32_t endpoint, cy_stc_usbfs_dev_drv_context
  47:Generated_Source\PSoC6\pdl\drivers\peripheral\usbfs/cy_usbfs_dev_drv.c **** 
  48:Generated_Source\PSoC6\pdl\drivers\peripheral\usbfs/cy_usbfs_dev_drv.c **** static uint32_t WriteEp0Buffer(USBFS_Type *base, uint8_t const *buffer, uint32_t size);
  49:Generated_Source\PSoC6\pdl\drivers\peripheral\usbfs/cy_usbfs_dev_drv.c **** static uint32_t ReadEp0Buffer (USBFS_Type const *base, uint8_t *buffer, uint32_t size);
  50:Generated_Source\PSoC6\pdl\drivers\peripheral\usbfs/cy_usbfs_dev_drv.c **** 
  51:Generated_Source\PSoC6\pdl\drivers\peripheral\usbfs/cy_usbfs_dev_drv.c **** static void RestoreDeviceConfiguration(USBFS_Type *base, cy_stc_usbfs_dev_drv_context_t *context);
  52:Generated_Source\PSoC6\pdl\drivers\peripheral\usbfs/cy_usbfs_dev_drv.c **** 
  53:Generated_Source\PSoC6\pdl\drivers\peripheral\usbfs/cy_usbfs_dev_drv.c **** /*******************************************************************************
  54:Generated_Source\PSoC6\pdl\drivers\peripheral\usbfs/cy_usbfs_dev_drv.c **** * Function Name: Cy_USBFS_Dev_Drv_Init
  55:Generated_Source\PSoC6\pdl\drivers\peripheral\usbfs/cy_usbfs_dev_drv.c **** ****************************************************************************//**
  56:Generated_Source\PSoC6\pdl\drivers\peripheral\usbfs/cy_usbfs_dev_drv.c **** *
  57:Generated_Source\PSoC6\pdl\drivers\peripheral\usbfs/cy_usbfs_dev_drv.c **** * Initializes the USBFS in device mode. If DMAs are used, initialize the DMAs.
  58:Generated_Source\PSoC6\pdl\drivers\peripheral\usbfs/cy_usbfs_dev_drv.c **** *
  59:Generated_Source\PSoC6\pdl\drivers\peripheral\usbfs/cy_usbfs_dev_drv.c **** * \param base
  60:Generated_Source\PSoC6\pdl\drivers\peripheral\usbfs/cy_usbfs_dev_drv.c **** * The pointer to the USBFS instance.
  61:Generated_Source\PSoC6\pdl\drivers\peripheral\usbfs/cy_usbfs_dev_drv.c **** *
  62:Generated_Source\PSoC6\pdl\drivers\peripheral\usbfs/cy_usbfs_dev_drv.c **** * \param config
  63:Generated_Source\PSoC6\pdl\drivers\peripheral\usbfs/cy_usbfs_dev_drv.c **** * The pointer to the configuration structure \ref cy_stc_usbfs_dev_drv_config_t.
  64:Generated_Source\PSoC6\pdl\drivers\peripheral\usbfs/cy_usbfs_dev_drv.c **** *
  65:Generated_Source\PSoC6\pdl\drivers\peripheral\usbfs/cy_usbfs_dev_drv.c **** * \param context
  66:Generated_Source\PSoC6\pdl\drivers\peripheral\usbfs/cy_usbfs_dev_drv.c **** * The pointer to the context structure \ref cy_stc_usbfs_dev_drv_context_t
  67:Generated_Source\PSoC6\pdl\drivers\peripheral\usbfs/cy_usbfs_dev_drv.c **** * allocated by the user. The structure is used during the USBFS Device 
  68:Generated_Source\PSoC6\pdl\drivers\peripheral\usbfs/cy_usbfs_dev_drv.c **** * operation for internal configuration and data retention. The user must not 
  69:Generated_Source\PSoC6\pdl\drivers\peripheral\usbfs/cy_usbfs_dev_drv.c **** * modify anything in this structure.
  70:Generated_Source\PSoC6\pdl\drivers\peripheral\usbfs/cy_usbfs_dev_drv.c **** *
  71:Generated_Source\PSoC6\pdl\drivers\peripheral\usbfs/cy_usbfs_dev_drv.c **** * \return
  72:Generated_Source\PSoC6\pdl\drivers\peripheral\usbfs/cy_usbfs_dev_drv.c **** * Status code of the function execution \ref cy_en_usbfs_dev_drv_status_t.
  73:Generated_Source\PSoC6\pdl\drivers\peripheral\usbfs/cy_usbfs_dev_drv.c **** *
  74:Generated_Source\PSoC6\pdl\drivers\peripheral\usbfs/cy_usbfs_dev_drv.c **** *******************************************************************************/
  75:Generated_Source\PSoC6\pdl\drivers\peripheral\usbfs/cy_usbfs_dev_drv.c **** cy_en_usbfs_dev_drv_status_t Cy_USBFS_Dev_Drv_Init(USBFS_Type *base, 
  76:Generated_Source\PSoC6\pdl\drivers\peripheral\usbfs/cy_usbfs_dev_drv.c ****                                                    cy_stc_usbfs_dev_drv_config_t const *config,
  77:Generated_Source\PSoC6\pdl\drivers\peripheral\usbfs/cy_usbfs_dev_drv.c ****                                                    cy_stc_usbfs_dev_drv_context_t      *context)
  78:Generated_Source\PSoC6\pdl\drivers\peripheral\usbfs/cy_usbfs_dev_drv.c **** {
  79:Generated_Source\PSoC6\pdl\drivers\peripheral\usbfs/cy_usbfs_dev_drv.c ****     cy_en_usbfs_dev_drv_status_t retStatus = CY_USBFS_DEV_DRV_BAD_PARAM;
  80:Generated_Source\PSoC6\pdl\drivers\peripheral\usbfs/cy_usbfs_dev_drv.c **** 
  81:Generated_Source\PSoC6\pdl\drivers\peripheral\usbfs/cy_usbfs_dev_drv.c ****     /* Input parameters verification */
  82:Generated_Source\PSoC6\pdl\drivers\peripheral\usbfs/cy_usbfs_dev_drv.c ****     if ((NULL == base) || (NULL == config) || (NULL == context))
  83:Generated_Source\PSoC6\pdl\drivers\peripheral\usbfs/cy_usbfs_dev_drv.c ****     {
  84:Generated_Source\PSoC6\pdl\drivers\peripheral\usbfs/cy_usbfs_dev_drv.c ****         return CY_USBFS_DEV_DRV_BAD_PARAM;
  85:Generated_Source\PSoC6\pdl\drivers\peripheral\usbfs/cy_usbfs_dev_drv.c ****     }
  86:Generated_Source\PSoC6\pdl\drivers\peripheral\usbfs/cy_usbfs_dev_drv.c **** 
  87:Generated_Source\PSoC6\pdl\drivers\peripheral\usbfs/cy_usbfs_dev_drv.c ****     CY_ASSERT_L3(CY_USBFS_DEV_DRV_IS_MODE_VALID(config->mode));
  88:Generated_Source\PSoC6\pdl\drivers\peripheral\usbfs/cy_usbfs_dev_drv.c **** 
ARM GAS  C:\Users\enes_\AppData\Local\Temp\ccUvgHSW.s 			page 3


  89:Generated_Source\PSoC6\pdl\drivers\peripheral\usbfs/cy_usbfs_dev_drv.c ****     /* Enable clock to mxusb IP */
  90:Generated_Source\PSoC6\pdl\drivers\peripheral\usbfs/cy_usbfs_dev_drv.c ****     USBFS_DEV_USB_CLK_EN(base) = CY_USBFS_DEV_DRV_WRITE_ODD(USBFS_USBDEV_USB_CLK_EN_CSR_CLK_EN_Msk)
  91:Generated_Source\PSoC6\pdl\drivers\peripheral\usbfs/cy_usbfs_dev_drv.c **** 
  92:Generated_Source\PSoC6\pdl\drivers\peripheral\usbfs/cy_usbfs_dev_drv.c ****     /* Clear register (except reserved): the IOMODE = 0 means usb IP controls the usb pins */
  93:Generated_Source\PSoC6\pdl\drivers\peripheral\usbfs/cy_usbfs_dev_drv.c ****     USBFS_DEV_USBIO_CR1(base) = (USBFS_DEV_USBIO_CR1(base) & USBFS_USBDEV_USBIO_CR1_RESERVED_2_Msk)
  94:Generated_Source\PSoC6\pdl\drivers\peripheral\usbfs/cy_usbfs_dev_drv.c **** 
  95:Generated_Source\PSoC6\pdl\drivers\peripheral\usbfs/cy_usbfs_dev_drv.c ****     /* Set number of clocks (divided version of Clk_Peri) to detect bus reset */
  96:Generated_Source\PSoC6\pdl\drivers\peripheral\usbfs/cy_usbfs_dev_drv.c ****     USBFS_DEV_BUS_RST_CNT(base) = BUS_RESET_PERIOD;
  97:Generated_Source\PSoC6\pdl\drivers\peripheral\usbfs/cy_usbfs_dev_drv.c **** 
  98:Generated_Source\PSoC6\pdl\drivers\peripheral\usbfs/cy_usbfs_dev_drv.c ****     /* Enable PHY detector and single-ended and differential receivers */
  99:Generated_Source\PSoC6\pdl\drivers\peripheral\usbfs/cy_usbfs_dev_drv.c ****     USBFS_DEV_LPM_POWER_CTL(base) = (USBFS_USBLPM_POWER_CTL_SUSPEND_Msk    |
 100:Generated_Source\PSoC6\pdl\drivers\peripheral\usbfs/cy_usbfs_dev_drv.c ****                                      USBFS_USBLPM_POWER_CTL_ENABLE_DPO_Msk |
 101:Generated_Source\PSoC6\pdl\drivers\peripheral\usbfs/cy_usbfs_dev_drv.c ****                                      USBFS_USBLPM_POWER_CTL_ENABLE_DMO_Msk);
 102:Generated_Source\PSoC6\pdl\drivers\peripheral\usbfs/cy_usbfs_dev_drv.c ****     (void) USBFS_DEV_LPM_POWER_CTL(base);
 103:Generated_Source\PSoC6\pdl\drivers\peripheral\usbfs/cy_usbfs_dev_drv.c **** 
 104:Generated_Source\PSoC6\pdl\drivers\peripheral\usbfs/cy_usbfs_dev_drv.c ****     /* Suspend clear sequence */
 105:Generated_Source\PSoC6\pdl\drivers\peripheral\usbfs/cy_usbfs_dev_drv.c ****     Cy_SysLib_DelayUs(WAIT_SUSPEND_DISABLE);
 106:Generated_Source\PSoC6\pdl\drivers\peripheral\usbfs/cy_usbfs_dev_drv.c ****     USBFS_DEV_LPM_POWER_CTL(base) &= ~USBFS_USBLPM_POWER_CTL_SUSPEND_Msk;
 107:Generated_Source\PSoC6\pdl\drivers\peripheral\usbfs/cy_usbfs_dev_drv.c ****     (void) USBFS_DEV_LPM_POWER_CTL(base);
 108:Generated_Source\PSoC6\pdl\drivers\peripheral\usbfs/cy_usbfs_dev_drv.c **** 
 109:Generated_Source\PSoC6\pdl\drivers\peripheral\usbfs/cy_usbfs_dev_drv.c ****     /* Clear register (except reserved) and enable IMO lock */
 110:Generated_Source\PSoC6\pdl\drivers\peripheral\usbfs/cy_usbfs_dev_drv.c ****     USBFS_DEV_CR1(base) = USBFS_USBDEV_CR1_ENABLE_LOCK_Msk |
 111:Generated_Source\PSoC6\pdl\drivers\peripheral\usbfs/cy_usbfs_dev_drv.c ****                       (USBFS_DEV_CR1(base) & USBFS_USBDEV_CR1_RESERVED_3_Msk);
 112:Generated_Source\PSoC6\pdl\drivers\peripheral\usbfs/cy_usbfs_dev_drv.c **** 
 113:Generated_Source\PSoC6\pdl\drivers\peripheral\usbfs/cy_usbfs_dev_drv.c ****     /* Configure level selection (HI, MED, LO) for each interrupt source */
 114:Generated_Source\PSoC6\pdl\drivers\peripheral\usbfs/cy_usbfs_dev_drv.c ****     USBFS_DEV_LPM_INTR_LVL_SEL(base) = config->intrLevelSel;
 115:Generated_Source\PSoC6\pdl\drivers\peripheral\usbfs/cy_usbfs_dev_drv.c **** 
 116:Generated_Source\PSoC6\pdl\drivers\peripheral\usbfs/cy_usbfs_dev_drv.c ****     /* Enable interrupt sources: Bus Reset and EP0 */
 117:Generated_Source\PSoC6\pdl\drivers\peripheral\usbfs/cy_usbfs_dev_drv.c ****     USBFS_DEV_LPM_INTR_SIE_MASK(base) = (USBFS_USBLPM_INTR_SIE_BUS_RESET_INTR_Msk |
 118:Generated_Source\PSoC6\pdl\drivers\peripheral\usbfs/cy_usbfs_dev_drv.c ****                                          USBFS_USBLPM_INTR_SIE_EP0_INTR_Msk);
 119:Generated_Source\PSoC6\pdl\drivers\peripheral\usbfs/cy_usbfs_dev_drv.c **** 
 120:Generated_Source\PSoC6\pdl\drivers\peripheral\usbfs/cy_usbfs_dev_drv.c ****     /* Clear LPM register (disable LPM response) */
 121:Generated_Source\PSoC6\pdl\drivers\peripheral\usbfs/cy_usbfs_dev_drv.c ****     USBFS_DEV_LPM_LPM_CTL(base) = 0UL;
 122:Generated_Source\PSoC6\pdl\drivers\peripheral\usbfs/cy_usbfs_dev_drv.c **** 
 123:Generated_Source\PSoC6\pdl\drivers\peripheral\usbfs/cy_usbfs_dev_drv.c ****     if (config->enableLpm)
 124:Generated_Source\PSoC6\pdl\drivers\peripheral\usbfs/cy_usbfs_dev_drv.c ****     {
 125:Generated_Source\PSoC6\pdl\drivers\peripheral\usbfs/cy_usbfs_dev_drv.c ****         /* Enable device to ACK LPM requests */
 126:Generated_Source\PSoC6\pdl\drivers\peripheral\usbfs/cy_usbfs_dev_drv.c ****         USBFS_DEV_LPM_LPM_CTL(base) = (USBFS_USBLPM_LPM_CTL_LPM_EN_Msk |
 127:Generated_Source\PSoC6\pdl\drivers\peripheral\usbfs/cy_usbfs_dev_drv.c ****                                        USBFS_USBLPM_LPM_CTL_LPM_ACK_RESP_Msk);
 128:Generated_Source\PSoC6\pdl\drivers\peripheral\usbfs/cy_usbfs_dev_drv.c ****     }
 129:Generated_Source\PSoC6\pdl\drivers\peripheral\usbfs/cy_usbfs_dev_drv.c **** 
 130:Generated_Source\PSoC6\pdl\drivers\peripheral\usbfs/cy_usbfs_dev_drv.c ****     /* Copy configuration in the context */
 131:Generated_Source\PSoC6\pdl\drivers\peripheral\usbfs/cy_usbfs_dev_drv.c ****     context->mode     = config->mode;
 132:Generated_Source\PSoC6\pdl\drivers\peripheral\usbfs/cy_usbfs_dev_drv.c ****     context->useReg16 = (config->epAccess == CY_USBFS_DEV_DRV_USE_16_BITS_DR);
 133:Generated_Source\PSoC6\pdl\drivers\peripheral\usbfs/cy_usbfs_dev_drv.c ****     context->epSharedBuf     = config->epBuffer;
 134:Generated_Source\PSoC6\pdl\drivers\peripheral\usbfs/cy_usbfs_dev_drv.c ****     context->epSharedBufSize = config->epBufferSize;
 135:Generated_Source\PSoC6\pdl\drivers\peripheral\usbfs/cy_usbfs_dev_drv.c **** 
 136:Generated_Source\PSoC6\pdl\drivers\peripheral\usbfs/cy_usbfs_dev_drv.c ****     /* Initialize pointers to functions that work with data endpoint */
 137:Generated_Source\PSoC6\pdl\drivers\peripheral\usbfs/cy_usbfs_dev_drv.c ****     switch(config->mode)
 138:Generated_Source\PSoC6\pdl\drivers\peripheral\usbfs/cy_usbfs_dev_drv.c ****     {
 139:Generated_Source\PSoC6\pdl\drivers\peripheral\usbfs/cy_usbfs_dev_drv.c ****         case CY_USBFS_DEV_DRV_EP_MANAGEMENT_CPU:
 140:Generated_Source\PSoC6\pdl\drivers\peripheral\usbfs/cy_usbfs_dev_drv.c ****         {
 141:Generated_Source\PSoC6\pdl\drivers\peripheral\usbfs/cy_usbfs_dev_drv.c ****             context->addEndpoint     = &AddEndpointHwBuffer;
 142:Generated_Source\PSoC6\pdl\drivers\peripheral\usbfs/cy_usbfs_dev_drv.c ****             context->loadInEndpoint  = &LoadInEndpointCpu;
 143:Generated_Source\PSoC6\pdl\drivers\peripheral\usbfs/cy_usbfs_dev_drv.c ****             context->readOutEndpoint = &ReadOutEndpointCpu;
 144:Generated_Source\PSoC6\pdl\drivers\peripheral\usbfs/cy_usbfs_dev_drv.c **** 
 145:Generated_Source\PSoC6\pdl\drivers\peripheral\usbfs/cy_usbfs_dev_drv.c ****             USBFS_DEV_ARB_CFG(base) = _VAL2FLD(USBFS_USBDEV_ARB_CFG_DMA_CFG,
ARM GAS  C:\Users\enes_\AppData\Local\Temp\ccUvgHSW.s 			page 4


 146:Generated_Source\PSoC6\pdl\drivers\peripheral\usbfs/cy_usbfs_dev_drv.c ****                                             CY_USBFS_DEV_DRV_EP_MANAGEMENT_CPU);
 147:Generated_Source\PSoC6\pdl\drivers\peripheral\usbfs/cy_usbfs_dev_drv.c **** 
 148:Generated_Source\PSoC6\pdl\drivers\peripheral\usbfs/cy_usbfs_dev_drv.c ****             retStatus = CY_USBFS_DEV_DRV_SUCCESS;
 149:Generated_Source\PSoC6\pdl\drivers\peripheral\usbfs/cy_usbfs_dev_drv.c ****         }
 150:Generated_Source\PSoC6\pdl\drivers\peripheral\usbfs/cy_usbfs_dev_drv.c ****         break;
 151:Generated_Source\PSoC6\pdl\drivers\peripheral\usbfs/cy_usbfs_dev_drv.c **** 
 152:Generated_Source\PSoC6\pdl\drivers\peripheral\usbfs/cy_usbfs_dev_drv.c ****         case CY_USBFS_DEV_DRV_EP_MANAGEMENT_DMA:
 153:Generated_Source\PSoC6\pdl\drivers\peripheral\usbfs/cy_usbfs_dev_drv.c ****         {
 154:Generated_Source\PSoC6\pdl\drivers\peripheral\usbfs/cy_usbfs_dev_drv.c ****             context->addEndpoint     = &AddEndpointHwBuffer;
 155:Generated_Source\PSoC6\pdl\drivers\peripheral\usbfs/cy_usbfs_dev_drv.c ****             context->loadInEndpoint  = &LoadInEndpointDma;
 156:Generated_Source\PSoC6\pdl\drivers\peripheral\usbfs/cy_usbfs_dev_drv.c ****             context->readOutEndpoint = &ReadOutEndpointDma;
 157:Generated_Source\PSoC6\pdl\drivers\peripheral\usbfs/cy_usbfs_dev_drv.c **** 
 158:Generated_Source\PSoC6\pdl\drivers\peripheral\usbfs/cy_usbfs_dev_drv.c ****             USBFS_DEV_ARB_CFG(base) = _VAL2FLD(USBFS_USBDEV_ARB_CFG_DMA_CFG,
 159:Generated_Source\PSoC6\pdl\drivers\peripheral\usbfs/cy_usbfs_dev_drv.c ****                                             CY_USBFS_DEV_DRV_EP_MANAGEMENT_DMA);
 160:Generated_Source\PSoC6\pdl\drivers\peripheral\usbfs/cy_usbfs_dev_drv.c ****         }
 161:Generated_Source\PSoC6\pdl\drivers\peripheral\usbfs/cy_usbfs_dev_drv.c ****         break;
 162:Generated_Source\PSoC6\pdl\drivers\peripheral\usbfs/cy_usbfs_dev_drv.c **** 
 163:Generated_Source\PSoC6\pdl\drivers\peripheral\usbfs/cy_usbfs_dev_drv.c ****         case CY_USBFS_DEV_DRV_EP_MANAGEMENT_DMA_AUTO:
 164:Generated_Source\PSoC6\pdl\drivers\peripheral\usbfs/cy_usbfs_dev_drv.c ****         {
 165:Generated_Source\PSoC6\pdl\drivers\peripheral\usbfs/cy_usbfs_dev_drv.c ****             context->addEndpoint     = &AddEndpointRamBuffer;
 166:Generated_Source\PSoC6\pdl\drivers\peripheral\usbfs/cy_usbfs_dev_drv.c ****             context->loadInEndpoint  = &LoadInEndpointDmaAuto;
 167:Generated_Source\PSoC6\pdl\drivers\peripheral\usbfs/cy_usbfs_dev_drv.c ****             context->readOutEndpoint = &ReadOutEndpointDmaAuto;
 168:Generated_Source\PSoC6\pdl\drivers\peripheral\usbfs/cy_usbfs_dev_drv.c **** 
 169:Generated_Source\PSoC6\pdl\drivers\peripheral\usbfs/cy_usbfs_dev_drv.c ****             USBFS_DEV_ARB_CFG(base) = (_VAL2FLD(USBFS_USBDEV_ARB_CFG_DMA_CFG,
 170:Generated_Source\PSoC6\pdl\drivers\peripheral\usbfs/cy_usbfs_dev_drv.c ****                                              CY_USBFS_DEV_DRV_EP_MANAGEMENT_DMA_AUTO) |
 171:Generated_Source\PSoC6\pdl\drivers\peripheral\usbfs/cy_usbfs_dev_drv.c ****                                              USBFS_USBDEV_ARB_CFG_AUTO_MEM_Msk);
 172:Generated_Source\PSoC6\pdl\drivers\peripheral\usbfs/cy_usbfs_dev_drv.c ****         }
 173:Generated_Source\PSoC6\pdl\drivers\peripheral\usbfs/cy_usbfs_dev_drv.c ****         break;
 174:Generated_Source\PSoC6\pdl\drivers\peripheral\usbfs/cy_usbfs_dev_drv.c **** 
 175:Generated_Source\PSoC6\pdl\drivers\peripheral\usbfs/cy_usbfs_dev_drv.c ****         default:
 176:Generated_Source\PSoC6\pdl\drivers\peripheral\usbfs/cy_usbfs_dev_drv.c ****             break;
 177:Generated_Source\PSoC6\pdl\drivers\peripheral\usbfs/cy_usbfs_dev_drv.c ****     }
 178:Generated_Source\PSoC6\pdl\drivers\peripheral\usbfs/cy_usbfs_dev_drv.c **** 
 179:Generated_Source\PSoC6\pdl\drivers\peripheral\usbfs/cy_usbfs_dev_drv.c ****     /* Configure DMA and store info about DMA channels */
 180:Generated_Source\PSoC6\pdl\drivers\peripheral\usbfs/cy_usbfs_dev_drv.c ****     if (context->mode != CY_USBFS_DEV_DRV_EP_MANAGEMENT_CPU)
 181:Generated_Source\PSoC6\pdl\drivers\peripheral\usbfs/cy_usbfs_dev_drv.c ****     {
 182:Generated_Source\PSoC6\pdl\drivers\peripheral\usbfs/cy_usbfs_dev_drv.c ****         retStatus = DmaInit(config, context);   
 183:Generated_Source\PSoC6\pdl\drivers\peripheral\usbfs/cy_usbfs_dev_drv.c ****     }
 184:Generated_Source\PSoC6\pdl\drivers\peripheral\usbfs/cy_usbfs_dev_drv.c **** 
 185:Generated_Source\PSoC6\pdl\drivers\peripheral\usbfs/cy_usbfs_dev_drv.c ****     return retStatus;
 186:Generated_Source\PSoC6\pdl\drivers\peripheral\usbfs/cy_usbfs_dev_drv.c **** }
 187:Generated_Source\PSoC6\pdl\drivers\peripheral\usbfs/cy_usbfs_dev_drv.c **** 
 188:Generated_Source\PSoC6\pdl\drivers\peripheral\usbfs/cy_usbfs_dev_drv.c **** 
 189:Generated_Source\PSoC6\pdl\drivers\peripheral\usbfs/cy_usbfs_dev_drv.c **** /*******************************************************************************
 190:Generated_Source\PSoC6\pdl\drivers\peripheral\usbfs/cy_usbfs_dev_drv.c **** * Function Name: Cy_USBFS_Dev_Drv_DeInit
 191:Generated_Source\PSoC6\pdl\drivers\peripheral\usbfs/cy_usbfs_dev_drv.c **** ****************************************************************************//**
 192:Generated_Source\PSoC6\pdl\drivers\peripheral\usbfs/cy_usbfs_dev_drv.c **** *
 193:Generated_Source\PSoC6\pdl\drivers\peripheral\usbfs/cy_usbfs_dev_drv.c **** * De-initializes the USBFS Device hardware (returns the register values to 
 194:Generated_Source\PSoC6\pdl\drivers\peripheral\usbfs/cy_usbfs_dev_drv.c **** * default) and removes all registered callbacks.
 195:Generated_Source\PSoC6\pdl\drivers\peripheral\usbfs/cy_usbfs_dev_drv.c **** *
 196:Generated_Source\PSoC6\pdl\drivers\peripheral\usbfs/cy_usbfs_dev_drv.c **** * \param base
 197:Generated_Source\PSoC6\pdl\drivers\peripheral\usbfs/cy_usbfs_dev_drv.c **** * The pointer to the USBFS instance.
 198:Generated_Source\PSoC6\pdl\drivers\peripheral\usbfs/cy_usbfs_dev_drv.c **** *
 199:Generated_Source\PSoC6\pdl\drivers\peripheral\usbfs/cy_usbfs_dev_drv.c **** * \param context
 200:Generated_Source\PSoC6\pdl\drivers\peripheral\usbfs/cy_usbfs_dev_drv.c **** * The pointer to the context structure \ref cy_stc_usbfs_dev_drv_context_t
 201:Generated_Source\PSoC6\pdl\drivers\peripheral\usbfs/cy_usbfs_dev_drv.c **** * allocated by the user. The structure is used during the USBFS Device 
 202:Generated_Source\PSoC6\pdl\drivers\peripheral\usbfs/cy_usbfs_dev_drv.c **** * operation for internal configuration and data retention. The user must not 
ARM GAS  C:\Users\enes_\AppData\Local\Temp\ccUvgHSW.s 			page 5


 203:Generated_Source\PSoC6\pdl\drivers\peripheral\usbfs/cy_usbfs_dev_drv.c **** * modify anything in this structure.
 204:Generated_Source\PSoC6\pdl\drivers\peripheral\usbfs/cy_usbfs_dev_drv.c **** *
 205:Generated_Source\PSoC6\pdl\drivers\peripheral\usbfs/cy_usbfs_dev_drv.c **** *******************************************************************************/
 206:Generated_Source\PSoC6\pdl\drivers\peripheral\usbfs/cy_usbfs_dev_drv.c **** void Cy_USBFS_Dev_Drv_DeInit(USBFS_Type *base, cy_stc_usbfs_dev_drv_context_t *context)
 207:Generated_Source\PSoC6\pdl\drivers\peripheral\usbfs/cy_usbfs_dev_drv.c **** {
 208:Generated_Source\PSoC6\pdl\drivers\peripheral\usbfs/cy_usbfs_dev_drv.c ****     uint32_t regVal;
 209:Generated_Source\PSoC6\pdl\drivers\peripheral\usbfs/cy_usbfs_dev_drv.c ****     uint32_t endpoint;
 210:Generated_Source\PSoC6\pdl\drivers\peripheral\usbfs/cy_usbfs_dev_drv.c **** 
 211:Generated_Source\PSoC6\pdl\drivers\peripheral\usbfs/cy_usbfs_dev_drv.c ****     /* Set USBLPM registers into the default state */
 212:Generated_Source\PSoC6\pdl\drivers\peripheral\usbfs/cy_usbfs_dev_drv.c ****     USBFS_DEV_LPM_POWER_CTL(base)     = 0UL;
 213:Generated_Source\PSoC6\pdl\drivers\peripheral\usbfs/cy_usbfs_dev_drv.c ****     USBFS_DEV_LPM_USBIO_CTL(base)     = 0UL;
 214:Generated_Source\PSoC6\pdl\drivers\peripheral\usbfs/cy_usbfs_dev_drv.c ****     USBFS_DEV_LPM_FLOW_CTL(base)      = 0UL;
 215:Generated_Source\PSoC6\pdl\drivers\peripheral\usbfs/cy_usbfs_dev_drv.c ****     USBFS_DEV_LPM_LPM_CTL(base)       = 0UL;
 216:Generated_Source\PSoC6\pdl\drivers\peripheral\usbfs/cy_usbfs_dev_drv.c ****     USBFS_DEV_LPM_INTR_SIE(base)      = 0UL;
 217:Generated_Source\PSoC6\pdl\drivers\peripheral\usbfs/cy_usbfs_dev_drv.c ****     USBFS_DEV_LPM_INTR_SIE_SET(base)  = 0UL;
 218:Generated_Source\PSoC6\pdl\drivers\peripheral\usbfs/cy_usbfs_dev_drv.c ****     USBFS_DEV_LPM_INTR_SIE_MASK(base) = 0UL;
 219:Generated_Source\PSoC6\pdl\drivers\peripheral\usbfs/cy_usbfs_dev_drv.c ****     USBFS_DEV_LPM_INTR_LVL_SEL(base)  = 0UL;
 220:Generated_Source\PSoC6\pdl\drivers\peripheral\usbfs/cy_usbfs_dev_drv.c **** 
 221:Generated_Source\PSoC6\pdl\drivers\peripheral\usbfs/cy_usbfs_dev_drv.c ****     /* Set USBDEV registers into the default state */
 222:Generated_Source\PSoC6\pdl\drivers\peripheral\usbfs/cy_usbfs_dev_drv.c ****     USBFS_DEV_CR0(base) = 0UL;
 223:Generated_Source\PSoC6\pdl\drivers\peripheral\usbfs/cy_usbfs_dev_drv.c ****     USBFS_DEV_CR1(base) = (USBFS_DEV_CR1(base) & USBFS_USBDEV_CR1_RESERVED_3_Msk);
 224:Generated_Source\PSoC6\pdl\drivers\peripheral\usbfs/cy_usbfs_dev_drv.c ****     USBFS_DEV_USBIO_CR0(base) = 0UL;
 225:Generated_Source\PSoC6\pdl\drivers\peripheral\usbfs/cy_usbfs_dev_drv.c ****     USBFS_DEV_USBIO_CR1(base) = (USBFS_DEV_USBIO_CR1(base) & USBFS_USBDEV_USBIO_CR1_RESERVED_2_Msk)
 226:Generated_Source\PSoC6\pdl\drivers\peripheral\usbfs/cy_usbfs_dev_drv.c ****     regVal = CY_USBFS_DEV_READ_ODD(USBFS_DEV_USBIO_CR2(base));
 227:Generated_Source\PSoC6\pdl\drivers\peripheral\usbfs/cy_usbfs_dev_drv.c ****     USBFS_DEV_USBIO_CR2(base) = (CY_USBFS_DEV_DRV_WRITE_ODD(regVal) & USBFS_USBDEV_USBIO_CR2_RESERV
 228:Generated_Source\PSoC6\pdl\drivers\peripheral\usbfs/cy_usbfs_dev_drv.c **** 
 229:Generated_Source\PSoC6\pdl\drivers\peripheral\usbfs/cy_usbfs_dev_drv.c ****     USBFS_DEV_BUS_RST_CNT(base) = BUS_RESET_PERIOD;
 230:Generated_Source\PSoC6\pdl\drivers\peripheral\usbfs/cy_usbfs_dev_drv.c ****     USBFS_DEV_USB_CLK_EN(base)  = CY_USBFS_DEV_DRV_WRITE_ODD(0UL);
 231:Generated_Source\PSoC6\pdl\drivers\peripheral\usbfs/cy_usbfs_dev_drv.c **** 
 232:Generated_Source\PSoC6\pdl\drivers\peripheral\usbfs/cy_usbfs_dev_drv.c ****     USBFS_DEV_EP0_CR(base)  = 0UL;
 233:Generated_Source\PSoC6\pdl\drivers\peripheral\usbfs/cy_usbfs_dev_drv.c ****     USBFS_DEV_EP0_CNT(base) = CY_USBFS_DEV_DRV_WRITE_ODD(0UL);
 234:Generated_Source\PSoC6\pdl\drivers\peripheral\usbfs/cy_usbfs_dev_drv.c **** 
 235:Generated_Source\PSoC6\pdl\drivers\peripheral\usbfs/cy_usbfs_dev_drv.c ****     USBFS_DEV_ARB_CFG(base)    = 0UL;
 236:Generated_Source\PSoC6\pdl\drivers\peripheral\usbfs/cy_usbfs_dev_drv.c ****     USBFS_DEV_ARB_INT_EN(base) = 0UL;
 237:Generated_Source\PSoC6\pdl\drivers\peripheral\usbfs/cy_usbfs_dev_drv.c **** 
 238:Generated_Source\PSoC6\pdl\drivers\peripheral\usbfs/cy_usbfs_dev_drv.c ****     USBFS_DEV_DYN_RECONFIG(base) = 0UL;
 239:Generated_Source\PSoC6\pdl\drivers\peripheral\usbfs/cy_usbfs_dev_drv.c ****     USBFS_DEV_BUF_SIZE(base)     = 0UL;
 240:Generated_Source\PSoC6\pdl\drivers\peripheral\usbfs/cy_usbfs_dev_drv.c ****     USBFS_DEV_DMA_THRES16(base)  = 0UL;
 241:Generated_Source\PSoC6\pdl\drivers\peripheral\usbfs/cy_usbfs_dev_drv.c ****     USBFS_DEV_EP_ACTIVE(base)    = 0UL;
 242:Generated_Source\PSoC6\pdl\drivers\peripheral\usbfs/cy_usbfs_dev_drv.c ****     USBFS_DEV_EP_TYPE(base)      = CY_USBFS_DEV_DRV_WRITE_ODD(0UL);
 243:Generated_Source\PSoC6\pdl\drivers\peripheral\usbfs/cy_usbfs_dev_drv.c ****     USBFS_DEV_CWA16(base)        = 0UL;
 244:Generated_Source\PSoC6\pdl\drivers\peripheral\usbfs/cy_usbfs_dev_drv.c **** 
 245:Generated_Source\PSoC6\pdl\drivers\peripheral\usbfs/cy_usbfs_dev_drv.c ****     USBFS_DEV_SIE_EP_INT_EN(base) = 0UL;
 246:Generated_Source\PSoC6\pdl\drivers\peripheral\usbfs/cy_usbfs_dev_drv.c ****     USBFS_DEV_SIE_EP_INT_SR(base) = 0UL;
 247:Generated_Source\PSoC6\pdl\drivers\peripheral\usbfs/cy_usbfs_dev_drv.c **** 
 248:Generated_Source\PSoC6\pdl\drivers\peripheral\usbfs/cy_usbfs_dev_drv.c ****     
 249:Generated_Source\PSoC6\pdl\drivers\peripheral\usbfs/cy_usbfs_dev_drv.c ****     for (endpoint = 0UL; endpoint < CY_USBFS_DEV_DRV_NUM_EPS_MAX; ++endpoint)
 250:Generated_Source\PSoC6\pdl\drivers\peripheral\usbfs/cy_usbfs_dev_drv.c ****     {
 251:Generated_Source\PSoC6\pdl\drivers\peripheral\usbfs/cy_usbfs_dev_drv.c ****         /* Set SIE endpoint register into the default state */
 252:Generated_Source\PSoC6\pdl\drivers\peripheral\usbfs/cy_usbfs_dev_drv.c ****         USBFS_DEV_SIE_EP_CR0(base, endpoint)  = 0UL;
 253:Generated_Source\PSoC6\pdl\drivers\peripheral\usbfs/cy_usbfs_dev_drv.c ****         USBFS_DEV_SIE_EP_CNT0(base, endpoint) = 0UL;
 254:Generated_Source\PSoC6\pdl\drivers\peripheral\usbfs/cy_usbfs_dev_drv.c ****         USBFS_DEV_SIE_EP_CNT1(base, endpoint) = 0UL;
 255:Generated_Source\PSoC6\pdl\drivers\peripheral\usbfs/cy_usbfs_dev_drv.c **** 
 256:Generated_Source\PSoC6\pdl\drivers\peripheral\usbfs/cy_usbfs_dev_drv.c ****         /* Set ARBITER endpoint register into the default state */
 257:Generated_Source\PSoC6\pdl\drivers\peripheral\usbfs/cy_usbfs_dev_drv.c ****         USBFS_DEV_ARB_EP_CFG(base, endpoint)    = 0UL;
 258:Generated_Source\PSoC6\pdl\drivers\peripheral\usbfs/cy_usbfs_dev_drv.c ****         USBFS_DEV_ARB_EP_INT_EN(base, endpoint) = 0UL;
 259:Generated_Source\PSoC6\pdl\drivers\peripheral\usbfs/cy_usbfs_dev_drv.c ****         USBFS_DEV_ARB_RW_WA16(base, endpoint)   = 0UL;
ARM GAS  C:\Users\enes_\AppData\Local\Temp\ccUvgHSW.s 			page 6


 260:Generated_Source\PSoC6\pdl\drivers\peripheral\usbfs/cy_usbfs_dev_drv.c ****         USBFS_DEV_ARB_RW_RA16(base, endpoint)   = 0UL;
 261:Generated_Source\PSoC6\pdl\drivers\peripheral\usbfs/cy_usbfs_dev_drv.c ****     }
 262:Generated_Source\PSoC6\pdl\drivers\peripheral\usbfs/cy_usbfs_dev_drv.c **** 
 263:Generated_Source\PSoC6\pdl\drivers\peripheral\usbfs/cy_usbfs_dev_drv.c ****     /* Clean-up context callbacks */
 264:Generated_Source\PSoC6\pdl\drivers\peripheral\usbfs/cy_usbfs_dev_drv.c ****     context->cbSof = NULL;
 265:Generated_Source\PSoC6\pdl\drivers\peripheral\usbfs/cy_usbfs_dev_drv.c ****     context->cbLpm = NULL;
 266:Generated_Source\PSoC6\pdl\drivers\peripheral\usbfs/cy_usbfs_dev_drv.c ****     
 267:Generated_Source\PSoC6\pdl\drivers\peripheral\usbfs/cy_usbfs_dev_drv.c ****     for (endpoint = 0UL; endpoint < CY_USBFS_DEV_DRV_NUM_EPS_MAX; ++endpoint)
 268:Generated_Source\PSoC6\pdl\drivers\peripheral\usbfs/cy_usbfs_dev_drv.c ****     {
 269:Generated_Source\PSoC6\pdl\drivers\peripheral\usbfs/cy_usbfs_dev_drv.c ****         context->epPool[endpoint].address    = 0U;
 270:Generated_Source\PSoC6\pdl\drivers\peripheral\usbfs/cy_usbfs_dev_drv.c ****         context->epPool[endpoint].copyData   = NULL;
 271:Generated_Source\PSoC6\pdl\drivers\peripheral\usbfs/cy_usbfs_dev_drv.c ****         context->epPool[endpoint].epComplete = NULL;
 272:Generated_Source\PSoC6\pdl\drivers\peripheral\usbfs/cy_usbfs_dev_drv.c ****         context->epPool[endpoint].buffer     = NULL;
 273:Generated_Source\PSoC6\pdl\drivers\peripheral\usbfs/cy_usbfs_dev_drv.c ****     }
 274:Generated_Source\PSoC6\pdl\drivers\peripheral\usbfs/cy_usbfs_dev_drv.c **** }
 275:Generated_Source\PSoC6\pdl\drivers\peripheral\usbfs/cy_usbfs_dev_drv.c **** 
 276:Generated_Source\PSoC6\pdl\drivers\peripheral\usbfs/cy_usbfs_dev_drv.c **** 
 277:Generated_Source\PSoC6\pdl\drivers\peripheral\usbfs/cy_usbfs_dev_drv.c **** /*******************************************************************************
 278:Generated_Source\PSoC6\pdl\drivers\peripheral\usbfs/cy_usbfs_dev_drv.c **** * Function Name: Cy_USBFS_Dev_Drv_Enable
 279:Generated_Source\PSoC6\pdl\drivers\peripheral\usbfs/cy_usbfs_dev_drv.c **** ****************************************************************************//**
 280:Generated_Source\PSoC6\pdl\drivers\peripheral\usbfs/cy_usbfs_dev_drv.c **** *
 281:Generated_Source\PSoC6\pdl\drivers\peripheral\usbfs/cy_usbfs_dev_drv.c **** * Enable the USBFS Device operation.
 282:Generated_Source\PSoC6\pdl\drivers\peripheral\usbfs/cy_usbfs_dev_drv.c **** *
 283:Generated_Source\PSoC6\pdl\drivers\peripheral\usbfs/cy_usbfs_dev_drv.c **** * \param base
 284:Generated_Source\PSoC6\pdl\drivers\peripheral\usbfs/cy_usbfs_dev_drv.c **** * The pointer to the USBFS instance.
 285:Generated_Source\PSoC6\pdl\drivers\peripheral\usbfs/cy_usbfs_dev_drv.c **** *
 286:Generated_Source\PSoC6\pdl\drivers\peripheral\usbfs/cy_usbfs_dev_drv.c **** * \param context
 287:Generated_Source\PSoC6\pdl\drivers\peripheral\usbfs/cy_usbfs_dev_drv.c **** * The pointer to the context structure \ref cy_stc_usbfs_dev_drv_context_t
 288:Generated_Source\PSoC6\pdl\drivers\peripheral\usbfs/cy_usbfs_dev_drv.c **** * allocated by the user. The structure is used during the USBFS Device 
 289:Generated_Source\PSoC6\pdl\drivers\peripheral\usbfs/cy_usbfs_dev_drv.c **** * operation for internal configuration and data retention. The user must not 
 290:Generated_Source\PSoC6\pdl\drivers\peripheral\usbfs/cy_usbfs_dev_drv.c **** * modify anything in this structure.
 291:Generated_Source\PSoC6\pdl\drivers\peripheral\usbfs/cy_usbfs_dev_drv.c **** *
 292:Generated_Source\PSoC6\pdl\drivers\peripheral\usbfs/cy_usbfs_dev_drv.c **** *******************************************************************************/
 293:Generated_Source\PSoC6\pdl\drivers\peripheral\usbfs/cy_usbfs_dev_drv.c **** void Cy_USBFS_Dev_Drv_Enable(USBFS_Type *base, cy_stc_usbfs_dev_drv_context_t const *context)
 294:Generated_Source\PSoC6\pdl\drivers\peripheral\usbfs/cy_usbfs_dev_drv.c **** {
 295:Generated_Source\PSoC6\pdl\drivers\peripheral\usbfs/cy_usbfs_dev_drv.c ****     /* Suppress a compiler warning about unused variables */
 296:Generated_Source\PSoC6\pdl\drivers\peripheral\usbfs/cy_usbfs_dev_drv.c ****     (void) context;
 297:Generated_Source\PSoC6\pdl\drivers\peripheral\usbfs/cy_usbfs_dev_drv.c **** 
 298:Generated_Source\PSoC6\pdl\drivers\peripheral\usbfs/cy_usbfs_dev_drv.c ****     /* Clear EP0 count register */
 299:Generated_Source\PSoC6\pdl\drivers\peripheral\usbfs/cy_usbfs_dev_drv.c ****     USBFS_DEV_EP0_CNT(base) = CY_USBFS_DEV_DRV_WRITE_ODD(0UL);
 300:Generated_Source\PSoC6\pdl\drivers\peripheral\usbfs/cy_usbfs_dev_drv.c **** 
 301:Generated_Source\PSoC6\pdl\drivers\peripheral\usbfs/cy_usbfs_dev_drv.c ****     /* Set EP0.CR: ACK Setup, NAK IN/OUT */
 302:Generated_Source\PSoC6\pdl\drivers\peripheral\usbfs/cy_usbfs_dev_drv.c ****     USBFS_DEV_EP0_CR(base)  = CY_USBFS_DEV_DRV_EP_CR_NAK_INOUT;
 303:Generated_Source\PSoC6\pdl\drivers\peripheral\usbfs/cy_usbfs_dev_drv.c **** 
 304:Generated_Source\PSoC6\pdl\drivers\peripheral\usbfs/cy_usbfs_dev_drv.c ****     /* Enable D+ pull-up, the device appears on the bus */
 305:Generated_Source\PSoC6\pdl\drivers\peripheral\usbfs/cy_usbfs_dev_drv.c ****     USBFS_DEV_LPM_POWER_CTL(base) |= USBFS_USBLPM_POWER_CTL_DP_UP_EN_Msk;
 306:Generated_Source\PSoC6\pdl\drivers\peripheral\usbfs/cy_usbfs_dev_drv.c ****     (void) USBFS_DEV_LPM_POWER_CTL(base);
 307:Generated_Source\PSoC6\pdl\drivers\peripheral\usbfs/cy_usbfs_dev_drv.c **** }
 308:Generated_Source\PSoC6\pdl\drivers\peripheral\usbfs/cy_usbfs_dev_drv.c **** 
 309:Generated_Source\PSoC6\pdl\drivers\peripheral\usbfs/cy_usbfs_dev_drv.c **** 
 310:Generated_Source\PSoC6\pdl\drivers\peripheral\usbfs/cy_usbfs_dev_drv.c **** /*******************************************************************************
 311:Generated_Source\PSoC6\pdl\drivers\peripheral\usbfs/cy_usbfs_dev_drv.c **** * Function Name: Cy_USBFS_Dev_Drv_Disable
 312:Generated_Source\PSoC6\pdl\drivers\peripheral\usbfs/cy_usbfs_dev_drv.c **** ****************************************************************************//**
 313:Generated_Source\PSoC6\pdl\drivers\peripheral\usbfs/cy_usbfs_dev_drv.c **** *
 314:Generated_Source\PSoC6\pdl\drivers\peripheral\usbfs/cy_usbfs_dev_drv.c **** * Disables the USBFS Device operation. If DMAs are used, disables the DMAs.
 315:Generated_Source\PSoC6\pdl\drivers\peripheral\usbfs/cy_usbfs_dev_drv.c **** *
 316:Generated_Source\PSoC6\pdl\drivers\peripheral\usbfs/cy_usbfs_dev_drv.c **** * \param base
ARM GAS  C:\Users\enes_\AppData\Local\Temp\ccUvgHSW.s 			page 7


 317:Generated_Source\PSoC6\pdl\drivers\peripheral\usbfs/cy_usbfs_dev_drv.c **** * The pointer to the USBFS instance.
 318:Generated_Source\PSoC6\pdl\drivers\peripheral\usbfs/cy_usbfs_dev_drv.c **** *
 319:Generated_Source\PSoC6\pdl\drivers\peripheral\usbfs/cy_usbfs_dev_drv.c **** * \param context
 320:Generated_Source\PSoC6\pdl\drivers\peripheral\usbfs/cy_usbfs_dev_drv.c **** * The pointer to the context structure \ref cy_stc_usbfs_dev_drv_context_t
 321:Generated_Source\PSoC6\pdl\drivers\peripheral\usbfs/cy_usbfs_dev_drv.c **** * allocated by the user. The structure is used during the USBFS Device 
 322:Generated_Source\PSoC6\pdl\drivers\peripheral\usbfs/cy_usbfs_dev_drv.c **** * operation for internal configuration and data retention. The user must not 
 323:Generated_Source\PSoC6\pdl\drivers\peripheral\usbfs/cy_usbfs_dev_drv.c **** * modify anything in this structure.
 324:Generated_Source\PSoC6\pdl\drivers\peripheral\usbfs/cy_usbfs_dev_drv.c **** *
 325:Generated_Source\PSoC6\pdl\drivers\peripheral\usbfs/cy_usbfs_dev_drv.c **** *******************************************************************************/
 326:Generated_Source\PSoC6\pdl\drivers\peripheral\usbfs/cy_usbfs_dev_drv.c **** void Cy_USBFS_Dev_Drv_Disable(USBFS_Type *base, cy_stc_usbfs_dev_drv_context_t *context)
 327:Generated_Source\PSoC6\pdl\drivers\peripheral\usbfs/cy_usbfs_dev_drv.c **** {
 328:Generated_Source\PSoC6\pdl\drivers\peripheral\usbfs/cy_usbfs_dev_drv.c ****     /* Suppress a compiler warning about unused variables */
 329:Generated_Source\PSoC6\pdl\drivers\peripheral\usbfs/cy_usbfs_dev_drv.c ****     (void) context;
 330:Generated_Source\PSoC6\pdl\drivers\peripheral\usbfs/cy_usbfs_dev_drv.c **** 
 331:Generated_Source\PSoC6\pdl\drivers\peripheral\usbfs/cy_usbfs_dev_drv.c ****     /* Disable D+ pull-up */
 332:Generated_Source\PSoC6\pdl\drivers\peripheral\usbfs/cy_usbfs_dev_drv.c ****     USBFS_DEV_LPM_POWER_CTL(base) &= ~USBFS_USBLPM_POWER_CTL_DP_UP_EN_Msk;
 333:Generated_Source\PSoC6\pdl\drivers\peripheral\usbfs/cy_usbfs_dev_drv.c ****     (void) USBFS_DEV_LPM_POWER_CTL(base);
 334:Generated_Source\PSoC6\pdl\drivers\peripheral\usbfs/cy_usbfs_dev_drv.c **** 
 335:Generated_Source\PSoC6\pdl\drivers\peripheral\usbfs/cy_usbfs_dev_drv.c ****     /* Disable device to respond to usb traffic */
 336:Generated_Source\PSoC6\pdl\drivers\peripheral\usbfs/cy_usbfs_dev_drv.c ****     USBFS_DEV_CR0(base) &= ~USBFS_USBDEV_CR0_USB_ENABLE_Msk;
 337:Generated_Source\PSoC6\pdl\drivers\peripheral\usbfs/cy_usbfs_dev_drv.c **** 
 338:Generated_Source\PSoC6\pdl\drivers\peripheral\usbfs/cy_usbfs_dev_drv.c ****     /* Disable DMA channels */
 339:Generated_Source\PSoC6\pdl\drivers\peripheral\usbfs/cy_usbfs_dev_drv.c ****     DmaDisable(context);
 340:Generated_Source\PSoC6\pdl\drivers\peripheral\usbfs/cy_usbfs_dev_drv.c **** }
 341:Generated_Source\PSoC6\pdl\drivers\peripheral\usbfs/cy_usbfs_dev_drv.c **** 
 342:Generated_Source\PSoC6\pdl\drivers\peripheral\usbfs/cy_usbfs_dev_drv.c **** 
 343:Generated_Source\PSoC6\pdl\drivers\peripheral\usbfs/cy_usbfs_dev_drv.c **** /*******************************************************************************
 344:Generated_Source\PSoC6\pdl\drivers\peripheral\usbfs/cy_usbfs_dev_drv.c **** * Function Name: LpmIntrHandler
 345:Generated_Source\PSoC6\pdl\drivers\peripheral\usbfs/cy_usbfs_dev_drv.c **** ****************************************************************************//**
 346:Generated_Source\PSoC6\pdl\drivers\peripheral\usbfs/cy_usbfs_dev_drv.c **** *
 347:Generated_Source\PSoC6\pdl\drivers\peripheral\usbfs/cy_usbfs_dev_drv.c **** * LPM (Link Power Manager) interrupt handler.
 348:Generated_Source\PSoC6\pdl\drivers\peripheral\usbfs/cy_usbfs_dev_drv.c **** *
 349:Generated_Source\PSoC6\pdl\drivers\peripheral\usbfs/cy_usbfs_dev_drv.c **** * \param base
 350:Generated_Source\PSoC6\pdl\drivers\peripheral\usbfs/cy_usbfs_dev_drv.c **** * The pointer to the USBFS instance.
 351:Generated_Source\PSoC6\pdl\drivers\peripheral\usbfs/cy_usbfs_dev_drv.c **** *
 352:Generated_Source\PSoC6\pdl\drivers\peripheral\usbfs/cy_usbfs_dev_drv.c **** * \param context
 353:Generated_Source\PSoC6\pdl\drivers\peripheral\usbfs/cy_usbfs_dev_drv.c **** * The pointer to the context structure \ref cy_stc_usbfs_dev_drv_context_t
 354:Generated_Source\PSoC6\pdl\drivers\peripheral\usbfs/cy_usbfs_dev_drv.c **** * allocated by the user. The structure is used during the USBFS Device 
 355:Generated_Source\PSoC6\pdl\drivers\peripheral\usbfs/cy_usbfs_dev_drv.c **** * operation for internal configuration and data retention. The user must not 
 356:Generated_Source\PSoC6\pdl\drivers\peripheral\usbfs/cy_usbfs_dev_drv.c **** * modify anything in this structure.
 357:Generated_Source\PSoC6\pdl\drivers\peripheral\usbfs/cy_usbfs_dev_drv.c **** *
 358:Generated_Source\PSoC6\pdl\drivers\peripheral\usbfs/cy_usbfs_dev_drv.c **** *******************************************************************************/
 359:Generated_Source\PSoC6\pdl\drivers\peripheral\usbfs/cy_usbfs_dev_drv.c **** static void LpmIntrHandler(USBFS_Type *base, cy_stc_usbfs_dev_drv_context_t *context)
 360:Generated_Source\PSoC6\pdl\drivers\peripheral\usbfs/cy_usbfs_dev_drv.c **** {
  27              		.loc 1 360 0
  28              		.cfi_startproc
  29              		@ args = 0, pretend = 0, frame = 0
  30              		@ frame_needed = 0, uses_anonymous_args = 0
  31              	.LVL0:
  32 0000 10B5     		push	{r4, lr}
  33              		.cfi_def_cfa_offset 8
  34              		.cfi_offset 4, -8
  35              		.cfi_offset 14, -4
 361:Generated_Source\PSoC6\pdl\drivers\peripheral\usbfs/cy_usbfs_dev_drv.c ****     if (context->cbLpm != NULL)
  36              		.loc 1 361 0
  37 0002 8B69     		ldr	r3, [r1, #24]
  38 0004 002B     		cmp	r3, #0
ARM GAS  C:\Users\enes_\AppData\Local\Temp\ccUvgHSW.s 			page 8


  39 0006 00D0     		beq	.L1
 362:Generated_Source\PSoC6\pdl\drivers\peripheral\usbfs/cy_usbfs_dev_drv.c ****     {
 363:Generated_Source\PSoC6\pdl\drivers\peripheral\usbfs/cy_usbfs_dev_drv.c ****         context->cbLpm(base, context);
  40              		.loc 1 363 0
  41 0008 9847     		blx	r3
  42              	.LVL1:
  43              	.L1:
 364:Generated_Source\PSoC6\pdl\drivers\peripheral\usbfs/cy_usbfs_dev_drv.c ****     }
 365:Generated_Source\PSoC6\pdl\drivers\peripheral\usbfs/cy_usbfs_dev_drv.c **** }
  44              		.loc 1 365 0
  45              		@ sp needed
  46 000a 10BD     		pop	{r4, pc}
  47              		.cfi_endproc
  48              	.LFE174:
  49              		.size	LpmIntrHandler, .-LpmIntrHandler
  50              		.section	.text.SofIntrHandler,"ax",%progbits
  51              		.align	2
  52              		.code	16
  53              		.thumb_func
  54              		.type	SofIntrHandler, %function
  55              	SofIntrHandler:
  56              	.LFB175:
 366:Generated_Source\PSoC6\pdl\drivers\peripheral\usbfs/cy_usbfs_dev_drv.c **** 
 367:Generated_Source\PSoC6\pdl\drivers\peripheral\usbfs/cy_usbfs_dev_drv.c **** 
 368:Generated_Source\PSoC6\pdl\drivers\peripheral\usbfs/cy_usbfs_dev_drv.c **** /*******************************************************************************
 369:Generated_Source\PSoC6\pdl\drivers\peripheral\usbfs/cy_usbfs_dev_drv.c **** * Function Name: SofIntrHandler
 370:Generated_Source\PSoC6\pdl\drivers\peripheral\usbfs/cy_usbfs_dev_drv.c **** ****************************************************************************//**
 371:Generated_Source\PSoC6\pdl\drivers\peripheral\usbfs/cy_usbfs_dev_drv.c **** *
 372:Generated_Source\PSoC6\pdl\drivers\peripheral\usbfs/cy_usbfs_dev_drv.c **** * SOF (Start Of Frame) interrupt handler.
 373:Generated_Source\PSoC6\pdl\drivers\peripheral\usbfs/cy_usbfs_dev_drv.c **** *
 374:Generated_Source\PSoC6\pdl\drivers\peripheral\usbfs/cy_usbfs_dev_drv.c **** * \param base
 375:Generated_Source\PSoC6\pdl\drivers\peripheral\usbfs/cy_usbfs_dev_drv.c **** * The pointer to the USBFS instance.
 376:Generated_Source\PSoC6\pdl\drivers\peripheral\usbfs/cy_usbfs_dev_drv.c **** *
 377:Generated_Source\PSoC6\pdl\drivers\peripheral\usbfs/cy_usbfs_dev_drv.c **** * \param context
 378:Generated_Source\PSoC6\pdl\drivers\peripheral\usbfs/cy_usbfs_dev_drv.c **** * The pointer to the context structure \ref cy_stc_usbfs_dev_drv_context_t
 379:Generated_Source\PSoC6\pdl\drivers\peripheral\usbfs/cy_usbfs_dev_drv.c **** * allocated by the user. The structure is used during the USBFS Device 
 380:Generated_Source\PSoC6\pdl\drivers\peripheral\usbfs/cy_usbfs_dev_drv.c **** * operation for internal configuration and data retention. The user must not 
 381:Generated_Source\PSoC6\pdl\drivers\peripheral\usbfs/cy_usbfs_dev_drv.c **** * modify anything in this structure.
 382:Generated_Source\PSoC6\pdl\drivers\peripheral\usbfs/cy_usbfs_dev_drv.c **** *
 383:Generated_Source\PSoC6\pdl\drivers\peripheral\usbfs/cy_usbfs_dev_drv.c **** *******************************************************************************/
 384:Generated_Source\PSoC6\pdl\drivers\peripheral\usbfs/cy_usbfs_dev_drv.c **** static void SofIntrHandler(USBFS_Type *base, cy_stc_usbfs_dev_drv_context_t *context)
 385:Generated_Source\PSoC6\pdl\drivers\peripheral\usbfs/cy_usbfs_dev_drv.c **** {
  57              		.loc 1 385 0
  58              		.cfi_startproc
  59              		@ args = 0, pretend = 0, frame = 0
  60              		@ frame_needed = 0, uses_anonymous_args = 0
  61              	.LVL2:
  62 0000 10B5     		push	{r4, lr}
  63              		.cfi_def_cfa_offset 8
  64              		.cfi_offset 4, -8
  65              		.cfi_offset 14, -4
 386:Generated_Source\PSoC6\pdl\drivers\peripheral\usbfs/cy_usbfs_dev_drv.c ****     if (context->cbSof != NULL)
  66              		.loc 1 386 0
  67 0002 4B69     		ldr	r3, [r1, #20]
  68 0004 002B     		cmp	r3, #0
  69 0006 00D0     		beq	.L3
 387:Generated_Source\PSoC6\pdl\drivers\peripheral\usbfs/cy_usbfs_dev_drv.c ****     {
ARM GAS  C:\Users\enes_\AppData\Local\Temp\ccUvgHSW.s 			page 9


 388:Generated_Source\PSoC6\pdl\drivers\peripheral\usbfs/cy_usbfs_dev_drv.c ****         context->cbSof(base, context);
  70              		.loc 1 388 0
  71 0008 9847     		blx	r3
  72              	.LVL3:
  73              	.L3:
 389:Generated_Source\PSoC6\pdl\drivers\peripheral\usbfs/cy_usbfs_dev_drv.c ****     }
 390:Generated_Source\PSoC6\pdl\drivers\peripheral\usbfs/cy_usbfs_dev_drv.c **** }
  74              		.loc 1 390 0
  75              		@ sp needed
  76 000a 10BD     		pop	{r4, pc}
  77              		.cfi_endproc
  78              	.LFE175:
  79              		.size	SofIntrHandler, .-SofIntrHandler
  80              		.section	.text.Ep0IntrHandler,"ax",%progbits
  81              		.align	2
  82              		.code	16
  83              		.thumb_func
  84              		.type	Ep0IntrHandler, %function
  85              	Ep0IntrHandler:
  86              	.LFB176:
 391:Generated_Source\PSoC6\pdl\drivers\peripheral\usbfs/cy_usbfs_dev_drv.c **** 
 392:Generated_Source\PSoC6\pdl\drivers\peripheral\usbfs/cy_usbfs_dev_drv.c **** 
 393:Generated_Source\PSoC6\pdl\drivers\peripheral\usbfs/cy_usbfs_dev_drv.c **** /*******************************************************************************
 394:Generated_Source\PSoC6\pdl\drivers\peripheral\usbfs/cy_usbfs_dev_drv.c **** * Function Name: Ep0IntrHandler
 395:Generated_Source\PSoC6\pdl\drivers\peripheral\usbfs/cy_usbfs_dev_drv.c **** ****************************************************************************//**
 396:Generated_Source\PSoC6\pdl\drivers\peripheral\usbfs/cy_usbfs_dev_drv.c **** *
 397:Generated_Source\PSoC6\pdl\drivers\peripheral\usbfs/cy_usbfs_dev_drv.c **** * Endpoint 0 (Control Endpoint) interrupt handler.
 398:Generated_Source\PSoC6\pdl\drivers\peripheral\usbfs/cy_usbfs_dev_drv.c **** *
 399:Generated_Source\PSoC6\pdl\drivers\peripheral\usbfs/cy_usbfs_dev_drv.c **** * \param base
 400:Generated_Source\PSoC6\pdl\drivers\peripheral\usbfs/cy_usbfs_dev_drv.c **** * The pointer to the USBFS instance.
 401:Generated_Source\PSoC6\pdl\drivers\peripheral\usbfs/cy_usbfs_dev_drv.c **** *
 402:Generated_Source\PSoC6\pdl\drivers\peripheral\usbfs/cy_usbfs_dev_drv.c **** * \param context
 403:Generated_Source\PSoC6\pdl\drivers\peripheral\usbfs/cy_usbfs_dev_drv.c **** * The pointer to the context structure \ref cy_stc_usbfs_dev_drv_context_t
 404:Generated_Source\PSoC6\pdl\drivers\peripheral\usbfs/cy_usbfs_dev_drv.c **** * allocated by the user. The structure is used during the USBFS Device 
 405:Generated_Source\PSoC6\pdl\drivers\peripheral\usbfs/cy_usbfs_dev_drv.c **** * operation for internal configuration and data retention. The user must not 
 406:Generated_Source\PSoC6\pdl\drivers\peripheral\usbfs/cy_usbfs_dev_drv.c **** * modify anything in this structure.
 407:Generated_Source\PSoC6\pdl\drivers\peripheral\usbfs/cy_usbfs_dev_drv.c **** *
 408:Generated_Source\PSoC6\pdl\drivers\peripheral\usbfs/cy_usbfs_dev_drv.c **** *******************************************************************************/
 409:Generated_Source\PSoC6\pdl\drivers\peripheral\usbfs/cy_usbfs_dev_drv.c **** static void Ep0IntrHandler(USBFS_Type *base, cy_stc_usbfs_dev_drv_context_t *context)
 410:Generated_Source\PSoC6\pdl\drivers\peripheral\usbfs/cy_usbfs_dev_drv.c **** {
  87              		.loc 1 410 0
  88              		.cfi_startproc
  89              		@ args = 0, pretend = 0, frame = 0
  90              		@ frame_needed = 0, uses_anonymous_args = 0
  91              	.LVL4:
  92 0000 70B5     		push	{r4, r5, r6, lr}
  93              		.cfi_def_cfa_offset 16
  94              		.cfi_offset 4, -16
  95              		.cfi_offset 5, -12
  96              		.cfi_offset 6, -8
  97              		.cfi_offset 14, -4
  98 0002 0400     		movs	r4, r0
  99 0004 0D00     		movs	r5, r1
 411:Generated_Source\PSoC6\pdl\drivers\peripheral\usbfs/cy_usbfs_dev_drv.c ****     /* Read CR register */
 412:Generated_Source\PSoC6\pdl\drivers\peripheral\usbfs/cy_usbfs_dev_drv.c ****     uint32_t ep0Cr = USBFS_DEV_EP0_CR(base);
 100              		.loc 1 412 0
 101 0006 A023     		movs	r3, #160
ARM GAS  C:\Users\enes_\AppData\Local\Temp\ccUvgHSW.s 			page 10


 102 0008 C358     		ldr	r3, [r0, r3]
 103              	.LVL5:
 413:Generated_Source\PSoC6\pdl\drivers\peripheral\usbfs/cy_usbfs_dev_drv.c **** 
 414:Generated_Source\PSoC6\pdl\drivers\peripheral\usbfs/cy_usbfs_dev_drv.c ****     /* Check whether packet was ACKed */
 415:Generated_Source\PSoC6\pdl\drivers\peripheral\usbfs/cy_usbfs_dev_drv.c ****     if (0U != (ep0Cr & USBFS_USBDEV_EP0_CR_ACKED_TXN_Msk))
 104              		.loc 1 415 0
 105 000a DA06     		lsls	r2, r3, #27
 106 000c 31D5     		bpl	.L5
 107              	.LVL6:
 108              	.LBB33:
 416:Generated_Source\PSoC6\pdl\drivers\peripheral\usbfs/cy_usbfs_dev_drv.c ****     {
 417:Generated_Source\PSoC6\pdl\drivers\peripheral\usbfs/cy_usbfs_dev_drv.c ****         bool updateCr0 = false;
 418:Generated_Source\PSoC6\pdl\drivers\peripheral\usbfs/cy_usbfs_dev_drv.c **** 
 419:Generated_Source\PSoC6\pdl\drivers\peripheral\usbfs/cy_usbfs_dev_drv.c ****         /* Check packet direction */
 420:Generated_Source\PSoC6\pdl\drivers\peripheral\usbfs/cy_usbfs_dev_drv.c ****         if (_FLD2BOOL(USBFS_USBDEV_EP0_CR_SETUP_RCVD, ep0Cr))
 109              		.loc 1 420 0
 110 000e 1A06     		lsls	r2, r3, #24
 111 0010 0FD5     		bpl	.L7
 421:Generated_Source\PSoC6\pdl\drivers\peripheral\usbfs/cy_usbfs_dev_drv.c ****         {
 422:Generated_Source\PSoC6\pdl\drivers\peripheral\usbfs/cy_usbfs_dev_drv.c ****             /* Handle SETUP */
 423:Generated_Source\PSoC6\pdl\drivers\peripheral\usbfs/cy_usbfs_dev_drv.c ****             if (_FLD2VAL(USBFS_USBDEV_EP0_CR_MODE, ep0Cr) == CY_USBFS_DEV_DRV_EP_CR_NAK_INOUT)
 112              		.loc 1 423 0
 113 0012 0F22     		movs	r2, #15
 114 0014 1340     		ands	r3, r2
 115              	.LVL7:
 116 0016 012B     		cmp	r3, #1
 117 0018 17D1     		bne	.L10
 424:Generated_Source\PSoC6\pdl\drivers\peripheral\usbfs/cy_usbfs_dev_drv.c ****             {
 425:Generated_Source\PSoC6\pdl\drivers\peripheral\usbfs/cy_usbfs_dev_drv.c ****                 /* Try to unlock CR0 register: read and then write.
 426:Generated_Source\PSoC6\pdl\drivers\peripheral\usbfs/cy_usbfs_dev_drv.c ****                 * The success write clears 8-4 bits in the register.
 427:Generated_Source\PSoC6\pdl\drivers\peripheral\usbfs/cy_usbfs_dev_drv.c ****                 */
 428:Generated_Source\PSoC6\pdl\drivers\peripheral\usbfs/cy_usbfs_dev_drv.c ****                 ep0Cr = USBFS_DEV_EP0_CR(base);
 118              		.loc 1 428 0
 119 001a 9F33     		adds	r3, r3, #159
 120 001c C258     		ldr	r2, [r0, r3]
 121              	.LVL8:
 429:Generated_Source\PSoC6\pdl\drivers\peripheral\usbfs/cy_usbfs_dev_drv.c ****                 USBFS_DEV_EP0_CR(base) = ep0Cr;
 122              		.loc 1 429 0
 123 001e C250     		str	r2, [r0, r3]
 430:Generated_Source\PSoC6\pdl\drivers\peripheral\usbfs/cy_usbfs_dev_drv.c **** 
 431:Generated_Source\PSoC6\pdl\drivers\peripheral\usbfs/cy_usbfs_dev_drv.c ****                 /* Check whether CR0 register unlocked (bits cleared) */
 432:Generated_Source\PSoC6\pdl\drivers\peripheral\usbfs/cy_usbfs_dev_drv.c ****                 ep0Cr = USBFS_DEV_EP0_CR(base);
 124              		.loc 1 432 0
 125 0020 C358     		ldr	r3, [r0, r3]
 126              	.LVL9:
 433:Generated_Source\PSoC6\pdl\drivers\peripheral\usbfs/cy_usbfs_dev_drv.c ****                 if (false == _FLD2BOOL(USBFS_USBDEV_EP0_CR_SETUP_RCVD, ep0Cr))
 127              		.loc 1 433 0
 128 0022 1B06     		lsls	r3, r3, #24
 129 0024 13D4     		bmi	.L11
 130              	.LVL10:
 434:Generated_Source\PSoC6\pdl\drivers\peripheral\usbfs/cy_usbfs_dev_drv.c ****                 {
 435:Generated_Source\PSoC6\pdl\drivers\peripheral\usbfs/cy_usbfs_dev_drv.c ****                     /* Reset EP0 CNT register (data toggle 0) */
 436:Generated_Source\PSoC6\pdl\drivers\peripheral\usbfs/cy_usbfs_dev_drv.c ****                     context->ep0CntReg = 0UL;
 131              		.loc 1 436 0
 132 0026 0023     		movs	r3, #0
 133 0028 CB62     		str	r3, [r1, #44]
 437:Generated_Source\PSoC6\pdl\drivers\peripheral\usbfs/cy_usbfs_dev_drv.c **** 
ARM GAS  C:\Users\enes_\AppData\Local\Temp\ccUvgHSW.s 			page 11


 438:Generated_Source\PSoC6\pdl\drivers\peripheral\usbfs/cy_usbfs_dev_drv.c ****                     /* Call Device layer to service request */
 439:Generated_Source\PSoC6\pdl\drivers\peripheral\usbfs/cy_usbfs_dev_drv.c ****                     context->ep0Setup(base, context);
 134              		.loc 1 439 0
 135 002a 8B68     		ldr	r3, [r1, #8]
 136 002c 9847     		blx	r3
 137              	.LVL11:
 440:Generated_Source\PSoC6\pdl\drivers\peripheral\usbfs/cy_usbfs_dev_drv.c **** 
 441:Generated_Source\PSoC6\pdl\drivers\peripheral\usbfs/cy_usbfs_dev_drv.c ****                     updateCr0 = true;
 138              		.loc 1 441 0
 139 002e 0123     		movs	r3, #1
 140 0030 10E0     		b	.L8
 141              	.LVL12:
 142              	.L7:
 442:Generated_Source\PSoC6\pdl\drivers\peripheral\usbfs/cy_usbfs_dev_drv.c ****                 }
 443:Generated_Source\PSoC6\pdl\drivers\peripheral\usbfs/cy_usbfs_dev_drv.c ****             }
 444:Generated_Source\PSoC6\pdl\drivers\peripheral\usbfs/cy_usbfs_dev_drv.c ****         }
 445:Generated_Source\PSoC6\pdl\drivers\peripheral\usbfs/cy_usbfs_dev_drv.c ****         /* Handle IN */
 446:Generated_Source\PSoC6\pdl\drivers\peripheral\usbfs/cy_usbfs_dev_drv.c ****         else if (_FLD2BOOL(USBFS_USBDEV_EP0_CR_IN_RCVD, ep0Cr))
 143              		.loc 1 446 0
 144 0032 5A06     		lsls	r2, r3, #25
 145 0034 03D5     		bpl	.L9
 447:Generated_Source\PSoC6\pdl\drivers\peripheral\usbfs/cy_usbfs_dev_drv.c ****         {
 448:Generated_Source\PSoC6\pdl\drivers\peripheral\usbfs/cy_usbfs_dev_drv.c ****             context->ep0In(base, context);
 146              		.loc 1 448 0
 147 0036 CB68     		ldr	r3, [r1, #12]
 148              	.LVL13:
 149 0038 9847     		blx	r3
 150              	.LVL14:
 449:Generated_Source\PSoC6\pdl\drivers\peripheral\usbfs/cy_usbfs_dev_drv.c ****             updateCr0 = true;
 151              		.loc 1 449 0
 152 003a 0123     		movs	r3, #1
 153 003c 0AE0     		b	.L8
 154              	.LVL15:
 155              	.L9:
 450:Generated_Source\PSoC6\pdl\drivers\peripheral\usbfs/cy_usbfs_dev_drv.c ****         }
 451:Generated_Source\PSoC6\pdl\drivers\peripheral\usbfs/cy_usbfs_dev_drv.c ****         else if (_FLD2BOOL(USBFS_USBDEV_EP0_CR_OUT_RCVD, ep0Cr))
 156              		.loc 1 451 0
 157 003e 9B06     		lsls	r3, r3, #26
 158 0040 07D5     		bpl	.L12
 159              	.LVL16:
 452:Generated_Source\PSoC6\pdl\drivers\peripheral\usbfs/cy_usbfs_dev_drv.c ****         {
 453:Generated_Source\PSoC6\pdl\drivers\peripheral\usbfs/cy_usbfs_dev_drv.c ****             /* Handle OUT */
 454:Generated_Source\PSoC6\pdl\drivers\peripheral\usbfs/cy_usbfs_dev_drv.c ****             context->ep0Out(base, context);
 160              		.loc 1 454 0
 161 0042 0B69     		ldr	r3, [r1, #16]
 162 0044 9847     		blx	r3
 163              	.LVL17:
 455:Generated_Source\PSoC6\pdl\drivers\peripheral\usbfs/cy_usbfs_dev_drv.c ****             updateCr0 = true;
 164              		.loc 1 455 0
 165 0046 0123     		movs	r3, #1
 166 0048 04E0     		b	.L8
 167              	.LVL18:
 168              	.L10:
 417:Generated_Source\PSoC6\pdl\drivers\peripheral\usbfs/cy_usbfs_dev_drv.c **** 
 169              		.loc 1 417 0
 170 004a 0023     		movs	r3, #0
 171 004c 02E0     		b	.L8
ARM GAS  C:\Users\enes_\AppData\Local\Temp\ccUvgHSW.s 			page 12


 172              	.L11:
 173 004e 0023     		movs	r3, #0
 174 0050 00E0     		b	.L8
 175              	.L12:
 176 0052 0023     		movs	r3, #0
 177              	.LVL19:
 178              	.L8:
 456:Generated_Source\PSoC6\pdl\drivers\peripheral\usbfs/cy_usbfs_dev_drv.c ****         }
 457:Generated_Source\PSoC6\pdl\drivers\peripheral\usbfs/cy_usbfs_dev_drv.c ****         else
 458:Generated_Source\PSoC6\pdl\drivers\peripheral\usbfs/cy_usbfs_dev_drv.c ****         {
 459:Generated_Source\PSoC6\pdl\drivers\peripheral\usbfs/cy_usbfs_dev_drv.c ****             /* Do nothing - unknown source */
 460:Generated_Source\PSoC6\pdl\drivers\peripheral\usbfs/cy_usbfs_dev_drv.c ****         }
 461:Generated_Source\PSoC6\pdl\drivers\peripheral\usbfs/cy_usbfs_dev_drv.c **** 
 462:Generated_Source\PSoC6\pdl\drivers\peripheral\usbfs/cy_usbfs_dev_drv.c ****         if (updateCr0)
 179              		.loc 1 462 0
 180 0054 002B     		cmp	r3, #0
 181 0056 0CD0     		beq	.L5
 463:Generated_Source\PSoC6\pdl\drivers\peripheral\usbfs/cy_usbfs_dev_drv.c ****         {
 464:Generated_Source\PSoC6\pdl\drivers\peripheral\usbfs/cy_usbfs_dev_drv.c ****             /* Check whether CR0 register unlocked (bits are cleared) */
 465:Generated_Source\PSoC6\pdl\drivers\peripheral\usbfs/cy_usbfs_dev_drv.c ****             ep0Cr = USBFS_DEV_EP0_CR(base);
 182              		.loc 1 465 0
 183 0058 A023     		movs	r3, #160
 184              	.LVL20:
 185 005a E358     		ldr	r3, [r4, r3]
 186              	.LVL21:
 466:Generated_Source\PSoC6\pdl\drivers\peripheral\usbfs/cy_usbfs_dev_drv.c **** 
 467:Generated_Source\PSoC6\pdl\drivers\peripheral\usbfs/cy_usbfs_dev_drv.c ****             if (false == _FLD2BOOL(USBFS_USBDEV_EP0_CR_SETUP_RCVD, ep0Cr))
 187              		.loc 1 467 0
 188 005c 1B06     		lsls	r3, r3, #24
 189 005e 08D4     		bmi	.L5
 190              	.LVL22:
 468:Generated_Source\PSoC6\pdl\drivers\peripheral\usbfs/cy_usbfs_dev_drv.c ****             {
 469:Generated_Source\PSoC6\pdl\drivers\peripheral\usbfs/cy_usbfs_dev_drv.c ****                 /* Update count and mode registers */
 470:Generated_Source\PSoC6\pdl\drivers\peripheral\usbfs/cy_usbfs_dev_drv.c ****                 USBFS_DEV_EP0_CNT(base) = CY_USBFS_DEV_DRV_WRITE_ODD(context->ep0CntReg);
 191              		.loc 1 470 0
 192 0060 EA6A     		ldr	r2, [r5, #44]
 193 0062 1302     		lsls	r3, r2, #8
 194 0064 1343     		orrs	r3, r2
 195 0066 A422     		movs	r2, #164
 196 0068 A350     		str	r3, [r4, r2]
 471:Generated_Source\PSoC6\pdl\drivers\peripheral\usbfs/cy_usbfs_dev_drv.c ****                 USBFS_DEV_EP0_CR(base)  = context->ep0ModeReg;
 197              		.loc 1 471 0
 198 006a AA6A     		ldr	r2, [r5, #40]
 199 006c A023     		movs	r3, #160
 200 006e E250     		str	r2, [r4, r3]
 472:Generated_Source\PSoC6\pdl\drivers\peripheral\usbfs/cy_usbfs_dev_drv.c ****                 USBFS_DEV_EP0_CR(base);
 201              		.loc 1 472 0
 202 0070 E358     		ldr	r3, [r4, r3]
 203              	.L5:
 204              	.LBE33:
 473:Generated_Source\PSoC6\pdl\drivers\peripheral\usbfs/cy_usbfs_dev_drv.c ****             }
 474:Generated_Source\PSoC6\pdl\drivers\peripheral\usbfs/cy_usbfs_dev_drv.c ****         }
 475:Generated_Source\PSoC6\pdl\drivers\peripheral\usbfs/cy_usbfs_dev_drv.c ****     }
 476:Generated_Source\PSoC6\pdl\drivers\peripheral\usbfs/cy_usbfs_dev_drv.c **** }
 205              		.loc 1 476 0
 206              		@ sp needed
 207              	.LVL23:
ARM GAS  C:\Users\enes_\AppData\Local\Temp\ccUvgHSW.s 			page 13


 208              	.LVL24:
 209 0072 70BD     		pop	{r4, r5, r6, pc}
 210              		.cfi_endproc
 211              	.LFE176:
 212              		.size	Ep0IntrHandler, .-Ep0IntrHandler
 213              		.section	.text.BusResetIntrHandler,"ax",%progbits
 214              		.align	2
 215              		.code	16
 216              		.thumb_func
 217              		.type	BusResetIntrHandler, %function
 218              	BusResetIntrHandler:
 219              	.LFB177:
 477:Generated_Source\PSoC6\pdl\drivers\peripheral\usbfs/cy_usbfs_dev_drv.c **** 
 478:Generated_Source\PSoC6\pdl\drivers\peripheral\usbfs/cy_usbfs_dev_drv.c **** 
 479:Generated_Source\PSoC6\pdl\drivers\peripheral\usbfs/cy_usbfs_dev_drv.c **** /*******************************************************************************
 480:Generated_Source\PSoC6\pdl\drivers\peripheral\usbfs/cy_usbfs_dev_drv.c **** * Function Name: BusResetIntrHandler
 481:Generated_Source\PSoC6\pdl\drivers\peripheral\usbfs/cy_usbfs_dev_drv.c **** ****************************************************************************//**
 482:Generated_Source\PSoC6\pdl\drivers\peripheral\usbfs/cy_usbfs_dev_drv.c **** *
 483:Generated_Source\PSoC6\pdl\drivers\peripheral\usbfs/cy_usbfs_dev_drv.c **** * Bus Reset interrupt handler.
 484:Generated_Source\PSoC6\pdl\drivers\peripheral\usbfs/cy_usbfs_dev_drv.c **** *
 485:Generated_Source\PSoC6\pdl\drivers\peripheral\usbfs/cy_usbfs_dev_drv.c **** * \param base
 486:Generated_Source\PSoC6\pdl\drivers\peripheral\usbfs/cy_usbfs_dev_drv.c **** * The pointer to the USBFS instance.
 487:Generated_Source\PSoC6\pdl\drivers\peripheral\usbfs/cy_usbfs_dev_drv.c **** *
 488:Generated_Source\PSoC6\pdl\drivers\peripheral\usbfs/cy_usbfs_dev_drv.c **** * \param context
 489:Generated_Source\PSoC6\pdl\drivers\peripheral\usbfs/cy_usbfs_dev_drv.c **** * The pointer to the context structure \ref cy_stc_usbfs_dev_drv_context_t
 490:Generated_Source\PSoC6\pdl\drivers\peripheral\usbfs/cy_usbfs_dev_drv.c **** * allocated by the user. The structure is used during the USBFS Device 
 491:Generated_Source\PSoC6\pdl\drivers\peripheral\usbfs/cy_usbfs_dev_drv.c **** * operation for internal configuration and data retention. The user must not 
 492:Generated_Source\PSoC6\pdl\drivers\peripheral\usbfs/cy_usbfs_dev_drv.c **** * modify anything in this structure.
 493:Generated_Source\PSoC6\pdl\drivers\peripheral\usbfs/cy_usbfs_dev_drv.c **** *
 494:Generated_Source\PSoC6\pdl\drivers\peripheral\usbfs/cy_usbfs_dev_drv.c **** *******************************************************************************/
 495:Generated_Source\PSoC6\pdl\drivers\peripheral\usbfs/cy_usbfs_dev_drv.c **** static void BusResetIntrHandler(USBFS_Type *base, cy_stc_usbfs_dev_drv_context_t *context)
 496:Generated_Source\PSoC6\pdl\drivers\peripheral\usbfs/cy_usbfs_dev_drv.c **** {
 220              		.loc 1 496 0
 221              		.cfi_startproc
 222              		@ args = 0, pretend = 0, frame = 0
 223              		@ frame_needed = 0, uses_anonymous_args = 0
 224              	.LVL25:
 225 0000 10B5     		push	{r4, lr}
 226              		.cfi_def_cfa_offset 8
 227              		.cfi_offset 4, -8
 228              		.cfi_offset 14, -4
 229 0002 0400     		movs	r4, r0
 497:Generated_Source\PSoC6\pdl\drivers\peripheral\usbfs/cy_usbfs_dev_drv.c ****     /* Reset driver variables if any */
 498:Generated_Source\PSoC6\pdl\drivers\peripheral\usbfs/cy_usbfs_dev_drv.c **** 
 499:Generated_Source\PSoC6\pdl\drivers\peripheral\usbfs/cy_usbfs_dev_drv.c ****     /* Cypress ID# 293217: write CR0 when pull-up is enabled */
 500:Generated_Source\PSoC6\pdl\drivers\peripheral\usbfs/cy_usbfs_dev_drv.c ****     if (_FLD2BOOL(USBFS_USBLPM_POWER_CTL_DP_UP_EN, USBFS_DEV_LPM_POWER_CTL(base)))
 230              		.loc 1 500 0
 231 0004 8023     		movs	r3, #128
 232 0006 9B01     		lsls	r3, r3, #6
 233 0008 C358     		ldr	r3, [r0, r3]
 234 000a DB03     		lsls	r3, r3, #15
 235 000c 0AD5     		bpl	.L13
 501:Generated_Source\PSoC6\pdl\drivers\peripheral\usbfs/cy_usbfs_dev_drv.c ****     {
 502:Generated_Source\PSoC6\pdl\drivers\peripheral\usbfs/cy_usbfs_dev_drv.c ****         /* Pass event to the Device layer */
 503:Generated_Source\PSoC6\pdl\drivers\peripheral\usbfs/cy_usbfs_dev_drv.c ****         context->busReset(base, context);
 236              		.loc 1 503 0
 237 000e 4B68     		ldr	r3, [r1, #4]
ARM GAS  C:\Users\enes_\AppData\Local\Temp\ccUvgHSW.s 			page 14


 238 0010 9847     		blx	r3
 239              	.LVL26:
 504:Generated_Source\PSoC6\pdl\drivers\peripheral\usbfs/cy_usbfs_dev_drv.c **** 
 505:Generated_Source\PSoC6\pdl\drivers\peripheral\usbfs/cy_usbfs_dev_drv.c ****         /* Clear EP0 count register */
 506:Generated_Source\PSoC6\pdl\drivers\peripheral\usbfs/cy_usbfs_dev_drv.c ****         USBFS_DEV_EP0_CNT(base) = CY_USBFS_DEV_DRV_WRITE_ODD(0UL);
 240              		.loc 1 506 0
 241 0012 0022     		movs	r2, #0
 242 0014 A423     		movs	r3, #164
 243 0016 E250     		str	r2, [r4, r3]
 507:Generated_Source\PSoC6\pdl\drivers\peripheral\usbfs/cy_usbfs_dev_drv.c **** 
 508:Generated_Source\PSoC6\pdl\drivers\peripheral\usbfs/cy_usbfs_dev_drv.c ****         /* Set EP0.CR: ACK Setup, NAK IN/OUT */
 509:Generated_Source\PSoC6\pdl\drivers\peripheral\usbfs/cy_usbfs_dev_drv.c ****         USBFS_DEV_EP0_CR(base) = CY_USBFS_DEV_DRV_EP_CR_NAK_INOUT;
 244              		.loc 1 509 0
 245 0018 0132     		adds	r2, r2, #1
 246 001a 043B     		subs	r3, r3, #4
 247 001c E250     		str	r2, [r4, r3]
 510:Generated_Source\PSoC6\pdl\drivers\peripheral\usbfs/cy_usbfs_dev_drv.c **** 
 511:Generated_Source\PSoC6\pdl\drivers\peripheral\usbfs/cy_usbfs_dev_drv.c ****         /* Enable device to responds to USB traffic with address 0 */
 512:Generated_Source\PSoC6\pdl\drivers\peripheral\usbfs/cy_usbfs_dev_drv.c ****         USBFS_DEV_CR0(base) = USBFS_USBDEV_CR0_USB_ENABLE_Msk;
 248              		.loc 1 512 0
 249 001e 203B     		subs	r3, r3, #32
 250 0020 2362     		str	r3, [r4, #32]
 513:Generated_Source\PSoC6\pdl\drivers\peripheral\usbfs/cy_usbfs_dev_drv.c ****         (void) USBFS_DEV_CR0(base);
 251              		.loc 1 513 0
 252 0022 236A     		ldr	r3, [r4, #32]
 253              	.L13:
 514:Generated_Source\PSoC6\pdl\drivers\peripheral\usbfs/cy_usbfs_dev_drv.c ****     }
 515:Generated_Source\PSoC6\pdl\drivers\peripheral\usbfs/cy_usbfs_dev_drv.c **** }
 254              		.loc 1 515 0
 255              		@ sp needed
 256              	.LVL27:
 257 0024 10BD     		pop	{r4, pc}
 258              		.cfi_endproc
 259              	.LFE177:
 260              		.size	BusResetIntrHandler, .-BusResetIntrHandler
 261 0026 C046     		.section	.text.SieEnpointIntrHandler,"ax",%progbits
 262              		.align	2
 263              		.code	16
 264              		.thumb_func
 265              		.type	SieEnpointIntrHandler, %function
 266              	SieEnpointIntrHandler:
 267              	.LFB179:
 516:Generated_Source\PSoC6\pdl\drivers\peripheral\usbfs/cy_usbfs_dev_drv.c **** 
 517:Generated_Source\PSoC6\pdl\drivers\peripheral\usbfs/cy_usbfs_dev_drv.c **** 
 518:Generated_Source\PSoC6\pdl\drivers\peripheral\usbfs/cy_usbfs_dev_drv.c **** /*******************************************************************************
 519:Generated_Source\PSoC6\pdl\drivers\peripheral\usbfs/cy_usbfs_dev_drv.c **** * Function Name: ArbiterIntrHandler
 520:Generated_Source\PSoC6\pdl\drivers\peripheral\usbfs/cy_usbfs_dev_drv.c **** ****************************************************************************//**
 521:Generated_Source\PSoC6\pdl\drivers\peripheral\usbfs/cy_usbfs_dev_drv.c **** *
 522:Generated_Source\PSoC6\pdl\drivers\peripheral\usbfs/cy_usbfs_dev_drv.c **** * Arbiter interrupt handler (enabled for operation with DMAs).
 523:Generated_Source\PSoC6\pdl\drivers\peripheral\usbfs/cy_usbfs_dev_drv.c **** *
 524:Generated_Source\PSoC6\pdl\drivers\peripheral\usbfs/cy_usbfs_dev_drv.c **** * \param base
 525:Generated_Source\PSoC6\pdl\drivers\peripheral\usbfs/cy_usbfs_dev_drv.c **** * The pointer to the USBFS instance.
 526:Generated_Source\PSoC6\pdl\drivers\peripheral\usbfs/cy_usbfs_dev_drv.c **** *
 527:Generated_Source\PSoC6\pdl\drivers\peripheral\usbfs/cy_usbfs_dev_drv.c **** * \param context
 528:Generated_Source\PSoC6\pdl\drivers\peripheral\usbfs/cy_usbfs_dev_drv.c **** * The pointer to the context structure \ref cy_stc_usbfs_dev_drv_context_t
 529:Generated_Source\PSoC6\pdl\drivers\peripheral\usbfs/cy_usbfs_dev_drv.c **** * allocated by the user. The structure is used during the USBFS Device 
 530:Generated_Source\PSoC6\pdl\drivers\peripheral\usbfs/cy_usbfs_dev_drv.c **** * operation for internal configuration and data retention. The user must not 
ARM GAS  C:\Users\enes_\AppData\Local\Temp\ccUvgHSW.s 			page 15


 531:Generated_Source\PSoC6\pdl\drivers\peripheral\usbfs/cy_usbfs_dev_drv.c **** * modify anything in this structure.
 532:Generated_Source\PSoC6\pdl\drivers\peripheral\usbfs/cy_usbfs_dev_drv.c **** *
 533:Generated_Source\PSoC6\pdl\drivers\peripheral\usbfs/cy_usbfs_dev_drv.c **** *******************************************************************************/
 534:Generated_Source\PSoC6\pdl\drivers\peripheral\usbfs/cy_usbfs_dev_drv.c **** static void ArbiterIntrHandler(USBFS_Type *base, cy_stc_usbfs_dev_drv_context_t *context)
 535:Generated_Source\PSoC6\pdl\drivers\peripheral\usbfs/cy_usbfs_dev_drv.c **** {
 536:Generated_Source\PSoC6\pdl\drivers\peripheral\usbfs/cy_usbfs_dev_drv.c ****     uint32_t endpoint = 0UL;
 537:Generated_Source\PSoC6\pdl\drivers\peripheral\usbfs/cy_usbfs_dev_drv.c ****     uint32_t intrMask = Cy_USBFS_Dev_Drv_GetArbAllEpsInterruptStatus(base);
 538:Generated_Source\PSoC6\pdl\drivers\peripheral\usbfs/cy_usbfs_dev_drv.c **** 
 539:Generated_Source\PSoC6\pdl\drivers\peripheral\usbfs/cy_usbfs_dev_drv.c ****     /* Handle active interrupt sources */
 540:Generated_Source\PSoC6\pdl\drivers\peripheral\usbfs/cy_usbfs_dev_drv.c ****     while (0U != intrMask)
 541:Generated_Source\PSoC6\pdl\drivers\peripheral\usbfs/cy_usbfs_dev_drv.c ****     {
 542:Generated_Source\PSoC6\pdl\drivers\peripheral\usbfs/cy_usbfs_dev_drv.c ****         if (0U != (intrMask & 0x01U))
 543:Generated_Source\PSoC6\pdl\drivers\peripheral\usbfs/cy_usbfs_dev_drv.c ****         {
 544:Generated_Source\PSoC6\pdl\drivers\peripheral\usbfs/cy_usbfs_dev_drv.c ****             /* Get endpoint enable interrupt sources */
 545:Generated_Source\PSoC6\pdl\drivers\peripheral\usbfs/cy_usbfs_dev_drv.c ****             uint32_t sourceMask = Cy_USBFS_Dev_Drv_GetArbEpInterruptStatusMasked(base, endpoint);
 546:Generated_Source\PSoC6\pdl\drivers\peripheral\usbfs/cy_usbfs_dev_drv.c **** 
 547:Generated_Source\PSoC6\pdl\drivers\peripheral\usbfs/cy_usbfs_dev_drv.c ****             /* Get pointer to endpoint data */
 548:Generated_Source\PSoC6\pdl\drivers\peripheral\usbfs/cy_usbfs_dev_drv.c ****             cy_stc_usbfs_dev_drv_endpoint_data_t *endpointData = &context->epPool[endpoint];
 549:Generated_Source\PSoC6\pdl\drivers\peripheral\usbfs/cy_usbfs_dev_drv.c **** 
 550:Generated_Source\PSoC6\pdl\drivers\peripheral\usbfs/cy_usbfs_dev_drv.c ****             Cy_USBFS_Dev_Drv_ClearArbEpInterrupt(base, endpoint, sourceMask);
 551:Generated_Source\PSoC6\pdl\drivers\peripheral\usbfs/cy_usbfs_dev_drv.c **** 
 552:Generated_Source\PSoC6\pdl\drivers\peripheral\usbfs/cy_usbfs_dev_drv.c ****             /* Mode 2/3: Handle IN endpoint buffer full event: trigger after
 553:Generated_Source\PSoC6\pdl\drivers\peripheral\usbfs/cy_usbfs_dev_drv.c ****             * endpoint buffer has been loaded
 554:Generated_Source\PSoC6\pdl\drivers\peripheral\usbfs/cy_usbfs_dev_drv.c ****             */
 555:Generated_Source\PSoC6\pdl\drivers\peripheral\usbfs/cy_usbfs_dev_drv.c ****             if (0U != (sourceMask & USBFS_USBDEV_ARB_EP_IN_BUF_FULL_Msk))
 556:Generated_Source\PSoC6\pdl\drivers\peripheral\usbfs/cy_usbfs_dev_drv.c ****             {
 557:Generated_Source\PSoC6\pdl\drivers\peripheral\usbfs/cy_usbfs_dev_drv.c ****                 Cy_USBFS_Dev_Drv_ClearArbCfgEpInReady(base, endpoint);
 558:Generated_Source\PSoC6\pdl\drivers\peripheral\usbfs/cy_usbfs_dev_drv.c **** 
 559:Generated_Source\PSoC6\pdl\drivers\peripheral\usbfs/cy_usbfs_dev_drv.c ****                 /* Mode 2: notify the user that data has been copied into endpoint buffer.
 560:Generated_Source\PSoC6\pdl\drivers\peripheral\usbfs/cy_usbfs_dev_drv.c ****                 *  Mode 3: the endpoint pending state is set before in LoadInEndpointDmaAuto (no im
 561:Generated_Source\PSoC6\pdl\drivers\peripheral\usbfs/cy_usbfs_dev_drv.c ****                 */
 562:Generated_Source\PSoC6\pdl\drivers\peripheral\usbfs/cy_usbfs_dev_drv.c ****                 endpointData->state = CY_USB_DEV_EP_PENDING;
 563:Generated_Source\PSoC6\pdl\drivers\peripheral\usbfs/cy_usbfs_dev_drv.c **** 
 564:Generated_Source\PSoC6\pdl\drivers\peripheral\usbfs/cy_usbfs_dev_drv.c ****                 /* Arm IN endpoint */
 565:Generated_Source\PSoC6\pdl\drivers\peripheral\usbfs/cy_usbfs_dev_drv.c ****                 Cy_USBFS_Dev_Drv_SetSieEpMode(base, endpoint, (uint32_t) endpointData->sieMode);
 566:Generated_Source\PSoC6\pdl\drivers\peripheral\usbfs/cy_usbfs_dev_drv.c ****             }
 567:Generated_Source\PSoC6\pdl\drivers\peripheral\usbfs/cy_usbfs_dev_drv.c **** 
 568:Generated_Source\PSoC6\pdl\drivers\peripheral\usbfs/cy_usbfs_dev_drv.c ****             /* Mode 2: Handle DMA completion event for OUT endpoints */
 569:Generated_Source\PSoC6\pdl\drivers\peripheral\usbfs/cy_usbfs_dev_drv.c ****             if (0U != (sourceMask & USBFS_USBDEV_ARB_EP_DMA_GNT_Msk))
 570:Generated_Source\PSoC6\pdl\drivers\peripheral\usbfs/cy_usbfs_dev_drv.c ****             {
 571:Generated_Source\PSoC6\pdl\drivers\peripheral\usbfs/cy_usbfs_dev_drv.c ****                 /* Notify the user that data has been copied from endpoint buffer */
 572:Generated_Source\PSoC6\pdl\drivers\peripheral\usbfs/cy_usbfs_dev_drv.c ****                 endpointData->state = CY_USB_DEV_EP_COMPLETED;
 573:Generated_Source\PSoC6\pdl\drivers\peripheral\usbfs/cy_usbfs_dev_drv.c ****             }
 574:Generated_Source\PSoC6\pdl\drivers\peripheral\usbfs/cy_usbfs_dev_drv.c **** 
 575:Generated_Source\PSoC6\pdl\drivers\peripheral\usbfs/cy_usbfs_dev_drv.c ****             /* Mode 3: Handle DMA completion event for OUT endpoints */
 576:Generated_Source\PSoC6\pdl\drivers\peripheral\usbfs/cy_usbfs_dev_drv.c ****             if (0U != (sourceMask & USBFS_USBDEV_ARB_EP_DMA_TERMIN_Msk))
 577:Generated_Source\PSoC6\pdl\drivers\peripheral\usbfs/cy_usbfs_dev_drv.c ****             {
 578:Generated_Source\PSoC6\pdl\drivers\peripheral\usbfs/cy_usbfs_dev_drv.c ****                 /* Set DMA channel to start new transfer */
 579:Generated_Source\PSoC6\pdl\drivers\peripheral\usbfs/cy_usbfs_dev_drv.c ****                 DmaOutEndpointRestore(endpointData);
 580:Generated_Source\PSoC6\pdl\drivers\peripheral\usbfs/cy_usbfs_dev_drv.c **** 
 581:Generated_Source\PSoC6\pdl\drivers\peripheral\usbfs/cy_usbfs_dev_drv.c ****                 /* Update toggle (exclude ISOC endpoints) */
 582:Generated_Source\PSoC6\pdl\drivers\peripheral\usbfs/cy_usbfs_dev_drv.c ****                 if (false == IS_EP_ISOC(endpointData->sieMode))
 583:Generated_Source\PSoC6\pdl\drivers\peripheral\usbfs/cy_usbfs_dev_drv.c ****                 {
 584:Generated_Source\PSoC6\pdl\drivers\peripheral\usbfs/cy_usbfs_dev_drv.c ****                     endpointData->toggle ^= (uint8_t) USBFS_USBDEV_SIE_EP_DATA_TOGGLE_Msk;
 585:Generated_Source\PSoC6\pdl\drivers\peripheral\usbfs/cy_usbfs_dev_drv.c ****                 }                
 586:Generated_Source\PSoC6\pdl\drivers\peripheral\usbfs/cy_usbfs_dev_drv.c **** 
 587:Generated_Source\PSoC6\pdl\drivers\peripheral\usbfs/cy_usbfs_dev_drv.c ****                 /* Set complete event and update data toggle */
ARM GAS  C:\Users\enes_\AppData\Local\Temp\ccUvgHSW.s 			page 16


 588:Generated_Source\PSoC6\pdl\drivers\peripheral\usbfs/cy_usbfs_dev_drv.c ****                 endpointData->state = CY_USB_DEV_EP_COMPLETED;
 589:Generated_Source\PSoC6\pdl\drivers\peripheral\usbfs/cy_usbfs_dev_drv.c **** 
 590:Generated_Source\PSoC6\pdl\drivers\peripheral\usbfs/cy_usbfs_dev_drv.c ****                 /* Involve callback if registered */
 591:Generated_Source\PSoC6\pdl\drivers\peripheral\usbfs/cy_usbfs_dev_drv.c ****                 if (endpointData->epComplete != NULL)
 592:Generated_Source\PSoC6\pdl\drivers\peripheral\usbfs/cy_usbfs_dev_drv.c ****                 {
 593:Generated_Source\PSoC6\pdl\drivers\peripheral\usbfs/cy_usbfs_dev_drv.c ****                     uint32_t errorType = 0UL;
 594:Generated_Source\PSoC6\pdl\drivers\peripheral\usbfs/cy_usbfs_dev_drv.c ****                     
 595:Generated_Source\PSoC6\pdl\drivers\peripheral\usbfs/cy_usbfs_dev_drv.c ****                     /* Check transfer errors (detect by hardware) */
 596:Generated_Source\PSoC6\pdl\drivers\peripheral\usbfs/cy_usbfs_dev_drv.c ****                     if (0U != Cy_USBFS_Dev_Drv_GetSieEpError(base, endpoint))
 597:Generated_Source\PSoC6\pdl\drivers\peripheral\usbfs/cy_usbfs_dev_drv.c ****                     {
 598:Generated_Source\PSoC6\pdl\drivers\peripheral\usbfs/cy_usbfs_dev_drv.c ****                         errorType |= CY_USBFS_DEV_ENDPOINT_TRANSFER_ERROR;
 599:Generated_Source\PSoC6\pdl\drivers\peripheral\usbfs/cy_usbfs_dev_drv.c ****                     }
 600:Generated_Source\PSoC6\pdl\drivers\peripheral\usbfs/cy_usbfs_dev_drv.c ****                     
 601:Generated_Source\PSoC6\pdl\drivers\peripheral\usbfs/cy_usbfs_dev_drv.c ****                     /* Check data toggle bit of current transfer (exclude ISOC endpoints) */
 602:Generated_Source\PSoC6\pdl\drivers\peripheral\usbfs/cy_usbfs_dev_drv.c ****                     if (false == IS_EP_ISOC(endpointData->sieMode))
 603:Generated_Source\PSoC6\pdl\drivers\peripheral\usbfs/cy_usbfs_dev_drv.c ****                     {
 604:Generated_Source\PSoC6\pdl\drivers\peripheral\usbfs/cy_usbfs_dev_drv.c ****                         if (endpointData->toggle == Cy_USBFS_Dev_Drv_GetSieEpToggle(base, endpoint)
 605:Generated_Source\PSoC6\pdl\drivers\peripheral\usbfs/cy_usbfs_dev_drv.c ****                         {
 606:Generated_Source\PSoC6\pdl\drivers\peripheral\usbfs/cy_usbfs_dev_drv.c ****                             errorType |= CY_USBFS_DEV_ENDPOINT_SAME_DATA_TOGGLE;
 607:Generated_Source\PSoC6\pdl\drivers\peripheral\usbfs/cy_usbfs_dev_drv.c ****                         }
 608:Generated_Source\PSoC6\pdl\drivers\peripheral\usbfs/cy_usbfs_dev_drv.c ****                     }
 609:Generated_Source\PSoC6\pdl\drivers\peripheral\usbfs/cy_usbfs_dev_drv.c ****                     
 610:Generated_Source\PSoC6\pdl\drivers\peripheral\usbfs/cy_usbfs_dev_drv.c ****                     /* Call endpoint complete callback */
 611:Generated_Source\PSoC6\pdl\drivers\peripheral\usbfs/cy_usbfs_dev_drv.c ****                     endpointData->epComplete(base, errorType, context);
 612:Generated_Source\PSoC6\pdl\drivers\peripheral\usbfs/cy_usbfs_dev_drv.c ****                 }
 613:Generated_Source\PSoC6\pdl\drivers\peripheral\usbfs/cy_usbfs_dev_drv.c ****             }
 614:Generated_Source\PSoC6\pdl\drivers\peripheral\usbfs/cy_usbfs_dev_drv.c **** 
 615:Generated_Source\PSoC6\pdl\drivers\peripheral\usbfs/cy_usbfs_dev_drv.c ****             /* This error condition indicates system failure */
 616:Generated_Source\PSoC6\pdl\drivers\peripheral\usbfs/cy_usbfs_dev_drv.c ****             if (0U != (sourceMask & USBFS_USBDEV_ARB_EP_BUF_OVER_Msk))
 617:Generated_Source\PSoC6\pdl\drivers\peripheral\usbfs/cy_usbfs_dev_drv.c ****             {
 618:Generated_Source\PSoC6\pdl\drivers\peripheral\usbfs/cy_usbfs_dev_drv.c ****                 /* The DMA is not capable of moving data from the mxusbfs IP 
 619:Generated_Source\PSoC6\pdl\drivers\peripheral\usbfs/cy_usbfs_dev_drv.c ****                 * hardware buffer fast enough and so caused overflow. Give DMA 
 620:Generated_Source\PSoC6\pdl\drivers\peripheral\usbfs/cy_usbfs_dev_drv.c ****                 * channel for this endpoint greater priority or increase the clock 
 621:Generated_Source\PSoC6\pdl\drivers\peripheral\usbfs/cy_usbfs_dev_drv.c ****                 * at which it operates.
 622:Generated_Source\PSoC6\pdl\drivers\peripheral\usbfs/cy_usbfs_dev_drv.c ****                 */
 623:Generated_Source\PSoC6\pdl\drivers\peripheral\usbfs/cy_usbfs_dev_drv.c ****                 CY_ASSERT_L1(false);
 624:Generated_Source\PSoC6\pdl\drivers\peripheral\usbfs/cy_usbfs_dev_drv.c ****             }
 625:Generated_Source\PSoC6\pdl\drivers\peripheral\usbfs/cy_usbfs_dev_drv.c **** 
 626:Generated_Source\PSoC6\pdl\drivers\peripheral\usbfs/cy_usbfs_dev_drv.c ****             /* This error condition indicates system failure */
 627:Generated_Source\PSoC6\pdl\drivers\peripheral\usbfs/cy_usbfs_dev_drv.c ****             if (0U != (sourceMask & USBFS_USBDEV_ARB_EP_BUF_UNDER_Msk))
 628:Generated_Source\PSoC6\pdl\drivers\peripheral\usbfs/cy_usbfs_dev_drv.c ****             {
 629:Generated_Source\PSoC6\pdl\drivers\peripheral\usbfs/cy_usbfs_dev_drv.c ****                 /* The DMA is not capable of moving data into the mxusbfs IP 
 630:Generated_Source\PSoC6\pdl\drivers\peripheral\usbfs/cy_usbfs_dev_drv.c ****                 * hardware buffer fast enough and so caused underflow. Give DMA 
 631:Generated_Source\PSoC6\pdl\drivers\peripheral\usbfs/cy_usbfs_dev_drv.c ****                 * channel for this endpoint greater priority or increase the clock 
 632:Generated_Source\PSoC6\pdl\drivers\peripheral\usbfs/cy_usbfs_dev_drv.c ****                 * at which it operates.
 633:Generated_Source\PSoC6\pdl\drivers\peripheral\usbfs/cy_usbfs_dev_drv.c ****                 */                
 634:Generated_Source\PSoC6\pdl\drivers\peripheral\usbfs/cy_usbfs_dev_drv.c ****                 CY_ASSERT_L1(false);
 635:Generated_Source\PSoC6\pdl\drivers\peripheral\usbfs/cy_usbfs_dev_drv.c ****             }
 636:Generated_Source\PSoC6\pdl\drivers\peripheral\usbfs/cy_usbfs_dev_drv.c ****         }
 637:Generated_Source\PSoC6\pdl\drivers\peripheral\usbfs/cy_usbfs_dev_drv.c **** 
 638:Generated_Source\PSoC6\pdl\drivers\peripheral\usbfs/cy_usbfs_dev_drv.c ****         /* Move to next endpoint */
 639:Generated_Source\PSoC6\pdl\drivers\peripheral\usbfs/cy_usbfs_dev_drv.c ****         intrMask >>= 1UL;
 640:Generated_Source\PSoC6\pdl\drivers\peripheral\usbfs/cy_usbfs_dev_drv.c ****         ++endpoint;
 641:Generated_Source\PSoC6\pdl\drivers\peripheral\usbfs/cy_usbfs_dev_drv.c ****     }
 642:Generated_Source\PSoC6\pdl\drivers\peripheral\usbfs/cy_usbfs_dev_drv.c **** }
 643:Generated_Source\PSoC6\pdl\drivers\peripheral\usbfs/cy_usbfs_dev_drv.c **** 
 644:Generated_Source\PSoC6\pdl\drivers\peripheral\usbfs/cy_usbfs_dev_drv.c **** 
ARM GAS  C:\Users\enes_\AppData\Local\Temp\ccUvgHSW.s 			page 17


 645:Generated_Source\PSoC6\pdl\drivers\peripheral\usbfs/cy_usbfs_dev_drv.c **** /*******************************************************************************
 646:Generated_Source\PSoC6\pdl\drivers\peripheral\usbfs/cy_usbfs_dev_drv.c **** * Function Name: SieEnpointIntrHandler
 647:Generated_Source\PSoC6\pdl\drivers\peripheral\usbfs/cy_usbfs_dev_drv.c **** ****************************************************************************//**
 648:Generated_Source\PSoC6\pdl\drivers\peripheral\usbfs/cy_usbfs_dev_drv.c **** *
 649:Generated_Source\PSoC6\pdl\drivers\peripheral\usbfs/cy_usbfs_dev_drv.c **** * SIE (Serial Interface Engine) endpoint interrupt handler. 
 650:Generated_Source\PSoC6\pdl\drivers\peripheral\usbfs/cy_usbfs_dev_drv.c **** * It triggers when communication was completed with data endpoint.
 651:Generated_Source\PSoC6\pdl\drivers\peripheral\usbfs/cy_usbfs_dev_drv.c **** *
 652:Generated_Source\PSoC6\pdl\drivers\peripheral\usbfs/cy_usbfs_dev_drv.c **** * \param base
 653:Generated_Source\PSoC6\pdl\drivers\peripheral\usbfs/cy_usbfs_dev_drv.c **** * The pointer to the USBFS instance.
 654:Generated_Source\PSoC6\pdl\drivers\peripheral\usbfs/cy_usbfs_dev_drv.c **** *
 655:Generated_Source\PSoC6\pdl\drivers\peripheral\usbfs/cy_usbfs_dev_drv.c **** * \param endpoint
 656:Generated_Source\PSoC6\pdl\drivers\peripheral\usbfs/cy_usbfs_dev_drv.c **** * The data endpoint number.
 657:Generated_Source\PSoC6\pdl\drivers\peripheral\usbfs/cy_usbfs_dev_drv.c **** *
 658:Generated_Source\PSoC6\pdl\drivers\peripheral\usbfs/cy_usbfs_dev_drv.c **** * \param context
 659:Generated_Source\PSoC6\pdl\drivers\peripheral\usbfs/cy_usbfs_dev_drv.c **** * The pointer to the context structure \ref cy_stc_usbfs_dev_drv_context_t
 660:Generated_Source\PSoC6\pdl\drivers\peripheral\usbfs/cy_usbfs_dev_drv.c **** * allocated by the user. The structure is used during the USBFS Device 
 661:Generated_Source\PSoC6\pdl\drivers\peripheral\usbfs/cy_usbfs_dev_drv.c **** * operation for internal configuration and data retention. The user must not 
 662:Generated_Source\PSoC6\pdl\drivers\peripheral\usbfs/cy_usbfs_dev_drv.c **** * modify anything in this structure.
 663:Generated_Source\PSoC6\pdl\drivers\peripheral\usbfs/cy_usbfs_dev_drv.c **** *
 664:Generated_Source\PSoC6\pdl\drivers\peripheral\usbfs/cy_usbfs_dev_drv.c **** *******************************************************************************/
 665:Generated_Source\PSoC6\pdl\drivers\peripheral\usbfs/cy_usbfs_dev_drv.c **** static void SieEnpointIntrHandler(USBFS_Type *base, uint32_t endpoint, 
 666:Generated_Source\PSoC6\pdl\drivers\peripheral\usbfs/cy_usbfs_dev_drv.c ****                                   cy_stc_usbfs_dev_drv_context_t *context)
 667:Generated_Source\PSoC6\pdl\drivers\peripheral\usbfs/cy_usbfs_dev_drv.c **** {
 268              		.loc 1 667 0
 269              		.cfi_startproc
 270              		@ args = 0, pretend = 0, frame = 0
 271              		@ frame_needed = 0, uses_anonymous_args = 0
 272              	.LVL28:
 273 0000 70B5     		push	{r4, r5, r6, lr}
 274              		.cfi_def_cfa_offset 16
 275              		.cfi_offset 4, -16
 276              		.cfi_offset 5, -12
 277              		.cfi_offset 6, -8
 278              		.cfi_offset 14, -4
 279              	.LVL29:
 280              	.LBB34:
 281              	.LBB35:
 282              		.file 2 "Generated_Source\\PSoC6\\pdl\\drivers\\peripheral\\usbfs\\cy_usbfs_dev_drv_reg.h"
   1:Generated_Source\PSoC6\pdl\drivers\peripheral\usbfs/cy_usbfs_dev_drv_reg.h **** /***************************************************************************//**
   2:Generated_Source\PSoC6\pdl\drivers\peripheral\usbfs/cy_usbfs_dev_drv_reg.h **** * \file cy_usbfs_dev_drv_reg.h
   3:Generated_Source\PSoC6\pdl\drivers\peripheral\usbfs/cy_usbfs_dev_drv_reg.h **** * \version 1.0
   4:Generated_Source\PSoC6\pdl\drivers\peripheral\usbfs/cy_usbfs_dev_drv_reg.h **** *
   5:Generated_Source\PSoC6\pdl\drivers\peripheral\usbfs/cy_usbfs_dev_drv_reg.h **** * Provides register access API implementation of the USBFS driver.
   6:Generated_Source\PSoC6\pdl\drivers\peripheral\usbfs/cy_usbfs_dev_drv_reg.h **** *
   7:Generated_Source\PSoC6\pdl\drivers\peripheral\usbfs/cy_usbfs_dev_drv_reg.h **** ********************************************************************************
   8:Generated_Source\PSoC6\pdl\drivers\peripheral\usbfs/cy_usbfs_dev_drv_reg.h **** * \copyright
   9:Generated_Source\PSoC6\pdl\drivers\peripheral\usbfs/cy_usbfs_dev_drv_reg.h **** * Copyright 2018, Cypress Semiconductor Corporation.  All rights reserved.
  10:Generated_Source\PSoC6\pdl\drivers\peripheral\usbfs/cy_usbfs_dev_drv_reg.h **** * You may use this file only in accordance with the license, terms, conditions,
  11:Generated_Source\PSoC6\pdl\drivers\peripheral\usbfs/cy_usbfs_dev_drv_reg.h **** * disclaimers, and limitations in the end user license agreement accompanying
  12:Generated_Source\PSoC6\pdl\drivers\peripheral\usbfs/cy_usbfs_dev_drv_reg.h **** * the software package with which this file was provided.
  13:Generated_Source\PSoC6\pdl\drivers\peripheral\usbfs/cy_usbfs_dev_drv_reg.h **** *******************************************************************************/
  14:Generated_Source\PSoC6\pdl\drivers\peripheral\usbfs/cy_usbfs_dev_drv_reg.h **** 
  15:Generated_Source\PSoC6\pdl\drivers\peripheral\usbfs/cy_usbfs_dev_drv_reg.h **** 
  16:Generated_Source\PSoC6\pdl\drivers\peripheral\usbfs/cy_usbfs_dev_drv_reg.h **** /** \cond INTERNAL */
  17:Generated_Source\PSoC6\pdl\drivers\peripheral\usbfs/cy_usbfs_dev_drv_reg.h **** 
  18:Generated_Source\PSoC6\pdl\drivers\peripheral\usbfs/cy_usbfs_dev_drv_reg.h **** /**
  19:Generated_Source\PSoC6\pdl\drivers\peripheral\usbfs/cy_usbfs_dev_drv_reg.h **** * \addtogroup group_usbfs_dev_drv_reg
ARM GAS  C:\Users\enes_\AppData\Local\Temp\ccUvgHSW.s 			page 18


  20:Generated_Source\PSoC6\pdl\drivers\peripheral\usbfs/cy_usbfs_dev_drv_reg.h **** * \{
  21:Generated_Source\PSoC6\pdl\drivers\peripheral\usbfs/cy_usbfs_dev_drv_reg.h **** *
  22:Generated_Source\PSoC6\pdl\drivers\peripheral\usbfs/cy_usbfs_dev_drv_reg.h **** * Register access API for the USBFS Device block.
  23:Generated_Source\PSoC6\pdl\drivers\peripheral\usbfs/cy_usbfs_dev_drv_reg.h **** *
  24:Generated_Source\PSoC6\pdl\drivers\peripheral\usbfs/cy_usbfs_dev_drv_reg.h **** * This is the API that provides an interface to the USBFS Device hardware.
  25:Generated_Source\PSoC6\pdl\drivers\peripheral\usbfs/cy_usbfs_dev_drv_reg.h **** * These API are intended to be used by the USBFS Device driver to access
  26:Generated_Source\PSoC6\pdl\drivers\peripheral\usbfs/cy_usbfs_dev_drv_reg.h **** * hardware. You can use these API to implement a custom driver based on
  27:Generated_Source\PSoC6\pdl\drivers\peripheral\usbfs/cy_usbfs_dev_drv_reg.h **** * the USBFS Device hardware.
  28:Generated_Source\PSoC6\pdl\drivers\peripheral\usbfs/cy_usbfs_dev_drv_reg.h **** *
  29:Generated_Source\PSoC6\pdl\drivers\peripheral\usbfs/cy_usbfs_dev_drv_reg.h **** * \defgroup group_usbfs_dev_drv_reg_macros Macros
  30:Generated_Source\PSoC6\pdl\drivers\peripheral\usbfs/cy_usbfs_dev_drv_reg.h **** * \{
  31:Generated_Source\PSoC6\pdl\drivers\peripheral\usbfs/cy_usbfs_dev_drv_reg.h **** *   \defgroup group_usbfs_dev_drv_reg_macros_hardware       Hardware-specific Constants
  32:Generated_Source\PSoC6\pdl\drivers\peripheral\usbfs/cy_usbfs_dev_drv_reg.h **** *   \defgroup group_usbfs_dev_drv_reg_macros_sie_intr       SIE Interrupt Sources
  33:Generated_Source\PSoC6\pdl\drivers\peripheral\usbfs/cy_usbfs_dev_drv_reg.h **** *   \defgroup group_usbfs_dev_drv_reg_macros_sie_mode       SIE Endpoint Modes
  34:Generated_Source\PSoC6\pdl\drivers\peripheral\usbfs/cy_usbfs_dev_drv_reg.h **** *   \defgroup group_usbfs_dev_drv_reg_macros_arb_ep_intr    Arbiter Endpoint Interrupt Sources
  35:Generated_Source\PSoC6\pdl\drivers\peripheral\usbfs/cy_usbfs_dev_drv_reg.h **** * \}
  36:Generated_Source\PSoC6\pdl\drivers\peripheral\usbfs/cy_usbfs_dev_drv_reg.h **** *
  37:Generated_Source\PSoC6\pdl\drivers\peripheral\usbfs/cy_usbfs_dev_drv_reg.h **** * \defgroup group_usbfs_drv_drv_reg_functions Functions
  38:Generated_Source\PSoC6\pdl\drivers\peripheral\usbfs/cy_usbfs_dev_drv_reg.h **** * \{
  39:Generated_Source\PSoC6\pdl\drivers\peripheral\usbfs/cy_usbfs_dev_drv_reg.h **** *   \defgroup group_usbfs_drv_drv_reg_interrupt_sources SIE Interrupt Sources Registers Access
  40:Generated_Source\PSoC6\pdl\drivers\peripheral\usbfs/cy_usbfs_dev_drv_reg.h **** *   \defgroup group_usbfs_drv_drv_reg_sie_access        SIE Data Endpoint Registers Access
  41:Generated_Source\PSoC6\pdl\drivers\peripheral\usbfs/cy_usbfs_dev_drv_reg.h **** *   \defgroup group_usbfs_drv_drv_reg_arbiter           Arbiter Endpoint Registers Access
  42:Generated_Source\PSoC6\pdl\drivers\peripheral\usbfs/cy_usbfs_dev_drv_reg.h **** *   \defgroup group_usbfs_drv_drv_reg_arbiter_data      Arbiter Endpoint Data Registers Access
  43:Generated_Source\PSoC6\pdl\drivers\peripheral\usbfs/cy_usbfs_dev_drv_reg.h **** *   \defgroup group_usbfs_drv_drv_reg_misc              Miscellaneous Functions       
  44:Generated_Source\PSoC6\pdl\drivers\peripheral\usbfs/cy_usbfs_dev_drv_reg.h **** * \}
  45:Generated_Source\PSoC6\pdl\drivers\peripheral\usbfs/cy_usbfs_dev_drv_reg.h **** *
  46:Generated_Source\PSoC6\pdl\drivers\peripheral\usbfs/cy_usbfs_dev_drv_reg.h **** * \}
  47:Generated_Source\PSoC6\pdl\drivers\peripheral\usbfs/cy_usbfs_dev_drv_reg.h **** */
  48:Generated_Source\PSoC6\pdl\drivers\peripheral\usbfs/cy_usbfs_dev_drv_reg.h **** 
  49:Generated_Source\PSoC6\pdl\drivers\peripheral\usbfs/cy_usbfs_dev_drv_reg.h **** 
  50:Generated_Source\PSoC6\pdl\drivers\peripheral\usbfs/cy_usbfs_dev_drv_reg.h **** #if !defined(CY_USBFS_DEV_DRV_REG_H)
  51:Generated_Source\PSoC6\pdl\drivers\peripheral\usbfs/cy_usbfs_dev_drv_reg.h **** #define CY_USBFS_DEV_DRV_REG_H
  52:Generated_Source\PSoC6\pdl\drivers\peripheral\usbfs/cy_usbfs_dev_drv_reg.h **** 
  53:Generated_Source\PSoC6\pdl\drivers\peripheral\usbfs/cy_usbfs_dev_drv_reg.h **** #include <stdint.h>
  54:Generated_Source\PSoC6\pdl\drivers\peripheral\usbfs/cy_usbfs_dev_drv_reg.h **** #include <stddef.h>
  55:Generated_Source\PSoC6\pdl\drivers\peripheral\usbfs/cy_usbfs_dev_drv_reg.h **** #include <stdbool.h>
  56:Generated_Source\PSoC6\pdl\drivers\peripheral\usbfs/cy_usbfs_dev_drv_reg.h **** 
  57:Generated_Source\PSoC6\pdl\drivers\peripheral\usbfs/cy_usbfs_dev_drv_reg.h **** #include "cy_device.h"
  58:Generated_Source\PSoC6\pdl\drivers\peripheral\usbfs/cy_usbfs_dev_drv_reg.h **** #include "cy_device_headers.h"
  59:Generated_Source\PSoC6\pdl\drivers\peripheral\usbfs/cy_usbfs_dev_drv_reg.h **** #include "cy_syslib.h"
  60:Generated_Source\PSoC6\pdl\drivers\peripheral\usbfs/cy_usbfs_dev_drv_reg.h **** 
  61:Generated_Source\PSoC6\pdl\drivers\peripheral\usbfs/cy_usbfs_dev_drv_reg.h **** #ifdef CY_IP_MXUSBFS
  62:Generated_Source\PSoC6\pdl\drivers\peripheral\usbfs/cy_usbfs_dev_drv_reg.h **** 
  63:Generated_Source\PSoC6\pdl\drivers\peripheral\usbfs/cy_usbfs_dev_drv_reg.h **** #if defined(__cplusplus)
  64:Generated_Source\PSoC6\pdl\drivers\peripheral\usbfs/cy_usbfs_dev_drv_reg.h **** extern "C" {
  65:Generated_Source\PSoC6\pdl\drivers\peripheral\usbfs/cy_usbfs_dev_drv_reg.h **** #endif
  66:Generated_Source\PSoC6\pdl\drivers\peripheral\usbfs/cy_usbfs_dev_drv_reg.h **** 
  67:Generated_Source\PSoC6\pdl\drivers\peripheral\usbfs/cy_usbfs_dev_drv_reg.h **** /*******************************************************************************
  68:Generated_Source\PSoC6\pdl\drivers\peripheral\usbfs/cy_usbfs_dev_drv_reg.h **** *                       Hardware-specific Constants
  69:Generated_Source\PSoC6\pdl\drivers\peripheral\usbfs/cy_usbfs_dev_drv_reg.h **** *******************************************************************************/
  70:Generated_Source\PSoC6\pdl\drivers\peripheral\usbfs/cy_usbfs_dev_drv_reg.h **** 
  71:Generated_Source\PSoC6\pdl\drivers\peripheral\usbfs/cy_usbfs_dev_drv_reg.h **** /**
  72:Generated_Source\PSoC6\pdl\drivers\peripheral\usbfs/cy_usbfs_dev_drv_reg.h **** * \addtogroup group_usbfs_dev_drv_reg_macros_hardware
  73:Generated_Source\PSoC6\pdl\drivers\peripheral\usbfs/cy_usbfs_dev_drv_reg.h **** * \{
  74:Generated_Source\PSoC6\pdl\drivers\peripheral\usbfs/cy_usbfs_dev_drv_reg.h **** */
  75:Generated_Source\PSoC6\pdl\drivers\peripheral\usbfs/cy_usbfs_dev_drv_reg.h **** /** Number of data endpoints supported by the hardware */
  76:Generated_Source\PSoC6\pdl\drivers\peripheral\usbfs/cy_usbfs_dev_drv_reg.h **** #define CY_USBFS_DEV_DRV_NUM_EPS_MAX        (8U)
ARM GAS  C:\Users\enes_\AppData\Local\Temp\ccUvgHSW.s 			page 19


  77:Generated_Source\PSoC6\pdl\drivers\peripheral\usbfs/cy_usbfs_dev_drv_reg.h **** 
  78:Generated_Source\PSoC6\pdl\drivers\peripheral\usbfs/cy_usbfs_dev_drv_reg.h **** /** The hardware buffer size used for data endpoint buffers */
  79:Generated_Source\PSoC6\pdl\drivers\peripheral\usbfs/cy_usbfs_dev_drv_reg.h **** #define CY_USBFS_DEV_DRV_HW_BUFFER_SIZE     (512U)
  80:Generated_Source\PSoC6\pdl\drivers\peripheral\usbfs/cy_usbfs_dev_drv_reg.h **** 
  81:Generated_Source\PSoC6\pdl\drivers\peripheral\usbfs/cy_usbfs_dev_drv_reg.h **** /** The hardware buffer for endpoint 0 */
  82:Generated_Source\PSoC6\pdl\drivers\peripheral\usbfs/cy_usbfs_dev_drv_reg.h **** #define CY_USBFS_DEV_DRV_EP0_BUFFER_SIZE    (8U)
  83:Generated_Source\PSoC6\pdl\drivers\peripheral\usbfs/cy_usbfs_dev_drv_reg.h **** /** \} group_usbfs_dev_drv_reg_macros_hardware */
  84:Generated_Source\PSoC6\pdl\drivers\peripheral\usbfs/cy_usbfs_dev_drv_reg.h **** 
  85:Generated_Source\PSoC6\pdl\drivers\peripheral\usbfs/cy_usbfs_dev_drv_reg.h **** 
  86:Generated_Source\PSoC6\pdl\drivers\peripheral\usbfs/cy_usbfs_dev_drv_reg.h **** /*******************************************************************************
  87:Generated_Source\PSoC6\pdl\drivers\peripheral\usbfs/cy_usbfs_dev_drv_reg.h **** *                          Functions
  88:Generated_Source\PSoC6\pdl\drivers\peripheral\usbfs/cy_usbfs_dev_drv_reg.h **** *******************************************************************************/
  89:Generated_Source\PSoC6\pdl\drivers\peripheral\usbfs/cy_usbfs_dev_drv_reg.h **** 
  90:Generated_Source\PSoC6\pdl\drivers\peripheral\usbfs/cy_usbfs_dev_drv_reg.h **** /**
  91:Generated_Source\PSoC6\pdl\drivers\peripheral\usbfs/cy_usbfs_dev_drv_reg.h **** * \addtogroup group_usbfs_drv_drv_reg_interrupt_sources
  92:Generated_Source\PSoC6\pdl\drivers\peripheral\usbfs/cy_usbfs_dev_drv_reg.h **** * \{
  93:Generated_Source\PSoC6\pdl\drivers\peripheral\usbfs/cy_usbfs_dev_drv_reg.h **** */
  94:Generated_Source\PSoC6\pdl\drivers\peripheral\usbfs/cy_usbfs_dev_drv_reg.h **** /* Access to LPM SIE interrupt sources */
  95:Generated_Source\PSoC6\pdl\drivers\peripheral\usbfs/cy_usbfs_dev_drv_reg.h **** __STATIC_INLINE uint32_t Cy_USBFS_Dev_Drv_GetSieInterruptStatus(USBFS_Type const *base);
  96:Generated_Source\PSoC6\pdl\drivers\peripheral\usbfs/cy_usbfs_dev_drv_reg.h **** __STATIC_INLINE     void Cy_USBFS_Dev_Drv_SetSieInterruptMask  (USBFS_Type *base, uint32_t mask);
  97:Generated_Source\PSoC6\pdl\drivers\peripheral\usbfs/cy_usbfs_dev_drv_reg.h **** __STATIC_INLINE uint32_t Cy_USBFS_Dev_Drv_GetSieInterruptMask  (USBFS_Type const *base);
  98:Generated_Source\PSoC6\pdl\drivers\peripheral\usbfs/cy_usbfs_dev_drv_reg.h **** __STATIC_INLINE uint32_t Cy_USBFS_Dev_Drv_GetSieInterruptStatusMasked(USBFS_Type const *base);
  99:Generated_Source\PSoC6\pdl\drivers\peripheral\usbfs/cy_usbfs_dev_drv_reg.h **** __STATIC_INLINE     void Cy_USBFS_Dev_Drv_ClearSieInterrupt    (USBFS_Type *base, uint32_t mask);
 100:Generated_Source\PSoC6\pdl\drivers\peripheral\usbfs/cy_usbfs_dev_drv_reg.h **** __STATIC_INLINE     void Cy_USBFS_Dev_Drv_SetSieInterrupt      (USBFS_Type *base, uint32_t mask);
 101:Generated_Source\PSoC6\pdl\drivers\peripheral\usbfs/cy_usbfs_dev_drv_reg.h **** /** \} group_usbfs_drv_drv_reg_interrupt_sources */
 102:Generated_Source\PSoC6\pdl\drivers\peripheral\usbfs/cy_usbfs_dev_drv_reg.h **** 
 103:Generated_Source\PSoC6\pdl\drivers\peripheral\usbfs/cy_usbfs_dev_drv_reg.h **** /**
 104:Generated_Source\PSoC6\pdl\drivers\peripheral\usbfs/cy_usbfs_dev_drv_reg.h **** * \addtogroup group_usbfs_drv_drv_reg_sie_access
 105:Generated_Source\PSoC6\pdl\drivers\peripheral\usbfs/cy_usbfs_dev_drv_reg.h **** * \{
 106:Generated_Source\PSoC6\pdl\drivers\peripheral\usbfs/cy_usbfs_dev_drv_reg.h **** */
 107:Generated_Source\PSoC6\pdl\drivers\peripheral\usbfs/cy_usbfs_dev_drv_reg.h **** /* Access SIE data endpoints CR0.Mode registers */
 108:Generated_Source\PSoC6\pdl\drivers\peripheral\usbfs/cy_usbfs_dev_drv_reg.h **** __STATIC_INLINE void     Cy_USBFS_Dev_Drv_SetSieEpMode   (USBFS_Type *base, uint32_t endpoint, uint
 109:Generated_Source\PSoC6\pdl\drivers\peripheral\usbfs/cy_usbfs_dev_drv_reg.h **** __STATIC_INLINE uint32_t Cy_USBFS_Dev_Drv_GetSieEpMode   (USBFS_Type const *base, uint32_t endpoint
 110:Generated_Source\PSoC6\pdl\drivers\peripheral\usbfs/cy_usbfs_dev_drv_reg.h **** __STATIC_INLINE void     Cy_USBFS_Dev_Drv_SetSieEpStall  (USBFS_Type *base, bool inDirection, uint3
 111:Generated_Source\PSoC6\pdl\drivers\peripheral\usbfs/cy_usbfs_dev_drv_reg.h **** __STATIC_INLINE void     Cy_USBFS_Dev_Drv_ClearSieEpStall(USBFS_Type *base, uint32_t endpoint, uint
 112:Generated_Source\PSoC6\pdl\drivers\peripheral\usbfs/cy_usbfs_dev_drv_reg.h **** __STATIC_INLINE uint32_t Cy_USBFS_Dev_Drv_GetSieEpError  (USBFS_Type const *base, uint32_t endpoint
 113:Generated_Source\PSoC6\pdl\drivers\peripheral\usbfs/cy_usbfs_dev_drv_reg.h **** 
 114:Generated_Source\PSoC6\pdl\drivers\peripheral\usbfs/cy_usbfs_dev_drv_reg.h **** /* Access SIE data endpoints CNT0 and CNT1 registers */
 115:Generated_Source\PSoC6\pdl\drivers\peripheral\usbfs/cy_usbfs_dev_drv_reg.h **** __STATIC_INLINE uint32_t Cy_USBFS_Dev_Drv_GetSieEpToggle  (USBFS_Type const *base, uint32_t endpoin
 116:Generated_Source\PSoC6\pdl\drivers\peripheral\usbfs/cy_usbfs_dev_drv_reg.h **** __STATIC_INLINE void     Cy_USBFS_Dev_Drv_ClearSieEpToggle(USBFS_Type *base, uint32_t endpoint);
 117:Generated_Source\PSoC6\pdl\drivers\peripheral\usbfs/cy_usbfs_dev_drv_reg.h **** __STATIC_INLINE uint32_t Cy_USBFS_Dev_Drv_GetSieEpCount(USBFS_Type const *base, uint32_t endpoint);
 118:Generated_Source\PSoC6\pdl\drivers\peripheral\usbfs/cy_usbfs_dev_drv_reg.h **** __STATIC_INLINE void     Cy_USBFS_Dev_Drv_SetSieEpCount(USBFS_Type *base, uint32_t endpoint, uint32
 119:Generated_Source\PSoC6\pdl\drivers\peripheral\usbfs/cy_usbfs_dev_drv_reg.h **** 
 120:Generated_Source\PSoC6\pdl\drivers\peripheral\usbfs/cy_usbfs_dev_drv_reg.h **** /* Access SIE data endpoints interrupt source registers */
 121:Generated_Source\PSoC6\pdl\drivers\peripheral\usbfs/cy_usbfs_dev_drv_reg.h **** __STATIC_INLINE uint32_t Cy_USBFS_Dev_Drv_GetSieAllEpsInterruptStatus(USBFS_Type const *base);
 122:Generated_Source\PSoC6\pdl\drivers\peripheral\usbfs/cy_usbfs_dev_drv_reg.h **** __STATIC_INLINE void     Cy_USBFS_Dev_Drv_EnableSieEpInterrupt (USBFS_Type *base, uint32_t endpoint
 123:Generated_Source\PSoC6\pdl\drivers\peripheral\usbfs/cy_usbfs_dev_drv_reg.h **** __STATIC_INLINE void     Cy_USBFS_Dev_Drv_DisableSieEpInterrupt(USBFS_Type *base, uint32_t endpoint
 124:Generated_Source\PSoC6\pdl\drivers\peripheral\usbfs/cy_usbfs_dev_drv_reg.h **** __STATIC_INLINE void     Cy_USBFS_Dev_Drv_ClearSieEpInterrupt  (USBFS_Type *base, uint32_t endpoint
 125:Generated_Source\PSoC6\pdl\drivers\peripheral\usbfs/cy_usbfs_dev_drv_reg.h **** /** \} group_usbfs_drv_drv_reg_sie_access */
 126:Generated_Source\PSoC6\pdl\drivers\peripheral\usbfs/cy_usbfs_dev_drv_reg.h **** 
 127:Generated_Source\PSoC6\pdl\drivers\peripheral\usbfs/cy_usbfs_dev_drv_reg.h **** /**
 128:Generated_Source\PSoC6\pdl\drivers\peripheral\usbfs/cy_usbfs_dev_drv_reg.h **** * \addtogroup group_usbfs_drv_drv_reg_arbiter
 129:Generated_Source\PSoC6\pdl\drivers\peripheral\usbfs/cy_usbfs_dev_drv_reg.h **** * \{
 130:Generated_Source\PSoC6\pdl\drivers\peripheral\usbfs/cy_usbfs_dev_drv_reg.h **** */
 131:Generated_Source\PSoC6\pdl\drivers\peripheral\usbfs/cy_usbfs_dev_drv_reg.h **** /* Access Arbiter data endpoints interrupt sources registers */
 132:Generated_Source\PSoC6\pdl\drivers\peripheral\usbfs/cy_usbfs_dev_drv_reg.h **** __STATIC_INLINE uint32_t Cy_USBFS_Dev_Drv_GetArbAllEpsInterruptStatus(USBFS_Type const *base);
 133:Generated_Source\PSoC6\pdl\drivers\peripheral\usbfs/cy_usbfs_dev_drv_reg.h **** __STATIC_INLINE void     Cy_USBFS_Dev_Drv_EnableArbEpInterrupt (USBFS_Type *base, uint32_t endpoint
ARM GAS  C:\Users\enes_\AppData\Local\Temp\ccUvgHSW.s 			page 20


 134:Generated_Source\PSoC6\pdl\drivers\peripheral\usbfs/cy_usbfs_dev_drv_reg.h **** __STATIC_INLINE void     Cy_USBFS_Dev_Drv_DisableArbEpInterrupt(USBFS_Type *base, uint32_t endpoint
 135:Generated_Source\PSoC6\pdl\drivers\peripheral\usbfs/cy_usbfs_dev_drv_reg.h **** __STATIC_INLINE void     Cy_USBFS_Dev_Drv_SetArbEpInterruptMask(USBFS_Type *base, uint32_t endpoint
 136:Generated_Source\PSoC6\pdl\drivers\peripheral\usbfs/cy_usbfs_dev_drv_reg.h **** __STATIC_INLINE uint32_t Cy_USBFS_Dev_Drv_GetArbEpInterruptMask(USBFS_Type const *base, uint32_t en
 137:Generated_Source\PSoC6\pdl\drivers\peripheral\usbfs/cy_usbfs_dev_drv_reg.h **** __STATIC_INLINE uint32_t Cy_USBFS_Dev_Drv_GetArbEpInterruptStatusMasked(USBFS_Type const *base, uin
 138:Generated_Source\PSoC6\pdl\drivers\peripheral\usbfs/cy_usbfs_dev_drv_reg.h **** __STATIC_INLINE void     Cy_USBFS_Dev_Drv_ClearArbEpInterrupt(USBFS_Type *base, uint32_t endpoint, 
 139:Generated_Source\PSoC6\pdl\drivers\peripheral\usbfs/cy_usbfs_dev_drv_reg.h **** 
 140:Generated_Source\PSoC6\pdl\drivers\peripheral\usbfs/cy_usbfs_dev_drv_reg.h **** /* Access Arbiter data endpoints configuration register */
 141:Generated_Source\PSoC6\pdl\drivers\peripheral\usbfs/cy_usbfs_dev_drv_reg.h **** __STATIC_INLINE void Cy_USBFS_Dev_Drv_SetArbEpConfig       (USBFS_Type *base, uint32_t endpoint, ui
 142:Generated_Source\PSoC6\pdl\drivers\peripheral\usbfs/cy_usbfs_dev_drv_reg.h **** __STATIC_INLINE void Cy_USBFS_Dev_Drv_SetArbCfgEpInReady   (USBFS_Type *base, uint32_t endpoint);
 143:Generated_Source\PSoC6\pdl\drivers\peripheral\usbfs/cy_usbfs_dev_drv_reg.h **** __STATIC_INLINE void Cy_USBFS_Dev_Drv_ClearArbCfgEpInReady (USBFS_Type *base, uint32_t endpoint);
 144:Generated_Source\PSoC6\pdl\drivers\peripheral\usbfs/cy_usbfs_dev_drv_reg.h **** __STATIC_INLINE void Cy_USBFS_Dev_Drv_TriggerArbCfgEpDmaReq(USBFS_Type *base, uint32_t endpoint);
 145:Generated_Source\PSoC6\pdl\drivers\peripheral\usbfs/cy_usbfs_dev_drv_reg.h **** 
 146:Generated_Source\PSoC6\pdl\drivers\peripheral\usbfs/cy_usbfs_dev_drv_reg.h **** /* Access Arbiter data endpoints WA (Write Address and RA(Read Address) registers */
 147:Generated_Source\PSoC6\pdl\drivers\peripheral\usbfs/cy_usbfs_dev_drv_reg.h **** __STATIC_INLINE void     Cy_USBFS_Dev_Drv_SetArbWriteAddr (USBFS_Type *base, uint32_t endpoint, uin
 148:Generated_Source\PSoC6\pdl\drivers\peripheral\usbfs/cy_usbfs_dev_drv_reg.h **** __STATIC_INLINE void     Cy_USBFS_Dev_Drv_SetArbReadAddr  (USBFS_Type *base, uint32_t endpoint, uin
 149:Generated_Source\PSoC6\pdl\drivers\peripheral\usbfs/cy_usbfs_dev_drv_reg.h **** __STATIC_INLINE uint32_t Cy_USBFS_Dev_Drv_GetArbWriteAddr (USBFS_Type const *base, uint32_t endpoin
 150:Generated_Source\PSoC6\pdl\drivers\peripheral\usbfs/cy_usbfs_dev_drv_reg.h **** __STATIC_INLINE uint32_t Cy_USBFS_Dev_Drv_GetArbReadAddr  (USBFS_Type const *base, uint32_t endpoin
 151:Generated_Source\PSoC6\pdl\drivers\peripheral\usbfs/cy_usbfs_dev_drv_reg.h **** /** \} group_usbfs_drv_drv_reg_arbiter */
 152:Generated_Source\PSoC6\pdl\drivers\peripheral\usbfs/cy_usbfs_dev_drv_reg.h **** 
 153:Generated_Source\PSoC6\pdl\drivers\peripheral\usbfs/cy_usbfs_dev_drv_reg.h **** /**
 154:Generated_Source\PSoC6\pdl\drivers\peripheral\usbfs/cy_usbfs_dev_drv_reg.h **** * \addtogroup group_usbfs_drv_drv_reg_arbiter_data 
 155:Generated_Source\PSoC6\pdl\drivers\peripheral\usbfs/cy_usbfs_dev_drv_reg.h **** * \{
 156:Generated_Source\PSoC6\pdl\drivers\peripheral\usbfs/cy_usbfs_dev_drv_reg.h **** */
 157:Generated_Source\PSoC6\pdl\drivers\peripheral\usbfs/cy_usbfs_dev_drv_reg.h **** /* Access data endpoints data registers. Used to get/put data into endpoint buffer. */
 158:Generated_Source\PSoC6\pdl\drivers\peripheral\usbfs/cy_usbfs_dev_drv_reg.h **** __STATIC_INLINE void     Cy_USBFS_Dev_Drv_WriteData  (USBFS_Type *base, uint32_t endpoint, uint8_t 
 159:Generated_Source\PSoC6\pdl\drivers\peripheral\usbfs/cy_usbfs_dev_drv_reg.h **** __STATIC_INLINE void     Cy_USBFS_Dev_Drv_WriteData16(USBFS_Type *base, uint32_t endpoint, uint16_t
 160:Generated_Source\PSoC6\pdl\drivers\peripheral\usbfs/cy_usbfs_dev_drv_reg.h **** __STATIC_INLINE uint8_t  Cy_USBFS_Dev_Drv_ReadData   (USBFS_Type const *base, uint32_t endpoint);
 161:Generated_Source\PSoC6\pdl\drivers\peripheral\usbfs/cy_usbfs_dev_drv_reg.h **** __STATIC_INLINE uint16_t Cy_USBFS_Dev_Drv_ReadData16 (USBFS_Type const *base, uint32_t endpoint);
 162:Generated_Source\PSoC6\pdl\drivers\peripheral\usbfs/cy_usbfs_dev_drv_reg.h **** __STATIC_INLINE volatile uint32_t * Cy_USBFS_Dev_Drv_GetDataRegAddr  (USBFS_Type *base, uint32_t en
 163:Generated_Source\PSoC6\pdl\drivers\peripheral\usbfs/cy_usbfs_dev_drv_reg.h **** __STATIC_INLINE volatile uint32_t * Cy_USBFS_Dev_Drv_GetDataReg16Addr(USBFS_Type *base, uint32_t en
 164:Generated_Source\PSoC6\pdl\drivers\peripheral\usbfs/cy_usbfs_dev_drv_reg.h **** __STATIC_INLINE void     Cy_USBFS_Dev_Drv_FlushInBuffer (USBFS_Type *base, uint32_t endpoint);
 165:Generated_Source\PSoC6\pdl\drivers\peripheral\usbfs/cy_usbfs_dev_drv_reg.h **** /** \} group_usbfs_drv_drv_reg_arbiter_data */
 166:Generated_Source\PSoC6\pdl\drivers\peripheral\usbfs/cy_usbfs_dev_drv_reg.h **** 
 167:Generated_Source\PSoC6\pdl\drivers\peripheral\usbfs/cy_usbfs_dev_drv_reg.h **** /**
 168:Generated_Source\PSoC6\pdl\drivers\peripheral\usbfs/cy_usbfs_dev_drv_reg.h **** * \addtogroup group_usbfs_drv_drv_reg_misc
 169:Generated_Source\PSoC6\pdl\drivers\peripheral\usbfs/cy_usbfs_dev_drv_reg.h **** * \{
 170:Generated_Source\PSoC6\pdl\drivers\peripheral\usbfs/cy_usbfs_dev_drv_reg.h **** */
 171:Generated_Source\PSoC6\pdl\drivers\peripheral\usbfs/cy_usbfs_dev_drv_reg.h **** __STATIC_INLINE uint32_t Cy_USBFS_Dev_Drv_GetEp0Count(USBFS_Type const *base);
 172:Generated_Source\PSoC6\pdl\drivers\peripheral\usbfs/cy_usbfs_dev_drv_reg.h **** __STATIC_INLINE void     Cy_USBFS_Dev_Drv_SetEpType  (USBFS_Type *base, bool inDirection, uint32_t 
 173:Generated_Source\PSoC6\pdl\drivers\peripheral\usbfs/cy_usbfs_dev_drv_reg.h **** /** \} group_usbfs_drv_drv_reg_misc */
 174:Generated_Source\PSoC6\pdl\drivers\peripheral\usbfs/cy_usbfs_dev_drv_reg.h **** 
 175:Generated_Source\PSoC6\pdl\drivers\peripheral\usbfs/cy_usbfs_dev_drv_reg.h **** 
 176:Generated_Source\PSoC6\pdl\drivers\peripheral\usbfs/cy_usbfs_dev_drv_reg.h **** /*******************************************************************************
 177:Generated_Source\PSoC6\pdl\drivers\peripheral\usbfs/cy_usbfs_dev_drv_reg.h **** *                       API Constants
 178:Generated_Source\PSoC6\pdl\drivers\peripheral\usbfs/cy_usbfs_dev_drv_reg.h **** *******************************************************************************/
 179:Generated_Source\PSoC6\pdl\drivers\peripheral\usbfs/cy_usbfs_dev_drv_reg.h **** 
 180:Generated_Source\PSoC6\pdl\drivers\peripheral\usbfs/cy_usbfs_dev_drv_reg.h **** /** /cond INTERNAL */
 181:Generated_Source\PSoC6\pdl\drivers\peripheral\usbfs/cy_usbfs_dev_drv_reg.h **** /* Macro to access ODD offset registers: Cypress ID# 299773 */
 182:Generated_Source\PSoC6\pdl\drivers\peripheral\usbfs/cy_usbfs_dev_drv_reg.h **** #define CY_USBFS_DEV_DRV_WRITE_ODD(val)  ( (val) | ((uint32_t) (val) << 8U) )
 183:Generated_Source\PSoC6\pdl\drivers\peripheral\usbfs/cy_usbfs_dev_drv_reg.h **** #define CY_USBFS_DEV_READ_ODD(reg)       ( (uint32_t) (CY_LO8((reg) | ((reg) >> 8U))) )
 184:Generated_Source\PSoC6\pdl\drivers\peripheral\usbfs/cy_usbfs_dev_drv_reg.h **** /** /endcond */
 185:Generated_Source\PSoC6\pdl\drivers\peripheral\usbfs/cy_usbfs_dev_drv_reg.h **** 
 186:Generated_Source\PSoC6\pdl\drivers\peripheral\usbfs/cy_usbfs_dev_drv_reg.h **** /**
 187:Generated_Source\PSoC6\pdl\drivers\peripheral\usbfs/cy_usbfs_dev_drv_reg.h **** * \addtogroup group_usbfs_dev_drv_reg_macros_sie_intr
 188:Generated_Source\PSoC6\pdl\drivers\peripheral\usbfs/cy_usbfs_dev_drv_reg.h **** * \{
 189:Generated_Source\PSoC6\pdl\drivers\peripheral\usbfs/cy_usbfs_dev_drv_reg.h **** */
 190:Generated_Source\PSoC6\pdl\drivers\peripheral\usbfs/cy_usbfs_dev_drv_reg.h **** #define CY_USBFS_DEV_DRV_INTR_SIE_SOF       USBFS_USBLPM_INTR_SIE_SOF_INTR_Msk        /**< SOF fram
ARM GAS  C:\Users\enes_\AppData\Local\Temp\ccUvgHSW.s 			page 21


 191:Generated_Source\PSoC6\pdl\drivers\peripheral\usbfs/cy_usbfs_dev_drv_reg.h **** #define CY_USBFS_DEV_DRV_INTR_SIE_BUS_RESET USBFS_USBLPM_INTR_SIE_BUS_RESET_INTR_Msk  /**< Bus Rese
 192:Generated_Source\PSoC6\pdl\drivers\peripheral\usbfs/cy_usbfs_dev_drv_reg.h **** #define CY_USBFS_DEV_DRV_INTR_SIE_EP0       USBFS_USBLPM_INTR_SIE_EP0_INTR_Msk        /**< EP0 acce
 193:Generated_Source\PSoC6\pdl\drivers\peripheral\usbfs/cy_usbfs_dev_drv_reg.h **** #define CY_USBFS_DEV_DRV_INTR_SIE_LPM       USBFS_USBLPM_INTR_SIE_LPM_INTR_Msk        /**< Link Pow
 194:Generated_Source\PSoC6\pdl\drivers\peripheral\usbfs/cy_usbfs_dev_drv_reg.h **** #define CY_USBFS_DEV_DRV_INTR_SIE_RESUME    USBFS_USBLPM_INTR_SIE_RESUME_INTR_Msk     /**< Resume c
 195:Generated_Source\PSoC6\pdl\drivers\peripheral\usbfs/cy_usbfs_dev_drv_reg.h **** /** \} group_usbfs_dev_drv_reg_macros_sie_intr */
 196:Generated_Source\PSoC6\pdl\drivers\peripheral\usbfs/cy_usbfs_dev_drv_reg.h **** 
 197:Generated_Source\PSoC6\pdl\drivers\peripheral\usbfs/cy_usbfs_dev_drv_reg.h **** /**
 198:Generated_Source\PSoC6\pdl\drivers\peripheral\usbfs/cy_usbfs_dev_drv_reg.h **** * \addtogroup group_usbfs_dev_drv_reg_macros_sie_mode
 199:Generated_Source\PSoC6\pdl\drivers\peripheral\usbfs/cy_usbfs_dev_drv_reg.h **** * \{
 200:Generated_Source\PSoC6\pdl\drivers\peripheral\usbfs/cy_usbfs_dev_drv_reg.h **** */
 201:Generated_Source\PSoC6\pdl\drivers\peripheral\usbfs/cy_usbfs_dev_drv_reg.h **** /* Modes for endpoint 0 (control endpoint) */
 202:Generated_Source\PSoC6\pdl\drivers\peripheral\usbfs/cy_usbfs_dev_drv_reg.h **** #define CY_USBFS_DEV_DRV_EP_CR_DISABLE           (0U)  /**< Data endpoint disabled */
 203:Generated_Source\PSoC6\pdl\drivers\peripheral\usbfs/cy_usbfs_dev_drv_reg.h **** #define CY_USBFS_DEV_DRV_EP_CR_NAK_INOUT         (1U)  /**< Data endpoint NAK IN and OUT requests *
 204:Generated_Source\PSoC6\pdl\drivers\peripheral\usbfs/cy_usbfs_dev_drv_reg.h **** #define CY_USBFS_DEV_DRV_EP_CR_STALL_INOUT       (3U)  /**< Data endpoint STALL IN and OUT requests
 205:Generated_Source\PSoC6\pdl\drivers\peripheral\usbfs/cy_usbfs_dev_drv_reg.h **** #define CY_USBFS_DEV_DRV_EP_CR_STATUS_OUT_ONLY   (2U)  /**< Data endpoint ACK only Status OUT reque
 206:Generated_Source\PSoC6\pdl\drivers\peripheral\usbfs/cy_usbfs_dev_drv_reg.h **** #define CY_USBFS_DEV_DRV_EP_CR_STATUS_IN_ONLY    (6U)  /**< Data endpoint ACK only Status IN reques
 207:Generated_Source\PSoC6\pdl\drivers\peripheral\usbfs/cy_usbfs_dev_drv_reg.h **** #define CY_USBFS_DEV_DRV_EP_CR_ACK_OUT_STATUS_IN (11U) /**< Data endpoint ACK only Data and Status 
 208:Generated_Source\PSoC6\pdl\drivers\peripheral\usbfs/cy_usbfs_dev_drv_reg.h **** #define CY_USBFS_DEV_DRV_EP_CR_ACK_IN_STATUS_OUT (15U) /**< Data endpoint ACK only Data and Status 
 209:Generated_Source\PSoC6\pdl\drivers\peripheral\usbfs/cy_usbfs_dev_drv_reg.h **** 
 210:Generated_Source\PSoC6\pdl\drivers\peripheral\usbfs/cy_usbfs_dev_drv_reg.h **** /* Modes for ISO data endpoints */
 211:Generated_Source\PSoC6\pdl\drivers\peripheral\usbfs/cy_usbfs_dev_drv_reg.h **** #define CY_USBFS_DEV_DRV_EP_CR_ISO_OUT          (5U)   /**< Data endpoint is ISO OUT */
 212:Generated_Source\PSoC6\pdl\drivers\peripheral\usbfs/cy_usbfs_dev_drv_reg.h **** #define CY_USBFS_DEV_DRV_EP_CR_ISO_IN           (7U)   /**< Data endpoint is ISO IN */
 213:Generated_Source\PSoC6\pdl\drivers\peripheral\usbfs/cy_usbfs_dev_drv_reg.h **** 
 214:Generated_Source\PSoC6\pdl\drivers\peripheral\usbfs/cy_usbfs_dev_drv_reg.h **** /* Modes for Control/Bulk/Interrupt OUT data endpoints */
 215:Generated_Source\PSoC6\pdl\drivers\peripheral\usbfs/cy_usbfs_dev_drv_reg.h **** #define CY_USBFS_DEV_DRV_EP_CR_NAK_OUT          (8U)   /**< Data endpoint NAK OUT requests */
 216:Generated_Source\PSoC6\pdl\drivers\peripheral\usbfs/cy_usbfs_dev_drv_reg.h **** #define CY_USBFS_DEV_DRV_EP_CR_ACK_OUT          (9U)   /**< Data endpoint ACK OUT requests */
 217:Generated_Source\PSoC6\pdl\drivers\peripheral\usbfs/cy_usbfs_dev_drv_reg.h **** 
 218:Generated_Source\PSoC6\pdl\drivers\peripheral\usbfs/cy_usbfs_dev_drv_reg.h **** /* Modes for Control/Bulk/Interrupt IN data endpoints */
 219:Generated_Source\PSoC6\pdl\drivers\peripheral\usbfs/cy_usbfs_dev_drv_reg.h **** #define CY_USBFS_DEV_DRV_EP_CR_NAK_IN           (12U)   /**< Data endpoint NAK IN requests */
 220:Generated_Source\PSoC6\pdl\drivers\peripheral\usbfs/cy_usbfs_dev_drv_reg.h **** #define CY_USBFS_DEV_DRV_EP_CR_ACK_IN           (13U)   /**< Data endpoint ACK IN requests */
 221:Generated_Source\PSoC6\pdl\drivers\peripheral\usbfs/cy_usbfs_dev_drv_reg.h **** /** \} group_usbfs_dev_drv_reg_macros_sie_mode */
 222:Generated_Source\PSoC6\pdl\drivers\peripheral\usbfs/cy_usbfs_dev_drv_reg.h **** 
 223:Generated_Source\PSoC6\pdl\drivers\peripheral\usbfs/cy_usbfs_dev_drv_reg.h **** /**
 224:Generated_Source\PSoC6\pdl\drivers\peripheral\usbfs/cy_usbfs_dev_drv_reg.h **** * \addtogroup group_usbfs_dev_drv_reg_macros_arb_ep_intr ARB_EP_SR/INT_EN 1-8 registers
 225:Generated_Source\PSoC6\pdl\drivers\peripheral\usbfs/cy_usbfs_dev_drv_reg.h **** * \{
 226:Generated_Source\PSoC6\pdl\drivers\peripheral\usbfs/cy_usbfs_dev_drv_reg.h **** */
 227:Generated_Source\PSoC6\pdl\drivers\peripheral\usbfs/cy_usbfs_dev_drv_reg.h **** 
 228:Generated_Source\PSoC6\pdl\drivers\peripheral\usbfs/cy_usbfs_dev_drv_reg.h **** /** Data endpoint IN buffer full interrupt source */
 229:Generated_Source\PSoC6\pdl\drivers\peripheral\usbfs/cy_usbfs_dev_drv_reg.h **** #define USBFS_USBDEV_ARB_EP_IN_BUF_FULL_Msk USBFS_USBDEV_ARB_EP1_INT_EN_IN_BUF_FULL_EN_Msk 
 230:Generated_Source\PSoC6\pdl\drivers\peripheral\usbfs/cy_usbfs_dev_drv_reg.h **** /** Data endpoint grant interrupt source (DMA complete read/write) */
 231:Generated_Source\PSoC6\pdl\drivers\peripheral\usbfs/cy_usbfs_dev_drv_reg.h **** #define USBFS_USBDEV_ARB_EP_DMA_GNT_Msk     USBFS_USBDEV_ARB_EP1_INT_EN_DMA_GNT_EN_Msk
 232:Generated_Source\PSoC6\pdl\drivers\peripheral\usbfs/cy_usbfs_dev_drv_reg.h **** /** Data endpoint overflow interrupt source (applicable only for Automatic DMA mode) */
 233:Generated_Source\PSoC6\pdl\drivers\peripheral\usbfs/cy_usbfs_dev_drv_reg.h **** #define USBFS_USBDEV_ARB_EP_BUF_OVER_Msk    USBFS_USBDEV_ARB_EP1_INT_EN_BUF_OVER_EN_Msk
 234:Generated_Source\PSoC6\pdl\drivers\peripheral\usbfs/cy_usbfs_dev_drv_reg.h **** /** Data endpoint underflow interrupt source (applicable only for Automatic DMA mode) */
 235:Generated_Source\PSoC6\pdl\drivers\peripheral\usbfs/cy_usbfs_dev_drv_reg.h **** #define USBFS_USBDEV_ARB_EP_BUF_UNDER_Msk   USBFS_USBDEV_ARB_EP1_INT_EN_BUF_UNDER_EN_Msk
 236:Generated_Source\PSoC6\pdl\drivers\peripheral\usbfs/cy_usbfs_dev_drv_reg.h **** /** Endpoint Error in Transaction interrupt source */
 237:Generated_Source\PSoC6\pdl\drivers\peripheral\usbfs/cy_usbfs_dev_drv_reg.h **** #define USBFS_USBDEV_ARB_EP_ERR_Msk         USBFS_USBDEV_ARB_EP1_INT_EN_ERR_INT_EN_Msk
 238:Generated_Source\PSoC6\pdl\drivers\peripheral\usbfs/cy_usbfs_dev_drv_reg.h **** /** Data endpoint terminate interrupt source (DMA complete reading) */
 239:Generated_Source\PSoC6\pdl\drivers\peripheral\usbfs/cy_usbfs_dev_drv_reg.h **** #define USBFS_USBDEV_ARB_EP_DMA_TERMIN_Msk  USBFS_USBDEV_ARB_EP1_SR_DMA_TERMIN_Msk
 240:Generated_Source\PSoC6\pdl\drivers\peripheral\usbfs/cy_usbfs_dev_drv_reg.h **** /** \} group_usbfs_dev_drv_reg_macros_arb_ep_intr */
 241:Generated_Source\PSoC6\pdl\drivers\peripheral\usbfs/cy_usbfs_dev_drv_reg.h **** 
 242:Generated_Source\PSoC6\pdl\drivers\peripheral\usbfs/cy_usbfs_dev_drv_reg.h **** /**
 243:Generated_Source\PSoC6\pdl\drivers\peripheral\usbfs/cy_usbfs_dev_drv_reg.h **** * \addtogroup group_usbfs_dev_drv_reg_macros
 244:Generated_Source\PSoC6\pdl\drivers\peripheral\usbfs/cy_usbfs_dev_drv_reg.h **** * \{
 245:Generated_Source\PSoC6\pdl\drivers\peripheral\usbfs/cy_usbfs_dev_drv_reg.h **** */
 246:Generated_Source\PSoC6\pdl\drivers\peripheral\usbfs/cy_usbfs_dev_drv_reg.h **** /** Data toggle mask in CNT0 register */
 247:Generated_Source\PSoC6\pdl\drivers\peripheral\usbfs/cy_usbfs_dev_drv_reg.h **** #define USBFS_USBDEV_SIE_EP_DATA_TOGGLE_Msk USBFS_USBDEV_SIE_EP1_CNT0_DATA_TOGGLE_Msk
ARM GAS  C:\Users\enes_\AppData\Local\Temp\ccUvgHSW.s 			page 22


 248:Generated_Source\PSoC6\pdl\drivers\peripheral\usbfs/cy_usbfs_dev_drv_reg.h **** /** \} group_usbfs_dev_drv_reg_macros */
 249:Generated_Source\PSoC6\pdl\drivers\peripheral\usbfs/cy_usbfs_dev_drv_reg.h **** 
 250:Generated_Source\PSoC6\pdl\drivers\peripheral\usbfs/cy_usbfs_dev_drv_reg.h **** /** /cond INTERNAL */
 251:Generated_Source\PSoC6\pdl\drivers\peripheral\usbfs/cy_usbfs_dev_drv_reg.h **** 
 252:Generated_Source\PSoC6\pdl\drivers\peripheral\usbfs/cy_usbfs_dev_drv_reg.h **** /* Extended cyip_usbfs.h */
 253:Generated_Source\PSoC6\pdl\drivers\peripheral\usbfs/cy_usbfs_dev_drv_reg.h **** 
 254:Generated_Source\PSoC6\pdl\drivers\peripheral\usbfs/cy_usbfs_dev_drv_reg.h **** /* Count registers includes CRC size (2 bytes) */
 255:Generated_Source\PSoC6\pdl\drivers\peripheral\usbfs/cy_usbfs_dev_drv_reg.h **** #define CY_USBFS_DEV_DRV_EP_CRC_SIZE        (2U)
 256:Generated_Source\PSoC6\pdl\drivers\peripheral\usbfs/cy_usbfs_dev_drv_reg.h **** 
 257:Generated_Source\PSoC6\pdl\drivers\peripheral\usbfs/cy_usbfs_dev_drv_reg.h **** /* DYN_RECONFIG register */
 258:Generated_Source\PSoC6\pdl\drivers\peripheral\usbfs/cy_usbfs_dev_drv_reg.h **** #define USBFS_USBDEV_DYN_RECONFIG_EN_Msk       USBFS_USBDEV_DYN_RECONFIG_DYN_CONFIG_EN_Msk
 259:Generated_Source\PSoC6\pdl\drivers\peripheral\usbfs/cy_usbfs_dev_drv_reg.h **** #define USBFS_USBDEV_DYN_RECONFIG_EPNO_Pos     USBFS_USBDEV_DYN_RECONFIG_DYN_RECONFIG_EPNO_Pos
 260:Generated_Source\PSoC6\pdl\drivers\peripheral\usbfs/cy_usbfs_dev_drv_reg.h **** #define USBFS_USBDEV_DYN_RECONFIG_EPNO_Msk     USBFS_USBDEV_DYN_RECONFIG_DYN_RECONFIG_EPNO_Msk
 261:Generated_Source\PSoC6\pdl\drivers\peripheral\usbfs/cy_usbfs_dev_drv_reg.h **** #define USBFS_USBDEV_DYN_RECONFIG_RDY_STS_Msk  USBFS_USBDEV_DYN_RECONFIG_DYN_RECONFIG_RDY_STS_Msk
 262:Generated_Source\PSoC6\pdl\drivers\peripheral\usbfs/cy_usbfs_dev_drv_reg.h **** 
 263:Generated_Source\PSoC6\pdl\drivers\peripheral\usbfs/cy_usbfs_dev_drv_reg.h **** /* LPM_CTL register */
 264:Generated_Source\PSoC6\pdl\drivers\peripheral\usbfs/cy_usbfs_dev_drv_reg.h **** #define USBFS_USBLPM_LPM_CTL_LPM_RESP_Pos   (USBFS_USBLPM_LPM_CTL_LPM_ACK_RESP_Pos)
 265:Generated_Source\PSoC6\pdl\drivers\peripheral\usbfs/cy_usbfs_dev_drv_reg.h **** #define USBFS_USBLPM_LPM_CTL_LPM_RESP_Msk   (USBFS_USBLPM_LPM_CTL_LPM_ACK_RESP_Msk | \
 266:Generated_Source\PSoC6\pdl\drivers\peripheral\usbfs/cy_usbfs_dev_drv_reg.h ****                                              USBFS_USBLPM_LPM_CTL_NYET_EN_Msk)
 267:Generated_Source\PSoC6\pdl\drivers\peripheral\usbfs/cy_usbfs_dev_drv_reg.h **** 
 268:Generated_Source\PSoC6\pdl\drivers\peripheral\usbfs/cy_usbfs_dev_drv_reg.h **** /* ARB_EP_CFG 1-8 registers (default configuration) */
 269:Generated_Source\PSoC6\pdl\drivers\peripheral\usbfs/cy_usbfs_dev_drv_reg.h **** #define USBFS_USBDEV_ARB_EP_CFG_CRC_BYPASS_Msk USBFS_USBDEV_ARB_EP1_CFG_CRC_BYPASS_Msk
 270:Generated_Source\PSoC6\pdl\drivers\peripheral\usbfs/cy_usbfs_dev_drv_reg.h **** #define USBFS_USBDEV_ARB_EP_CFG_RESET_PTR_Msk  USBFS_USBDEV_ARB_EP1_CFG_CRC_BYPASS_Msk
 271:Generated_Source\PSoC6\pdl\drivers\peripheral\usbfs/cy_usbfs_dev_drv_reg.h **** /** /endcond */
 272:Generated_Source\PSoC6\pdl\drivers\peripheral\usbfs/cy_usbfs_dev_drv_reg.h **** 
 273:Generated_Source\PSoC6\pdl\drivers\peripheral\usbfs/cy_usbfs_dev_drv_reg.h **** 
 274:Generated_Source\PSoC6\pdl\drivers\peripheral\usbfs/cy_usbfs_dev_drv_reg.h **** /*******************************************************************************
 275:Generated_Source\PSoC6\pdl\drivers\peripheral\usbfs/cy_usbfs_dev_drv_reg.h **** *                         In-line Function Implementation
 276:Generated_Source\PSoC6\pdl\drivers\peripheral\usbfs/cy_usbfs_dev_drv_reg.h **** *******************************************************************************/
 277:Generated_Source\PSoC6\pdl\drivers\peripheral\usbfs/cy_usbfs_dev_drv_reg.h **** 
 278:Generated_Source\PSoC6\pdl\drivers\peripheral\usbfs/cy_usbfs_dev_drv_reg.h **** /**
 279:Generated_Source\PSoC6\pdl\drivers\peripheral\usbfs/cy_usbfs_dev_drv_reg.h **** * \addtogroup group_usbfs_drv_drv_reg_interrupt_sources
 280:Generated_Source\PSoC6\pdl\drivers\peripheral\usbfs/cy_usbfs_dev_drv_reg.h **** * \{
 281:Generated_Source\PSoC6\pdl\drivers\peripheral\usbfs/cy_usbfs_dev_drv_reg.h **** */
 282:Generated_Source\PSoC6\pdl\drivers\peripheral\usbfs/cy_usbfs_dev_drv_reg.h **** 
 283:Generated_Source\PSoC6\pdl\drivers\peripheral\usbfs/cy_usbfs_dev_drv_reg.h **** /*******************************************************************************
 284:Generated_Source\PSoC6\pdl\drivers\peripheral\usbfs/cy_usbfs_dev_drv_reg.h **** * Function Name: Cy_USBFS_Dev_Drv_GetSieInterruptStatus
 285:Generated_Source\PSoC6\pdl\drivers\peripheral\usbfs/cy_usbfs_dev_drv_reg.h **** ****************************************************************************//**
 286:Generated_Source\PSoC6\pdl\drivers\peripheral\usbfs/cy_usbfs_dev_drv_reg.h **** *
 287:Generated_Source\PSoC6\pdl\drivers\peripheral\usbfs/cy_usbfs_dev_drv_reg.h **** * Returns the SIE interrupt request register.
 288:Generated_Source\PSoC6\pdl\drivers\peripheral\usbfs/cy_usbfs_dev_drv_reg.h **** * This register contains the current status of the SIE interrupt sources.
 289:Generated_Source\PSoC6\pdl\drivers\peripheral\usbfs/cy_usbfs_dev_drv_reg.h **** *
 290:Generated_Source\PSoC6\pdl\drivers\peripheral\usbfs/cy_usbfs_dev_drv_reg.h **** * \param base
 291:Generated_Source\PSoC6\pdl\drivers\peripheral\usbfs/cy_usbfs_dev_drv_reg.h **** * The pointer to the USBFS instance.
 292:Generated_Source\PSoC6\pdl\drivers\peripheral\usbfs/cy_usbfs_dev_drv_reg.h **** *
 293:Generated_Source\PSoC6\pdl\drivers\peripheral\usbfs/cy_usbfs_dev_drv_reg.h **** * \return
 294:Generated_Source\PSoC6\pdl\drivers\peripheral\usbfs/cy_usbfs_dev_drv_reg.h **** * The current status of the SIE interrupt sources.
 295:Generated_Source\PSoC6\pdl\drivers\peripheral\usbfs/cy_usbfs_dev_drv_reg.h **** * Each constant is a bit field value. The value returned may have multiple
 296:Generated_Source\PSoC6\pdl\drivers\peripheral\usbfs/cy_usbfs_dev_drv_reg.h **** * bits set to indicate the current status.
 297:Generated_Source\PSoC6\pdl\drivers\peripheral\usbfs/cy_usbfs_dev_drv_reg.h **** * See \ref group_usbfs_dev_drv_reg_macros_sie_intr for the set of constants.
 298:Generated_Source\PSoC6\pdl\drivers\peripheral\usbfs/cy_usbfs_dev_drv_reg.h **** *
 299:Generated_Source\PSoC6\pdl\drivers\peripheral\usbfs/cy_usbfs_dev_drv_reg.h **** *******************************************************************************/
 300:Generated_Source\PSoC6\pdl\drivers\peripheral\usbfs/cy_usbfs_dev_drv_reg.h **** __STATIC_INLINE uint32_t Cy_USBFS_Dev_Drv_GetSieInterruptStatus(USBFS_Type const *base)
 301:Generated_Source\PSoC6\pdl\drivers\peripheral\usbfs/cy_usbfs_dev_drv_reg.h **** {
 302:Generated_Source\PSoC6\pdl\drivers\peripheral\usbfs/cy_usbfs_dev_drv_reg.h ****     return USBFS_DEV_LPM_INTR_SIE(base);
 303:Generated_Source\PSoC6\pdl\drivers\peripheral\usbfs/cy_usbfs_dev_drv_reg.h **** }
 304:Generated_Source\PSoC6\pdl\drivers\peripheral\usbfs/cy_usbfs_dev_drv_reg.h **** 
ARM GAS  C:\Users\enes_\AppData\Local\Temp\ccUvgHSW.s 			page 23


 305:Generated_Source\PSoC6\pdl\drivers\peripheral\usbfs/cy_usbfs_dev_drv_reg.h **** 
 306:Generated_Source\PSoC6\pdl\drivers\peripheral\usbfs/cy_usbfs_dev_drv_reg.h **** /*******************************************************************************
 307:Generated_Source\PSoC6\pdl\drivers\peripheral\usbfs/cy_usbfs_dev_drv_reg.h **** * Function Name: Cy_USBFS_Dev_Drv_SetSieInterruptMask
 308:Generated_Source\PSoC6\pdl\drivers\peripheral\usbfs/cy_usbfs_dev_drv_reg.h **** ****************************************************************************//**
 309:Generated_Source\PSoC6\pdl\drivers\peripheral\usbfs/cy_usbfs_dev_drv_reg.h **** *
 310:Generated_Source\PSoC6\pdl\drivers\peripheral\usbfs/cy_usbfs_dev_drv_reg.h **** * Writes the SIE interrupt mask register.
 311:Generated_Source\PSoC6\pdl\drivers\peripheral\usbfs/cy_usbfs_dev_drv_reg.h **** * This register configures which bits from the SIE interrupt request register
 312:Generated_Source\PSoC6\pdl\drivers\peripheral\usbfs/cy_usbfs_dev_drv_reg.h **** * can trigger an interrupt event.
 313:Generated_Source\PSoC6\pdl\drivers\peripheral\usbfs/cy_usbfs_dev_drv_reg.h **** *
 314:Generated_Source\PSoC6\pdl\drivers\peripheral\usbfs/cy_usbfs_dev_drv_reg.h **** * \param base
 315:Generated_Source\PSoC6\pdl\drivers\peripheral\usbfs/cy_usbfs_dev_drv_reg.h **** * The pointer to the USBFS instance.
 316:Generated_Source\PSoC6\pdl\drivers\peripheral\usbfs/cy_usbfs_dev_drv_reg.h **** *
 317:Generated_Source\PSoC6\pdl\drivers\peripheral\usbfs/cy_usbfs_dev_drv_reg.h **** * \param mask
 318:Generated_Source\PSoC6\pdl\drivers\peripheral\usbfs/cy_usbfs_dev_drv_reg.h **** * Enabled SIE interrupt sources.
 319:Generated_Source\PSoC6\pdl\drivers\peripheral\usbfs/cy_usbfs_dev_drv_reg.h **** * See \ref group_usbfs_dev_drv_reg_macros_sie_intr for the set of constants.
 320:Generated_Source\PSoC6\pdl\drivers\peripheral\usbfs/cy_usbfs_dev_drv_reg.h **** *
 321:Generated_Source\PSoC6\pdl\drivers\peripheral\usbfs/cy_usbfs_dev_drv_reg.h **** *******************************************************************************/
 322:Generated_Source\PSoC6\pdl\drivers\peripheral\usbfs/cy_usbfs_dev_drv_reg.h **** __STATIC_INLINE void Cy_USBFS_Dev_Drv_SetSieInterruptMask(USBFS_Type *base, uint32_t mask)
 323:Generated_Source\PSoC6\pdl\drivers\peripheral\usbfs/cy_usbfs_dev_drv_reg.h **** {
 324:Generated_Source\PSoC6\pdl\drivers\peripheral\usbfs/cy_usbfs_dev_drv_reg.h ****     USBFS_DEV_LPM_INTR_SIE_MASK(base) = mask;
 325:Generated_Source\PSoC6\pdl\drivers\peripheral\usbfs/cy_usbfs_dev_drv_reg.h **** }
 326:Generated_Source\PSoC6\pdl\drivers\peripheral\usbfs/cy_usbfs_dev_drv_reg.h **** 
 327:Generated_Source\PSoC6\pdl\drivers\peripheral\usbfs/cy_usbfs_dev_drv_reg.h **** 
 328:Generated_Source\PSoC6\pdl\drivers\peripheral\usbfs/cy_usbfs_dev_drv_reg.h **** /*******************************************************************************
 329:Generated_Source\PSoC6\pdl\drivers\peripheral\usbfs/cy_usbfs_dev_drv_reg.h **** * Function Name: Cy_USBFS_Dev_Drv_GetSieInterruptMask
 330:Generated_Source\PSoC6\pdl\drivers\peripheral\usbfs/cy_usbfs_dev_drv_reg.h **** ****************************************************************************//**
 331:Generated_Source\PSoC6\pdl\drivers\peripheral\usbfs/cy_usbfs_dev_drv_reg.h **** *
 332:Generated_Source\PSoC6\pdl\drivers\peripheral\usbfs/cy_usbfs_dev_drv_reg.h **** * Returns the SIE interrupt mask register.
 333:Generated_Source\PSoC6\pdl\drivers\peripheral\usbfs/cy_usbfs_dev_drv_reg.h **** * This register specifies which bits from the SIE interrupt request register
 334:Generated_Source\PSoC6\pdl\drivers\peripheral\usbfs/cy_usbfs_dev_drv_reg.h **** * trigger can an interrupt event.
 335:Generated_Source\PSoC6\pdl\drivers\peripheral\usbfs/cy_usbfs_dev_drv_reg.h **** *
 336:Generated_Source\PSoC6\pdl\drivers\peripheral\usbfs/cy_usbfs_dev_drv_reg.h **** * \param base
 337:Generated_Source\PSoC6\pdl\drivers\peripheral\usbfs/cy_usbfs_dev_drv_reg.h **** * The pointer to the USBFS instance.
 338:Generated_Source\PSoC6\pdl\drivers\peripheral\usbfs/cy_usbfs_dev_drv_reg.h **** *
 339:Generated_Source\PSoC6\pdl\drivers\peripheral\usbfs/cy_usbfs_dev_drv_reg.h **** * \return
 340:Generated_Source\PSoC6\pdl\drivers\peripheral\usbfs/cy_usbfs_dev_drv_reg.h **** * Enabled SIE interrupt sources.
 341:Generated_Source\PSoC6\pdl\drivers\peripheral\usbfs/cy_usbfs_dev_drv_reg.h **** * See \ref group_usbfs_dev_drv_reg_macros_sie_intr for the set of constants.
 342:Generated_Source\PSoC6\pdl\drivers\peripheral\usbfs/cy_usbfs_dev_drv_reg.h **** *
 343:Generated_Source\PSoC6\pdl\drivers\peripheral\usbfs/cy_usbfs_dev_drv_reg.h **** *******************************************************************************/
 344:Generated_Source\PSoC6\pdl\drivers\peripheral\usbfs/cy_usbfs_dev_drv_reg.h **** __STATIC_INLINE uint32_t Cy_USBFS_Dev_Drv_GetSieInterruptMask(USBFS_Type const *base)
 345:Generated_Source\PSoC6\pdl\drivers\peripheral\usbfs/cy_usbfs_dev_drv_reg.h **** {
 346:Generated_Source\PSoC6\pdl\drivers\peripheral\usbfs/cy_usbfs_dev_drv_reg.h ****     return USBFS_DEV_LPM_INTR_SIE_MASK(base);
 347:Generated_Source\PSoC6\pdl\drivers\peripheral\usbfs/cy_usbfs_dev_drv_reg.h **** }
 348:Generated_Source\PSoC6\pdl\drivers\peripheral\usbfs/cy_usbfs_dev_drv_reg.h **** 
 349:Generated_Source\PSoC6\pdl\drivers\peripheral\usbfs/cy_usbfs_dev_drv_reg.h **** 
 350:Generated_Source\PSoC6\pdl\drivers\peripheral\usbfs/cy_usbfs_dev_drv_reg.h **** /*******************************************************************************
 351:Generated_Source\PSoC6\pdl\drivers\peripheral\usbfs/cy_usbfs_dev_drv_reg.h **** * Function Name: Cy_USBFS_Dev_Drv_GetSieInterruptStatusMasked
 352:Generated_Source\PSoC6\pdl\drivers\peripheral\usbfs/cy_usbfs_dev_drv_reg.h **** ****************************************************************************//**
 353:Generated_Source\PSoC6\pdl\drivers\peripheral\usbfs/cy_usbfs_dev_drv_reg.h **** *
 354:Generated_Source\PSoC6\pdl\drivers\peripheral\usbfs/cy_usbfs_dev_drv_reg.h **** * Returns the SIE interrupt masked request register.
 355:Generated_Source\PSoC6\pdl\drivers\peripheral\usbfs/cy_usbfs_dev_drv_reg.h **** * This register contains a logical AND of corresponding bits from the SIE
 356:Generated_Source\PSoC6\pdl\drivers\peripheral\usbfs/cy_usbfs_dev_drv_reg.h **** * interrupt request and mask registers.
 357:Generated_Source\PSoC6\pdl\drivers\peripheral\usbfs/cy_usbfs_dev_drv_reg.h **** * This function is intended to be used in the interrupt service routine to
 358:Generated_Source\PSoC6\pdl\drivers\peripheral\usbfs/cy_usbfs_dev_drv_reg.h **** * identify which of the enabled SIE interrupt sources caused the interrupt
 359:Generated_Source\PSoC6\pdl\drivers\peripheral\usbfs/cy_usbfs_dev_drv_reg.h **** * event.
 360:Generated_Source\PSoC6\pdl\drivers\peripheral\usbfs/cy_usbfs_dev_drv_reg.h **** *
 361:Generated_Source\PSoC6\pdl\drivers\peripheral\usbfs/cy_usbfs_dev_drv_reg.h **** * \param base
ARM GAS  C:\Users\enes_\AppData\Local\Temp\ccUvgHSW.s 			page 24


 362:Generated_Source\PSoC6\pdl\drivers\peripheral\usbfs/cy_usbfs_dev_drv_reg.h **** * The pointer to the USBFS instance.
 363:Generated_Source\PSoC6\pdl\drivers\peripheral\usbfs/cy_usbfs_dev_drv_reg.h **** *
 364:Generated_Source\PSoC6\pdl\drivers\peripheral\usbfs/cy_usbfs_dev_drv_reg.h **** * \return
 365:Generated_Source\PSoC6\pdl\drivers\peripheral\usbfs/cy_usbfs_dev_drv_reg.h **** * The current status of enabled SIE interrupt sources.
 366:Generated_Source\PSoC6\pdl\drivers\peripheral\usbfs/cy_usbfs_dev_drv_reg.h **** * See \ref group_usbfs_dev_drv_reg_macros_sie_intr for the set of constants.
 367:Generated_Source\PSoC6\pdl\drivers\peripheral\usbfs/cy_usbfs_dev_drv_reg.h **** *
 368:Generated_Source\PSoC6\pdl\drivers\peripheral\usbfs/cy_usbfs_dev_drv_reg.h **** *******************************************************************************/
 369:Generated_Source\PSoC6\pdl\drivers\peripheral\usbfs/cy_usbfs_dev_drv_reg.h **** __STATIC_INLINE uint32_t Cy_USBFS_Dev_Drv_GetSieInterruptStatusMasked(USBFS_Type const *base)
 370:Generated_Source\PSoC6\pdl\drivers\peripheral\usbfs/cy_usbfs_dev_drv_reg.h **** {
 371:Generated_Source\PSoC6\pdl\drivers\peripheral\usbfs/cy_usbfs_dev_drv_reg.h ****     return USBFS_DEV_LPM_INTR_SIE_MASKED(base);
 372:Generated_Source\PSoC6\pdl\drivers\peripheral\usbfs/cy_usbfs_dev_drv_reg.h **** }
 373:Generated_Source\PSoC6\pdl\drivers\peripheral\usbfs/cy_usbfs_dev_drv_reg.h **** 
 374:Generated_Source\PSoC6\pdl\drivers\peripheral\usbfs/cy_usbfs_dev_drv_reg.h **** 
 375:Generated_Source\PSoC6\pdl\drivers\peripheral\usbfs/cy_usbfs_dev_drv_reg.h **** /*******************************************************************************
 376:Generated_Source\PSoC6\pdl\drivers\peripheral\usbfs/cy_usbfs_dev_drv_reg.h **** * Function Name: Cy_USBFS_Dev_Drv_ClearSieInterrupt
 377:Generated_Source\PSoC6\pdl\drivers\peripheral\usbfs/cy_usbfs_dev_drv_reg.h **** ****************************************************************************//**
 378:Generated_Source\PSoC6\pdl\drivers\peripheral\usbfs/cy_usbfs_dev_drv_reg.h **** *
 379:Generated_Source\PSoC6\pdl\drivers\peripheral\usbfs/cy_usbfs_dev_drv_reg.h **** * Clears the SIE interrupt sources in the interrupt request register.
 380:Generated_Source\PSoC6\pdl\drivers\peripheral\usbfs/cy_usbfs_dev_drv_reg.h **** *
 381:Generated_Source\PSoC6\pdl\drivers\peripheral\usbfs/cy_usbfs_dev_drv_reg.h **** * \param base
 382:Generated_Source\PSoC6\pdl\drivers\peripheral\usbfs/cy_usbfs_dev_drv_reg.h **** * The pointer to the USBFS instance.
 383:Generated_Source\PSoC6\pdl\drivers\peripheral\usbfs/cy_usbfs_dev_drv_reg.h **** *
 384:Generated_Source\PSoC6\pdl\drivers\peripheral\usbfs/cy_usbfs_dev_drv_reg.h **** * \param mask
 385:Generated_Source\PSoC6\pdl\drivers\peripheral\usbfs/cy_usbfs_dev_drv_reg.h **** * The SIE interrupt sources to be cleared.
 386:Generated_Source\PSoC6\pdl\drivers\peripheral\usbfs/cy_usbfs_dev_drv_reg.h **** * See \ref group_usbfs_dev_drv_reg_macros_sie_intr for the set of constants.
 387:Generated_Source\PSoC6\pdl\drivers\peripheral\usbfs/cy_usbfs_dev_drv_reg.h **** *
 388:Generated_Source\PSoC6\pdl\drivers\peripheral\usbfs/cy_usbfs_dev_drv_reg.h **** *******************************************************************************/
 389:Generated_Source\PSoC6\pdl\drivers\peripheral\usbfs/cy_usbfs_dev_drv_reg.h **** __STATIC_INLINE void Cy_USBFS_Dev_Drv_ClearSieInterrupt(USBFS_Type *base, uint32_t mask)
 390:Generated_Source\PSoC6\pdl\drivers\peripheral\usbfs/cy_usbfs_dev_drv_reg.h **** {
 391:Generated_Source\PSoC6\pdl\drivers\peripheral\usbfs/cy_usbfs_dev_drv_reg.h ****     USBFS_DEV_LPM_INTR_SIE(base) = mask;
 392:Generated_Source\PSoC6\pdl\drivers\peripheral\usbfs/cy_usbfs_dev_drv_reg.h ****     (void) USBFS_DEV_LPM_INTR_SIE(base);
 393:Generated_Source\PSoC6\pdl\drivers\peripheral\usbfs/cy_usbfs_dev_drv_reg.h **** }
 394:Generated_Source\PSoC6\pdl\drivers\peripheral\usbfs/cy_usbfs_dev_drv_reg.h **** 
 395:Generated_Source\PSoC6\pdl\drivers\peripheral\usbfs/cy_usbfs_dev_drv_reg.h **** 
 396:Generated_Source\PSoC6\pdl\drivers\peripheral\usbfs/cy_usbfs_dev_drv_reg.h **** /*******************************************************************************
 397:Generated_Source\PSoC6\pdl\drivers\peripheral\usbfs/cy_usbfs_dev_drv_reg.h **** * Function Name: Cy_USBFS_Dev_Drv_SetSieInterrupt
 398:Generated_Source\PSoC6\pdl\drivers\peripheral\usbfs/cy_usbfs_dev_drv_reg.h **** ****************************************************************************//**
 399:Generated_Source\PSoC6\pdl\drivers\peripheral\usbfs/cy_usbfs_dev_drv_reg.h **** *
 400:Generated_Source\PSoC6\pdl\drivers\peripheral\usbfs/cy_usbfs_dev_drv_reg.h **** * Sets the SIE interrupt sources in the interrupt request register.
 401:Generated_Source\PSoC6\pdl\drivers\peripheral\usbfs/cy_usbfs_dev_drv_reg.h **** *
 402:Generated_Source\PSoC6\pdl\drivers\peripheral\usbfs/cy_usbfs_dev_drv_reg.h **** * \param base
 403:Generated_Source\PSoC6\pdl\drivers\peripheral\usbfs/cy_usbfs_dev_drv_reg.h **** * The pointer to the USBFS instance.
 404:Generated_Source\PSoC6\pdl\drivers\peripheral\usbfs/cy_usbfs_dev_drv_reg.h **** *
 405:Generated_Source\PSoC6\pdl\drivers\peripheral\usbfs/cy_usbfs_dev_drv_reg.h **** * \param mask
 406:Generated_Source\PSoC6\pdl\drivers\peripheral\usbfs/cy_usbfs_dev_drv_reg.h **** * The SIE interrupt sources to be set in the SIE interrupt request register.
 407:Generated_Source\PSoC6\pdl\drivers\peripheral\usbfs/cy_usbfs_dev_drv_reg.h **** * See \ref group_usbfs_dev_drv_reg_macros_sie_intr for the set of constants.
 408:Generated_Source\PSoC6\pdl\drivers\peripheral\usbfs/cy_usbfs_dev_drv_reg.h **** *
 409:Generated_Source\PSoC6\pdl\drivers\peripheral\usbfs/cy_usbfs_dev_drv_reg.h **** *******************************************************************************/
 410:Generated_Source\PSoC6\pdl\drivers\peripheral\usbfs/cy_usbfs_dev_drv_reg.h **** __STATIC_INLINE void Cy_USBFS_Dev_Drv_SetSieInterrupt(USBFS_Type *base, uint32_t mask)
 411:Generated_Source\PSoC6\pdl\drivers\peripheral\usbfs/cy_usbfs_dev_drv_reg.h **** {
 412:Generated_Source\PSoC6\pdl\drivers\peripheral\usbfs/cy_usbfs_dev_drv_reg.h ****     USBFS_DEV_LPM_INTR_SIE_SET(base) = mask;
 413:Generated_Source\PSoC6\pdl\drivers\peripheral\usbfs/cy_usbfs_dev_drv_reg.h **** }
 414:Generated_Source\PSoC6\pdl\drivers\peripheral\usbfs/cy_usbfs_dev_drv_reg.h **** /** \} group_usbfs_drv_drv_reg_interrupt_sources */
 415:Generated_Source\PSoC6\pdl\drivers\peripheral\usbfs/cy_usbfs_dev_drv_reg.h **** 
 416:Generated_Source\PSoC6\pdl\drivers\peripheral\usbfs/cy_usbfs_dev_drv_reg.h **** 
 417:Generated_Source\PSoC6\pdl\drivers\peripheral\usbfs/cy_usbfs_dev_drv_reg.h **** /**
 418:Generated_Source\PSoC6\pdl\drivers\peripheral\usbfs/cy_usbfs_dev_drv_reg.h **** * \addtogroup group_usbfs_drv_drv_reg_sie_access
ARM GAS  C:\Users\enes_\AppData\Local\Temp\ccUvgHSW.s 			page 25


 419:Generated_Source\PSoC6\pdl\drivers\peripheral\usbfs/cy_usbfs_dev_drv_reg.h **** * \{
 420:Generated_Source\PSoC6\pdl\drivers\peripheral\usbfs/cy_usbfs_dev_drv_reg.h **** */
 421:Generated_Source\PSoC6\pdl\drivers\peripheral\usbfs/cy_usbfs_dev_drv_reg.h **** 
 422:Generated_Source\PSoC6\pdl\drivers\peripheral\usbfs/cy_usbfs_dev_drv_reg.h **** /*******************************************************************************
 423:Generated_Source\PSoC6\pdl\drivers\peripheral\usbfs/cy_usbfs_dev_drv_reg.h **** * Function Name: Cy_USBFS_Dev_Drv_SetSieEpMode
 424:Generated_Source\PSoC6\pdl\drivers\peripheral\usbfs/cy_usbfs_dev_drv_reg.h **** ****************************************************************************//**
 425:Generated_Source\PSoC6\pdl\drivers\peripheral\usbfs/cy_usbfs_dev_drv_reg.h **** *
 426:Generated_Source\PSoC6\pdl\drivers\peripheral\usbfs/cy_usbfs_dev_drv_reg.h **** * Sets SIE mode in the CR0 register of the endpoint (does not touch other bits). 
 427:Generated_Source\PSoC6\pdl\drivers\peripheral\usbfs/cy_usbfs_dev_drv_reg.h **** * All other bits except NAK_INT_EN are cleared by the hardware on any write 
 428:Generated_Source\PSoC6\pdl\drivers\peripheral\usbfs/cy_usbfs_dev_drv_reg.h **** * in the register.
 429:Generated_Source\PSoC6\pdl\drivers\peripheral\usbfs/cy_usbfs_dev_drv_reg.h **** *
 430:Generated_Source\PSoC6\pdl\drivers\peripheral\usbfs/cy_usbfs_dev_drv_reg.h **** * \param base
 431:Generated_Source\PSoC6\pdl\drivers\peripheral\usbfs/cy_usbfs_dev_drv_reg.h **** * The pointer to the USBFS instance.
 432:Generated_Source\PSoC6\pdl\drivers\peripheral\usbfs/cy_usbfs_dev_drv_reg.h **** *
 433:Generated_Source\PSoC6\pdl\drivers\peripheral\usbfs/cy_usbfs_dev_drv_reg.h **** * \param endpoint
 434:Generated_Source\PSoC6\pdl\drivers\peripheral\usbfs/cy_usbfs_dev_drv_reg.h **** * Physical endpoint number. 
 435:Generated_Source\PSoC6\pdl\drivers\peripheral\usbfs/cy_usbfs_dev_drv_reg.h **** * Valid range: 0 - ( \ref CY_USBFS_DEV_DRV_NUM_EPS_MAX - 1 ).
 436:Generated_Source\PSoC6\pdl\drivers\peripheral\usbfs/cy_usbfs_dev_drv_reg.h **** *
 437:Generated_Source\PSoC6\pdl\drivers\peripheral\usbfs/cy_usbfs_dev_drv_reg.h **** * \param mode
 438:Generated_Source\PSoC6\pdl\drivers\peripheral\usbfs/cy_usbfs_dev_drv_reg.h **** * SIE mode defines data endpoint response to Host request.
 439:Generated_Source\PSoC6\pdl\drivers\peripheral\usbfs/cy_usbfs_dev_drv_reg.h **** * See \ref group_usbfs_dev_drv_reg_macros_sie_mode for the set of constants.
 440:Generated_Source\PSoC6\pdl\drivers\peripheral\usbfs/cy_usbfs_dev_drv_reg.h **** *
 441:Generated_Source\PSoC6\pdl\drivers\peripheral\usbfs/cy_usbfs_dev_drv_reg.h **** *******************************************************************************/
 442:Generated_Source\PSoC6\pdl\drivers\peripheral\usbfs/cy_usbfs_dev_drv_reg.h **** __STATIC_INLINE void Cy_USBFS_Dev_Drv_SetSieEpMode(USBFS_Type *base, uint32_t endpoint, uint32_t mo
 443:Generated_Source\PSoC6\pdl\drivers\peripheral\usbfs/cy_usbfs_dev_drv_reg.h **** {
 444:Generated_Source\PSoC6\pdl\drivers\peripheral\usbfs/cy_usbfs_dev_drv_reg.h ****     USBFS_DEV_SIE_EP_CR0(base, endpoint) = _CLR_SET_FLD32U(USBFS_DEV_SIE_EP_CR0(base, endpoint),
 445:Generated_Source\PSoC6\pdl\drivers\peripheral\usbfs/cy_usbfs_dev_drv_reg.h ****                                                             USBFS_USBDEV_SIE_EP1_CR0_MODE, mode);
 446:Generated_Source\PSoC6\pdl\drivers\peripheral\usbfs/cy_usbfs_dev_drv_reg.h ****     (void) USBFS_DEV_SIE_EP_CR0(base, endpoint);
 447:Generated_Source\PSoC6\pdl\drivers\peripheral\usbfs/cy_usbfs_dev_drv_reg.h **** }
 448:Generated_Source\PSoC6\pdl\drivers\peripheral\usbfs/cy_usbfs_dev_drv_reg.h **** 
 449:Generated_Source\PSoC6\pdl\drivers\peripheral\usbfs/cy_usbfs_dev_drv_reg.h **** 
 450:Generated_Source\PSoC6\pdl\drivers\peripheral\usbfs/cy_usbfs_dev_drv_reg.h **** /*******************************************************************************
 451:Generated_Source\PSoC6\pdl\drivers\peripheral\usbfs/cy_usbfs_dev_drv_reg.h **** * Function Name: Cy_USBFS_Dev_Drv_GetSieEpMode
 452:Generated_Source\PSoC6\pdl\drivers\peripheral\usbfs/cy_usbfs_dev_drv_reg.h **** ****************************************************************************//**
 453:Generated_Source\PSoC6\pdl\drivers\peripheral\usbfs/cy_usbfs_dev_drv_reg.h **** *
 454:Generated_Source\PSoC6\pdl\drivers\peripheral\usbfs/cy_usbfs_dev_drv_reg.h **** * Returns SIE mode in the CR0 register of the endpoint.
 455:Generated_Source\PSoC6\pdl\drivers\peripheral\usbfs/cy_usbfs_dev_drv_reg.h **** *
 456:Generated_Source\PSoC6\pdl\drivers\peripheral\usbfs/cy_usbfs_dev_drv_reg.h **** * \param base
 457:Generated_Source\PSoC6\pdl\drivers\peripheral\usbfs/cy_usbfs_dev_drv_reg.h **** * The pointer to the USBFS instance.
 458:Generated_Source\PSoC6\pdl\drivers\peripheral\usbfs/cy_usbfs_dev_drv_reg.h **** *
 459:Generated_Source\PSoC6\pdl\drivers\peripheral\usbfs/cy_usbfs_dev_drv_reg.h **** * \param endpoint
 460:Generated_Source\PSoC6\pdl\drivers\peripheral\usbfs/cy_usbfs_dev_drv_reg.h **** * Physical endpoint number. 
 461:Generated_Source\PSoC6\pdl\drivers\peripheral\usbfs/cy_usbfs_dev_drv_reg.h **** * Valid range: 0 - ( \ref CY_USBFS_DEV_DRV_NUM_EPS_MAX - 1 ).
 462:Generated_Source\PSoC6\pdl\drivers\peripheral\usbfs/cy_usbfs_dev_drv_reg.h **** *
 463:Generated_Source\PSoC6\pdl\drivers\peripheral\usbfs/cy_usbfs_dev_drv_reg.h **** * \return
 464:Generated_Source\PSoC6\pdl\drivers\peripheral\usbfs/cy_usbfs_dev_drv_reg.h **** * SIE mode (defines data endpoint response to host request).
 465:Generated_Source\PSoC6\pdl\drivers\peripheral\usbfs/cy_usbfs_dev_drv_reg.h **** * See \ref group_usbfs_dev_drv_reg_macros_sie_mode for the set of constants.
 466:Generated_Source\PSoC6\pdl\drivers\peripheral\usbfs/cy_usbfs_dev_drv_reg.h **** *
 467:Generated_Source\PSoC6\pdl\drivers\peripheral\usbfs/cy_usbfs_dev_drv_reg.h **** *******************************************************************************/
 468:Generated_Source\PSoC6\pdl\drivers\peripheral\usbfs/cy_usbfs_dev_drv_reg.h **** __STATIC_INLINE uint32_t Cy_USBFS_Dev_Drv_GetSieEpMode(USBFS_Type const *base, uint32_t endpoint)
 469:Generated_Source\PSoC6\pdl\drivers\peripheral\usbfs/cy_usbfs_dev_drv_reg.h **** {
 470:Generated_Source\PSoC6\pdl\drivers\peripheral\usbfs/cy_usbfs_dev_drv_reg.h ****     return (USBFS_DEV_SIE_EP_CR0(base, endpoint) & USBFS_USBDEV_SIE_EP1_CR0_MODE_Msk);
 471:Generated_Source\PSoC6\pdl\drivers\peripheral\usbfs/cy_usbfs_dev_drv_reg.h **** }
 472:Generated_Source\PSoC6\pdl\drivers\peripheral\usbfs/cy_usbfs_dev_drv_reg.h **** 
 473:Generated_Source\PSoC6\pdl\drivers\peripheral\usbfs/cy_usbfs_dev_drv_reg.h **** 
 474:Generated_Source\PSoC6\pdl\drivers\peripheral\usbfs/cy_usbfs_dev_drv_reg.h **** /*******************************************************************************
 475:Generated_Source\PSoC6\pdl\drivers\peripheral\usbfs/cy_usbfs_dev_drv_reg.h **** * Function Name: Cy_USBFS_Dev_Drv_SetSieEpStall
ARM GAS  C:\Users\enes_\AppData\Local\Temp\ccUvgHSW.s 			page 26


 476:Generated_Source\PSoC6\pdl\drivers\peripheral\usbfs/cy_usbfs_dev_drv_reg.h **** ****************************************************************************//**
 477:Generated_Source\PSoC6\pdl\drivers\peripheral\usbfs/cy_usbfs_dev_drv_reg.h **** *
 478:Generated_Source\PSoC6\pdl\drivers\peripheral\usbfs/cy_usbfs_dev_drv_reg.h **** * Configures endpoint to STALL requests.
 479:Generated_Source\PSoC6\pdl\drivers\peripheral\usbfs/cy_usbfs_dev_drv_reg.h **** *
 480:Generated_Source\PSoC6\pdl\drivers\peripheral\usbfs/cy_usbfs_dev_drv_reg.h **** * \param base
 481:Generated_Source\PSoC6\pdl\drivers\peripheral\usbfs/cy_usbfs_dev_drv_reg.h **** * The pointer to the USBFS instance.
 482:Generated_Source\PSoC6\pdl\drivers\peripheral\usbfs/cy_usbfs_dev_drv_reg.h **** *
 483:Generated_Source\PSoC6\pdl\drivers\peripheral\usbfs/cy_usbfs_dev_drv_reg.h **** * \param inDirection
 484:Generated_Source\PSoC6\pdl\drivers\peripheral\usbfs/cy_usbfs_dev_drv_reg.h **** *  Defines whether endpoint direction is IN (true) or OUT (false).
 485:Generated_Source\PSoC6\pdl\drivers\peripheral\usbfs/cy_usbfs_dev_drv_reg.h **** *
 486:Generated_Source\PSoC6\pdl\drivers\peripheral\usbfs/cy_usbfs_dev_drv_reg.h **** * \param endpoint
 487:Generated_Source\PSoC6\pdl\drivers\peripheral\usbfs/cy_usbfs_dev_drv_reg.h **** * Physical endpoint number. 
 488:Generated_Source\PSoC6\pdl\drivers\peripheral\usbfs/cy_usbfs_dev_drv_reg.h **** * Valid range: 0 - ( \ref CY_USBFS_DEV_DRV_NUM_EPS_MAX - 1 ).
 489:Generated_Source\PSoC6\pdl\drivers\peripheral\usbfs/cy_usbfs_dev_drv_reg.h **** *
 490:Generated_Source\PSoC6\pdl\drivers\peripheral\usbfs/cy_usbfs_dev_drv_reg.h **** *******************************************************************************/
 491:Generated_Source\PSoC6\pdl\drivers\peripheral\usbfs/cy_usbfs_dev_drv_reg.h **** __STATIC_INLINE void Cy_USBFS_Dev_Drv_SetSieEpStall(USBFS_Type *base, bool inDirection, uint32_t en
 492:Generated_Source\PSoC6\pdl\drivers\peripheral\usbfs/cy_usbfs_dev_drv_reg.h **** {
 493:Generated_Source\PSoC6\pdl\drivers\peripheral\usbfs/cy_usbfs_dev_drv_reg.h ****     /* STALL endpoint */
 494:Generated_Source\PSoC6\pdl\drivers\peripheral\usbfs/cy_usbfs_dev_drv_reg.h ****     USBFS_DEV_SIE_EP_CR0(base, endpoint) = USBFS_USBDEV_SIE_EP1_CR0_STALL_Msk | 
 495:Generated_Source\PSoC6\pdl\drivers\peripheral\usbfs/cy_usbfs_dev_drv_reg.h ****                                             (inDirection ? CY_USBFS_DEV_DRV_EP_CR_ACK_IN : 
 496:Generated_Source\PSoC6\pdl\drivers\peripheral\usbfs/cy_usbfs_dev_drv_reg.h ****                                                            CY_USBFS_DEV_DRV_EP_CR_ACK_OUT);
 497:Generated_Source\PSoC6\pdl\drivers\peripheral\usbfs/cy_usbfs_dev_drv_reg.h ****     (void) USBFS_DEV_SIE_EP_CR0(base, endpoint);
 498:Generated_Source\PSoC6\pdl\drivers\peripheral\usbfs/cy_usbfs_dev_drv_reg.h **** }
 499:Generated_Source\PSoC6\pdl\drivers\peripheral\usbfs/cy_usbfs_dev_drv_reg.h **** 
 500:Generated_Source\PSoC6\pdl\drivers\peripheral\usbfs/cy_usbfs_dev_drv_reg.h **** 
 501:Generated_Source\PSoC6\pdl\drivers\peripheral\usbfs/cy_usbfs_dev_drv_reg.h **** /*******************************************************************************
 502:Generated_Source\PSoC6\pdl\drivers\peripheral\usbfs/cy_usbfs_dev_drv_reg.h **** * Function Name: Cy_USBFS_Dev_Drv_ClearSieEpStall
 503:Generated_Source\PSoC6\pdl\drivers\peripheral\usbfs/cy_usbfs_dev_drv_reg.h **** ****************************************************************************//**
 504:Generated_Source\PSoC6\pdl\drivers\peripheral\usbfs/cy_usbfs_dev_drv_reg.h **** *
 505:Generated_Source\PSoC6\pdl\drivers\peripheral\usbfs/cy_usbfs_dev_drv_reg.h **** * Writes SIE mode register of the data endpoint and clears other bits in this
 506:Generated_Source\PSoC6\pdl\drivers\peripheral\usbfs/cy_usbfs_dev_drv_reg.h **** * register.
 507:Generated_Source\PSoC6\pdl\drivers\peripheral\usbfs/cy_usbfs_dev_drv_reg.h **** *
 508:Generated_Source\PSoC6\pdl\drivers\peripheral\usbfs/cy_usbfs_dev_drv_reg.h **** * \param base
 509:Generated_Source\PSoC6\pdl\drivers\peripheral\usbfs/cy_usbfs_dev_drv_reg.h **** * The pointer to the USBFS instance.
 510:Generated_Source\PSoC6\pdl\drivers\peripheral\usbfs/cy_usbfs_dev_drv_reg.h **** *
 511:Generated_Source\PSoC6\pdl\drivers\peripheral\usbfs/cy_usbfs_dev_drv_reg.h **** * \param endpoint
 512:Generated_Source\PSoC6\pdl\drivers\peripheral\usbfs/cy_usbfs_dev_drv_reg.h **** * Physical endpoint number. 
 513:Generated_Source\PSoC6\pdl\drivers\peripheral\usbfs/cy_usbfs_dev_drv_reg.h **** * Valid range: 0 - ( \ref CY_USBFS_DEV_DRV_NUM_EPS_MAX - 1 ).
 514:Generated_Source\PSoC6\pdl\drivers\peripheral\usbfs/cy_usbfs_dev_drv_reg.h **** *
 515:Generated_Source\PSoC6\pdl\drivers\peripheral\usbfs/cy_usbfs_dev_drv_reg.h **** * \param mode
 516:Generated_Source\PSoC6\pdl\drivers\peripheral\usbfs/cy_usbfs_dev_drv_reg.h **** * SIE mode defines data endpoint response to host request.
 517:Generated_Source\PSoC6\pdl\drivers\peripheral\usbfs/cy_usbfs_dev_drv_reg.h **** * See \ref group_usbfs_dev_drv_reg_macros_sie_mode for the set of constants.
 518:Generated_Source\PSoC6\pdl\drivers\peripheral\usbfs/cy_usbfs_dev_drv_reg.h **** *
 519:Generated_Source\PSoC6\pdl\drivers\peripheral\usbfs/cy_usbfs_dev_drv_reg.h **** *******************************************************************************/
 520:Generated_Source\PSoC6\pdl\drivers\peripheral\usbfs/cy_usbfs_dev_drv_reg.h **** __STATIC_INLINE void Cy_USBFS_Dev_Drv_ClearSieEpStall(USBFS_Type *base, uint32_t endpoint, uint32_t
 521:Generated_Source\PSoC6\pdl\drivers\peripheral\usbfs/cy_usbfs_dev_drv_reg.h **** {
 522:Generated_Source\PSoC6\pdl\drivers\peripheral\usbfs/cy_usbfs_dev_drv_reg.h ****     /* Set mode bits */
 523:Generated_Source\PSoC6\pdl\drivers\peripheral\usbfs/cy_usbfs_dev_drv_reg.h ****     uint32_t regVal = _CLR_SET_FLD32U(USBFS_DEV_SIE_EP_CR0(base, endpoint),
 524:Generated_Source\PSoC6\pdl\drivers\peripheral\usbfs/cy_usbfs_dev_drv_reg.h ****                                       USBFS_USBDEV_SIE_EP1_CR0_MODE, mode);
 525:Generated_Source\PSoC6\pdl\drivers\peripheral\usbfs/cy_usbfs_dev_drv_reg.h **** 
 526:Generated_Source\PSoC6\pdl\drivers\peripheral\usbfs/cy_usbfs_dev_drv_reg.h ****     /* Clear STALL condition */
 527:Generated_Source\PSoC6\pdl\drivers\peripheral\usbfs/cy_usbfs_dev_drv_reg.h ****     regVal &= ~USBFS_USBDEV_SIE_EP1_CR0_STALL_Msk;
 528:Generated_Source\PSoC6\pdl\drivers\peripheral\usbfs/cy_usbfs_dev_drv_reg.h **** 
 529:Generated_Source\PSoC6\pdl\drivers\peripheral\usbfs/cy_usbfs_dev_drv_reg.h ****     /* Clear STALL condition and set mode */
 530:Generated_Source\PSoC6\pdl\drivers\peripheral\usbfs/cy_usbfs_dev_drv_reg.h ****     USBFS_DEV_SIE_EP_CR0(base, endpoint) = regVal;
 531:Generated_Source\PSoC6\pdl\drivers\peripheral\usbfs/cy_usbfs_dev_drv_reg.h ****     (void) USBFS_DEV_SIE_EP_CR0(base, endpoint);
 532:Generated_Source\PSoC6\pdl\drivers\peripheral\usbfs/cy_usbfs_dev_drv_reg.h **** }
ARM GAS  C:\Users\enes_\AppData\Local\Temp\ccUvgHSW.s 			page 27


 533:Generated_Source\PSoC6\pdl\drivers\peripheral\usbfs/cy_usbfs_dev_drv_reg.h **** 
 534:Generated_Source\PSoC6\pdl\drivers\peripheral\usbfs/cy_usbfs_dev_drv_reg.h **** 
 535:Generated_Source\PSoC6\pdl\drivers\peripheral\usbfs/cy_usbfs_dev_drv_reg.h **** /*******************************************************************************
 536:Generated_Source\PSoC6\pdl\drivers\peripheral\usbfs/cy_usbfs_dev_drv_reg.h **** * Function Name: Cy_USBFS_Dev_Drv_GetSieEpError
 537:Generated_Source\PSoC6\pdl\drivers\peripheral\usbfs/cy_usbfs_dev_drv_reg.h **** ****************************************************************************//**
 538:Generated_Source\PSoC6\pdl\drivers\peripheral\usbfs/cy_usbfs_dev_drv_reg.h **** *
 539:Generated_Source\PSoC6\pdl\drivers\peripheral\usbfs/cy_usbfs_dev_drv_reg.h **** * Returns value of data endpoint error in transaction bit.
 540:Generated_Source\PSoC6\pdl\drivers\peripheral\usbfs/cy_usbfs_dev_drv_reg.h **** *
 541:Generated_Source\PSoC6\pdl\drivers\peripheral\usbfs/cy_usbfs_dev_drv_reg.h **** * \param base
 542:Generated_Source\PSoC6\pdl\drivers\peripheral\usbfs/cy_usbfs_dev_drv_reg.h **** * The pointer to the USBFS instance.
 543:Generated_Source\PSoC6\pdl\drivers\peripheral\usbfs/cy_usbfs_dev_drv_reg.h **** *
 544:Generated_Source\PSoC6\pdl\drivers\peripheral\usbfs/cy_usbfs_dev_drv_reg.h **** * \param endpoint
 545:Generated_Source\PSoC6\pdl\drivers\peripheral\usbfs/cy_usbfs_dev_drv_reg.h **** * Physical endpoint number. 
 546:Generated_Source\PSoC6\pdl\drivers\peripheral\usbfs/cy_usbfs_dev_drv_reg.h **** * Valid range: 0 - ( \ref CY_USBFS_DEV_DRV_NUM_EPS_MAX - 1 ).
 547:Generated_Source\PSoC6\pdl\drivers\peripheral\usbfs/cy_usbfs_dev_drv_reg.h **** *
 548:Generated_Source\PSoC6\pdl\drivers\peripheral\usbfs/cy_usbfs_dev_drv_reg.h **** * \return
 549:Generated_Source\PSoC6\pdl\drivers\peripheral\usbfs/cy_usbfs_dev_drv_reg.h **** * Value of data endpoint error in transaction bit.
 550:Generated_Source\PSoC6\pdl\drivers\peripheral\usbfs/cy_usbfs_dev_drv_reg.h **** *
 551:Generated_Source\PSoC6\pdl\drivers\peripheral\usbfs/cy_usbfs_dev_drv_reg.h **** *******************************************************************************/
 552:Generated_Source\PSoC6\pdl\drivers\peripheral\usbfs/cy_usbfs_dev_drv_reg.h **** __STATIC_INLINE uint32_t Cy_USBFS_Dev_Drv_GetSieEpError(USBFS_Type const *base, uint32_t endpoint)
 553:Generated_Source\PSoC6\pdl\drivers\peripheral\usbfs/cy_usbfs_dev_drv_reg.h **** {
 554:Generated_Source\PSoC6\pdl\drivers\peripheral\usbfs/cy_usbfs_dev_drv_reg.h ****     return (USBFS_DEV_SIE_EP_CR0(base, endpoint) & USBFS_USBDEV_SIE_EP1_CR0_ERR_IN_TXN_Msk);
 555:Generated_Source\PSoC6\pdl\drivers\peripheral\usbfs/cy_usbfs_dev_drv_reg.h **** }
 556:Generated_Source\PSoC6\pdl\drivers\peripheral\usbfs/cy_usbfs_dev_drv_reg.h **** 
 557:Generated_Source\PSoC6\pdl\drivers\peripheral\usbfs/cy_usbfs_dev_drv_reg.h **** 
 558:Generated_Source\PSoC6\pdl\drivers\peripheral\usbfs/cy_usbfs_dev_drv_reg.h **** /*******************************************************************************
 559:Generated_Source\PSoC6\pdl\drivers\peripheral\usbfs/cy_usbfs_dev_drv_reg.h **** * Function Name: Cy_USBFS_Dev_Drv_GetSieEpToggle
 560:Generated_Source\PSoC6\pdl\drivers\peripheral\usbfs/cy_usbfs_dev_drv_reg.h **** ****************************************************************************//**
 561:Generated_Source\PSoC6\pdl\drivers\peripheral\usbfs/cy_usbfs_dev_drv_reg.h **** *
 562:Generated_Source\PSoC6\pdl\drivers\peripheral\usbfs/cy_usbfs_dev_drv_reg.h **** * Returns current value of data endpoint toggle bit.
 563:Generated_Source\PSoC6\pdl\drivers\peripheral\usbfs/cy_usbfs_dev_drv_reg.h **** *
 564:Generated_Source\PSoC6\pdl\drivers\peripheral\usbfs/cy_usbfs_dev_drv_reg.h **** * \param base
 565:Generated_Source\PSoC6\pdl\drivers\peripheral\usbfs/cy_usbfs_dev_drv_reg.h **** * The pointer to the USBFS instance.
 566:Generated_Source\PSoC6\pdl\drivers\peripheral\usbfs/cy_usbfs_dev_drv_reg.h **** *
 567:Generated_Source\PSoC6\pdl\drivers\peripheral\usbfs/cy_usbfs_dev_drv_reg.h **** * \param endpoint
 568:Generated_Source\PSoC6\pdl\drivers\peripheral\usbfs/cy_usbfs_dev_drv_reg.h **** * Physical endpoint number. 
 569:Generated_Source\PSoC6\pdl\drivers\peripheral\usbfs/cy_usbfs_dev_drv_reg.h **** * Valid range: 0 - ( \ref CY_USBFS_DEV_DRV_NUM_EPS_MAX - 1 ).
 570:Generated_Source\PSoC6\pdl\drivers\peripheral\usbfs/cy_usbfs_dev_drv_reg.h **** *
 571:Generated_Source\PSoC6\pdl\drivers\peripheral\usbfs/cy_usbfs_dev_drv_reg.h **** * \return
 572:Generated_Source\PSoC6\pdl\drivers\peripheral\usbfs/cy_usbfs_dev_drv_reg.h **** * Value of data endpoint toggle bit.
 573:Generated_Source\PSoC6\pdl\drivers\peripheral\usbfs/cy_usbfs_dev_drv_reg.h **** *
 574:Generated_Source\PSoC6\pdl\drivers\peripheral\usbfs/cy_usbfs_dev_drv_reg.h **** *******************************************************************************/
 575:Generated_Source\PSoC6\pdl\drivers\peripheral\usbfs/cy_usbfs_dev_drv_reg.h **** __STATIC_INLINE uint32_t Cy_USBFS_Dev_Drv_GetSieEpToggle(USBFS_Type const *base, uint32_t endpoint)
 576:Generated_Source\PSoC6\pdl\drivers\peripheral\usbfs/cy_usbfs_dev_drv_reg.h **** {
 577:Generated_Source\PSoC6\pdl\drivers\peripheral\usbfs/cy_usbfs_dev_drv_reg.h ****     /* Return data toggle bit */
 578:Generated_Source\PSoC6\pdl\drivers\peripheral\usbfs/cy_usbfs_dev_drv_reg.h ****     return (USBFS_DEV_SIE_EP_CNT0(base, endpoint) & USBFS_USBDEV_SIE_EP1_CNT0_DATA_TOGGLE_Msk);
 579:Generated_Source\PSoC6\pdl\drivers\peripheral\usbfs/cy_usbfs_dev_drv_reg.h **** }
 580:Generated_Source\PSoC6\pdl\drivers\peripheral\usbfs/cy_usbfs_dev_drv_reg.h **** 
 581:Generated_Source\PSoC6\pdl\drivers\peripheral\usbfs/cy_usbfs_dev_drv_reg.h **** 
 582:Generated_Source\PSoC6\pdl\drivers\peripheral\usbfs/cy_usbfs_dev_drv_reg.h **** /*******************************************************************************
 583:Generated_Source\PSoC6\pdl\drivers\peripheral\usbfs/cy_usbfs_dev_drv_reg.h **** * Function Name: Cy_USBFS_Dev_Drv_ClearSieEpToggle
 584:Generated_Source\PSoC6\pdl\drivers\peripheral\usbfs/cy_usbfs_dev_drv_reg.h **** ****************************************************************************//**
 585:Generated_Source\PSoC6\pdl\drivers\peripheral\usbfs/cy_usbfs_dev_drv_reg.h **** *
 586:Generated_Source\PSoC6\pdl\drivers\peripheral\usbfs/cy_usbfs_dev_drv_reg.h **** * Resets to zero data endpoint toggle bit.
 587:Generated_Source\PSoC6\pdl\drivers\peripheral\usbfs/cy_usbfs_dev_drv_reg.h **** *
 588:Generated_Source\PSoC6\pdl\drivers\peripheral\usbfs/cy_usbfs_dev_drv_reg.h **** * \param base
 589:Generated_Source\PSoC6\pdl\drivers\peripheral\usbfs/cy_usbfs_dev_drv_reg.h **** * The pointer to the USBFS instance.
ARM GAS  C:\Users\enes_\AppData\Local\Temp\ccUvgHSW.s 			page 28


 590:Generated_Source\PSoC6\pdl\drivers\peripheral\usbfs/cy_usbfs_dev_drv_reg.h **** *
 591:Generated_Source\PSoC6\pdl\drivers\peripheral\usbfs/cy_usbfs_dev_drv_reg.h **** * \param endpoint
 592:Generated_Source\PSoC6\pdl\drivers\peripheral\usbfs/cy_usbfs_dev_drv_reg.h **** * Physical endpoint number. 
 593:Generated_Source\PSoC6\pdl\drivers\peripheral\usbfs/cy_usbfs_dev_drv_reg.h **** * Valid range: 0 - ( \ref CY_USBFS_DEV_DRV_NUM_EPS_MAX - 1 ).
 594:Generated_Source\PSoC6\pdl\drivers\peripheral\usbfs/cy_usbfs_dev_drv_reg.h **** *
 595:Generated_Source\PSoC6\pdl\drivers\peripheral\usbfs/cy_usbfs_dev_drv_reg.h **** * \return
 596:Generated_Source\PSoC6\pdl\drivers\peripheral\usbfs/cy_usbfs_dev_drv_reg.h **** * Number of bytes written by the host into the endpoint.
 597:Generated_Source\PSoC6\pdl\drivers\peripheral\usbfs/cy_usbfs_dev_drv_reg.h **** *
 598:Generated_Source\PSoC6\pdl\drivers\peripheral\usbfs/cy_usbfs_dev_drv_reg.h **** *******************************************************************************/
 599:Generated_Source\PSoC6\pdl\drivers\peripheral\usbfs/cy_usbfs_dev_drv_reg.h **** __STATIC_INLINE void Cy_USBFS_Dev_Drv_ClearSieEpToggle(USBFS_Type *base, uint32_t endpoint)
 600:Generated_Source\PSoC6\pdl\drivers\peripheral\usbfs/cy_usbfs_dev_drv_reg.h **** {
 601:Generated_Source\PSoC6\pdl\drivers\peripheral\usbfs/cy_usbfs_dev_drv_reg.h ****     /* Clear data toggle bit */
 602:Generated_Source\PSoC6\pdl\drivers\peripheral\usbfs/cy_usbfs_dev_drv_reg.h ****     USBFS_DEV_SIE_EP_CNT0(base, endpoint) &= ~USBFS_USBDEV_SIE_EP1_CNT0_DATA_TOGGLE_Msk;
 603:Generated_Source\PSoC6\pdl\drivers\peripheral\usbfs/cy_usbfs_dev_drv_reg.h **** }
 604:Generated_Source\PSoC6\pdl\drivers\peripheral\usbfs/cy_usbfs_dev_drv_reg.h **** 
 605:Generated_Source\PSoC6\pdl\drivers\peripheral\usbfs/cy_usbfs_dev_drv_reg.h **** 
 606:Generated_Source\PSoC6\pdl\drivers\peripheral\usbfs/cy_usbfs_dev_drv_reg.h **** /*******************************************************************************
 607:Generated_Source\PSoC6\pdl\drivers\peripheral\usbfs/cy_usbfs_dev_drv_reg.h **** * Function Name: Cy_USBFS_Dev_Drv_GetSieEpCount
 608:Generated_Source\PSoC6\pdl\drivers\peripheral\usbfs/cy_usbfs_dev_drv_reg.h **** ****************************************************************************//**
 609:Generated_Source\PSoC6\pdl\drivers\peripheral\usbfs/cy_usbfs_dev_drv_reg.h **** *
 610:Generated_Source\PSoC6\pdl\drivers\peripheral\usbfs/cy_usbfs_dev_drv_reg.h **** * Returns the number of data bytes written into the OUT data endpoint
 611:Generated_Source\PSoC6\pdl\drivers\peripheral\usbfs/cy_usbfs_dev_drv_reg.h **** * by the host.
 612:Generated_Source\PSoC6\pdl\drivers\peripheral\usbfs/cy_usbfs_dev_drv_reg.h **** *
 613:Generated_Source\PSoC6\pdl\drivers\peripheral\usbfs/cy_usbfs_dev_drv_reg.h **** * \param base
 614:Generated_Source\PSoC6\pdl\drivers\peripheral\usbfs/cy_usbfs_dev_drv_reg.h **** * The pointer to the USBFS instance.
 615:Generated_Source\PSoC6\pdl\drivers\peripheral\usbfs/cy_usbfs_dev_drv_reg.h **** *
 616:Generated_Source\PSoC6\pdl\drivers\peripheral\usbfs/cy_usbfs_dev_drv_reg.h **** * \param endpoint
 617:Generated_Source\PSoC6\pdl\drivers\peripheral\usbfs/cy_usbfs_dev_drv_reg.h **** * Physical endpoint number. 
 618:Generated_Source\PSoC6\pdl\drivers\peripheral\usbfs/cy_usbfs_dev_drv_reg.h **** * Valid range: 0 - ( \ref CY_USBFS_DEV_DRV_NUM_EPS_MAX - 1 ).
 619:Generated_Source\PSoC6\pdl\drivers\peripheral\usbfs/cy_usbfs_dev_drv_reg.h **** *
 620:Generated_Source\PSoC6\pdl\drivers\peripheral\usbfs/cy_usbfs_dev_drv_reg.h **** * \return
 621:Generated_Source\PSoC6\pdl\drivers\peripheral\usbfs/cy_usbfs_dev_drv_reg.h **** * Number of bytes written by the host into the endpoint.
 622:Generated_Source\PSoC6\pdl\drivers\peripheral\usbfs/cy_usbfs_dev_drv_reg.h **** *
 623:Generated_Source\PSoC6\pdl\drivers\peripheral\usbfs/cy_usbfs_dev_drv_reg.h **** *******************************************************************************/
 624:Generated_Source\PSoC6\pdl\drivers\peripheral\usbfs/cy_usbfs_dev_drv_reg.h **** __STATIC_INLINE uint32_t Cy_USBFS_Dev_Drv_GetSieEpCount(USBFS_Type const *base, uint32_t endpoint)
 625:Generated_Source\PSoC6\pdl\drivers\peripheral\usbfs/cy_usbfs_dev_drv_reg.h **** {
 626:Generated_Source\PSoC6\pdl\drivers\peripheral\usbfs/cy_usbfs_dev_drv_reg.h ****     uint32_t size;
 627:Generated_Source\PSoC6\pdl\drivers\peripheral\usbfs/cy_usbfs_dev_drv_reg.h **** 
 628:Generated_Source\PSoC6\pdl\drivers\peripheral\usbfs/cy_usbfs_dev_drv_reg.h ****     /* Get number of bytes transmitted or received by SIE */
 629:Generated_Source\PSoC6\pdl\drivers\peripheral\usbfs/cy_usbfs_dev_drv_reg.h ****     size = _FLD2VAL(USBFS_USBDEV_SIE_EP1_CNT0_DATA_COUNT_MSB, USBFS_DEV_SIE_EP_CNT0(base, endpoint)
 630:Generated_Source\PSoC6\pdl\drivers\peripheral\usbfs/cy_usbfs_dev_drv_reg.h ****     size = (size << 8U) | CY_USBFS_DEV_READ_ODD(USBFS_DEV_SIE_EP_CNT1(base, endpoint));
 631:Generated_Source\PSoC6\pdl\drivers\peripheral\usbfs/cy_usbfs_dev_drv_reg.h **** 
 632:Generated_Source\PSoC6\pdl\drivers\peripheral\usbfs/cy_usbfs_dev_drv_reg.h ****     /* Exclude CRC size */
 633:Generated_Source\PSoC6\pdl\drivers\peripheral\usbfs/cy_usbfs_dev_drv_reg.h ****     return (size - CY_USBFS_DEV_DRV_EP_CRC_SIZE);
 634:Generated_Source\PSoC6\pdl\drivers\peripheral\usbfs/cy_usbfs_dev_drv_reg.h **** }
 635:Generated_Source\PSoC6\pdl\drivers\peripheral\usbfs/cy_usbfs_dev_drv_reg.h **** 
 636:Generated_Source\PSoC6\pdl\drivers\peripheral\usbfs/cy_usbfs_dev_drv_reg.h **** 
 637:Generated_Source\PSoC6\pdl\drivers\peripheral\usbfs/cy_usbfs_dev_drv_reg.h **** /*******************************************************************************
 638:Generated_Source\PSoC6\pdl\drivers\peripheral\usbfs/cy_usbfs_dev_drv_reg.h **** * Function Name: Cy_USBFS_Dev_Drv_SetSieEpCount
 639:Generated_Source\PSoC6\pdl\drivers\peripheral\usbfs/cy_usbfs_dev_drv_reg.h **** ****************************************************************************//**
 640:Generated_Source\PSoC6\pdl\drivers\peripheral\usbfs/cy_usbfs_dev_drv_reg.h **** *
 641:Generated_Source\PSoC6\pdl\drivers\peripheral\usbfs/cy_usbfs_dev_drv_reg.h **** * Configures number of bytes and toggle bit to return on the Host read request
 642:Generated_Source\PSoC6\pdl\drivers\peripheral\usbfs/cy_usbfs_dev_drv_reg.h **** * to the IN data endpoint.
 643:Generated_Source\PSoC6\pdl\drivers\peripheral\usbfs/cy_usbfs_dev_drv_reg.h **** *
 644:Generated_Source\PSoC6\pdl\drivers\peripheral\usbfs/cy_usbfs_dev_drv_reg.h **** * \param base
 645:Generated_Source\PSoC6\pdl\drivers\peripheral\usbfs/cy_usbfs_dev_drv_reg.h **** * The pointer to the USBFS instance.
 646:Generated_Source\PSoC6\pdl\drivers\peripheral\usbfs/cy_usbfs_dev_drv_reg.h **** *
ARM GAS  C:\Users\enes_\AppData\Local\Temp\ccUvgHSW.s 			page 29


 647:Generated_Source\PSoC6\pdl\drivers\peripheral\usbfs/cy_usbfs_dev_drv_reg.h **** * \param endpoint
 648:Generated_Source\PSoC6\pdl\drivers\peripheral\usbfs/cy_usbfs_dev_drv_reg.h **** * Physical endpoint number. 
 649:Generated_Source\PSoC6\pdl\drivers\peripheral\usbfs/cy_usbfs_dev_drv_reg.h **** * Valid range: 0 - ( \ref CY_USBFS_DEV_DRV_NUM_EPS_MAX - 1 ).
 650:Generated_Source\PSoC6\pdl\drivers\peripheral\usbfs/cy_usbfs_dev_drv_reg.h **** *
 651:Generated_Source\PSoC6\pdl\drivers\peripheral\usbfs/cy_usbfs_dev_drv_reg.h **** * \param count
 652:Generated_Source\PSoC6\pdl\drivers\peripheral\usbfs/cy_usbfs_dev_drv_reg.h **** * The number of bytes to return on the Host read request.
 653:Generated_Source\PSoC6\pdl\drivers\peripheral\usbfs/cy_usbfs_dev_drv_reg.h **** *
 654:Generated_Source\PSoC6\pdl\drivers\peripheral\usbfs/cy_usbfs_dev_drv_reg.h **** * \param toggle
 655:Generated_Source\PSoC6\pdl\drivers\peripheral\usbfs/cy_usbfs_dev_drv_reg.h **** * The data toggle bit.
 656:Generated_Source\PSoC6\pdl\drivers\peripheral\usbfs/cy_usbfs_dev_drv_reg.h **** * The range of valid values: 0 and \ref USBFS_USBDEV_SIE_EP_DATA_TOGGLE_Msk.
 657:Generated_Source\PSoC6\pdl\drivers\peripheral\usbfs/cy_usbfs_dev_drv_reg.h **** *
 658:Generated_Source\PSoC6\pdl\drivers\peripheral\usbfs/cy_usbfs_dev_drv_reg.h **** *******************************************************************************/
 659:Generated_Source\PSoC6\pdl\drivers\peripheral\usbfs/cy_usbfs_dev_drv_reg.h **** __STATIC_INLINE void Cy_USBFS_Dev_Drv_SetSieEpCount(USBFS_Type *base, uint32_t endpoint,
 660:Generated_Source\PSoC6\pdl\drivers\peripheral\usbfs/cy_usbfs_dev_drv_reg.h ****                                                     uint32_t count, uint32_t toggle)
 661:Generated_Source\PSoC6\pdl\drivers\peripheral\usbfs/cy_usbfs_dev_drv_reg.h **** {
 662:Generated_Source\PSoC6\pdl\drivers\peripheral\usbfs/cy_usbfs_dev_drv_reg.h ****     USBFS_DEV_SIE_EP_CNT1(base, endpoint) = (uint32_t) CY_USBFS_DEV_DRV_WRITE_ODD(CY_LO8(count));
 663:Generated_Source\PSoC6\pdl\drivers\peripheral\usbfs/cy_usbfs_dev_drv_reg.h ****     USBFS_DEV_SIE_EP_CNT0(base, endpoint) = (uint32_t) CY_HI8(count) | toggle;
 664:Generated_Source\PSoC6\pdl\drivers\peripheral\usbfs/cy_usbfs_dev_drv_reg.h **** }
 665:Generated_Source\PSoC6\pdl\drivers\peripheral\usbfs/cy_usbfs_dev_drv_reg.h **** 
 666:Generated_Source\PSoC6\pdl\drivers\peripheral\usbfs/cy_usbfs_dev_drv_reg.h **** 
 667:Generated_Source\PSoC6\pdl\drivers\peripheral\usbfs/cy_usbfs_dev_drv_reg.h **** /*******************************************************************************
 668:Generated_Source\PSoC6\pdl\drivers\peripheral\usbfs/cy_usbfs_dev_drv_reg.h **** * Function Name: Cy_USBFS_Dev_Drv_GetSieAllEpsInterruptStatus
 669:Generated_Source\PSoC6\pdl\drivers\peripheral\usbfs/cy_usbfs_dev_drv_reg.h **** ****************************************************************************//**
 670:Generated_Source\PSoC6\pdl\drivers\peripheral\usbfs/cy_usbfs_dev_drv_reg.h **** *
 671:Generated_Source\PSoC6\pdl\drivers\peripheral\usbfs/cy_usbfs_dev_drv_reg.h **** * Returns the SIE data endpoints interrupt request register.
 672:Generated_Source\PSoC6\pdl\drivers\peripheral\usbfs/cy_usbfs_dev_drv_reg.h **** * This register contains the current status of the SIE data endpoints transfer
 673:Generated_Source\PSoC6\pdl\drivers\peripheral\usbfs/cy_usbfs_dev_drv_reg.h **** * completion interrupt.
 674:Generated_Source\PSoC6\pdl\drivers\peripheral\usbfs/cy_usbfs_dev_drv_reg.h **** *
 675:Generated_Source\PSoC6\pdl\drivers\peripheral\usbfs/cy_usbfs_dev_drv_reg.h **** * \param base
 676:Generated_Source\PSoC6\pdl\drivers\peripheral\usbfs/cy_usbfs_dev_drv_reg.h **** * The pointer to the USBFS instance.
 677:Generated_Source\PSoC6\pdl\drivers\peripheral\usbfs/cy_usbfs_dev_drv_reg.h **** *
 678:Generated_Source\PSoC6\pdl\drivers\peripheral\usbfs/cy_usbfs_dev_drv_reg.h **** * \return
 679:Generated_Source\PSoC6\pdl\drivers\peripheral\usbfs/cy_usbfs_dev_drv_reg.h **** * The current status of the SIE interrupt sources.
 680:Generated_Source\PSoC6\pdl\drivers\peripheral\usbfs/cy_usbfs_dev_drv_reg.h **** * The returned status specifies for which endpoint interrupt is active as
 681:Generated_Source\PSoC6\pdl\drivers\peripheral\usbfs/cy_usbfs_dev_drv_reg.h **** * follows: bit 0 corresponds to data endpoint 1, bit 1 data endpoint 2 and so
 682:Generated_Source\PSoC6\pdl\drivers\peripheral\usbfs/cy_usbfs_dev_drv_reg.h **** * on up to \ref CY_USBFS_DEV_DRV_NUM_EPS_MAX.
 683:Generated_Source\PSoC6\pdl\drivers\peripheral\usbfs/cy_usbfs_dev_drv_reg.h **** *
 684:Generated_Source\PSoC6\pdl\drivers\peripheral\usbfs/cy_usbfs_dev_drv_reg.h **** *******************************************************************************/
 685:Generated_Source\PSoC6\pdl\drivers\peripheral\usbfs/cy_usbfs_dev_drv_reg.h **** __STATIC_INLINE uint32_t Cy_USBFS_Dev_Drv_GetSieAllEpsInterruptStatus(USBFS_Type const *base)
 686:Generated_Source\PSoC6\pdl\drivers\peripheral\usbfs/cy_usbfs_dev_drv_reg.h **** {
 687:Generated_Source\PSoC6\pdl\drivers\peripheral\usbfs/cy_usbfs_dev_drv_reg.h ****     return USBFS_DEV_SIE_EP_INT_SR(base);
 688:Generated_Source\PSoC6\pdl\drivers\peripheral\usbfs/cy_usbfs_dev_drv_reg.h **** }
 689:Generated_Source\PSoC6\pdl\drivers\peripheral\usbfs/cy_usbfs_dev_drv_reg.h **** 
 690:Generated_Source\PSoC6\pdl\drivers\peripheral\usbfs/cy_usbfs_dev_drv_reg.h **** 
 691:Generated_Source\PSoC6\pdl\drivers\peripheral\usbfs/cy_usbfs_dev_drv_reg.h **** /*******************************************************************************
 692:Generated_Source\PSoC6\pdl\drivers\peripheral\usbfs/cy_usbfs_dev_drv_reg.h **** * Function Name: Cy_USBFS_Dev_Drv_EnableSieEpInterrupt
 693:Generated_Source\PSoC6\pdl\drivers\peripheral\usbfs/cy_usbfs_dev_drv_reg.h **** ****************************************************************************//**
 694:Generated_Source\PSoC6\pdl\drivers\peripheral\usbfs/cy_usbfs_dev_drv_reg.h **** *
 695:Generated_Source\PSoC6\pdl\drivers\peripheral\usbfs/cy_usbfs_dev_drv_reg.h **** * Enables SIE data endpoint transfer completion interrupt.
 696:Generated_Source\PSoC6\pdl\drivers\peripheral\usbfs/cy_usbfs_dev_drv_reg.h **** *
 697:Generated_Source\PSoC6\pdl\drivers\peripheral\usbfs/cy_usbfs_dev_drv_reg.h **** * \param base
 698:Generated_Source\PSoC6\pdl\drivers\peripheral\usbfs/cy_usbfs_dev_drv_reg.h **** * The pointer to the USBFS instance.
 699:Generated_Source\PSoC6\pdl\drivers\peripheral\usbfs/cy_usbfs_dev_drv_reg.h **** *
 700:Generated_Source\PSoC6\pdl\drivers\peripheral\usbfs/cy_usbfs_dev_drv_reg.h **** * \param endpoint
 701:Generated_Source\PSoC6\pdl\drivers\peripheral\usbfs/cy_usbfs_dev_drv_reg.h **** * Physical endpoint number. 
 702:Generated_Source\PSoC6\pdl\drivers\peripheral\usbfs/cy_usbfs_dev_drv_reg.h **** * Valid range: 0 - ( \ref CY_USBFS_DEV_DRV_NUM_EPS_MAX - 1 ).
 703:Generated_Source\PSoC6\pdl\drivers\peripheral\usbfs/cy_usbfs_dev_drv_reg.h **** *
ARM GAS  C:\Users\enes_\AppData\Local\Temp\ccUvgHSW.s 			page 30


 704:Generated_Source\PSoC6\pdl\drivers\peripheral\usbfs/cy_usbfs_dev_drv_reg.h **** *******************************************************************************/
 705:Generated_Source\PSoC6\pdl\drivers\peripheral\usbfs/cy_usbfs_dev_drv_reg.h **** __STATIC_INLINE void Cy_USBFS_Dev_Drv_EnableSieEpInterrupt(USBFS_Type *base, uint32_t endpoint)
 706:Generated_Source\PSoC6\pdl\drivers\peripheral\usbfs/cy_usbfs_dev_drv_reg.h **** {
 707:Generated_Source\PSoC6\pdl\drivers\peripheral\usbfs/cy_usbfs_dev_drv_reg.h ****     USBFS_DEV_SIE_EP_INT_EN(base) |= (uint32_t)(1UL << endpoint);
 708:Generated_Source\PSoC6\pdl\drivers\peripheral\usbfs/cy_usbfs_dev_drv_reg.h **** }
 709:Generated_Source\PSoC6\pdl\drivers\peripheral\usbfs/cy_usbfs_dev_drv_reg.h **** 
 710:Generated_Source\PSoC6\pdl\drivers\peripheral\usbfs/cy_usbfs_dev_drv_reg.h **** 
 711:Generated_Source\PSoC6\pdl\drivers\peripheral\usbfs/cy_usbfs_dev_drv_reg.h **** /*******************************************************************************
 712:Generated_Source\PSoC6\pdl\drivers\peripheral\usbfs/cy_usbfs_dev_drv_reg.h **** * Function Name: Cy_USBFS_Dev_Drv_DisableSieEpInterrupt
 713:Generated_Source\PSoC6\pdl\drivers\peripheral\usbfs/cy_usbfs_dev_drv_reg.h **** ****************************************************************************//**
 714:Generated_Source\PSoC6\pdl\drivers\peripheral\usbfs/cy_usbfs_dev_drv_reg.h **** *
 715:Generated_Source\PSoC6\pdl\drivers\peripheral\usbfs/cy_usbfs_dev_drv_reg.h **** * Disables SIE data endpoint transfer completion interrupt.
 716:Generated_Source\PSoC6\pdl\drivers\peripheral\usbfs/cy_usbfs_dev_drv_reg.h **** *
 717:Generated_Source\PSoC6\pdl\drivers\peripheral\usbfs/cy_usbfs_dev_drv_reg.h **** * \param base
 718:Generated_Source\PSoC6\pdl\drivers\peripheral\usbfs/cy_usbfs_dev_drv_reg.h **** * The pointer to the USBFS instance.
 719:Generated_Source\PSoC6\pdl\drivers\peripheral\usbfs/cy_usbfs_dev_drv_reg.h **** *
 720:Generated_Source\PSoC6\pdl\drivers\peripheral\usbfs/cy_usbfs_dev_drv_reg.h **** * \param endpoint
 721:Generated_Source\PSoC6\pdl\drivers\peripheral\usbfs/cy_usbfs_dev_drv_reg.h **** * Physical endpoint number. 
 722:Generated_Source\PSoC6\pdl\drivers\peripheral\usbfs/cy_usbfs_dev_drv_reg.h **** * Valid range: 0 - ( \ref CY_USBFS_DEV_DRV_NUM_EPS_MAX - 1 ).
 723:Generated_Source\PSoC6\pdl\drivers\peripheral\usbfs/cy_usbfs_dev_drv_reg.h **** *
 724:Generated_Source\PSoC6\pdl\drivers\peripheral\usbfs/cy_usbfs_dev_drv_reg.h **** *******************************************************************************/
 725:Generated_Source\PSoC6\pdl\drivers\peripheral\usbfs/cy_usbfs_dev_drv_reg.h **** __STATIC_INLINE void Cy_USBFS_Dev_Drv_DisableSieEpInterrupt(USBFS_Type *base, uint32_t endpoint)
 726:Generated_Source\PSoC6\pdl\drivers\peripheral\usbfs/cy_usbfs_dev_drv_reg.h **** {
 727:Generated_Source\PSoC6\pdl\drivers\peripheral\usbfs/cy_usbfs_dev_drv_reg.h ****     USBFS_DEV_SIE_EP_INT_EN(base) &= ~ (uint32_t)(1UL << endpoint);
 728:Generated_Source\PSoC6\pdl\drivers\peripheral\usbfs/cy_usbfs_dev_drv_reg.h **** }
 729:Generated_Source\PSoC6\pdl\drivers\peripheral\usbfs/cy_usbfs_dev_drv_reg.h **** 
 730:Generated_Source\PSoC6\pdl\drivers\peripheral\usbfs/cy_usbfs_dev_drv_reg.h **** 
 731:Generated_Source\PSoC6\pdl\drivers\peripheral\usbfs/cy_usbfs_dev_drv_reg.h **** /*******************************************************************************
 732:Generated_Source\PSoC6\pdl\drivers\peripheral\usbfs/cy_usbfs_dev_drv_reg.h **** * Function Name: Cy_USBFS_Dev_Drv_ClearSieEpInterrupt
 733:Generated_Source\PSoC6\pdl\drivers\peripheral\usbfs/cy_usbfs_dev_drv_reg.h **** ****************************************************************************//**
 734:Generated_Source\PSoC6\pdl\drivers\peripheral\usbfs/cy_usbfs_dev_drv_reg.h **** *
 735:Generated_Source\PSoC6\pdl\drivers\peripheral\usbfs/cy_usbfs_dev_drv_reg.h **** * Clears the SIE EP interrupt sources in the interrupt request register.
 736:Generated_Source\PSoC6\pdl\drivers\peripheral\usbfs/cy_usbfs_dev_drv_reg.h **** *
 737:Generated_Source\PSoC6\pdl\drivers\peripheral\usbfs/cy_usbfs_dev_drv_reg.h **** * \param base
 738:Generated_Source\PSoC6\pdl\drivers\peripheral\usbfs/cy_usbfs_dev_drv_reg.h **** * The pointer to the USBFS instance.
 739:Generated_Source\PSoC6\pdl\drivers\peripheral\usbfs/cy_usbfs_dev_drv_reg.h **** *
 740:Generated_Source\PSoC6\pdl\drivers\peripheral\usbfs/cy_usbfs_dev_drv_reg.h **** * \param endpoint
 741:Generated_Source\PSoC6\pdl\drivers\peripheral\usbfs/cy_usbfs_dev_drv_reg.h **** * Physical endpoint number. 
 742:Generated_Source\PSoC6\pdl\drivers\peripheral\usbfs/cy_usbfs_dev_drv_reg.h **** * Valid range: 0 - ( \ref CY_USBFS_DEV_DRV_NUM_EPS_MAX - 1 ).
 743:Generated_Source\PSoC6\pdl\drivers\peripheral\usbfs/cy_usbfs_dev_drv_reg.h **** *
 744:Generated_Source\PSoC6\pdl\drivers\peripheral\usbfs/cy_usbfs_dev_drv_reg.h **** *******************************************************************************/
 745:Generated_Source\PSoC6\pdl\drivers\peripheral\usbfs/cy_usbfs_dev_drv_reg.h **** __STATIC_INLINE void Cy_USBFS_Dev_Drv_ClearSieEpInterrupt(USBFS_Type *base, uint32_t endpoint)
 746:Generated_Source\PSoC6\pdl\drivers\peripheral\usbfs/cy_usbfs_dev_drv_reg.h **** {
 747:Generated_Source\PSoC6\pdl\drivers\peripheral\usbfs/cy_usbfs_dev_drv_reg.h ****     USBFS_DEV_SIE_EP_INT_SR(base) = (uint32_t)(1UL << endpoint);
 283              		.loc 2 747 0
 284 0002 0123     		movs	r3, #1
 285 0004 8B40     		lsls	r3, r3, r1
 286 0006 C362     		str	r3, [r0, #44]
 748:Generated_Source\PSoC6\pdl\drivers\peripheral\usbfs/cy_usbfs_dev_drv_reg.h ****     (void)  USBFS_DEV_SIE_EP_INT_SR(base);
 287              		.loc 2 748 0
 288 0008 C36A     		ldr	r3, [r0, #44]
 289              	.LVL30:
 290              	.LBE35:
 291              	.LBE34:
 292              	.LBB36:
 293              	.LBB37:
 629:Generated_Source\PSoC6\pdl\drivers\peripheral\usbfs/cy_usbfs_dev_drv_reg.h ****     size = (size << 8U) | CY_USBFS_DEV_READ_ODD(USBFS_DEV_SIE_EP_CNT1(base, endpoint));
ARM GAS  C:\Users\enes_\AppData\Local\Temp\ccUvgHSW.s 			page 31


 294              		.loc 2 629 0
 295 000a 8D01     		lsls	r5, r1, #6
 296 000c 2D18     		adds	r5, r5, r0
 297 000e 2B6B     		ldr	r3, [r5, #48]
 298              	.LVL31:
 630:Generated_Source\PSoC6\pdl\drivers\peripheral\usbfs/cy_usbfs_dev_drv_reg.h **** 
 299              		.loc 2 630 0
 300 0010 1B02     		lsls	r3, r3, #8
 301              	.LVL32:
 302 0012 E024     		movs	r4, #224
 303 0014 E400     		lsls	r4, r4, #3
 304 0016 2340     		ands	r3, r4
 305 0018 6E6B     		ldr	r6, [r5, #52]
 306 001a 6C6B     		ldr	r4, [r5, #52]
 307 001c 240A     		lsrs	r4, r4, #8
 308 001e 3443     		orrs	r4, r6
 309 0020 E4B2     		uxtb	r4, r4
 310 0022 2343     		orrs	r3, r4
 311              	.LVL33:
 633:Generated_Source\PSoC6\pdl\drivers\peripheral\usbfs/cy_usbfs_dev_drv_reg.h **** }
 312              		.loc 2 633 0
 313 0024 023B     		subs	r3, r3, #2
 314              	.LVL34:
 315              	.LBE37:
 316              	.LBE36:
 317              	.LBB38:
 318              	.LBB39:
 749:Generated_Source\PSoC6\pdl\drivers\peripheral\usbfs/cy_usbfs_dev_drv_reg.h **** }
 750:Generated_Source\PSoC6\pdl\drivers\peripheral\usbfs/cy_usbfs_dev_drv_reg.h **** /** \} group_usbfs_drv_drv_reg_sie_access */
 751:Generated_Source\PSoC6\pdl\drivers\peripheral\usbfs/cy_usbfs_dev_drv_reg.h **** 
 752:Generated_Source\PSoC6\pdl\drivers\peripheral\usbfs/cy_usbfs_dev_drv_reg.h **** 
 753:Generated_Source\PSoC6\pdl\drivers\peripheral\usbfs/cy_usbfs_dev_drv_reg.h **** /**
 754:Generated_Source\PSoC6\pdl\drivers\peripheral\usbfs/cy_usbfs_dev_drv_reg.h **** * \addtogroup group_usbfs_drv_drv_reg_arbiter
 755:Generated_Source\PSoC6\pdl\drivers\peripheral\usbfs/cy_usbfs_dev_drv_reg.h **** * \{
 756:Generated_Source\PSoC6\pdl\drivers\peripheral\usbfs/cy_usbfs_dev_drv_reg.h **** */
 757:Generated_Source\PSoC6\pdl\drivers\peripheral\usbfs/cy_usbfs_dev_drv_reg.h **** 
 758:Generated_Source\PSoC6\pdl\drivers\peripheral\usbfs/cy_usbfs_dev_drv_reg.h **** /*******************************************************************************
 759:Generated_Source\PSoC6\pdl\drivers\peripheral\usbfs/cy_usbfs_dev_drv_reg.h **** * Function Name: Cy_USBFS_Dev_Drv_GetArbAllEpsInterruptStatus
 760:Generated_Source\PSoC6\pdl\drivers\peripheral\usbfs/cy_usbfs_dev_drv_reg.h **** ****************************************************************************//**
 761:Generated_Source\PSoC6\pdl\drivers\peripheral\usbfs/cy_usbfs_dev_drv_reg.h **** *
 762:Generated_Source\PSoC6\pdl\drivers\peripheral\usbfs/cy_usbfs_dev_drv_reg.h **** * Returns the arbiter interrupt request register.
 763:Generated_Source\PSoC6\pdl\drivers\peripheral\usbfs/cy_usbfs_dev_drv_reg.h **** * This register contains the current status of the data endpoints arbiter
 764:Generated_Source\PSoC6\pdl\drivers\peripheral\usbfs/cy_usbfs_dev_drv_reg.h **** * interrupt.
 765:Generated_Source\PSoC6\pdl\drivers\peripheral\usbfs/cy_usbfs_dev_drv_reg.h **** *
 766:Generated_Source\PSoC6\pdl\drivers\peripheral\usbfs/cy_usbfs_dev_drv_reg.h **** * \param base
 767:Generated_Source\PSoC6\pdl\drivers\peripheral\usbfs/cy_usbfs_dev_drv_reg.h **** * The pointer to the USBFS instance.
 768:Generated_Source\PSoC6\pdl\drivers\peripheral\usbfs/cy_usbfs_dev_drv_reg.h **** *
 769:Generated_Source\PSoC6\pdl\drivers\peripheral\usbfs/cy_usbfs_dev_drv_reg.h **** * \return
 770:Generated_Source\PSoC6\pdl\drivers\peripheral\usbfs/cy_usbfs_dev_drv_reg.h **** * The current status of the SIE interrupt sources.
 771:Generated_Source\PSoC6\pdl\drivers\peripheral\usbfs/cy_usbfs_dev_drv_reg.h **** * The returned status specifies for which endpoint interrupt is active as
 772:Generated_Source\PSoC6\pdl\drivers\peripheral\usbfs/cy_usbfs_dev_drv_reg.h **** * follows: bit 0 corresponds to data endpoint 1, bit 1 data endpoint 2, and so
 773:Generated_Source\PSoC6\pdl\drivers\peripheral\usbfs/cy_usbfs_dev_drv_reg.h **** * on up to \ref CY_USBFS_DEV_DRV_NUM_EPS_MAX.
 774:Generated_Source\PSoC6\pdl\drivers\peripheral\usbfs/cy_usbfs_dev_drv_reg.h **** *
 775:Generated_Source\PSoC6\pdl\drivers\peripheral\usbfs/cy_usbfs_dev_drv_reg.h **** *******************************************************************************/
 776:Generated_Source\PSoC6\pdl\drivers\peripheral\usbfs/cy_usbfs_dev_drv_reg.h **** __STATIC_INLINE uint32_t Cy_USBFS_Dev_Drv_GetArbAllEpsInterruptStatus(USBFS_Type const *base)
 777:Generated_Source\PSoC6\pdl\drivers\peripheral\usbfs/cy_usbfs_dev_drv_reg.h **** {
 778:Generated_Source\PSoC6\pdl\drivers\peripheral\usbfs/cy_usbfs_dev_drv_reg.h ****     return CY_USBFS_DEV_READ_ODD(USBFS_DEV_ARB_INT_SR(base));
ARM GAS  C:\Users\enes_\AppData\Local\Temp\ccUvgHSW.s 			page 32


 779:Generated_Source\PSoC6\pdl\drivers\peripheral\usbfs/cy_usbfs_dev_drv_reg.h **** }
 780:Generated_Source\PSoC6\pdl\drivers\peripheral\usbfs/cy_usbfs_dev_drv_reg.h **** 
 781:Generated_Source\PSoC6\pdl\drivers\peripheral\usbfs/cy_usbfs_dev_drv_reg.h **** 
 782:Generated_Source\PSoC6\pdl\drivers\peripheral\usbfs/cy_usbfs_dev_drv_reg.h **** /*******************************************************************************
 783:Generated_Source\PSoC6\pdl\drivers\peripheral\usbfs/cy_usbfs_dev_drv_reg.h **** * Function Name: Cy_USBFS_Dev_Drv_EnableArbEpInterrupt
 784:Generated_Source\PSoC6\pdl\drivers\peripheral\usbfs/cy_usbfs_dev_drv_reg.h **** ****************************************************************************//**
 785:Generated_Source\PSoC6\pdl\drivers\peripheral\usbfs/cy_usbfs_dev_drv_reg.h **** *
 786:Generated_Source\PSoC6\pdl\drivers\peripheral\usbfs/cy_usbfs_dev_drv_reg.h **** * Enables the arbiter interrupt for the specified data endpoint.
 787:Generated_Source\PSoC6\pdl\drivers\peripheral\usbfs/cy_usbfs_dev_drv_reg.h **** *
 788:Generated_Source\PSoC6\pdl\drivers\peripheral\usbfs/cy_usbfs_dev_drv_reg.h **** * \param base
 789:Generated_Source\PSoC6\pdl\drivers\peripheral\usbfs/cy_usbfs_dev_drv_reg.h **** * The pointer to the USBFS instance.
 790:Generated_Source\PSoC6\pdl\drivers\peripheral\usbfs/cy_usbfs_dev_drv_reg.h **** *
 791:Generated_Source\PSoC6\pdl\drivers\peripheral\usbfs/cy_usbfs_dev_drv_reg.h **** * \param endpoint
 792:Generated_Source\PSoC6\pdl\drivers\peripheral\usbfs/cy_usbfs_dev_drv_reg.h **** * Physical endpoint number. 
 793:Generated_Source\PSoC6\pdl\drivers\peripheral\usbfs/cy_usbfs_dev_drv_reg.h **** * Valid range: 0 - ( \ref CY_USBFS_DEV_DRV_NUM_EPS_MAX - 1 ).
 794:Generated_Source\PSoC6\pdl\drivers\peripheral\usbfs/cy_usbfs_dev_drv_reg.h **** *
 795:Generated_Source\PSoC6\pdl\drivers\peripheral\usbfs/cy_usbfs_dev_drv_reg.h **** *******************************************************************************/
 796:Generated_Source\PSoC6\pdl\drivers\peripheral\usbfs/cy_usbfs_dev_drv_reg.h **** __STATIC_INLINE void Cy_USBFS_Dev_Drv_EnableArbEpInterrupt(USBFS_Type *base, uint32_t endpoint)
 797:Generated_Source\PSoC6\pdl\drivers\peripheral\usbfs/cy_usbfs_dev_drv_reg.h **** {
 798:Generated_Source\PSoC6\pdl\drivers\peripheral\usbfs/cy_usbfs_dev_drv_reg.h ****     USBFS_DEV_ARB_INT_EN(base) |= (uint32_t)(1UL << endpoint);
 799:Generated_Source\PSoC6\pdl\drivers\peripheral\usbfs/cy_usbfs_dev_drv_reg.h **** }
 800:Generated_Source\PSoC6\pdl\drivers\peripheral\usbfs/cy_usbfs_dev_drv_reg.h **** 
 801:Generated_Source\PSoC6\pdl\drivers\peripheral\usbfs/cy_usbfs_dev_drv_reg.h **** 
 802:Generated_Source\PSoC6\pdl\drivers\peripheral\usbfs/cy_usbfs_dev_drv_reg.h **** /*******************************************************************************
 803:Generated_Source\PSoC6\pdl\drivers\peripheral\usbfs/cy_usbfs_dev_drv_reg.h **** * Function Name: Cy_USBFS_Dev_Drv_DisableArbEpInterrupt
 804:Generated_Source\PSoC6\pdl\drivers\peripheral\usbfs/cy_usbfs_dev_drv_reg.h **** ****************************************************************************//**
 805:Generated_Source\PSoC6\pdl\drivers\peripheral\usbfs/cy_usbfs_dev_drv_reg.h **** *
 806:Generated_Source\PSoC6\pdl\drivers\peripheral\usbfs/cy_usbfs_dev_drv_reg.h **** * Disabled arbiter interrupt for the specified data endpoint.
 807:Generated_Source\PSoC6\pdl\drivers\peripheral\usbfs/cy_usbfs_dev_drv_reg.h **** *
 808:Generated_Source\PSoC6\pdl\drivers\peripheral\usbfs/cy_usbfs_dev_drv_reg.h **** * \param base
 809:Generated_Source\PSoC6\pdl\drivers\peripheral\usbfs/cy_usbfs_dev_drv_reg.h **** * The pointer to the USBFS instance.
 810:Generated_Source\PSoC6\pdl\drivers\peripheral\usbfs/cy_usbfs_dev_drv_reg.h **** *
 811:Generated_Source\PSoC6\pdl\drivers\peripheral\usbfs/cy_usbfs_dev_drv_reg.h **** * \param endpoint
 812:Generated_Source\PSoC6\pdl\drivers\peripheral\usbfs/cy_usbfs_dev_drv_reg.h **** * Physical endpoint number. 
 813:Generated_Source\PSoC6\pdl\drivers\peripheral\usbfs/cy_usbfs_dev_drv_reg.h **** * Valid range: 0 - ( \ref CY_USBFS_DEV_DRV_NUM_EPS_MAX - 1 ).
 814:Generated_Source\PSoC6\pdl\drivers\peripheral\usbfs/cy_usbfs_dev_drv_reg.h **** *
 815:Generated_Source\PSoC6\pdl\drivers\peripheral\usbfs/cy_usbfs_dev_drv_reg.h **** *******************************************************************************/
 816:Generated_Source\PSoC6\pdl\drivers\peripheral\usbfs/cy_usbfs_dev_drv_reg.h **** __STATIC_INLINE void Cy_USBFS_Dev_Drv_DisableArbEpInterrupt(USBFS_Type *base, uint32_t endpoint)
 817:Generated_Source\PSoC6\pdl\drivers\peripheral\usbfs/cy_usbfs_dev_drv_reg.h **** {
 818:Generated_Source\PSoC6\pdl\drivers\peripheral\usbfs/cy_usbfs_dev_drv_reg.h ****     USBFS_DEV_ARB_INT_EN(base) &= ~(uint32_t)(1UL << endpoint);
 819:Generated_Source\PSoC6\pdl\drivers\peripheral\usbfs/cy_usbfs_dev_drv_reg.h **** }
 820:Generated_Source\PSoC6\pdl\drivers\peripheral\usbfs/cy_usbfs_dev_drv_reg.h **** 
 821:Generated_Source\PSoC6\pdl\drivers\peripheral\usbfs/cy_usbfs_dev_drv_reg.h **** 
 822:Generated_Source\PSoC6\pdl\drivers\peripheral\usbfs/cy_usbfs_dev_drv_reg.h **** /*******************************************************************************
 823:Generated_Source\PSoC6\pdl\drivers\peripheral\usbfs/cy_usbfs_dev_drv_reg.h **** * Function Name: Cy_USBFS_Dev_Drv_SetArbEpInterruptMask
 824:Generated_Source\PSoC6\pdl\drivers\peripheral\usbfs/cy_usbfs_dev_drv_reg.h **** ****************************************************************************//**
 825:Generated_Source\PSoC6\pdl\drivers\peripheral\usbfs/cy_usbfs_dev_drv_reg.h **** *
 826:Generated_Source\PSoC6\pdl\drivers\peripheral\usbfs/cy_usbfs_dev_drv_reg.h **** * Enables the arbiter interrupt sources which trigger the arbiter interrupt for
 827:Generated_Source\PSoC6\pdl\drivers\peripheral\usbfs/cy_usbfs_dev_drv_reg.h **** * the specified data endpoint.
 828:Generated_Source\PSoC6\pdl\drivers\peripheral\usbfs/cy_usbfs_dev_drv_reg.h **** *
 829:Generated_Source\PSoC6\pdl\drivers\peripheral\usbfs/cy_usbfs_dev_drv_reg.h **** * \param base
 830:Generated_Source\PSoC6\pdl\drivers\peripheral\usbfs/cy_usbfs_dev_drv_reg.h **** * The pointer to the USBFS instance.
 831:Generated_Source\PSoC6\pdl\drivers\peripheral\usbfs/cy_usbfs_dev_drv_reg.h **** *
 832:Generated_Source\PSoC6\pdl\drivers\peripheral\usbfs/cy_usbfs_dev_drv_reg.h **** * \param endpoint
 833:Generated_Source\PSoC6\pdl\drivers\peripheral\usbfs/cy_usbfs_dev_drv_reg.h **** * Physical endpoint number. 
 834:Generated_Source\PSoC6\pdl\drivers\peripheral\usbfs/cy_usbfs_dev_drv_reg.h **** * Valid range: 0 - ( \ref CY_USBFS_DEV_DRV_NUM_EPS_MAX - 1 ).
 835:Generated_Source\PSoC6\pdl\drivers\peripheral\usbfs/cy_usbfs_dev_drv_reg.h **** *
ARM GAS  C:\Users\enes_\AppData\Local\Temp\ccUvgHSW.s 			page 33


 836:Generated_Source\PSoC6\pdl\drivers\peripheral\usbfs/cy_usbfs_dev_drv_reg.h **** * \param mask
 837:Generated_Source\PSoC6\pdl\drivers\peripheral\usbfs/cy_usbfs_dev_drv_reg.h **** * The arbiter interrupt sources.
 838:Generated_Source\PSoC6\pdl\drivers\peripheral\usbfs/cy_usbfs_dev_drv_reg.h **** * See \ref group_usbfs_dev_drv_reg_macros_arb_ep_intr for the set of constants.
 839:Generated_Source\PSoC6\pdl\drivers\peripheral\usbfs/cy_usbfs_dev_drv_reg.h **** *
 840:Generated_Source\PSoC6\pdl\drivers\peripheral\usbfs/cy_usbfs_dev_drv_reg.h **** *******************************************************************************/
 841:Generated_Source\PSoC6\pdl\drivers\peripheral\usbfs/cy_usbfs_dev_drv_reg.h **** __STATIC_INLINE void Cy_USBFS_Dev_Drv_SetArbEpInterruptMask(USBFS_Type *base, uint32_t endpoint, ui
 842:Generated_Source\PSoC6\pdl\drivers\peripheral\usbfs/cy_usbfs_dev_drv_reg.h **** {
 843:Generated_Source\PSoC6\pdl\drivers\peripheral\usbfs/cy_usbfs_dev_drv_reg.h ****     USBFS_DEV_ARB_EP_INT_EN(base, endpoint) = mask;
 844:Generated_Source\PSoC6\pdl\drivers\peripheral\usbfs/cy_usbfs_dev_drv_reg.h **** }
 845:Generated_Source\PSoC6\pdl\drivers\peripheral\usbfs/cy_usbfs_dev_drv_reg.h **** 
 846:Generated_Source\PSoC6\pdl\drivers\peripheral\usbfs/cy_usbfs_dev_drv_reg.h **** 
 847:Generated_Source\PSoC6\pdl\drivers\peripheral\usbfs/cy_usbfs_dev_drv_reg.h **** /*******************************************************************************
 848:Generated_Source\PSoC6\pdl\drivers\peripheral\usbfs/cy_usbfs_dev_drv_reg.h **** * Function Name: Cy_USBFS_Dev_Drv_GetArbEpInterruptMask
 849:Generated_Source\PSoC6\pdl\drivers\peripheral\usbfs/cy_usbfs_dev_drv_reg.h **** ****************************************************************************//**
 850:Generated_Source\PSoC6\pdl\drivers\peripheral\usbfs/cy_usbfs_dev_drv_reg.h **** *
 851:Generated_Source\PSoC6\pdl\drivers\peripheral\usbfs/cy_usbfs_dev_drv_reg.h **** * Returns the arbiter interrupt sources which trigger the arbiter interrupt for
 852:Generated_Source\PSoC6\pdl\drivers\peripheral\usbfs/cy_usbfs_dev_drv_reg.h **** * the specified data endpoint.
 853:Generated_Source\PSoC6\pdl\drivers\peripheral\usbfs/cy_usbfs_dev_drv_reg.h **** *
 854:Generated_Source\PSoC6\pdl\drivers\peripheral\usbfs/cy_usbfs_dev_drv_reg.h **** * \param base
 855:Generated_Source\PSoC6\pdl\drivers\peripheral\usbfs/cy_usbfs_dev_drv_reg.h **** * The pointer to the USBFS instance.
 856:Generated_Source\PSoC6\pdl\drivers\peripheral\usbfs/cy_usbfs_dev_drv_reg.h **** *
 857:Generated_Source\PSoC6\pdl\drivers\peripheral\usbfs/cy_usbfs_dev_drv_reg.h **** * \param endpoint
 858:Generated_Source\PSoC6\pdl\drivers\peripheral\usbfs/cy_usbfs_dev_drv_reg.h **** * Physical endpoint number. 
 859:Generated_Source\PSoC6\pdl\drivers\peripheral\usbfs/cy_usbfs_dev_drv_reg.h **** * Valid range: 0 - ( \ref CY_USBFS_DEV_DRV_NUM_EPS_MAX - 1 ).
 860:Generated_Source\PSoC6\pdl\drivers\peripheral\usbfs/cy_usbfs_dev_drv_reg.h **** *
 861:Generated_Source\PSoC6\pdl\drivers\peripheral\usbfs/cy_usbfs_dev_drv_reg.h **** * \return
 862:Generated_Source\PSoC6\pdl\drivers\peripheral\usbfs/cy_usbfs_dev_drv_reg.h **** * The arbiter interrupt sources.
 863:Generated_Source\PSoC6\pdl\drivers\peripheral\usbfs/cy_usbfs_dev_drv_reg.h **** * See \ref group_usbfs_dev_drv_reg_macros_arb_ep_intr for the set of constants.
 864:Generated_Source\PSoC6\pdl\drivers\peripheral\usbfs/cy_usbfs_dev_drv_reg.h **** *
 865:Generated_Source\PSoC6\pdl\drivers\peripheral\usbfs/cy_usbfs_dev_drv_reg.h **** *******************************************************************************/
 866:Generated_Source\PSoC6\pdl\drivers\peripheral\usbfs/cy_usbfs_dev_drv_reg.h **** __STATIC_INLINE uint32_t Cy_USBFS_Dev_Drv_GetArbEpInterruptMask(USBFS_Type const *base, uint32_t en
 867:Generated_Source\PSoC6\pdl\drivers\peripheral\usbfs/cy_usbfs_dev_drv_reg.h **** {
 868:Generated_Source\PSoC6\pdl\drivers\peripheral\usbfs/cy_usbfs_dev_drv_reg.h ****     return USBFS_DEV_ARB_EP_INT_EN(base, endpoint);
 319              		.loc 2 868 0
 320 0026 8124     		movs	r4, #129
 321 0028 A400     		lsls	r4, r4, #2
 322 002a 2C19     		adds	r4, r5, r4
 323 002c 2468     		ldr	r4, [r4]
 324              	.LVL35:
 325              	.LBE39:
 326              	.LBE38:
 668:Generated_Source\PSoC6\pdl\drivers\peripheral\usbfs/cy_usbfs_dev_drv.c ****     bool inEnpoint;
 669:Generated_Source\PSoC6\pdl\drivers\peripheral\usbfs/cy_usbfs_dev_drv.c ****     bool zeroLengthPacket;
 670:Generated_Source\PSoC6\pdl\drivers\peripheral\usbfs/cy_usbfs_dev_drv.c **** 
 671:Generated_Source\PSoC6\pdl\drivers\peripheral\usbfs/cy_usbfs_dev_drv.c ****     /* Get pointer to endpoint data */
 672:Generated_Source\PSoC6\pdl\drivers\peripheral\usbfs/cy_usbfs_dev_drv.c ****     cy_stc_usbfs_dev_drv_endpoint_data_t *endpointData = &context->epPool[endpoint];
 673:Generated_Source\PSoC6\pdl\drivers\peripheral\usbfs/cy_usbfs_dev_drv.c **** 
 674:Generated_Source\PSoC6\pdl\drivers\peripheral\usbfs/cy_usbfs_dev_drv.c ****     Cy_USBFS_Dev_Drv_ClearSieEpInterrupt(base, endpoint);
 675:Generated_Source\PSoC6\pdl\drivers\peripheral\usbfs/cy_usbfs_dev_drv.c **** 
 676:Generated_Source\PSoC6\pdl\drivers\peripheral\usbfs/cy_usbfs_dev_drv.c ****     /* Special case: DMA Auto
 677:Generated_Source\PSoC6\pdl\drivers\peripheral\usbfs/cy_usbfs_dev_drv.c ****     * IN endpoints: complete transfer when SIE triggers complete.
 678:Generated_Source\PSoC6\pdl\drivers\peripheral\usbfs/cy_usbfs_dev_drv.c ****     * OUT endpoints complete transfer when DMA complete (Arbiter Interrupt, source DMA_TERMIN).
 679:Generated_Source\PSoC6\pdl\drivers\peripheral\usbfs/cy_usbfs_dev_drv.c ****     *               In case of zero length packet complete transfer when SIE triggers complete.
 680:Generated_Source\PSoC6\pdl\drivers\peripheral\usbfs/cy_usbfs_dev_drv.c ****     */
 681:Generated_Source\PSoC6\pdl\drivers\peripheral\usbfs/cy_usbfs_dev_drv.c ****     zeroLengthPacket = (0U == Cy_USBFS_Dev_Drv_GetSieEpCount(base, endpoint));
 682:Generated_Source\PSoC6\pdl\drivers\peripheral\usbfs/cy_usbfs_dev_drv.c ****     inEnpoint = (0U == (Cy_USBFS_Dev_Drv_GetArbEpInterruptMask(base, endpoint) & USBFS_USBDEV_ARB_E
 683:Generated_Source\PSoC6\pdl\drivers\peripheral\usbfs/cy_usbfs_dev_drv.c **** 
ARM GAS  C:\Users\enes_\AppData\Local\Temp\ccUvgHSW.s 			page 34


 684:Generated_Source\PSoC6\pdl\drivers\peripheral\usbfs/cy_usbfs_dev_drv.c ****     if (inEnpoint || zeroLengthPacket)
 327              		.loc 1 684 0
 328 002e A406     		lsls	r4, r4, #26
 329 0030 01D5     		bpl	.L16
 330              	.LVL36:
 331              		.loc 1 684 0 is_stmt 0 discriminator 1
 332 0032 002B     		cmp	r3, #0
 333 0034 52D1     		bne	.L15
 334              	.L16:
 685:Generated_Source\PSoC6\pdl\drivers\peripheral\usbfs/cy_usbfs_dev_drv.c ****     {
 686:Generated_Source\PSoC6\pdl\drivers\peripheral\usbfs/cy_usbfs_dev_drv.c ****         /* Update toggle (exclude ISOC endpoints) */
 687:Generated_Source\PSoC6\pdl\drivers\peripheral\usbfs/cy_usbfs_dev_drv.c ****         if (false == IS_EP_ISOC(endpointData->sieMode))
 335              		.loc 1 687 0 is_stmt 1
 336 0036 2C23     		movs	r3, #44
 337              	.LVL37:
 338 0038 4B43     		muls	r3, r1
 339 003a D318     		adds	r3, r2, r3
 340 003c 3A33     		adds	r3, r3, #58
 341 003e 1B78     		ldrb	r3, [r3]
 342 0040 072B     		cmp	r3, #7
 343 0042 08D0     		beq	.L23
 344              		.loc 1 687 0 is_stmt 0 discriminator 2
 345 0044 2C23     		movs	r3, #44
 346 0046 4B43     		muls	r3, r1
 347 0048 D318     		adds	r3, r2, r3
 348 004a 3A33     		adds	r3, r3, #58
 349 004c 1B78     		ldrb	r3, [r3]
 350 004e 052B     		cmp	r3, #5
 351 0050 03D1     		bne	.L24
 352              		.loc 1 687 0
 353 0052 043B     		subs	r3, r3, #4
 354 0054 02E0     		b	.L18
 355              	.L23:
 356 0056 0123     		movs	r3, #1
 357 0058 00E0     		b	.L18
 358              	.L24:
 359 005a 0023     		movs	r3, #0
 360              	.L18:
 361              		.loc 1 687 0 discriminator 6
 362 005c 002B     		cmp	r3, #0
 363 005e 09D1     		bne	.L19
 688:Generated_Source\PSoC6\pdl\drivers\peripheral\usbfs/cy_usbfs_dev_drv.c ****         {
 689:Generated_Source\PSoC6\pdl\drivers\peripheral\usbfs/cy_usbfs_dev_drv.c ****             endpointData->toggle ^= (uint8_t) USBFS_USBDEV_SIE_EP_DATA_TOGGLE_Msk;
 364              		.loc 1 689 0 is_stmt 1
 365 0060 2C33     		adds	r3, r3, #44
 366 0062 4B43     		muls	r3, r1
 367 0064 D318     		adds	r3, r2, r3
 368 0066 3933     		adds	r3, r3, #57
 369 0068 1E78     		ldrb	r6, [r3]
 370 006a 8024     		movs	r4, #128
 371 006c 6442     		rsbs	r4, r4, #0
 372 006e 7440     		eors	r4, r6
 373 0070 E4B2     		uxtb	r4, r4
 374 0072 1C70     		strb	r4, [r3]
 375              	.L19:
 690:Generated_Source\PSoC6\pdl\drivers\peripheral\usbfs/cy_usbfs_dev_drv.c ****         }
 691:Generated_Source\PSoC6\pdl\drivers\peripheral\usbfs/cy_usbfs_dev_drv.c **** 
ARM GAS  C:\Users\enes_\AppData\Local\Temp\ccUvgHSW.s 			page 35


 692:Generated_Source\PSoC6\pdl\drivers\peripheral\usbfs/cy_usbfs_dev_drv.c ****         /* Set complete event and update data toggle */
 693:Generated_Source\PSoC6\pdl\drivers\peripheral\usbfs/cy_usbfs_dev_drv.c ****         endpointData->state = CY_USB_DEV_EP_COMPLETED;
 376              		.loc 1 693 0
 377 0074 2C23     		movs	r3, #44
 378 0076 4B43     		muls	r3, r1
 379 0078 D318     		adds	r3, r2, r3
 380 007a 1C00     		movs	r4, r3
 381 007c 4534     		adds	r4, r4, #69
 382 007e 0226     		movs	r6, #2
 383 0080 2670     		strb	r6, [r4]
 694:Generated_Source\PSoC6\pdl\drivers\peripheral\usbfs/cy_usbfs_dev_drv.c **** 
 695:Generated_Source\PSoC6\pdl\drivers\peripheral\usbfs/cy_usbfs_dev_drv.c ****         /* Involve callback if it is registered */
 696:Generated_Source\PSoC6\pdl\drivers\peripheral\usbfs/cy_usbfs_dev_drv.c ****         if (endpointData->epComplete != NULL)
 384              		.loc 1 696 0
 385 0082 9E6C     		ldr	r6, [r3, #72]
 386 0084 002E     		cmp	r6, #0
 387 0086 29D0     		beq	.L15
 388              	.LVL38:
 389              	.LBB40:
 390              	.LBB41:
 391              	.LBB42:
 554:Generated_Source\PSoC6\pdl\drivers\peripheral\usbfs/cy_usbfs_dev_drv_reg.h **** }
 392              		.loc 2 554 0
 393 0088 AB6B     		ldr	r3, [r5, #56]
 394              	.LVL39:
 395              	.LBE42:
 396              	.LBE41:
 697:Generated_Source\PSoC6\pdl\drivers\peripheral\usbfs/cy_usbfs_dev_drv.c ****         {
 698:Generated_Source\PSoC6\pdl\drivers\peripheral\usbfs/cy_usbfs_dev_drv.c ****             uint32_t errorType = 0UL;
 699:Generated_Source\PSoC6\pdl\drivers\peripheral\usbfs/cy_usbfs_dev_drv.c ****             
 700:Generated_Source\PSoC6\pdl\drivers\peripheral\usbfs/cy_usbfs_dev_drv.c ****             /* Check transfer errors (detect by hardware) */
 701:Generated_Source\PSoC6\pdl\drivers\peripheral\usbfs/cy_usbfs_dev_drv.c ****             if (0U != Cy_USBFS_Dev_Drv_GetSieEpError(base, endpoint))
 397              		.loc 1 701 0
 398 008a 5B06     		lsls	r3, r3, #25
 399 008c 01D4     		bmi	.L25
 698:Generated_Source\PSoC6\pdl\drivers\peripheral\usbfs/cy_usbfs_dev_drv.c ****             
 400              		.loc 1 698 0
 401 008e 0024     		movs	r4, #0
 402 0090 00E0     		b	.L20
 403              	.L25:
 702:Generated_Source\PSoC6\pdl\drivers\peripheral\usbfs/cy_usbfs_dev_drv.c ****             {
 703:Generated_Source\PSoC6\pdl\drivers\peripheral\usbfs/cy_usbfs_dev_drv.c ****                 errorType |= CY_USBFS_DEV_ENDPOINT_TRANSFER_ERROR;
 404              		.loc 1 703 0
 405 0092 0124     		movs	r4, #1
 406              	.L20:
 407              	.LVL40:
 704:Generated_Source\PSoC6\pdl\drivers\peripheral\usbfs/cy_usbfs_dev_drv.c ****             }
 705:Generated_Source\PSoC6\pdl\drivers\peripheral\usbfs/cy_usbfs_dev_drv.c ****             
 706:Generated_Source\PSoC6\pdl\drivers\peripheral\usbfs/cy_usbfs_dev_drv.c ****             /* Check data toggle bit of current transfer (exclude ISOC endpoints) */
 707:Generated_Source\PSoC6\pdl\drivers\peripheral\usbfs/cy_usbfs_dev_drv.c ****             if (false == IS_EP_ISOC(endpointData->sieMode))
 408              		.loc 1 707 0
 409 0094 2C23     		movs	r3, #44
 410 0096 4B43     		muls	r3, r1
 411 0098 D318     		adds	r3, r2, r3
 412 009a 3A33     		adds	r3, r3, #58
 413 009c 1B78     		ldrb	r3, [r3]
 414 009e 072B     		cmp	r3, #7
ARM GAS  C:\Users\enes_\AppData\Local\Temp\ccUvgHSW.s 			page 36


 415 00a0 08D0     		beq	.L26
 416              		.loc 1 707 0 is_stmt 0 discriminator 2
 417 00a2 2C23     		movs	r3, #44
 418 00a4 4B43     		muls	r3, r1
 419 00a6 D318     		adds	r3, r2, r3
 420 00a8 3A33     		adds	r3, r3, #58
 421 00aa 1B78     		ldrb	r3, [r3]
 422 00ac 052B     		cmp	r3, #5
 423 00ae 03D1     		bne	.L27
 424              		.loc 1 707 0
 425 00b0 043B     		subs	r3, r3, #4
 426 00b2 02E0     		b	.L21
 427              	.L26:
 428 00b4 0123     		movs	r3, #1
 429 00b6 00E0     		b	.L21
 430              	.L27:
 431 00b8 0023     		movs	r3, #0
 432              	.L21:
 433              		.loc 1 707 0 discriminator 6
 434 00ba 002B     		cmp	r3, #0
 435 00bc 0CD1     		bne	.L22
 708:Generated_Source\PSoC6\pdl\drivers\peripheral\usbfs/cy_usbfs_dev_drv.c ****             {
 709:Generated_Source\PSoC6\pdl\drivers\peripheral\usbfs/cy_usbfs_dev_drv.c ****                 if (endpointData->toggle == Cy_USBFS_Dev_Drv_GetSieEpToggle(base, endpoint))
 436              		.loc 1 709 0 is_stmt 1
 437 00be 2C33     		adds	r3, r3, #44
 438 00c0 5943     		muls	r1, r3
 439              	.LVL41:
 440 00c2 5118     		adds	r1, r2, r1
 441 00c4 3931     		adds	r1, r1, #57
 442 00c6 0978     		ldrb	r1, [r1]
 443 00c8 C9B2     		uxtb	r1, r1
 444              	.LVL42:
 445              	.LBB43:
 446              	.LBB44:
 578:Generated_Source\PSoC6\pdl\drivers\peripheral\usbfs/cy_usbfs_dev_drv_reg.h **** }
 447              		.loc 2 578 0
 448 00ca 2B6B     		ldr	r3, [r5, #48]
 449 00cc 8025     		movs	r5, #128
 450 00ce 2B40     		ands	r3, r5
 451              	.LVL43:
 452              	.LBE44:
 453              	.LBE43:
 454              		.loc 1 709 0
 455 00d0 9942     		cmp	r1, r3
 456 00d2 01D1     		bne	.L22
 710:Generated_Source\PSoC6\pdl\drivers\peripheral\usbfs/cy_usbfs_dev_drv.c ****                 {
 711:Generated_Source\PSoC6\pdl\drivers\peripheral\usbfs/cy_usbfs_dev_drv.c ****                     errorType |= CY_USBFS_DEV_ENDPOINT_SAME_DATA_TOGGLE;
 457              		.loc 1 711 0
 458 00d4 0223     		movs	r3, #2
 459 00d6 1C43     		orrs	r4, r3
 460              	.LVL44:
 461              	.L22:
 712:Generated_Source\PSoC6\pdl\drivers\peripheral\usbfs/cy_usbfs_dev_drv.c ****                 }
 713:Generated_Source\PSoC6\pdl\drivers\peripheral\usbfs/cy_usbfs_dev_drv.c ****             }
 714:Generated_Source\PSoC6\pdl\drivers\peripheral\usbfs/cy_usbfs_dev_drv.c **** 
 715:Generated_Source\PSoC6\pdl\drivers\peripheral\usbfs/cy_usbfs_dev_drv.c ****             /* Call endpoint complete callback */
 716:Generated_Source\PSoC6\pdl\drivers\peripheral\usbfs/cy_usbfs_dev_drv.c ****             endpointData->epComplete(base, errorType, context);
ARM GAS  C:\Users\enes_\AppData\Local\Temp\ccUvgHSW.s 			page 37


 462              		.loc 1 716 0
 463 00d8 2100     		movs	r1, r4
 464 00da B047     		blx	r6
 465              	.LVL45:
 466              	.L15:
 467              	.LBE40:
 717:Generated_Source\PSoC6\pdl\drivers\peripheral\usbfs/cy_usbfs_dev_drv.c ****         }
 718:Generated_Source\PSoC6\pdl\drivers\peripheral\usbfs/cy_usbfs_dev_drv.c ****     }
 719:Generated_Source\PSoC6\pdl\drivers\peripheral\usbfs/cy_usbfs_dev_drv.c **** }
 468              		.loc 1 719 0
 469              		@ sp needed
 470 00dc 70BD     		pop	{r4, r5, r6, pc}
 471              		.cfi_endproc
 472              	.LFE179:
 473              		.size	SieEnpointIntrHandler, .-SieEnpointIntrHandler
 474 00de C046     		.section	.text.WriteEp0Buffer,"ax",%progbits
 475              		.align	2
 476              		.code	16
 477              		.thumb_func
 478              		.type	WriteEp0Buffer, %function
 479              	WriteEp0Buffer:
 480              	.LFB181:
 720:Generated_Source\PSoC6\pdl\drivers\peripheral\usbfs/cy_usbfs_dev_drv.c **** 
 721:Generated_Source\PSoC6\pdl\drivers\peripheral\usbfs/cy_usbfs_dev_drv.c **** 
 722:Generated_Source\PSoC6\pdl\drivers\peripheral\usbfs/cy_usbfs_dev_drv.c **** /*******************************************************************************
 723:Generated_Source\PSoC6\pdl\drivers\peripheral\usbfs/cy_usbfs_dev_drv.c **** * Function Name: Cy_USBFS_Dev_Drv_Interrupt
 724:Generated_Source\PSoC6\pdl\drivers\peripheral\usbfs/cy_usbfs_dev_drv.c **** ****************************************************************************//**
 725:Generated_Source\PSoC6\pdl\drivers\peripheral\usbfs/cy_usbfs_dev_drv.c **** *
 726:Generated_Source\PSoC6\pdl\drivers\peripheral\usbfs/cy_usbfs_dev_drv.c **** * Process interrupt events generated by the USBFS Device.
 727:Generated_Source\PSoC6\pdl\drivers\peripheral\usbfs/cy_usbfs_dev_drv.c **** * The interrupts are mandatory for USBFS Device operation and this function 
 728:Generated_Source\PSoC6\pdl\drivers\peripheral\usbfs/cy_usbfs_dev_drv.c **** * must be called inside the user-defined interrupt service routine.
 729:Generated_Source\PSoC6\pdl\drivers\peripheral\usbfs/cy_usbfs_dev_drv.c **** *
 730:Generated_Source\PSoC6\pdl\drivers\peripheral\usbfs/cy_usbfs_dev_drv.c **** * \param base
 731:Generated_Source\PSoC6\pdl\drivers\peripheral\usbfs/cy_usbfs_dev_drv.c **** * The pointer to the USBFS instance.
 732:Generated_Source\PSoC6\pdl\drivers\peripheral\usbfs/cy_usbfs_dev_drv.c **** *
 733:Generated_Source\PSoC6\pdl\drivers\peripheral\usbfs/cy_usbfs_dev_drv.c **** * \param intrCause
 734:Generated_Source\PSoC6\pdl\drivers\peripheral\usbfs/cy_usbfs_dev_drv.c **** * The interrupt cause register value. Call appropriate function to get  
 735:Generated_Source\PSoC6\pdl\drivers\peripheral\usbfs/cy_usbfs_dev_drv.c **** * interrupt cause (Low, Medium or High): 
 736:Generated_Source\PSoC6\pdl\drivers\peripheral\usbfs/cy_usbfs_dev_drv.c **** * * \ref Cy_USBFS_Dev_Drv_GetInterruptCauseLo
 737:Generated_Source\PSoC6\pdl\drivers\peripheral\usbfs/cy_usbfs_dev_drv.c **** * * \ref Cy_USBFS_Dev_Drv_GetInterruptCauseMed
 738:Generated_Source\PSoC6\pdl\drivers\peripheral\usbfs/cy_usbfs_dev_drv.c **** * * \ref Cy_USBFS_Dev_Drv_GetInterruptCauseHi
 739:Generated_Source\PSoC6\pdl\drivers\peripheral\usbfs/cy_usbfs_dev_drv.c **** *
 740:Generated_Source\PSoC6\pdl\drivers\peripheral\usbfs/cy_usbfs_dev_drv.c **** * \param context
 741:Generated_Source\PSoC6\pdl\drivers\peripheral\usbfs/cy_usbfs_dev_drv.c **** * The pointer to the context structure \ref cy_stc_usbfs_dev_drv_context_t
 742:Generated_Source\PSoC6\pdl\drivers\peripheral\usbfs/cy_usbfs_dev_drv.c **** * allocated by the user. The structure is used during the USBFS Device 
 743:Generated_Source\PSoC6\pdl\drivers\peripheral\usbfs/cy_usbfs_dev_drv.c **** * operation for internal configuration and data retention. The user must not 
 744:Generated_Source\PSoC6\pdl\drivers\peripheral\usbfs/cy_usbfs_dev_drv.c **** * modify anything in this structure.
 745:Generated_Source\PSoC6\pdl\drivers\peripheral\usbfs/cy_usbfs_dev_drv.c **** *
 746:Generated_Source\PSoC6\pdl\drivers\peripheral\usbfs/cy_usbfs_dev_drv.c **** *******************************************************************************/
 747:Generated_Source\PSoC6\pdl\drivers\peripheral\usbfs/cy_usbfs_dev_drv.c **** void Cy_USBFS_Dev_Drv_Interrupt(USBFS_Type *base, uint32_t intrCause, 
 748:Generated_Source\PSoC6\pdl\drivers\peripheral\usbfs/cy_usbfs_dev_drv.c ****                                 cy_stc_usbfs_dev_drv_context_t *context)
 749:Generated_Source\PSoC6\pdl\drivers\peripheral\usbfs/cy_usbfs_dev_drv.c **** {
 750:Generated_Source\PSoC6\pdl\drivers\peripheral\usbfs/cy_usbfs_dev_drv.c ****     uint32_t endpoint = 0u;
 751:Generated_Source\PSoC6\pdl\drivers\peripheral\usbfs/cy_usbfs_dev_drv.c **** 
 752:Generated_Source\PSoC6\pdl\drivers\peripheral\usbfs/cy_usbfs_dev_drv.c ****     /* Clear SIE interrupts while are served below */
 753:Generated_Source\PSoC6\pdl\drivers\peripheral\usbfs/cy_usbfs_dev_drv.c ****     Cy_USBFS_Dev_Drv_ClearSieInterrupt(base, intrCause);
 754:Generated_Source\PSoC6\pdl\drivers\peripheral\usbfs/cy_usbfs_dev_drv.c **** 
ARM GAS  C:\Users\enes_\AppData\Local\Temp\ccUvgHSW.s 			page 38


 755:Generated_Source\PSoC6\pdl\drivers\peripheral\usbfs/cy_usbfs_dev_drv.c ****     /* LPM */
 756:Generated_Source\PSoC6\pdl\drivers\peripheral\usbfs/cy_usbfs_dev_drv.c ****     if (0u != (intrCause & USBFS_USBLPM_INTR_CAUSE_LPM_INTR_Msk))
 757:Generated_Source\PSoC6\pdl\drivers\peripheral\usbfs/cy_usbfs_dev_drv.c ****     {
 758:Generated_Source\PSoC6\pdl\drivers\peripheral\usbfs/cy_usbfs_dev_drv.c ****         LpmIntrHandler(base, context);
 759:Generated_Source\PSoC6\pdl\drivers\peripheral\usbfs/cy_usbfs_dev_drv.c ****     }
 760:Generated_Source\PSoC6\pdl\drivers\peripheral\usbfs/cy_usbfs_dev_drv.c **** 
 761:Generated_Source\PSoC6\pdl\drivers\peripheral\usbfs/cy_usbfs_dev_drv.c ****     /* Arbiter: Data endpoints */
 762:Generated_Source\PSoC6\pdl\drivers\peripheral\usbfs/cy_usbfs_dev_drv.c ****     if (0u != (intrCause & USBFS_USBLPM_INTR_CAUSE_ARB_EP_INTR_Msk))
 763:Generated_Source\PSoC6\pdl\drivers\peripheral\usbfs/cy_usbfs_dev_drv.c ****     {
 764:Generated_Source\PSoC6\pdl\drivers\peripheral\usbfs/cy_usbfs_dev_drv.c ****         /* This interrupt is cleared inside the handler */
 765:Generated_Source\PSoC6\pdl\drivers\peripheral\usbfs/cy_usbfs_dev_drv.c ****         ArbiterIntrHandler(base, context);
 766:Generated_Source\PSoC6\pdl\drivers\peripheral\usbfs/cy_usbfs_dev_drv.c ****     }
 767:Generated_Source\PSoC6\pdl\drivers\peripheral\usbfs/cy_usbfs_dev_drv.c **** 
 768:Generated_Source\PSoC6\pdl\drivers\peripheral\usbfs/cy_usbfs_dev_drv.c ****     /* Control EP0 */
 769:Generated_Source\PSoC6\pdl\drivers\peripheral\usbfs/cy_usbfs_dev_drv.c ****     if (0u != (intrCause & USBFS_USBLPM_INTR_CAUSE_EP0_INTR_Msk))
 770:Generated_Source\PSoC6\pdl\drivers\peripheral\usbfs/cy_usbfs_dev_drv.c ****     {
 771:Generated_Source\PSoC6\pdl\drivers\peripheral\usbfs/cy_usbfs_dev_drv.c ****         Ep0IntrHandler(base, context);
 772:Generated_Source\PSoC6\pdl\drivers\peripheral\usbfs/cy_usbfs_dev_drv.c ****     }
 773:Generated_Source\PSoC6\pdl\drivers\peripheral\usbfs/cy_usbfs_dev_drv.c **** 
 774:Generated_Source\PSoC6\pdl\drivers\peripheral\usbfs/cy_usbfs_dev_drv.c ****     /* SOF */
 775:Generated_Source\PSoC6\pdl\drivers\peripheral\usbfs/cy_usbfs_dev_drv.c ****     if (0u != (intrCause & USBFS_USBLPM_INTR_CAUSE_SOF_INTR_Msk))
 776:Generated_Source\PSoC6\pdl\drivers\peripheral\usbfs/cy_usbfs_dev_drv.c ****     {
 777:Generated_Source\PSoC6\pdl\drivers\peripheral\usbfs/cy_usbfs_dev_drv.c ****         SofIntrHandler(base, context);
 778:Generated_Source\PSoC6\pdl\drivers\peripheral\usbfs/cy_usbfs_dev_drv.c ****     }
 779:Generated_Source\PSoC6\pdl\drivers\peripheral\usbfs/cy_usbfs_dev_drv.c **** 
 780:Generated_Source\PSoC6\pdl\drivers\peripheral\usbfs/cy_usbfs_dev_drv.c ****     /* Bus Reset */
 781:Generated_Source\PSoC6\pdl\drivers\peripheral\usbfs/cy_usbfs_dev_drv.c ****     if (0u != (intrCause & USBFS_USBLPM_INTR_CAUSE_BUS_RESET_INTR_Msk))
 782:Generated_Source\PSoC6\pdl\drivers\peripheral\usbfs/cy_usbfs_dev_drv.c ****     {
 783:Generated_Source\PSoC6\pdl\drivers\peripheral\usbfs/cy_usbfs_dev_drv.c ****         BusResetIntrHandler(base, context);
 784:Generated_Source\PSoC6\pdl\drivers\peripheral\usbfs/cy_usbfs_dev_drv.c ****     }
 785:Generated_Source\PSoC6\pdl\drivers\peripheral\usbfs/cy_usbfs_dev_drv.c **** 
 786:Generated_Source\PSoC6\pdl\drivers\peripheral\usbfs/cy_usbfs_dev_drv.c ****     /* Remove handled interrupt statuses */
 787:Generated_Source\PSoC6\pdl\drivers\peripheral\usbfs/cy_usbfs_dev_drv.c ****     intrCause >>= USBFS_USBLPM_INTR_CAUSE_EP1_INTR_Pos;
 788:Generated_Source\PSoC6\pdl\drivers\peripheral\usbfs/cy_usbfs_dev_drv.c **** 
 789:Generated_Source\PSoC6\pdl\drivers\peripheral\usbfs/cy_usbfs_dev_drv.c ****     /* SIE: Data endpoints */
 790:Generated_Source\PSoC6\pdl\drivers\peripheral\usbfs/cy_usbfs_dev_drv.c ****     while (0u != intrCause)
 791:Generated_Source\PSoC6\pdl\drivers\peripheral\usbfs/cy_usbfs_dev_drv.c ****     {
 792:Generated_Source\PSoC6\pdl\drivers\peripheral\usbfs/cy_usbfs_dev_drv.c ****         if (0u != (intrCause & 0x1u))
 793:Generated_Source\PSoC6\pdl\drivers\peripheral\usbfs/cy_usbfs_dev_drv.c ****         {
 794:Generated_Source\PSoC6\pdl\drivers\peripheral\usbfs/cy_usbfs_dev_drv.c ****             /* These interrupts are cleared inside the handler */
 795:Generated_Source\PSoC6\pdl\drivers\peripheral\usbfs/cy_usbfs_dev_drv.c ****             SieEnpointIntrHandler(base, endpoint, context);
 796:Generated_Source\PSoC6\pdl\drivers\peripheral\usbfs/cy_usbfs_dev_drv.c ****         }
 797:Generated_Source\PSoC6\pdl\drivers\peripheral\usbfs/cy_usbfs_dev_drv.c **** 
 798:Generated_Source\PSoC6\pdl\drivers\peripheral\usbfs/cy_usbfs_dev_drv.c ****         intrCause >>= 1u;
 799:Generated_Source\PSoC6\pdl\drivers\peripheral\usbfs/cy_usbfs_dev_drv.c ****         ++endpoint;
 800:Generated_Source\PSoC6\pdl\drivers\peripheral\usbfs/cy_usbfs_dev_drv.c ****     }
 801:Generated_Source\PSoC6\pdl\drivers\peripheral\usbfs/cy_usbfs_dev_drv.c **** }
 802:Generated_Source\PSoC6\pdl\drivers\peripheral\usbfs/cy_usbfs_dev_drv.c **** 
 803:Generated_Source\PSoC6\pdl\drivers\peripheral\usbfs/cy_usbfs_dev_drv.c **** 
 804:Generated_Source\PSoC6\pdl\drivers\peripheral\usbfs/cy_usbfs_dev_drv.c **** /*******************************************************************************
 805:Generated_Source\PSoC6\pdl\drivers\peripheral\usbfs/cy_usbfs_dev_drv.c **** * Function Name: WriteEp0Buffer
 806:Generated_Source\PSoC6\pdl\drivers\peripheral\usbfs/cy_usbfs_dev_drv.c **** ****************************************************************************//**
 807:Generated_Source\PSoC6\pdl\drivers\peripheral\usbfs/cy_usbfs_dev_drv.c **** *
 808:Generated_Source\PSoC6\pdl\drivers\peripheral\usbfs/cy_usbfs_dev_drv.c **** * Writes data into the Endpoint 0 hardware buffer and returns how many bytes 
 809:Generated_Source\PSoC6\pdl\drivers\peripheral\usbfs/cy_usbfs_dev_drv.c **** * were written.
 810:Generated_Source\PSoC6\pdl\drivers\peripheral\usbfs/cy_usbfs_dev_drv.c **** *
 811:Generated_Source\PSoC6\pdl\drivers\peripheral\usbfs/cy_usbfs_dev_drv.c **** * \param base
ARM GAS  C:\Users\enes_\AppData\Local\Temp\ccUvgHSW.s 			page 39


 812:Generated_Source\PSoC6\pdl\drivers\peripheral\usbfs/cy_usbfs_dev_drv.c **** * The pointer to the USBFS instance.
 813:Generated_Source\PSoC6\pdl\drivers\peripheral\usbfs/cy_usbfs_dev_drv.c **** *
 814:Generated_Source\PSoC6\pdl\drivers\peripheral\usbfs/cy_usbfs_dev_drv.c **** * \param buffer
 815:Generated_Source\PSoC6\pdl\drivers\peripheral\usbfs/cy_usbfs_dev_drv.c **** * The pointer to the data to write in the Endpoint 0.
 816:Generated_Source\PSoC6\pdl\drivers\peripheral\usbfs/cy_usbfs_dev_drv.c **** *
 817:Generated_Source\PSoC6\pdl\drivers\peripheral\usbfs/cy_usbfs_dev_drv.c **** * \param size
 818:Generated_Source\PSoC6\pdl\drivers\peripheral\usbfs/cy_usbfs_dev_drv.c **** * The number of bytes to write into the Endpoint 0.
 819:Generated_Source\PSoC6\pdl\drivers\peripheral\usbfs/cy_usbfs_dev_drv.c **** *
 820:Generated_Source\PSoC6\pdl\drivers\peripheral\usbfs/cy_usbfs_dev_drv.c **** * \return
 821:Generated_Source\PSoC6\pdl\drivers\peripheral\usbfs/cy_usbfs_dev_drv.c **** * The number of bytes that were written.
 822:Generated_Source\PSoC6\pdl\drivers\peripheral\usbfs/cy_usbfs_dev_drv.c **** *
 823:Generated_Source\PSoC6\pdl\drivers\peripheral\usbfs/cy_usbfs_dev_drv.c **** *******************************************************************************/
 824:Generated_Source\PSoC6\pdl\drivers\peripheral\usbfs/cy_usbfs_dev_drv.c **** static uint32_t WriteEp0Buffer(USBFS_Type *base, uint8_t const *buffer, uint32_t size)
 825:Generated_Source\PSoC6\pdl\drivers\peripheral\usbfs/cy_usbfs_dev_drv.c **** {
 481              		.loc 1 825 0
 482              		.cfi_startproc
 483              		@ args = 0, pretend = 0, frame = 0
 484              		@ frame_needed = 0, uses_anonymous_args = 0
 485              	.LVL46:
 486 0000 30B5     		push	{r4, r5, lr}
 487              		.cfi_def_cfa_offset 12
 488              		.cfi_offset 4, -12
 489              		.cfi_offset 5, -8
 490              		.cfi_offset 14, -4
 826:Generated_Source\PSoC6\pdl\drivers\peripheral\usbfs/cy_usbfs_dev_drv.c ****     uint32_t idx;
 827:Generated_Source\PSoC6\pdl\drivers\peripheral\usbfs/cy_usbfs_dev_drv.c ****     
 828:Generated_Source\PSoC6\pdl\drivers\peripheral\usbfs/cy_usbfs_dev_drv.c ****     /* Cut message size if too many bytes are requested to write  */
 829:Generated_Source\PSoC6\pdl\drivers\peripheral\usbfs/cy_usbfs_dev_drv.c ****     if (size > CY_USBFS_DEV_DRV_EP0_BUFFER_SIZE)
 491              		.loc 1 829 0
 492 0002 082A     		cmp	r2, #8
 493 0004 00D9     		bls	.L29
 830:Generated_Source\PSoC6\pdl\drivers\peripheral\usbfs/cy_usbfs_dev_drv.c ****     {
 831:Generated_Source\PSoC6\pdl\drivers\peripheral\usbfs/cy_usbfs_dev_drv.c ****         size = CY_USBFS_DEV_DRV_EP0_BUFFER_SIZE;
 494              		.loc 1 831 0
 495 0006 0822     		movs	r2, #8
 496              	.LVL47:
 497              	.L29:
 832:Generated_Source\PSoC6\pdl\drivers\peripheral\usbfs/cy_usbfs_dev_drv.c ****     }
 833:Generated_Source\PSoC6\pdl\drivers\peripheral\usbfs/cy_usbfs_dev_drv.c ****     
 834:Generated_Source\PSoC6\pdl\drivers\peripheral\usbfs/cy_usbfs_dev_drv.c ****     /* Write data into the hardware buffer */
 835:Generated_Source\PSoC6\pdl\drivers\peripheral\usbfs/cy_usbfs_dev_drv.c ****     for (idx = 0UL; idx < size; ++idx)
 498              		.loc 1 835 0
 499 0008 0023     		movs	r3, #0
 500 000a 0BE0     		b	.L30
 501              	.LVL48:
 502              	.L33:
 836:Generated_Source\PSoC6\pdl\drivers\peripheral\usbfs/cy_usbfs_dev_drv.c ****     {
 837:Generated_Source\PSoC6\pdl\drivers\peripheral\usbfs/cy_usbfs_dev_drv.c ****         if (0U == (idx & 0x1U))
 503              		.loc 1 837 0
 504 000c DC07     		lsls	r4, r3, #31
 505 000e 03D4     		bmi	.L31
 838:Generated_Source\PSoC6\pdl\drivers\peripheral\usbfs/cy_usbfs_dev_drv.c ****         {
 839:Generated_Source\PSoC6\pdl\drivers\peripheral\usbfs/cy_usbfs_dev_drv.c ****             USBFS_DEV_EP0_DR(base, idx) = buffer[idx];
 506              		.loc 1 839 0
 507 0010 CD5C     		ldrb	r5, [r1, r3]
 508 0012 9C00     		lsls	r4, r3, #2
 509 0014 2550     		str	r5, [r4, r0]
ARM GAS  C:\Users\enes_\AppData\Local\Temp\ccUvgHSW.s 			page 40


 510 0016 04E0     		b	.L32
 511              	.L31:
 840:Generated_Source\PSoC6\pdl\drivers\peripheral\usbfs/cy_usbfs_dev_drv.c ****         }
 841:Generated_Source\PSoC6\pdl\drivers\peripheral\usbfs/cy_usbfs_dev_drv.c ****         else
 842:Generated_Source\PSoC6\pdl\drivers\peripheral\usbfs/cy_usbfs_dev_drv.c ****         {
 843:Generated_Source\PSoC6\pdl\drivers\peripheral\usbfs/cy_usbfs_dev_drv.c ****             /* Apply special write for odd offset registers */
 844:Generated_Source\PSoC6\pdl\drivers\peripheral\usbfs/cy_usbfs_dev_drv.c ****             USBFS_DEV_EP0_DR(base, idx) = CY_USBFS_DEV_DRV_WRITE_ODD(buffer[idx]);
 512              		.loc 1 844 0
 513 0018 CD5C     		ldrb	r5, [r1, r3]
 514 001a 2C02     		lsls	r4, r5, #8
 515 001c 2C43     		orrs	r4, r5
 516 001e 9D00     		lsls	r5, r3, #2
 517 0020 2C50     		str	r4, [r5, r0]
 518              	.L32:
 835:Generated_Source\PSoC6\pdl\drivers\peripheral\usbfs/cy_usbfs_dev_drv.c ****     {
 519              		.loc 1 835 0 discriminator 2
 520 0022 0133     		adds	r3, r3, #1
 521              	.LVL49:
 522              	.L30:
 835:Generated_Source\PSoC6\pdl\drivers\peripheral\usbfs/cy_usbfs_dev_drv.c ****     {
 523              		.loc 1 835 0 is_stmt 0 discriminator 1
 524 0024 9A42     		cmp	r2, r3
 525 0026 F1D8     		bhi	.L33
 845:Generated_Source\PSoC6\pdl\drivers\peripheral\usbfs/cy_usbfs_dev_drv.c ****         }
 846:Generated_Source\PSoC6\pdl\drivers\peripheral\usbfs/cy_usbfs_dev_drv.c ****     }
 847:Generated_Source\PSoC6\pdl\drivers\peripheral\usbfs/cy_usbfs_dev_drv.c ****     
 848:Generated_Source\PSoC6\pdl\drivers\peripheral\usbfs/cy_usbfs_dev_drv.c ****     return idx;
 849:Generated_Source\PSoC6\pdl\drivers\peripheral\usbfs/cy_usbfs_dev_drv.c **** }
 526              		.loc 1 849 0 is_stmt 1
 527 0028 1800     		movs	r0, r3
 528              	.LVL50:
 529              		@ sp needed
 530 002a 30BD     		pop	{r4, r5, pc}
 531              		.cfi_endproc
 532              	.LFE181:
 533              		.size	WriteEp0Buffer, .-WriteEp0Buffer
 534              		.section	.text.ReadEp0Buffer,"ax",%progbits
 535              		.align	2
 536              		.code	16
 537              		.thumb_func
 538              		.type	ReadEp0Buffer, %function
 539              	ReadEp0Buffer:
 540              	.LFB182:
 850:Generated_Source\PSoC6\pdl\drivers\peripheral\usbfs/cy_usbfs_dev_drv.c **** 
 851:Generated_Source\PSoC6\pdl\drivers\peripheral\usbfs/cy_usbfs_dev_drv.c **** 
 852:Generated_Source\PSoC6\pdl\drivers\peripheral\usbfs/cy_usbfs_dev_drv.c **** /*******************************************************************************
 853:Generated_Source\PSoC6\pdl\drivers\peripheral\usbfs/cy_usbfs_dev_drv.c **** * Function Name: ReadEp0Buffer
 854:Generated_Source\PSoC6\pdl\drivers\peripheral\usbfs/cy_usbfs_dev_drv.c **** ****************************************************************************//**
 855:Generated_Source\PSoC6\pdl\drivers\peripheral\usbfs/cy_usbfs_dev_drv.c **** *
 856:Generated_Source\PSoC6\pdl\drivers\peripheral\usbfs/cy_usbfs_dev_drv.c **** * Reads data from Endpoint 0 hardware and returns how many bytes were read.
 857:Generated_Source\PSoC6\pdl\drivers\peripheral\usbfs/cy_usbfs_dev_drv.c **** *
 858:Generated_Source\PSoC6\pdl\drivers\peripheral\usbfs/cy_usbfs_dev_drv.c **** * \param base
 859:Generated_Source\PSoC6\pdl\drivers\peripheral\usbfs/cy_usbfs_dev_drv.c **** * The pointer to the USBFS instance.
 860:Generated_Source\PSoC6\pdl\drivers\peripheral\usbfs/cy_usbfs_dev_drv.c **** *
 861:Generated_Source\PSoC6\pdl\drivers\peripheral\usbfs/cy_usbfs_dev_drv.c **** * \param buffer
 862:Generated_Source\PSoC6\pdl\drivers\peripheral\usbfs/cy_usbfs_dev_drv.c **** * The pointer to the buffer for data read from the Endpoint 0.
 863:Generated_Source\PSoC6\pdl\drivers\peripheral\usbfs/cy_usbfs_dev_drv.c **** *
ARM GAS  C:\Users\enes_\AppData\Local\Temp\ccUvgHSW.s 			page 41


 864:Generated_Source\PSoC6\pdl\drivers\peripheral\usbfs/cy_usbfs_dev_drv.c **** * \param size
 865:Generated_Source\PSoC6\pdl\drivers\peripheral\usbfs/cy_usbfs_dev_drv.c **** * The number of bytes to read from the Endpoint 0.
 866:Generated_Source\PSoC6\pdl\drivers\peripheral\usbfs/cy_usbfs_dev_drv.c **** *
 867:Generated_Source\PSoC6\pdl\drivers\peripheral\usbfs/cy_usbfs_dev_drv.c **** * \return
 868:Generated_Source\PSoC6\pdl\drivers\peripheral\usbfs/cy_usbfs_dev_drv.c **** * The number of bytes that were read.
 869:Generated_Source\PSoC6\pdl\drivers\peripheral\usbfs/cy_usbfs_dev_drv.c **** *
 870:Generated_Source\PSoC6\pdl\drivers\peripheral\usbfs/cy_usbfs_dev_drv.c **** *******************************************************************************/
 871:Generated_Source\PSoC6\pdl\drivers\peripheral\usbfs/cy_usbfs_dev_drv.c **** static uint32_t ReadEp0Buffer(USBFS_Type const *base, uint8_t *buffer, uint32_t size)
 872:Generated_Source\PSoC6\pdl\drivers\peripheral\usbfs/cy_usbfs_dev_drv.c **** {
 541              		.loc 1 872 0
 542              		.cfi_startproc
 543              		@ args = 0, pretend = 0, frame = 0
 544              		@ frame_needed = 0, uses_anonymous_args = 0
 545              	.LVL51:
 546 0000 70B5     		push	{r4, r5, r6, lr}
 547              		.cfi_def_cfa_offset 16
 548              		.cfi_offset 4, -16
 549              		.cfi_offset 5, -12
 550              		.cfi_offset 6, -8
 551              		.cfi_offset 14, -4
 552              	.LVL52:
 553              	.LBB45:
 554              	.LBB46:
 869:Generated_Source\PSoC6\pdl\drivers\peripheral\usbfs/cy_usbfs_dev_drv_reg.h **** }
 870:Generated_Source\PSoC6\pdl\drivers\peripheral\usbfs/cy_usbfs_dev_drv_reg.h **** 
 871:Generated_Source\PSoC6\pdl\drivers\peripheral\usbfs/cy_usbfs_dev_drv_reg.h **** 
 872:Generated_Source\PSoC6\pdl\drivers\peripheral\usbfs/cy_usbfs_dev_drv_reg.h **** /*******************************************************************************
 873:Generated_Source\PSoC6\pdl\drivers\peripheral\usbfs/cy_usbfs_dev_drv_reg.h **** * Function Name: Cy_USBFS_Dev_Drv_GetArbEpInterruptStatusMasked
 874:Generated_Source\PSoC6\pdl\drivers\peripheral\usbfs/cy_usbfs_dev_drv_reg.h **** ****************************************************************************//**
 875:Generated_Source\PSoC6\pdl\drivers\peripheral\usbfs/cy_usbfs_dev_drv_reg.h **** *
 876:Generated_Source\PSoC6\pdl\drivers\peripheral\usbfs/cy_usbfs_dev_drv_reg.h **** * Returns the current status of the enabled arbiter interrupt sources for
 877:Generated_Source\PSoC6\pdl\drivers\peripheral\usbfs/cy_usbfs_dev_drv_reg.h **** * the specified data endpoint.
 878:Generated_Source\PSoC6\pdl\drivers\peripheral\usbfs/cy_usbfs_dev_drv_reg.h **** *
 879:Generated_Source\PSoC6\pdl\drivers\peripheral\usbfs/cy_usbfs_dev_drv_reg.h **** * \param base
 880:Generated_Source\PSoC6\pdl\drivers\peripheral\usbfs/cy_usbfs_dev_drv_reg.h **** * The pointer to the USBFS instance.
 881:Generated_Source\PSoC6\pdl\drivers\peripheral\usbfs/cy_usbfs_dev_drv_reg.h **** *
 882:Generated_Source\PSoC6\pdl\drivers\peripheral\usbfs/cy_usbfs_dev_drv_reg.h **** * \param endpoint
 883:Generated_Source\PSoC6\pdl\drivers\peripheral\usbfs/cy_usbfs_dev_drv_reg.h **** * Physical endpoint number. 
 884:Generated_Source\PSoC6\pdl\drivers\peripheral\usbfs/cy_usbfs_dev_drv_reg.h **** * Valid range: 0 - ( \ref CY_USBFS_DEV_DRV_NUM_EPS_MAX - 1 ).
 885:Generated_Source\PSoC6\pdl\drivers\peripheral\usbfs/cy_usbfs_dev_drv_reg.h **** *
 886:Generated_Source\PSoC6\pdl\drivers\peripheral\usbfs/cy_usbfs_dev_drv_reg.h **** * \return
 887:Generated_Source\PSoC6\pdl\drivers\peripheral\usbfs/cy_usbfs_dev_drv_reg.h **** * The current status of the enabled arbiter interrupt sources
 888:Generated_Source\PSoC6\pdl\drivers\peripheral\usbfs/cy_usbfs_dev_drv_reg.h **** * See \ref group_usbfs_dev_drv_reg_macros_arb_ep_intr for the set of constants.
 889:Generated_Source\PSoC6\pdl\drivers\peripheral\usbfs/cy_usbfs_dev_drv_reg.h **** *
 890:Generated_Source\PSoC6\pdl\drivers\peripheral\usbfs/cy_usbfs_dev_drv_reg.h **** *******************************************************************************/
 891:Generated_Source\PSoC6\pdl\drivers\peripheral\usbfs/cy_usbfs_dev_drv_reg.h **** __STATIC_INLINE uint32_t Cy_USBFS_Dev_Drv_GetArbEpInterruptStatusMasked(USBFS_Type const *base, uin
 892:Generated_Source\PSoC6\pdl\drivers\peripheral\usbfs/cy_usbfs_dev_drv_reg.h **** {
 893:Generated_Source\PSoC6\pdl\drivers\peripheral\usbfs/cy_usbfs_dev_drv_reg.h ****     uint32_t mask = CY_USBFS_DEV_READ_ODD(USBFS_DEV_ARB_EP_INT_EN(base, endpoint));
 894:Generated_Source\PSoC6\pdl\drivers\peripheral\usbfs/cy_usbfs_dev_drv_reg.h ****     return (USBFS_DEV_ARB_EP_SR(base, endpoint) & mask);
 895:Generated_Source\PSoC6\pdl\drivers\peripheral\usbfs/cy_usbfs_dev_drv_reg.h **** }
 896:Generated_Source\PSoC6\pdl\drivers\peripheral\usbfs/cy_usbfs_dev_drv_reg.h **** 
 897:Generated_Source\PSoC6\pdl\drivers\peripheral\usbfs/cy_usbfs_dev_drv_reg.h **** 
 898:Generated_Source\PSoC6\pdl\drivers\peripheral\usbfs/cy_usbfs_dev_drv_reg.h **** /*******************************************************************************
 899:Generated_Source\PSoC6\pdl\drivers\peripheral\usbfs/cy_usbfs_dev_drv_reg.h **** * Function Name: Cy_USBFS_Dev_Drv_ClearArbEpInterrupt
 900:Generated_Source\PSoC6\pdl\drivers\peripheral\usbfs/cy_usbfs_dev_drv_reg.h **** ****************************************************************************//**
 901:Generated_Source\PSoC6\pdl\drivers\peripheral\usbfs/cy_usbfs_dev_drv_reg.h **** *
 902:Generated_Source\PSoC6\pdl\drivers\peripheral\usbfs/cy_usbfs_dev_drv_reg.h **** * Clears the current status of the arbiter interrupt sources for the specified
ARM GAS  C:\Users\enes_\AppData\Local\Temp\ccUvgHSW.s 			page 42


 903:Generated_Source\PSoC6\pdl\drivers\peripheral\usbfs/cy_usbfs_dev_drv_reg.h **** * data endpoint.
 904:Generated_Source\PSoC6\pdl\drivers\peripheral\usbfs/cy_usbfs_dev_drv_reg.h **** *
 905:Generated_Source\PSoC6\pdl\drivers\peripheral\usbfs/cy_usbfs_dev_drv_reg.h **** * \param base
 906:Generated_Source\PSoC6\pdl\drivers\peripheral\usbfs/cy_usbfs_dev_drv_reg.h **** * The pointer to the USBFS instance.
 907:Generated_Source\PSoC6\pdl\drivers\peripheral\usbfs/cy_usbfs_dev_drv_reg.h **** *
 908:Generated_Source\PSoC6\pdl\drivers\peripheral\usbfs/cy_usbfs_dev_drv_reg.h **** * \param endpoint
 909:Generated_Source\PSoC6\pdl\drivers\peripheral\usbfs/cy_usbfs_dev_drv_reg.h **** * Physical endpoint number. 
 910:Generated_Source\PSoC6\pdl\drivers\peripheral\usbfs/cy_usbfs_dev_drv_reg.h **** * Valid range: 0 - ( \ref CY_USBFS_DEV_DRV_NUM_EPS_MAX - 1 ).
 911:Generated_Source\PSoC6\pdl\drivers\peripheral\usbfs/cy_usbfs_dev_drv_reg.h **** *
 912:Generated_Source\PSoC6\pdl\drivers\peripheral\usbfs/cy_usbfs_dev_drv_reg.h **** * \param mask
 913:Generated_Source\PSoC6\pdl\drivers\peripheral\usbfs/cy_usbfs_dev_drv_reg.h **** * The arbiter interrupt sources to be cleared.
 914:Generated_Source\PSoC6\pdl\drivers\peripheral\usbfs/cy_usbfs_dev_drv_reg.h **** * See \ref group_usbfs_dev_drv_reg_macros_arb_ep_intr for the set of constants.
 915:Generated_Source\PSoC6\pdl\drivers\peripheral\usbfs/cy_usbfs_dev_drv_reg.h **** *
 916:Generated_Source\PSoC6\pdl\drivers\peripheral\usbfs/cy_usbfs_dev_drv_reg.h **** *******************************************************************************/
 917:Generated_Source\PSoC6\pdl\drivers\peripheral\usbfs/cy_usbfs_dev_drv_reg.h **** __STATIC_INLINE void Cy_USBFS_Dev_Drv_ClearArbEpInterrupt(USBFS_Type *base, uint32_t endpoint, uint
 918:Generated_Source\PSoC6\pdl\drivers\peripheral\usbfs/cy_usbfs_dev_drv_reg.h **** {
 919:Generated_Source\PSoC6\pdl\drivers\peripheral\usbfs/cy_usbfs_dev_drv_reg.h ****     USBFS_DEV_ARB_EP_SR(base, endpoint) = mask;
 920:Generated_Source\PSoC6\pdl\drivers\peripheral\usbfs/cy_usbfs_dev_drv_reg.h ****     (void) USBFS_DEV_ARB_EP_SR(base, endpoint);
 921:Generated_Source\PSoC6\pdl\drivers\peripheral\usbfs/cy_usbfs_dev_drv_reg.h **** }
 922:Generated_Source\PSoC6\pdl\drivers\peripheral\usbfs/cy_usbfs_dev_drv_reg.h **** 
 923:Generated_Source\PSoC6\pdl\drivers\peripheral\usbfs/cy_usbfs_dev_drv_reg.h **** 
 924:Generated_Source\PSoC6\pdl\drivers\peripheral\usbfs/cy_usbfs_dev_drv_reg.h **** /*******************************************************************************
 925:Generated_Source\PSoC6\pdl\drivers\peripheral\usbfs/cy_usbfs_dev_drv_reg.h **** * Function Name: Cy_USBFS_Dev_Drv_SetArbEpConfig
 926:Generated_Source\PSoC6\pdl\drivers\peripheral\usbfs/cy_usbfs_dev_drv_reg.h **** ****************************************************************************//**
 927:Generated_Source\PSoC6\pdl\drivers\peripheral\usbfs/cy_usbfs_dev_drv_reg.h **** *
 928:Generated_Source\PSoC6\pdl\drivers\peripheral\usbfs/cy_usbfs_dev_drv_reg.h **** * Writes the configuration register for the specified data endpoint.
 929:Generated_Source\PSoC6\pdl\drivers\peripheral\usbfs/cy_usbfs_dev_drv_reg.h **** *
 930:Generated_Source\PSoC6\pdl\drivers\peripheral\usbfs/cy_usbfs_dev_drv_reg.h **** * \param base
 931:Generated_Source\PSoC6\pdl\drivers\peripheral\usbfs/cy_usbfs_dev_drv_reg.h **** * The pointer to the USBFS instance.
 932:Generated_Source\PSoC6\pdl\drivers\peripheral\usbfs/cy_usbfs_dev_drv_reg.h **** *
 933:Generated_Source\PSoC6\pdl\drivers\peripheral\usbfs/cy_usbfs_dev_drv_reg.h **** * \param endpoint
 934:Generated_Source\PSoC6\pdl\drivers\peripheral\usbfs/cy_usbfs_dev_drv_reg.h **** * Physical endpoint number. 
 935:Generated_Source\PSoC6\pdl\drivers\peripheral\usbfs/cy_usbfs_dev_drv_reg.h **** * Valid range: 0 - ( \ref CY_USBFS_DEV_DRV_NUM_EPS_MAX - 1 ).
 936:Generated_Source\PSoC6\pdl\drivers\peripheral\usbfs/cy_usbfs_dev_drv_reg.h **** *
 937:Generated_Source\PSoC6\pdl\drivers\peripheral\usbfs/cy_usbfs_dev_drv_reg.h **** * \param cfg
 938:Generated_Source\PSoC6\pdl\drivers\peripheral\usbfs/cy_usbfs_dev_drv_reg.h **** * The value written into the data endpoint configuration register.
 939:Generated_Source\PSoC6\pdl\drivers\peripheral\usbfs/cy_usbfs_dev_drv_reg.h **** *
 940:Generated_Source\PSoC6\pdl\drivers\peripheral\usbfs/cy_usbfs_dev_drv_reg.h **** *******************************************************************************/
 941:Generated_Source\PSoC6\pdl\drivers\peripheral\usbfs/cy_usbfs_dev_drv_reg.h **** __STATIC_INLINE void Cy_USBFS_Dev_Drv_SetArbEpConfig(USBFS_Type *base, uint32_t endpoint, uint32_t 
 942:Generated_Source\PSoC6\pdl\drivers\peripheral\usbfs/cy_usbfs_dev_drv_reg.h **** {
 943:Generated_Source\PSoC6\pdl\drivers\peripheral\usbfs/cy_usbfs_dev_drv_reg.h ****     USBFS_DEV_ARB_EP_CFG(base, endpoint) = cfg;
 944:Generated_Source\PSoC6\pdl\drivers\peripheral\usbfs/cy_usbfs_dev_drv_reg.h **** }
 945:Generated_Source\PSoC6\pdl\drivers\peripheral\usbfs/cy_usbfs_dev_drv_reg.h **** 
 946:Generated_Source\PSoC6\pdl\drivers\peripheral\usbfs/cy_usbfs_dev_drv_reg.h **** 
 947:Generated_Source\PSoC6\pdl\drivers\peripheral\usbfs/cy_usbfs_dev_drv_reg.h **** /*******************************************************************************
 948:Generated_Source\PSoC6\pdl\drivers\peripheral\usbfs/cy_usbfs_dev_drv_reg.h **** * Function Name: Cy_USBFS_Dev_Drv_SetArbCfgEpInReady
 949:Generated_Source\PSoC6\pdl\drivers\peripheral\usbfs/cy_usbfs_dev_drv_reg.h **** ****************************************************************************//**
 950:Generated_Source\PSoC6\pdl\drivers\peripheral\usbfs/cy_usbfs_dev_drv_reg.h **** *
 951:Generated_Source\PSoC6\pdl\drivers\peripheral\usbfs/cy_usbfs_dev_drv_reg.h **** * Notifies hardware that IN endpoint data buffer is read to be loaded in
 952:Generated_Source\PSoC6\pdl\drivers\peripheral\usbfs/cy_usbfs_dev_drv_reg.h **** * the hardware buffer.
 953:Generated_Source\PSoC6\pdl\drivers\peripheral\usbfs/cy_usbfs_dev_drv_reg.h **** *
 954:Generated_Source\PSoC6\pdl\drivers\peripheral\usbfs/cy_usbfs_dev_drv_reg.h **** * \param base
 955:Generated_Source\PSoC6\pdl\drivers\peripheral\usbfs/cy_usbfs_dev_drv_reg.h **** * The pointer to the USBFS instance.
 956:Generated_Source\PSoC6\pdl\drivers\peripheral\usbfs/cy_usbfs_dev_drv_reg.h **** *
 957:Generated_Source\PSoC6\pdl\drivers\peripheral\usbfs/cy_usbfs_dev_drv_reg.h **** * \param endpoint
 958:Generated_Source\PSoC6\pdl\drivers\peripheral\usbfs/cy_usbfs_dev_drv_reg.h **** * Physical endpoint number. 
 959:Generated_Source\PSoC6\pdl\drivers\peripheral\usbfs/cy_usbfs_dev_drv_reg.h **** * Valid range: 0 - ( \ref CY_USBFS_DEV_DRV_NUM_EPS_MAX - 1 ).
ARM GAS  C:\Users\enes_\AppData\Local\Temp\ccUvgHSW.s 			page 43


 960:Generated_Source\PSoC6\pdl\drivers\peripheral\usbfs/cy_usbfs_dev_drv_reg.h **** *
 961:Generated_Source\PSoC6\pdl\drivers\peripheral\usbfs/cy_usbfs_dev_drv_reg.h **** *******************************************************************************/
 962:Generated_Source\PSoC6\pdl\drivers\peripheral\usbfs/cy_usbfs_dev_drv_reg.h **** __STATIC_INLINE void Cy_USBFS_Dev_Drv_SetArbCfgEpInReady(USBFS_Type *base, uint32_t endpoint)
 963:Generated_Source\PSoC6\pdl\drivers\peripheral\usbfs/cy_usbfs_dev_drv_reg.h **** {
 964:Generated_Source\PSoC6\pdl\drivers\peripheral\usbfs/cy_usbfs_dev_drv_reg.h ****     USBFS_DEV_ARB_EP_CFG(base, endpoint) |= USBFS_USBDEV_ARB_EP1_CFG_IN_DATA_RDY_Msk;
 965:Generated_Source\PSoC6\pdl\drivers\peripheral\usbfs/cy_usbfs_dev_drv_reg.h **** }
 966:Generated_Source\PSoC6\pdl\drivers\peripheral\usbfs/cy_usbfs_dev_drv_reg.h **** 
 967:Generated_Source\PSoC6\pdl\drivers\peripheral\usbfs/cy_usbfs_dev_drv_reg.h **** 
 968:Generated_Source\PSoC6\pdl\drivers\peripheral\usbfs/cy_usbfs_dev_drv_reg.h **** /*******************************************************************************
 969:Generated_Source\PSoC6\pdl\drivers\peripheral\usbfs/cy_usbfs_dev_drv_reg.h **** * Function Name: Cy_USBFS_Dev_Drv_ClearArbCfgEpInReady
 970:Generated_Source\PSoC6\pdl\drivers\peripheral\usbfs/cy_usbfs_dev_drv_reg.h **** ****************************************************************************//**
 971:Generated_Source\PSoC6\pdl\drivers\peripheral\usbfs/cy_usbfs_dev_drv_reg.h **** *
 972:Generated_Source\PSoC6\pdl\drivers\peripheral\usbfs/cy_usbfs_dev_drv_reg.h **** * Clears hardware notification that IN endpoint data buffer is read to be loaded
 973:Generated_Source\PSoC6\pdl\drivers\peripheral\usbfs/cy_usbfs_dev_drv_reg.h **** * in the hardware buffer. This function needs to be called after buffer was
 974:Generated_Source\PSoC6\pdl\drivers\peripheral\usbfs/cy_usbfs_dev_drv_reg.h **** * copied into the hardware buffer.
 975:Generated_Source\PSoC6\pdl\drivers\peripheral\usbfs/cy_usbfs_dev_drv_reg.h **** *
 976:Generated_Source\PSoC6\pdl\drivers\peripheral\usbfs/cy_usbfs_dev_drv_reg.h **** * \param base
 977:Generated_Source\PSoC6\pdl\drivers\peripheral\usbfs/cy_usbfs_dev_drv_reg.h **** * The pointer to the USBFS instance.
 978:Generated_Source\PSoC6\pdl\drivers\peripheral\usbfs/cy_usbfs_dev_drv_reg.h **** *
 979:Generated_Source\PSoC6\pdl\drivers\peripheral\usbfs/cy_usbfs_dev_drv_reg.h **** * \param endpoint
 980:Generated_Source\PSoC6\pdl\drivers\peripheral\usbfs/cy_usbfs_dev_drv_reg.h **** * Physical endpoint number. 
 981:Generated_Source\PSoC6\pdl\drivers\peripheral\usbfs/cy_usbfs_dev_drv_reg.h **** * Valid range: 0 - ( \ref CY_USBFS_DEV_DRV_NUM_EPS_MAX - 1 ).
 982:Generated_Source\PSoC6\pdl\drivers\peripheral\usbfs/cy_usbfs_dev_drv_reg.h **** 
 983:Generated_Source\PSoC6\pdl\drivers\peripheral\usbfs/cy_usbfs_dev_drv_reg.h **** *
 984:Generated_Source\PSoC6\pdl\drivers\peripheral\usbfs/cy_usbfs_dev_drv_reg.h **** *******************************************************************************/
 985:Generated_Source\PSoC6\pdl\drivers\peripheral\usbfs/cy_usbfs_dev_drv_reg.h **** __STATIC_INLINE void Cy_USBFS_Dev_Drv_ClearArbCfgEpInReady(USBFS_Type *base, uint32_t endpoint)
 986:Generated_Source\PSoC6\pdl\drivers\peripheral\usbfs/cy_usbfs_dev_drv_reg.h **** {
 987:Generated_Source\PSoC6\pdl\drivers\peripheral\usbfs/cy_usbfs_dev_drv_reg.h ****     USBFS_DEV_ARB_EP_CFG(base, endpoint) &= ~USBFS_USBDEV_ARB_EP1_CFG_IN_DATA_RDY_Msk;
 988:Generated_Source\PSoC6\pdl\drivers\peripheral\usbfs/cy_usbfs_dev_drv_reg.h **** }
 989:Generated_Source\PSoC6\pdl\drivers\peripheral\usbfs/cy_usbfs_dev_drv_reg.h **** 
 990:Generated_Source\PSoC6\pdl\drivers\peripheral\usbfs/cy_usbfs_dev_drv_reg.h **** 
 991:Generated_Source\PSoC6\pdl\drivers\peripheral\usbfs/cy_usbfs_dev_drv_reg.h **** /*******************************************************************************
 992:Generated_Source\PSoC6\pdl\drivers\peripheral\usbfs/cy_usbfs_dev_drv_reg.h **** * Function Name: Cy_USBFS_Dev_Drv_TriggerArbCfgEpDmaReq
 993:Generated_Source\PSoC6\pdl\drivers\peripheral\usbfs/cy_usbfs_dev_drv_reg.h **** ****************************************************************************//**
 994:Generated_Source\PSoC6\pdl\drivers\peripheral\usbfs/cy_usbfs_dev_drv_reg.h **** *
 995:Generated_Source\PSoC6\pdl\drivers\peripheral\usbfs/cy_usbfs_dev_drv_reg.h **** * Triggers a DMA request to read from or write data into the hardware buffer.
