ARM GAS  C:\Users\enes_\AppData\Local\Temp\ccRFUday.s 			page 1


   1              		.syntax unified
   2              		.cpu cortex-m0plus
   3              		.fpu softvfp
   4              		.eabi_attribute 20, 1
   5              		.eabi_attribute 21, 1
   6              		.eabi_attribute 23, 3
   7              		.eabi_attribute 24, 1
   8              		.eabi_attribute 25, 1
   9              		.eabi_attribute 26, 1
  10              		.eabi_attribute 30, 1
  11              		.eabi_attribute 34, 0
  12              		.eabi_attribute 18, 4
  13              		.thumb
  14              		.syntax unified
  15              		.file	"cy_usbfs_dev_drv_io_dma.c"
  16              		.text
  17              	.Ltext0:
  18              		.cfi_sections	.debug_frame
  19              		.section	.text.DmaEndpointInit1D,"ax",%progbits
  20              		.align	2
  21              		.code	16
  22              		.thumb_func
  23              		.type	DmaEndpointInit1D, %function
  24              	DmaEndpointInit1D:
  25              	.LFB172:
  26              		.file 1 "Generated_Source\\PSoC6\\pdl\\drivers\\peripheral\\usbfs\\cy_usbfs_dev_drv_io_dma.c"
   1:Generated_Source\PSoC6\pdl\drivers\peripheral\usbfs/cy_usbfs_dev_drv_io_dma.c **** /***************************************************************************//**
   2:Generated_Source\PSoC6\pdl\drivers\peripheral\usbfs/cy_usbfs_dev_drv_io_dma.c **** * \file cy_usbfs_dev_drv_io_dma.c
   3:Generated_Source\PSoC6\pdl\drivers\peripheral\usbfs/cy_usbfs_dev_drv_io_dma.c **** * \version 1.0
   4:Generated_Source\PSoC6\pdl\drivers\peripheral\usbfs/cy_usbfs_dev_drv_io_dma.c **** *
   5:Generated_Source\PSoC6\pdl\drivers\peripheral\usbfs/cy_usbfs_dev_drv_io_dma.c **** * Provides data transfer API implementation of the USBFS driver.
   6:Generated_Source\PSoC6\pdl\drivers\peripheral\usbfs/cy_usbfs_dev_drv_io_dma.c **** *
   7:Generated_Source\PSoC6\pdl\drivers\peripheral\usbfs/cy_usbfs_dev_drv_io_dma.c **** ********************************************************************************
   8:Generated_Source\PSoC6\pdl\drivers\peripheral\usbfs/cy_usbfs_dev_drv_io_dma.c **** * \copyright
   9:Generated_Source\PSoC6\pdl\drivers\peripheral\usbfs/cy_usbfs_dev_drv_io_dma.c **** * Copyright 2018, Cypress Semiconductor Corporation. All rights reserved.
  10:Generated_Source\PSoC6\pdl\drivers\peripheral\usbfs/cy_usbfs_dev_drv_io_dma.c **** * You may use this file only in accordance with the license, terms, conditions,
  11:Generated_Source\PSoC6\pdl\drivers\peripheral\usbfs/cy_usbfs_dev_drv_io_dma.c **** * disclaimers, and limitations in the end user license agreement accompanying
  12:Generated_Source\PSoC6\pdl\drivers\peripheral\usbfs/cy_usbfs_dev_drv_io_dma.c **** * the software package with which this file was provided.
  13:Generated_Source\PSoC6\pdl\drivers\peripheral\usbfs/cy_usbfs_dev_drv_io_dma.c **** *******************************************************************************/
  14:Generated_Source\PSoC6\pdl\drivers\peripheral\usbfs/cy_usbfs_dev_drv_io_dma.c **** 
  15:Generated_Source\PSoC6\pdl\drivers\peripheral\usbfs/cy_usbfs_dev_drv_io_dma.c **** #include <string.h>
  16:Generated_Source\PSoC6\pdl\drivers\peripheral\usbfs/cy_usbfs_dev_drv_io_dma.c **** #include "cy_usbfs_dev_drv_pvt.h"
  17:Generated_Source\PSoC6\pdl\drivers\peripheral\usbfs/cy_usbfs_dev_drv_io_dma.c **** 
  18:Generated_Source\PSoC6\pdl\drivers\peripheral\usbfs/cy_usbfs_dev_drv_io_dma.c **** #ifdef CY_IP_MXUSBFS
  19:Generated_Source\PSoC6\pdl\drivers\peripheral\usbfs/cy_usbfs_dev_drv_io_dma.c **** 
  20:Generated_Source\PSoC6\pdl\drivers\peripheral\usbfs/cy_usbfs_dev_drv_io_dma.c **** #if defined(__cplusplus)
  21:Generated_Source\PSoC6\pdl\drivers\peripheral\usbfs/cy_usbfs_dev_drv_io_dma.c **** extern "C" {
  22:Generated_Source\PSoC6\pdl\drivers\peripheral\usbfs/cy_usbfs_dev_drv_io_dma.c **** #endif
  23:Generated_Source\PSoC6\pdl\drivers\peripheral\usbfs/cy_usbfs_dev_drv_io_dma.c **** 
  24:Generated_Source\PSoC6\pdl\drivers\peripheral\usbfs/cy_usbfs_dev_drv_io_dma.c **** /*******************************************************************************
  25:Generated_Source\PSoC6\pdl\drivers\peripheral\usbfs/cy_usbfs_dev_drv_io_dma.c **** *                        Internal Constants
  26:Generated_Source\PSoC6\pdl\drivers\peripheral\usbfs/cy_usbfs_dev_drv_io_dma.c **** *******************************************************************************/
  27:Generated_Source\PSoC6\pdl\drivers\peripheral\usbfs/cy_usbfs_dev_drv_io_dma.c **** 
  28:Generated_Source\PSoC6\pdl\drivers\peripheral\usbfs/cy_usbfs_dev_drv_io_dma.c **** /* Invalid channel */
  29:Generated_Source\PSoC6\pdl\drivers\peripheral\usbfs/cy_usbfs_dev_drv_io_dma.c **** #define DMA_INVALID_CHANNEL     ((uint32_t) (-1))
  30:Generated_Source\PSoC6\pdl\drivers\peripheral\usbfs/cy_usbfs_dev_drv_io_dma.c **** 
  31:Generated_Source\PSoC6\pdl\drivers\peripheral\usbfs/cy_usbfs_dev_drv_io_dma.c **** /* Arbiter interrupt sources for OUT and IN endpoints when mode is
ARM GAS  C:\Users\enes_\AppData\Local\Temp\ccRFUday.s 			page 2


  32:Generated_Source\PSoC6\pdl\drivers\peripheral\usbfs/cy_usbfs_dev_drv_io_dma.c **** * CY_USBFS_DEV_DRV_EP_MANAGEMENT_DMA_AUTO.
  33:Generated_Source\PSoC6\pdl\drivers\peripheral\usbfs/cy_usbfs_dev_drv_io_dma.c **** */
  34:Generated_Source\PSoC6\pdl\drivers\peripheral\usbfs/cy_usbfs_dev_drv_io_dma.c **** #define IN_ENDPOINT_ARB_INTR_SOURCES    (USBFS_USBDEV_ARB_EP_IN_BUF_FULL_Msk | \
  35:Generated_Source\PSoC6\pdl\drivers\peripheral\usbfs/cy_usbfs_dev_drv_io_dma.c ****                                          USBFS_USBDEV_ARB_EP_BUF_OVER_Msk    | \
  36:Generated_Source\PSoC6\pdl\drivers\peripheral\usbfs/cy_usbfs_dev_drv_io_dma.c ****                                          USBFS_USBDEV_ARB_EP_BUF_UNDER_Msk   | \
  37:Generated_Source\PSoC6\pdl\drivers\peripheral\usbfs/cy_usbfs_dev_drv_io_dma.c ****                                          USBFS_USBDEV_ARB_EP_ERR_Msk)
  38:Generated_Source\PSoC6\pdl\drivers\peripheral\usbfs/cy_usbfs_dev_drv_io_dma.c **** 
  39:Generated_Source\PSoC6\pdl\drivers\peripheral\usbfs/cy_usbfs_dev_drv_io_dma.c **** #define OUT_ENDPOINT_ARB_INTR_SOURCES   (USBFS_USBDEV_ARB_EP_DMA_TERMIN_Msk | \
  40:Generated_Source\PSoC6\pdl\drivers\peripheral\usbfs/cy_usbfs_dev_drv_io_dma.c ****                                          USBFS_USBDEV_ARB_EP_BUF_OVER_Msk   | \
  41:Generated_Source\PSoC6\pdl\drivers\peripheral\usbfs/cy_usbfs_dev_drv_io_dma.c ****                                          USBFS_USBDEV_ARB_EP_BUF_UNDER_Msk  | \
  42:Generated_Source\PSoC6\pdl\drivers\peripheral\usbfs/cy_usbfs_dev_drv_io_dma.c ****                                          USBFS_USBDEV_ARB_EP_ERR_Msk)
  43:Generated_Source\PSoC6\pdl\drivers\peripheral\usbfs/cy_usbfs_dev_drv_io_dma.c **** 
  44:Generated_Source\PSoC6\pdl\drivers\peripheral\usbfs/cy_usbfs_dev_drv_io_dma.c **** /* DMA configuration defines*/
  45:Generated_Source\PSoC6\pdl\drivers\peripheral\usbfs/cy_usbfs_dev_drv_io_dma.c **** #define DMA_XLOOP_INCREMENT    (1)
  46:Generated_Source\PSoC6\pdl\drivers\peripheral\usbfs/cy_usbfs_dev_drv_io_dma.c **** #define DMA_YLOOP_INCREMENT    (32)
  47:Generated_Source\PSoC6\pdl\drivers\peripheral\usbfs/cy_usbfs_dev_drv_io_dma.c **** #define DMA_NO_INCREMENT       (0)
  48:Generated_Source\PSoC6\pdl\drivers\peripheral\usbfs/cy_usbfs_dev_drv_io_dma.c **** 
  49:Generated_Source\PSoC6\pdl\drivers\peripheral\usbfs/cy_usbfs_dev_drv_io_dma.c **** /* Timeout for dynamic reconfiguration */
  50:Generated_Source\PSoC6\pdl\drivers\peripheral\usbfs/cy_usbfs_dev_drv_io_dma.c **** #define DYN_RECONFIG_ONE_TICK   (1U)        /* 1 tick = 1 us */
  51:Generated_Source\PSoC6\pdl\drivers\peripheral\usbfs/cy_usbfs_dev_drv_io_dma.c **** #define DYN_RECONFIG_TIMEOUT    (25000UL)   /* (25000 * tick)us = 25 ms ( TDRQCMPLTND / 2 ) */
  52:Generated_Source\PSoC6\pdl\drivers\peripheral\usbfs/cy_usbfs_dev_drv_io_dma.c **** 
  53:Generated_Source\PSoC6\pdl\drivers\peripheral\usbfs/cy_usbfs_dev_drv_io_dma.c **** /* Timeout for DMA read operation */
  54:Generated_Source\PSoC6\pdl\drivers\peripheral\usbfs/cy_usbfs_dev_drv_io_dma.c **** #define DMA_READ_REQUEST_ONE_TICK   (1U)      /* 1 tick = 1 us */
  55:Generated_Source\PSoC6\pdl\drivers\peripheral\usbfs/cy_usbfs_dev_drv_io_dma.c **** #define DMA_READ_REQUEST_TIMEOUT    (25000UL) /* (25000 * tick)us = 25 ms ( TDRQCMPLTND / 2 ) */
  56:Generated_Source\PSoC6\pdl\drivers\peripheral\usbfs/cy_usbfs_dev_drv_io_dma.c **** 
  57:Generated_Source\PSoC6\pdl\drivers\peripheral\usbfs/cy_usbfs_dev_drv_io_dma.c **** #define DMA_WRITE_REQUEST_ONE_TICK   (1U)      /* 1 tick = 1 us */
  58:Generated_Source\PSoC6\pdl\drivers\peripheral\usbfs/cy_usbfs_dev_drv_io_dma.c **** #define DMA_WRITE_REQUEST_TIMEOUT    (25000UL) /* (25000 * tick)us = 25 ms ( TDRQCMPLTND / 2 ) */
  59:Generated_Source\PSoC6\pdl\drivers\peripheral\usbfs/cy_usbfs_dev_drv_io_dma.c **** 
  60:Generated_Source\PSoC6\pdl\drivers\peripheral\usbfs/cy_usbfs_dev_drv_io_dma.c **** 
  61:Generated_Source\PSoC6\pdl\drivers\peripheral\usbfs/cy_usbfs_dev_drv_io_dma.c **** /*******************************************************************************
  62:Generated_Source\PSoC6\pdl\drivers\peripheral\usbfs/cy_usbfs_dev_drv_io_dma.c **** *                        Internal Functions Prototypes
  63:Generated_Source\PSoC6\pdl\drivers\peripheral\usbfs/cy_usbfs_dev_drv_io_dma.c **** *******************************************************************************/
  64:Generated_Source\PSoC6\pdl\drivers\peripheral\usbfs/cy_usbfs_dev_drv_io_dma.c **** 
  65:Generated_Source\PSoC6\pdl\drivers\peripheral\usbfs/cy_usbfs_dev_drv_io_dma.c **** static void DmaEndpointInit1D(cy_stc_dma_descriptor_t *descr, 
  66:Generated_Source\PSoC6\pdl\drivers\peripheral\usbfs/cy_usbfs_dev_drv_io_dma.c ****                               bool inDirection, 
  67:Generated_Source\PSoC6\pdl\drivers\peripheral\usbfs/cy_usbfs_dev_drv_io_dma.c ****                               cy_en_dma_data_size_t dataSize, 
  68:Generated_Source\PSoC6\pdl\drivers\peripheral\usbfs/cy_usbfs_dev_drv_io_dma.c ****                               volatile uint32_t const *dataReg);
  69:Generated_Source\PSoC6\pdl\drivers\peripheral\usbfs/cy_usbfs_dev_drv_io_dma.c **** 
  70:Generated_Source\PSoC6\pdl\drivers\peripheral\usbfs/cy_usbfs_dev_drv_io_dma.c **** static void DmaEndpointInit2D(cy_stc_dma_descriptor_t *descr, 
  71:Generated_Source\PSoC6\pdl\drivers\peripheral\usbfs/cy_usbfs_dev_drv_io_dma.c ****                               bool inDirection, 
  72:Generated_Source\PSoC6\pdl\drivers\peripheral\usbfs/cy_usbfs_dev_drv_io_dma.c ****                               int32_t numElements);
  73:Generated_Source\PSoC6\pdl\drivers\peripheral\usbfs/cy_usbfs_dev_drv_io_dma.c **** 
  74:Generated_Source\PSoC6\pdl\drivers\peripheral\usbfs/cy_usbfs_dev_drv_io_dma.c **** static void DmaEndpointSetLength(bool inDirection, 
  75:Generated_Source\PSoC6\pdl\drivers\peripheral\usbfs/cy_usbfs_dev_drv_io_dma.c ****                                  uint32_t size, 
  76:Generated_Source\PSoC6\pdl\drivers\peripheral\usbfs/cy_usbfs_dev_drv_io_dma.c ****                                  cy_stc_usbfs_dev_drv_endpoint_data_t *endpoint);
  77:Generated_Source\PSoC6\pdl\drivers\peripheral\usbfs/cy_usbfs_dev_drv_io_dma.c **** 
  78:Generated_Source\PSoC6\pdl\drivers\peripheral\usbfs/cy_usbfs_dev_drv_io_dma.c **** 
  79:Generated_Source\PSoC6\pdl\drivers\peripheral\usbfs/cy_usbfs_dev_drv_io_dma.c **** /*******************************************************************************
  80:Generated_Source\PSoC6\pdl\drivers\peripheral\usbfs/cy_usbfs_dev_drv_io_dma.c **** *                            Internal Constants
  81:Generated_Source\PSoC6\pdl\drivers\peripheral\usbfs/cy_usbfs_dev_drv_io_dma.c **** *******************************************************************************/
  82:Generated_Source\PSoC6\pdl\drivers\peripheral\usbfs/cy_usbfs_dev_drv_io_dma.c **** 
  83:Generated_Source\PSoC6\pdl\drivers\peripheral\usbfs/cy_usbfs_dev_drv_io_dma.c **** /* Used for getting data in X loops */
  84:Generated_Source\PSoC6\pdl\drivers\peripheral\usbfs/cy_usbfs_dev_drv_io_dma.c **** #define DMA_DESCR_1D_CFG \
  85:Generated_Source\PSoC6\pdl\drivers\peripheral\usbfs/cy_usbfs_dev_drv_io_dma.c **** {                        \
  86:Generated_Source\PSoC6\pdl\drivers\peripheral\usbfs/cy_usbfs_dev_drv_io_dma.c ****     /* .retrigger      = */ CY_DMA_RETRIG_IM,        \
  87:Generated_Source\PSoC6\pdl\drivers\peripheral\usbfs/cy_usbfs_dev_drv_io_dma.c ****     /* .interruptType  = */ CY_DMA_DESCR,            \
  88:Generated_Source\PSoC6\pdl\drivers\peripheral\usbfs/cy_usbfs_dev_drv_io_dma.c ****     /* .triggerOutType = */ CY_DMA_DESCR,            \
ARM GAS  C:\Users\enes_\AppData\Local\Temp\ccRFUday.s 			page 3


  89:Generated_Source\PSoC6\pdl\drivers\peripheral\usbfs/cy_usbfs_dev_drv_io_dma.c ****     /* .channelState   = */ CY_DMA_CHANNEL_DISABLED, \
  90:Generated_Source\PSoC6\pdl\drivers\peripheral\usbfs/cy_usbfs_dev_drv_io_dma.c ****     /* .triggerInType  = */ CY_DMA_DESCR,            \
  91:Generated_Source\PSoC6\pdl\drivers\peripheral\usbfs/cy_usbfs_dev_drv_io_dma.c ****     /* .dataSize        = */ CY_DMA_BYTE,               \
  92:Generated_Source\PSoC6\pdl\drivers\peripheral\usbfs/cy_usbfs_dev_drv_io_dma.c ****     /* .srcTransferSize = */ CY_DMA_TRANSFER_SIZE_WORD, \
  93:Generated_Source\PSoC6\pdl\drivers\peripheral\usbfs/cy_usbfs_dev_drv_io_dma.c ****     /* .dstTransferSize = */ CY_DMA_TRANSFER_SIZE_WORD, \
  94:Generated_Source\PSoC6\pdl\drivers\peripheral\usbfs/cy_usbfs_dev_drv_io_dma.c ****     /* .descriptorType  = */ CY_DMA_1D_TRANSFER,        \
  95:Generated_Source\PSoC6\pdl\drivers\peripheral\usbfs/cy_usbfs_dev_drv_io_dma.c ****     /* .srcAddress     = */ NULL, \
  96:Generated_Source\PSoC6\pdl\drivers\peripheral\usbfs/cy_usbfs_dev_drv_io_dma.c ****     /* .dstAddress     = */ NULL, \
  97:Generated_Source\PSoC6\pdl\drivers\peripheral\usbfs/cy_usbfs_dev_drv_io_dma.c ****     /* .srcXincrement  = */ 0,    \
  98:Generated_Source\PSoC6\pdl\drivers\peripheral\usbfs/cy_usbfs_dev_drv_io_dma.c ****     /* .dstXincrement  = */ 0,    \
  99:Generated_Source\PSoC6\pdl\drivers\peripheral\usbfs/cy_usbfs_dev_drv_io_dma.c ****     /* .xCount         = */ 1UL,  \
 100:Generated_Source\PSoC6\pdl\drivers\peripheral\usbfs/cy_usbfs_dev_drv_io_dma.c ****     /* .srcYincrement  = */ 0,    \
 101:Generated_Source\PSoC6\pdl\drivers\peripheral\usbfs/cy_usbfs_dev_drv_io_dma.c ****     /* .dstYincrement  = */ 0,    \
 102:Generated_Source\PSoC6\pdl\drivers\peripheral\usbfs/cy_usbfs_dev_drv_io_dma.c ****     /* .yCount         = */ 1UL,  \
 103:Generated_Source\PSoC6\pdl\drivers\peripheral\usbfs/cy_usbfs_dev_drv_io_dma.c ****     /* .nextDescriptor = */ NULL, \
 104:Generated_Source\PSoC6\pdl\drivers\peripheral\usbfs/cy_usbfs_dev_drv_io_dma.c **** }
 105:Generated_Source\PSoC6\pdl\drivers\peripheral\usbfs/cy_usbfs_dev_drv_io_dma.c **** 
 106:Generated_Source\PSoC6\pdl\drivers\peripheral\usbfs/cy_usbfs_dev_drv_io_dma.c **** /* Used for getting data in Y loops */
 107:Generated_Source\PSoC6\pdl\drivers\peripheral\usbfs/cy_usbfs_dev_drv_io_dma.c **** #define DMA_DESCR_2D_CFG \
 108:Generated_Source\PSoC6\pdl\drivers\peripheral\usbfs/cy_usbfs_dev_drv_io_dma.c **** {                        \
 109:Generated_Source\PSoC6\pdl\drivers\peripheral\usbfs/cy_usbfs_dev_drv_io_dma.c ****     /* .retrigger      = */ CY_DMA_RETRIG_IM,       \
 110:Generated_Source\PSoC6\pdl\drivers\peripheral\usbfs/cy_usbfs_dev_drv_io_dma.c ****     /* .interruptType  = */ CY_DMA_X_LOOP,          \
 111:Generated_Source\PSoC6\pdl\drivers\peripheral\usbfs/cy_usbfs_dev_drv_io_dma.c ****     /* .triggerOutType = */ CY_DMA_X_LOOP,          \
 112:Generated_Source\PSoC6\pdl\drivers\peripheral\usbfs/cy_usbfs_dev_drv_io_dma.c ****     /* .channelState   = */ CY_DMA_CHANNEL_ENABLED, \
 113:Generated_Source\PSoC6\pdl\drivers\peripheral\usbfs/cy_usbfs_dev_drv_io_dma.c ****     /* .triggerInType  = */ CY_DMA_X_LOOP,          \
 114:Generated_Source\PSoC6\pdl\drivers\peripheral\usbfs/cy_usbfs_dev_drv_io_dma.c ****     /* .dataSize        = */ CY_DMA_BYTE,               \
 115:Generated_Source\PSoC6\pdl\drivers\peripheral\usbfs/cy_usbfs_dev_drv_io_dma.c ****     /* .srcTransferSize = */ CY_DMA_TRANSFER_SIZE_WORD, \
 116:Generated_Source\PSoC6\pdl\drivers\peripheral\usbfs/cy_usbfs_dev_drv_io_dma.c ****     /* .dstTransferSize = */ CY_DMA_TRANSFER_SIZE_WORD, \
 117:Generated_Source\PSoC6\pdl\drivers\peripheral\usbfs/cy_usbfs_dev_drv_io_dma.c ****     /* .descriptorType  = */ CY_DMA_2D_TRANSFER,        \
 118:Generated_Source\PSoC6\pdl\drivers\peripheral\usbfs/cy_usbfs_dev_drv_io_dma.c ****     /* .srcAddress     = */ NULL, \
 119:Generated_Source\PSoC6\pdl\drivers\peripheral\usbfs/cy_usbfs_dev_drv_io_dma.c ****     /* .dstAddress     = */ NULL, \
 120:Generated_Source\PSoC6\pdl\drivers\peripheral\usbfs/cy_usbfs_dev_drv_io_dma.c ****     /* .srcXincrement  = */ 0,    \
 121:Generated_Source\PSoC6\pdl\drivers\peripheral\usbfs/cy_usbfs_dev_drv_io_dma.c ****     /* .dstXincrement  = */ 0,    \
 122:Generated_Source\PSoC6\pdl\drivers\peripheral\usbfs/cy_usbfs_dev_drv_io_dma.c ****     /* .xCount         = */ 1UL,  \
 123:Generated_Source\PSoC6\pdl\drivers\peripheral\usbfs/cy_usbfs_dev_drv_io_dma.c ****     /* .srcYincrement  = */ 0,    \
 124:Generated_Source\PSoC6\pdl\drivers\peripheral\usbfs/cy_usbfs_dev_drv_io_dma.c ****     /* .dstYincrement  = */ 0,    \
 125:Generated_Source\PSoC6\pdl\drivers\peripheral\usbfs/cy_usbfs_dev_drv_io_dma.c ****     /* .yCount         = */ 1UL,  \
 126:Generated_Source\PSoC6\pdl\drivers\peripheral\usbfs/cy_usbfs_dev_drv_io_dma.c ****     /* .nextDescriptor = */ NULL, \
 127:Generated_Source\PSoC6\pdl\drivers\peripheral\usbfs/cy_usbfs_dev_drv_io_dma.c **** }
 128:Generated_Source\PSoC6\pdl\drivers\peripheral\usbfs/cy_usbfs_dev_drv_io_dma.c **** 
 129:Generated_Source\PSoC6\pdl\drivers\peripheral\usbfs/cy_usbfs_dev_drv_io_dma.c **** 
 130:Generated_Source\PSoC6\pdl\drivers\peripheral\usbfs/cy_usbfs_dev_drv_io_dma.c **** /*******************************************************************************
 131:Generated_Source\PSoC6\pdl\drivers\peripheral\usbfs/cy_usbfs_dev_drv_io_dma.c **** * Function Name: DmaInit
 132:Generated_Source\PSoC6\pdl\drivers\peripheral\usbfs/cy_usbfs_dev_drv_io_dma.c **** ****************************************************************************//**
 133:Generated_Source\PSoC6\pdl\drivers\peripheral\usbfs/cy_usbfs_dev_drv_io_dma.c **** *
 134:Generated_Source\PSoC6\pdl\drivers\peripheral\usbfs/cy_usbfs_dev_drv_io_dma.c **** * Initializes all DMA channels used by the USBFS Device.
 135:Generated_Source\PSoC6\pdl\drivers\peripheral\usbfs/cy_usbfs_dev_drv_io_dma.c **** *
 136:Generated_Source\PSoC6\pdl\drivers\peripheral\usbfs/cy_usbfs_dev_drv_io_dma.c **** * \param config
 137:Generated_Source\PSoC6\pdl\drivers\peripheral\usbfs/cy_usbfs_dev_drv_io_dma.c **** * The pointer to the driver configuration structure \ref cy_stc_usbfs_dev_drv_config_t.
 138:Generated_Source\PSoC6\pdl\drivers\peripheral\usbfs/cy_usbfs_dev_drv_io_dma.c **** *
 139:Generated_Source\PSoC6\pdl\drivers\peripheral\usbfs/cy_usbfs_dev_drv_io_dma.c **** * \param context
 140:Generated_Source\PSoC6\pdl\drivers\peripheral\usbfs/cy_usbfs_dev_drv_io_dma.c **** * The pointer to the context structure \ref cy_stc_usbfs_dev_drv_context_t
 141:Generated_Source\PSoC6\pdl\drivers\peripheral\usbfs/cy_usbfs_dev_drv_io_dma.c **** * allocated by the user. The structure is used during the USBFS Device 
 142:Generated_Source\PSoC6\pdl\drivers\peripheral\usbfs/cy_usbfs_dev_drv_io_dma.c **** * operation for internal configuration and data retention. The user must not 
 143:Generated_Source\PSoC6\pdl\drivers\peripheral\usbfs/cy_usbfs_dev_drv_io_dma.c **** * modify anything in this structure.
 144:Generated_Source\PSoC6\pdl\drivers\peripheral\usbfs/cy_usbfs_dev_drv_io_dma.c **** *
 145:Generated_Source\PSoC6\pdl\drivers\peripheral\usbfs/cy_usbfs_dev_drv_io_dma.c **** * \return
ARM GAS  C:\Users\enes_\AppData\Local\Temp\ccRFUday.s 			page 4


 146:Generated_Source\PSoC6\pdl\drivers\peripheral\usbfs/cy_usbfs_dev_drv_io_dma.c **** * Status code of the function execution \ref cy_en_usbfs_dev_drv_status_t.
 147:Generated_Source\PSoC6\pdl\drivers\peripheral\usbfs/cy_usbfs_dev_drv_io_dma.c **** *
 148:Generated_Source\PSoC6\pdl\drivers\peripheral\usbfs/cy_usbfs_dev_drv_io_dma.c **** *******************************************************************************/
 149:Generated_Source\PSoC6\pdl\drivers\peripheral\usbfs/cy_usbfs_dev_drv_io_dma.c **** cy_en_usbfs_dev_drv_status_t DmaInit(cy_stc_usbfs_dev_drv_config_t const *config, cy_stc_usbfs_dev_
 150:Generated_Source\PSoC6\pdl\drivers\peripheral\usbfs/cy_usbfs_dev_drv_io_dma.c **** {
 151:Generated_Source\PSoC6\pdl\drivers\peripheral\usbfs/cy_usbfs_dev_drv_io_dma.c ****     cy_en_usbfs_dev_drv_status_t retStatus = CY_USBFS_DEV_DRV_DMA_CFG_FAILED;
 152:Generated_Source\PSoC6\pdl\drivers\peripheral\usbfs/cy_usbfs_dev_drv_io_dma.c **** 
 153:Generated_Source\PSoC6\pdl\drivers\peripheral\usbfs/cy_usbfs_dev_drv_io_dma.c ****     uint32_t endpoint;
 154:Generated_Source\PSoC6\pdl\drivers\peripheral\usbfs/cy_usbfs_dev_drv_io_dma.c **** 
 155:Generated_Source\PSoC6\pdl\drivers\peripheral\usbfs/cy_usbfs_dev_drv_io_dma.c ****     /* Configure DMA descriptors and channels for data endpoints */
 156:Generated_Source\PSoC6\pdl\drivers\peripheral\usbfs/cy_usbfs_dev_drv_io_dma.c ****     for (endpoint = 0UL; endpoint < CY_USBFS_DEV_DRV_NUM_EPS_MAX; ++endpoint)
 157:Generated_Source\PSoC6\pdl\drivers\peripheral\usbfs/cy_usbfs_dev_drv_io_dma.c ****     {
 158:Generated_Source\PSoC6\pdl\drivers\peripheral\usbfs/cy_usbfs_dev_drv_io_dma.c ****         /* DMA configuration status for endpoint */
 159:Generated_Source\PSoC6\pdl\drivers\peripheral\usbfs/cy_usbfs_dev_drv_io_dma.c ****         retStatus = CY_USBFS_DEV_DRV_DMA_CFG_FAILED;
 160:Generated_Source\PSoC6\pdl\drivers\peripheral\usbfs/cy_usbfs_dev_drv_io_dma.c **** 
 161:Generated_Source\PSoC6\pdl\drivers\peripheral\usbfs/cy_usbfs_dev_drv_io_dma.c ****         /* Get pointer to endpoint data */
 162:Generated_Source\PSoC6\pdl\drivers\peripheral\usbfs/cy_usbfs_dev_drv_io_dma.c ****         cy_stc_usbfs_dev_drv_endpoint_data_t *endpointData = &context->epPool[endpoint];
 163:Generated_Source\PSoC6\pdl\drivers\peripheral\usbfs/cy_usbfs_dev_drv_io_dma.c **** 
 164:Generated_Source\PSoC6\pdl\drivers\peripheral\usbfs/cy_usbfs_dev_drv_io_dma.c ****         if (config->dmaConfig[endpoint] != NULL)
 165:Generated_Source\PSoC6\pdl\drivers\peripheral\usbfs/cy_usbfs_dev_drv_io_dma.c ****         {
 166:Generated_Source\PSoC6\pdl\drivers\peripheral\usbfs/cy_usbfs_dev_drv_io_dma.c ****             cy_en_usbfs_dev_drv_status_t locStatus = CY_USBFS_DEV_DRV_DMA_CFG_FAILED;
 167:Generated_Source\PSoC6\pdl\drivers\peripheral\usbfs/cy_usbfs_dev_drv_io_dma.c **** 
 168:Generated_Source\PSoC6\pdl\drivers\peripheral\usbfs/cy_usbfs_dev_drv_io_dma.c ****             cy_stc_dma_channel_config_t chConfig;
 169:Generated_Source\PSoC6\pdl\drivers\peripheral\usbfs/cy_usbfs_dev_drv_io_dma.c ****             
 170:Generated_Source\PSoC6\pdl\drivers\peripheral\usbfs/cy_usbfs_dev_drv_io_dma.c ****             /* Descriptors configurations */
 171:Generated_Source\PSoC6\pdl\drivers\peripheral\usbfs/cy_usbfs_dev_drv_io_dma.c ****             const cy_stc_dma_descriptor_config_t DmaDescr1DCfg = DMA_DESCR_1D_CFG;
 172:Generated_Source\PSoC6\pdl\drivers\peripheral\usbfs/cy_usbfs_dev_drv_io_dma.c ****             const cy_stc_dma_descriptor_config_t DmaDescr2DCfg = DMA_DESCR_2D_CFG;
 173:Generated_Source\PSoC6\pdl\drivers\peripheral\usbfs/cy_usbfs_dev_drv_io_dma.c **** 
 174:Generated_Source\PSoC6\pdl\drivers\peripheral\usbfs/cy_usbfs_dev_drv_io_dma.c ****             /* Store DMA configuration required for operation */
 175:Generated_Source\PSoC6\pdl\drivers\peripheral\usbfs/cy_usbfs_dev_drv_io_dma.c ****             endpointData->base   = config->dmaConfig[endpoint]->base;
 176:Generated_Source\PSoC6\pdl\drivers\peripheral\usbfs/cy_usbfs_dev_drv_io_dma.c ****             endpointData->chNum  = config->dmaConfig[endpoint]->chNum;
 177:Generated_Source\PSoC6\pdl\drivers\peripheral\usbfs/cy_usbfs_dev_drv_io_dma.c ****             endpointData->descr0 = config->dmaConfig[endpoint]->descr0;
 178:Generated_Source\PSoC6\pdl\drivers\peripheral\usbfs/cy_usbfs_dev_drv_io_dma.c ****             endpointData->descr1 = config->dmaConfig[endpoint]->descr1;
 179:Generated_Source\PSoC6\pdl\drivers\peripheral\usbfs/cy_usbfs_dev_drv_io_dma.c ****             endpointData->outTrigMux = config->dmaConfig[endpoint]->outTrigMux;
 180:Generated_Source\PSoC6\pdl\drivers\peripheral\usbfs/cy_usbfs_dev_drv_io_dma.c ****             endpointData->copyData   = NULL;
 181:Generated_Source\PSoC6\pdl\drivers\peripheral\usbfs/cy_usbfs_dev_drv_io_dma.c **** 
 182:Generated_Source\PSoC6\pdl\drivers\peripheral\usbfs/cy_usbfs_dev_drv_io_dma.c ****             if (CY_USBFS_DEV_DRV_EP_MANAGEMENT_DMA == context->mode)
 183:Generated_Source\PSoC6\pdl\drivers\peripheral\usbfs/cy_usbfs_dev_drv_io_dma.c ****             {
 184:Generated_Source\PSoC6\pdl\drivers\peripheral\usbfs/cy_usbfs_dev_drv_io_dma.c ****                 if (NULL != endpointData->descr0)
 185:Generated_Source\PSoC6\pdl\drivers\peripheral\usbfs/cy_usbfs_dev_drv_io_dma.c ****                 {
 186:Generated_Source\PSoC6\pdl\drivers\peripheral\usbfs/cy_usbfs_dev_drv_io_dma.c ****                     /* Initialize DMA descriptor 0 for 1D operation. 
 187:Generated_Source\PSoC6\pdl\drivers\peripheral\usbfs/cy_usbfs_dev_drv_io_dma.c ****                     * Discard return because descriptor configuration (defined in driver) is valid.
 188:Generated_Source\PSoC6\pdl\drivers\peripheral\usbfs/cy_usbfs_dev_drv_io_dma.c ****                     */
 189:Generated_Source\PSoC6\pdl\drivers\peripheral\usbfs/cy_usbfs_dev_drv_io_dma.c ****                     (void) Cy_DMA_Descriptor_Init(endpointData->descr0, &DmaDescr1DCfg);
 190:Generated_Source\PSoC6\pdl\drivers\peripheral\usbfs/cy_usbfs_dev_drv_io_dma.c **** 
 191:Generated_Source\PSoC6\pdl\drivers\peripheral\usbfs/cy_usbfs_dev_drv_io_dma.c ****                     locStatus = CY_USBFS_DEV_DRV_SUCCESS;
 192:Generated_Source\PSoC6\pdl\drivers\peripheral\usbfs/cy_usbfs_dev_drv_io_dma.c ****                 }
 193:Generated_Source\PSoC6\pdl\drivers\peripheral\usbfs/cy_usbfs_dev_drv_io_dma.c ****             }
 194:Generated_Source\PSoC6\pdl\drivers\peripheral\usbfs/cy_usbfs_dev_drv_io_dma.c ****             else
 195:Generated_Source\PSoC6\pdl\drivers\peripheral\usbfs/cy_usbfs_dev_drv_io_dma.c ****             {
 196:Generated_Source\PSoC6\pdl\drivers\peripheral\usbfs/cy_usbfs_dev_drv_io_dma.c ****                 if ((NULL != endpointData->descr0) && (NULL != endpointData->descr1))
 197:Generated_Source\PSoC6\pdl\drivers\peripheral\usbfs/cy_usbfs_dev_drv_io_dma.c ****                 {
 198:Generated_Source\PSoC6\pdl\drivers\peripheral\usbfs/cy_usbfs_dev_drv_io_dma.c ****                     /* Initialize DMA descriptor 0 for 2D operation. 
 199:Generated_Source\PSoC6\pdl\drivers\peripheral\usbfs/cy_usbfs_dev_drv_io_dma.c ****                     * Discard return because descriptor configuration (defined in driver) is valid.
 200:Generated_Source\PSoC6\pdl\drivers\peripheral\usbfs/cy_usbfs_dev_drv_io_dma.c ****                     */
 201:Generated_Source\PSoC6\pdl\drivers\peripheral\usbfs/cy_usbfs_dev_drv_io_dma.c ****                     (void) Cy_DMA_Descriptor_Init(endpointData->descr0, &DmaDescr2DCfg);
 202:Generated_Source\PSoC6\pdl\drivers\peripheral\usbfs/cy_usbfs_dev_drv_io_dma.c ****                     
ARM GAS  C:\Users\enes_\AppData\Local\Temp\ccRFUday.s 			page 5


 203:Generated_Source\PSoC6\pdl\drivers\peripheral\usbfs/cy_usbfs_dev_drv_io_dma.c **** 
 204:Generated_Source\PSoC6\pdl\drivers\peripheral\usbfs/cy_usbfs_dev_drv_io_dma.c ****                     /* Initialize DMA descriptor 0 for 1D operation. 
 205:Generated_Source\PSoC6\pdl\drivers\peripheral\usbfs/cy_usbfs_dev_drv_io_dma.c ****                     * Discard return because descriptor configuration (defined in driver) is valid.
 206:Generated_Source\PSoC6\pdl\drivers\peripheral\usbfs/cy_usbfs_dev_drv_io_dma.c ****                     */
 207:Generated_Source\PSoC6\pdl\drivers\peripheral\usbfs/cy_usbfs_dev_drv_io_dma.c ****                     (void)Cy_DMA_Descriptor_Init(endpointData->descr1, &DmaDescr1DCfg);
 208:Generated_Source\PSoC6\pdl\drivers\peripheral\usbfs/cy_usbfs_dev_drv_io_dma.c **** 
 209:Generated_Source\PSoC6\pdl\drivers\peripheral\usbfs/cy_usbfs_dev_drv_io_dma.c ****                     locStatus = CY_USBFS_DEV_DRV_SUCCESS;
 210:Generated_Source\PSoC6\pdl\drivers\peripheral\usbfs/cy_usbfs_dev_drv_io_dma.c ****                 }
 211:Generated_Source\PSoC6\pdl\drivers\peripheral\usbfs/cy_usbfs_dev_drv_io_dma.c ****             }
 212:Generated_Source\PSoC6\pdl\drivers\peripheral\usbfs/cy_usbfs_dev_drv_io_dma.c **** 
 213:Generated_Source\PSoC6\pdl\drivers\peripheral\usbfs/cy_usbfs_dev_drv_io_dma.c ****             /* Set DMA channel configuration */
 214:Generated_Source\PSoC6\pdl\drivers\peripheral\usbfs/cy_usbfs_dev_drv_io_dma.c ****             chConfig.enable      = false;
 215:Generated_Source\PSoC6\pdl\drivers\peripheral\usbfs/cy_usbfs_dev_drv_io_dma.c ****             chConfig.bufferable  = false;
 216:Generated_Source\PSoC6\pdl\drivers\peripheral\usbfs/cy_usbfs_dev_drv_io_dma.c ****             chConfig.descriptor  = config->dmaConfig[endpoint]->descr0;
 217:Generated_Source\PSoC6\pdl\drivers\peripheral\usbfs/cy_usbfs_dev_drv_io_dma.c ****             chConfig.preemptable = config->dmaConfig[endpoint]->preemptable;
 218:Generated_Source\PSoC6\pdl\drivers\peripheral\usbfs/cy_usbfs_dev_drv_io_dma.c ****             chConfig.priority    = config->dmaConfig[endpoint]->priority;
 219:Generated_Source\PSoC6\pdl\drivers\peripheral\usbfs/cy_usbfs_dev_drv_io_dma.c **** 
 220:Generated_Source\PSoC6\pdl\drivers\peripheral\usbfs/cy_usbfs_dev_drv_io_dma.c ****             /* Initialize DMA channel */
 221:Generated_Source\PSoC6\pdl\drivers\peripheral\usbfs/cy_usbfs_dev_drv_io_dma.c ****             if ((CY_DMA_SUCCESS != Cy_DMA_Channel_Init(endpointData->base, endpointData->chNum, &ch
 222:Generated_Source\PSoC6\pdl\drivers\peripheral\usbfs/cy_usbfs_dev_drv_io_dma.c ****                 (CY_USBFS_DEV_DRV_SUCCESS != locStatus))
 223:Generated_Source\PSoC6\pdl\drivers\peripheral\usbfs/cy_usbfs_dev_drv_io_dma.c ****             {
 224:Generated_Source\PSoC6\pdl\drivers\peripheral\usbfs/cy_usbfs_dev_drv_io_dma.c ****                 break;
 225:Generated_Source\PSoC6\pdl\drivers\peripheral\usbfs/cy_usbfs_dev_drv_io_dma.c ****             }
 226:Generated_Source\PSoC6\pdl\drivers\peripheral\usbfs/cy_usbfs_dev_drv_io_dma.c **** 
 227:Generated_Source\PSoC6\pdl\drivers\peripheral\usbfs/cy_usbfs_dev_drv_io_dma.c ****             /* Enable DMA block */
 228:Generated_Source\PSoC6\pdl\drivers\peripheral\usbfs/cy_usbfs_dev_drv_io_dma.c ****             Cy_DMA_Enable(endpointData->base);
 229:Generated_Source\PSoC6\pdl\drivers\peripheral\usbfs/cy_usbfs_dev_drv_io_dma.c ****         }
 230:Generated_Source\PSoC6\pdl\drivers\peripheral\usbfs/cy_usbfs_dev_drv_io_dma.c ****         else
 231:Generated_Source\PSoC6\pdl\drivers\peripheral\usbfs/cy_usbfs_dev_drv_io_dma.c ****         {
 232:Generated_Source\PSoC6\pdl\drivers\peripheral\usbfs/cy_usbfs_dev_drv_io_dma.c ****             endpointData->chNum = DMA_INVALID_CHANNEL;
 233:Generated_Source\PSoC6\pdl\drivers\peripheral\usbfs/cy_usbfs_dev_drv_io_dma.c ****         }
 234:Generated_Source\PSoC6\pdl\drivers\peripheral\usbfs/cy_usbfs_dev_drv_io_dma.c **** 
 235:Generated_Source\PSoC6\pdl\drivers\peripheral\usbfs/cy_usbfs_dev_drv_io_dma.c ****         /* Configuration complete successfully */
 236:Generated_Source\PSoC6\pdl\drivers\peripheral\usbfs/cy_usbfs_dev_drv_io_dma.c ****         retStatus = CY_USBFS_DEV_DRV_SUCCESS;
 237:Generated_Source\PSoC6\pdl\drivers\peripheral\usbfs/cy_usbfs_dev_drv_io_dma.c ****     }
 238:Generated_Source\PSoC6\pdl\drivers\peripheral\usbfs/cy_usbfs_dev_drv_io_dma.c **** 
 239:Generated_Source\PSoC6\pdl\drivers\peripheral\usbfs/cy_usbfs_dev_drv_io_dma.c ****     /* Disable all DMAs if any configuration failed */
 240:Generated_Source\PSoC6\pdl\drivers\peripheral\usbfs/cy_usbfs_dev_drv_io_dma.c ****     if (CY_USBFS_DEV_DRV_SUCCESS != retStatus)
 241:Generated_Source\PSoC6\pdl\drivers\peripheral\usbfs/cy_usbfs_dev_drv_io_dma.c ****     {
 242:Generated_Source\PSoC6\pdl\drivers\peripheral\usbfs/cy_usbfs_dev_drv_io_dma.c ****         DmaDisable(context);
 243:Generated_Source\PSoC6\pdl\drivers\peripheral\usbfs/cy_usbfs_dev_drv_io_dma.c ****     }
 244:Generated_Source\PSoC6\pdl\drivers\peripheral\usbfs/cy_usbfs_dev_drv_io_dma.c **** 
 245:Generated_Source\PSoC6\pdl\drivers\peripheral\usbfs/cy_usbfs_dev_drv_io_dma.c ****     return retStatus;
 246:Generated_Source\PSoC6\pdl\drivers\peripheral\usbfs/cy_usbfs_dev_drv_io_dma.c **** }
 247:Generated_Source\PSoC6\pdl\drivers\peripheral\usbfs/cy_usbfs_dev_drv_io_dma.c **** 
 248:Generated_Source\PSoC6\pdl\drivers\peripheral\usbfs/cy_usbfs_dev_drv_io_dma.c **** 
 249:Generated_Source\PSoC6\pdl\drivers\peripheral\usbfs/cy_usbfs_dev_drv_io_dma.c **** /*******************************************************************************
 250:Generated_Source\PSoC6\pdl\drivers\peripheral\usbfs/cy_usbfs_dev_drv_io_dma.c **** * Function Name: DmaDisable
 251:Generated_Source\PSoC6\pdl\drivers\peripheral\usbfs/cy_usbfs_dev_drv_io_dma.c **** ****************************************************************************//**
 252:Generated_Source\PSoC6\pdl\drivers\peripheral\usbfs/cy_usbfs_dev_drv_io_dma.c **** *
 253:Generated_Source\PSoC6\pdl\drivers\peripheral\usbfs/cy_usbfs_dev_drv_io_dma.c **** * Disables all DMA channels used by the USBFS Device. 
 254:Generated_Source\PSoC6\pdl\drivers\peripheral\usbfs/cy_usbfs_dev_drv_io_dma.c **** * The channel state is not verified before being disabled.
 255:Generated_Source\PSoC6\pdl\drivers\peripheral\usbfs/cy_usbfs_dev_drv_io_dma.c **** *
 256:Generated_Source\PSoC6\pdl\drivers\peripheral\usbfs/cy_usbfs_dev_drv_io_dma.c **** * \param context
 257:Generated_Source\PSoC6\pdl\drivers\peripheral\usbfs/cy_usbfs_dev_drv_io_dma.c **** * The pointer to the context structure \ref cy_stc_usbfs_dev_drv_context_t
 258:Generated_Source\PSoC6\pdl\drivers\peripheral\usbfs/cy_usbfs_dev_drv_io_dma.c **** * allocated by the user. The structure is used during the USBFS Device 
 259:Generated_Source\PSoC6\pdl\drivers\peripheral\usbfs/cy_usbfs_dev_drv_io_dma.c **** * operation for internal configuration and data retention. The user must not 
ARM GAS  C:\Users\enes_\AppData\Local\Temp\ccRFUday.s 			page 6


 260:Generated_Source\PSoC6\pdl\drivers\peripheral\usbfs/cy_usbfs_dev_drv_io_dma.c **** * modify anything in this structure.
 261:Generated_Source\PSoC6\pdl\drivers\peripheral\usbfs/cy_usbfs_dev_drv_io_dma.c **** *
 262:Generated_Source\PSoC6\pdl\drivers\peripheral\usbfs/cy_usbfs_dev_drv_io_dma.c **** *******************************************************************************/
 263:Generated_Source\PSoC6\pdl\drivers\peripheral\usbfs/cy_usbfs_dev_drv_io_dma.c **** void DmaDisable(cy_stc_usbfs_dev_drv_context_t *context)
 264:Generated_Source\PSoC6\pdl\drivers\peripheral\usbfs/cy_usbfs_dev_drv_io_dma.c **** {
 265:Generated_Source\PSoC6\pdl\drivers\peripheral\usbfs/cy_usbfs_dev_drv_io_dma.c ****     uint32_t endpoint;
 266:Generated_Source\PSoC6\pdl\drivers\peripheral\usbfs/cy_usbfs_dev_drv_io_dma.c **** 
 267:Generated_Source\PSoC6\pdl\drivers\peripheral\usbfs/cy_usbfs_dev_drv_io_dma.c ****     /* Disable DMA channels for data endpoints */
 268:Generated_Source\PSoC6\pdl\drivers\peripheral\usbfs/cy_usbfs_dev_drv_io_dma.c ****     for (endpoint = 0UL; endpoint < CY_USBFS_DEV_DRV_NUM_EPS_MAX; ++endpoint)
 269:Generated_Source\PSoC6\pdl\drivers\peripheral\usbfs/cy_usbfs_dev_drv_io_dma.c ****     {
 270:Generated_Source\PSoC6\pdl\drivers\peripheral\usbfs/cy_usbfs_dev_drv_io_dma.c ****         /* Get pointer to endpoint data */
 271:Generated_Source\PSoC6\pdl\drivers\peripheral\usbfs/cy_usbfs_dev_drv_io_dma.c ****         cy_stc_usbfs_dev_drv_endpoint_data_t *endpointData = &context->epPool[endpoint];
 272:Generated_Source\PSoC6\pdl\drivers\peripheral\usbfs/cy_usbfs_dev_drv_io_dma.c **** 
 273:Generated_Source\PSoC6\pdl\drivers\peripheral\usbfs/cy_usbfs_dev_drv_io_dma.c ****         if (endpointData->chNum != DMA_INVALID_CHANNEL)
 274:Generated_Source\PSoC6\pdl\drivers\peripheral\usbfs/cy_usbfs_dev_drv_io_dma.c ****         {
 275:Generated_Source\PSoC6\pdl\drivers\peripheral\usbfs/cy_usbfs_dev_drv_io_dma.c ****             Cy_DMA_Channel_Disable(endpointData->base, endpointData->chNum);
 276:Generated_Source\PSoC6\pdl\drivers\peripheral\usbfs/cy_usbfs_dev_drv_io_dma.c ****         }
 277:Generated_Source\PSoC6\pdl\drivers\peripheral\usbfs/cy_usbfs_dev_drv_io_dma.c ****     }
 278:Generated_Source\PSoC6\pdl\drivers\peripheral\usbfs/cy_usbfs_dev_drv_io_dma.c **** }
 279:Generated_Source\PSoC6\pdl\drivers\peripheral\usbfs/cy_usbfs_dev_drv_io_dma.c **** 
 280:Generated_Source\PSoC6\pdl\drivers\peripheral\usbfs/cy_usbfs_dev_drv_io_dma.c **** 
 281:Generated_Source\PSoC6\pdl\drivers\peripheral\usbfs/cy_usbfs_dev_drv_io_dma.c **** /*******************************************************************************
 282:Generated_Source\PSoC6\pdl\drivers\peripheral\usbfs/cy_usbfs_dev_drv_io_dma.c **** * Function Name: DmaEndpointInit1D
 283:Generated_Source\PSoC6\pdl\drivers\peripheral\usbfs/cy_usbfs_dev_drv_io_dma.c **** ****************************************************************************//**
 284:Generated_Source\PSoC6\pdl\drivers\peripheral\usbfs/cy_usbfs_dev_drv_io_dma.c **** *
 285:Generated_Source\PSoC6\pdl\drivers\peripheral\usbfs/cy_usbfs_dev_drv_io_dma.c **** * Configures DMA 1D descriptor used in DMA modes.
 286:Generated_Source\PSoC6\pdl\drivers\peripheral\usbfs/cy_usbfs_dev_drv_io_dma.c **** *
 287:Generated_Source\PSoC6\pdl\drivers\peripheral\usbfs/cy_usbfs_dev_drv_io_dma.c **** * \param descr
 288:Generated_Source\PSoC6\pdl\drivers\peripheral\usbfs/cy_usbfs_dev_drv_io_dma.c **** * The pointer to the DMA descriptor.
 289:Generated_Source\PSoC6\pdl\drivers\peripheral\usbfs/cy_usbfs_dev_drv_io_dma.c **** *
 290:Generated_Source\PSoC6\pdl\drivers\peripheral\usbfs/cy_usbfs_dev_drv_io_dma.c **** * \param dataSize
 291:Generated_Source\PSoC6\pdl\drivers\peripheral\usbfs/cy_usbfs_dev_drv_io_dma.c **** * The DMA transfer data size \ref cy_en_dma_data_size_t.
 292:Generated_Source\PSoC6\pdl\drivers\peripheral\usbfs/cy_usbfs_dev_drv_io_dma.c **** *
 293:Generated_Source\PSoC6\pdl\drivers\peripheral\usbfs/cy_usbfs_dev_drv_io_dma.c **** * \param dataReg
 294:Generated_Source\PSoC6\pdl\drivers\peripheral\usbfs/cy_usbfs_dev_drv_io_dma.c **** * The pointer to the data endpoint data register.
 295:Generated_Source\PSoC6\pdl\drivers\peripheral\usbfs/cy_usbfs_dev_drv_io_dma.c **** *
 296:Generated_Source\PSoC6\pdl\drivers\peripheral\usbfs/cy_usbfs_dev_drv_io_dma.c **** *******************************************************************************/
 297:Generated_Source\PSoC6\pdl\drivers\peripheral\usbfs/cy_usbfs_dev_drv_io_dma.c **** static void DmaEndpointInit1D(cy_stc_dma_descriptor_t *descr, bool inDirection, 
 298:Generated_Source\PSoC6\pdl\drivers\peripheral\usbfs/cy_usbfs_dev_drv_io_dma.c ****                               cy_en_dma_data_size_t dataSize, volatile uint32_t const *dataReg)
 299:Generated_Source\PSoC6\pdl\drivers\peripheral\usbfs/cy_usbfs_dev_drv_io_dma.c **** {
  27              		.loc 1 299 0
  28              		.cfi_startproc
  29              		@ args = 0, pretend = 0, frame = 0
  30              		@ frame_needed = 0, uses_anonymous_args = 0
  31              	.LVL0:
  32 0000 F8B5     		push	{r3, r4, r5, r6, r7, lr}
  33              		.cfi_def_cfa_offset 24
  34              		.cfi_offset 3, -24
  35              		.cfi_offset 4, -20
  36              		.cfi_offset 5, -16
  37              		.cfi_offset 6, -12
  38              		.cfi_offset 7, -8
  39              		.cfi_offset 14, -4
  40 0002 0400     		movs	r4, r0
  41 0004 0F00     		movs	r7, r1
  42 0006 1500     		movs	r5, r2
  43 0008 1E00     		movs	r6, r3
ARM GAS  C:\Users\enes_\AppData\Local\Temp\ccRFUday.s 			page 7


  44              	.LVL1:
  45              	.LBB127:
  46              	.LBB128:
  47              		.file 2 "Generated_Source\\PSoC6\\pdl\\drivers/peripheral/dma/cy_dma.h"
   1:Generated_Source\PSoC6\pdl\drivers/peripheral/dma/cy_dma.h **** /***************************************************************************//**
   2:Generated_Source\PSoC6\pdl\drivers/peripheral/dma/cy_dma.h **** * \file cy_dma.h
   3:Generated_Source\PSoC6\pdl\drivers/peripheral/dma/cy_dma.h **** * \version 2.10
   4:Generated_Source\PSoC6\pdl\drivers/peripheral/dma/cy_dma.h **** *
   5:Generated_Source\PSoC6\pdl\drivers/peripheral/dma/cy_dma.h **** * \brief
   6:Generated_Source\PSoC6\pdl\drivers/peripheral/dma/cy_dma.h **** * The header file of the DMA driver.
   7:Generated_Source\PSoC6\pdl\drivers/peripheral/dma/cy_dma.h **** *
   8:Generated_Source\PSoC6\pdl\drivers/peripheral/dma/cy_dma.h **** ********************************************************************************
   9:Generated_Source\PSoC6\pdl\drivers/peripheral/dma/cy_dma.h **** * \copyright
  10:Generated_Source\PSoC6\pdl\drivers/peripheral/dma/cy_dma.h **** * Copyright 2016-2018, Cypress Semiconductor Corporation. All rights reserved.
  11:Generated_Source\PSoC6\pdl\drivers/peripheral/dma/cy_dma.h **** * You may use this file only in accordance with the license, terms, conditions,
  12:Generated_Source\PSoC6\pdl\drivers/peripheral/dma/cy_dma.h **** * disclaimers, and limitations in the end user license agreement accompanying
  13:Generated_Source\PSoC6\pdl\drivers/peripheral/dma/cy_dma.h **** * the software package with which this file was provided.
  14:Generated_Source\PSoC6\pdl\drivers/peripheral/dma/cy_dma.h **** *******************************************************************************/
  15:Generated_Source\PSoC6\pdl\drivers/peripheral/dma/cy_dma.h **** 
  16:Generated_Source\PSoC6\pdl\drivers/peripheral/dma/cy_dma.h **** /**
  17:Generated_Source\PSoC6\pdl\drivers/peripheral/dma/cy_dma.h **** * \addtogroup group_dma
  18:Generated_Source\PSoC6\pdl\drivers/peripheral/dma/cy_dma.h **** * \{
  19:Generated_Source\PSoC6\pdl\drivers/peripheral/dma/cy_dma.h **** * Configures a DMA channel and its descriptor(s).
  20:Generated_Source\PSoC6\pdl\drivers/peripheral/dma/cy_dma.h **** *
  21:Generated_Source\PSoC6\pdl\drivers/peripheral/dma/cy_dma.h **** * The functions and other declarations used in this driver are in cy_dma.h. 
  22:Generated_Source\PSoC6\pdl\drivers/peripheral/dma/cy_dma.h **** * You can include cy_pdl.h (ModusToolbox only) to get access to all functions 
  23:Generated_Source\PSoC6\pdl\drivers/peripheral/dma/cy_dma.h **** * and declarations in the PDL.
  24:Generated_Source\PSoC6\pdl\drivers/peripheral/dma/cy_dma.h **** *
  25:Generated_Source\PSoC6\pdl\drivers/peripheral/dma/cy_dma.h **** * The DMA channel can be used in any project to transfer data
  26:Generated_Source\PSoC6\pdl\drivers/peripheral/dma/cy_dma.h **** * without CPU intervention basing on a hardware trigger signal from another component.
  27:Generated_Source\PSoC6\pdl\drivers/peripheral/dma/cy_dma.h **** *
  28:Generated_Source\PSoC6\pdl\drivers/peripheral/dma/cy_dma.h **** * A device may support more than one DMA hardware block. Each block has a set of 
  29:Generated_Source\PSoC6\pdl\drivers/peripheral/dma/cy_dma.h **** * registers, a base hardware address, and supports multiple channels. 
  30:Generated_Source\PSoC6\pdl\drivers/peripheral/dma/cy_dma.h **** * Many API functions for the DMA driver require a base hardware address and  
  31:Generated_Source\PSoC6\pdl\drivers/peripheral/dma/cy_dma.h **** * channel number. Ensure that you use the correct hardware address for the DMA block in use.
  32:Generated_Source\PSoC6\pdl\drivers/peripheral/dma/cy_dma.h **** * 
  33:Generated_Source\PSoC6\pdl\drivers/peripheral/dma/cy_dma.h **** * Features:
  34:Generated_Source\PSoC6\pdl\drivers/peripheral/dma/cy_dma.h **** * * Multiple DW blocks (device specific)
  35:Generated_Source\PSoC6\pdl\drivers/peripheral/dma/cy_dma.h **** * * Multiple channels per each DW block (device specific)
  36:Generated_Source\PSoC6\pdl\drivers/peripheral/dma/cy_dma.h **** * * Four priority levels for each channel
  37:Generated_Source\PSoC6\pdl\drivers/peripheral/dma/cy_dma.h **** * * Byte, half-word (2-byte), and word (4-byte) transfers
  38:Generated_Source\PSoC6\pdl\drivers/peripheral/dma/cy_dma.h **** * * Configurable source and destination addresses
  39:Generated_Source\PSoC6\pdl\drivers/peripheral/dma/cy_dma.h **** * * CRC calculation support (only for CPUSS_ver2)
  40:Generated_Source\PSoC6\pdl\drivers/peripheral/dma/cy_dma.h **** *
  41:Generated_Source\PSoC6\pdl\drivers/peripheral/dma/cy_dma.h **** * \section group_dma_configuration Configuration Considerations
  42:Generated_Source\PSoC6\pdl\drivers/peripheral/dma/cy_dma.h **** *
  43:Generated_Source\PSoC6\pdl\drivers/peripheral/dma/cy_dma.h **** * To set up a DMA driver, initialize a descriptor,
  44:Generated_Source\PSoC6\pdl\drivers/peripheral/dma/cy_dma.h **** * initialize and enable a channel, and enable the DMA block.
  45:Generated_Source\PSoC6\pdl\drivers/peripheral/dma/cy_dma.h **** * 
  46:Generated_Source\PSoC6\pdl\drivers/peripheral/dma/cy_dma.h **** * To set up a descriptor, provide the configuration parameters for the 
  47:Generated_Source\PSoC6\pdl\drivers/peripheral/dma/cy_dma.h **** * descriptor in the \ref cy_stc_dma_descriptor_config_t structure. Then call the 
  48:Generated_Source\PSoC6\pdl\drivers/peripheral/dma/cy_dma.h **** * \ref Cy_DMA_Descriptor_Init function to initialize the descriptor in SRAM. You can 
  49:Generated_Source\PSoC6\pdl\drivers/peripheral/dma/cy_dma.h **** * modify the source and destination addresses dynamically by calling 
  50:Generated_Source\PSoC6\pdl\drivers/peripheral/dma/cy_dma.h **** * \ref Cy_DMA_Descriptor_SetSrcAddress and \ref Cy_DMA_Descriptor_SetDstAddress.
  51:Generated_Source\PSoC6\pdl\drivers/peripheral/dma/cy_dma.h **** * 
  52:Generated_Source\PSoC6\pdl\drivers/peripheral/dma/cy_dma.h **** * To set up a DMA channel, provide a filled \ref cy_stc_dma_channel_config_t 
  53:Generated_Source\PSoC6\pdl\drivers/peripheral/dma/cy_dma.h **** * structure. Call the \ref Cy_DMA_Channel_Init function, specifying the channel
ARM GAS  C:\Users\enes_\AppData\Local\Temp\ccRFUday.s 			page 8


  54:Generated_Source\PSoC6\pdl\drivers/peripheral/dma/cy_dma.h **** * number. Use \ref Cy_DMA_Channel_Enable to enable the configured DMA channel.
  55:Generated_Source\PSoC6\pdl\drivers/peripheral/dma/cy_dma.h **** *
  56:Generated_Source\PSoC6\pdl\drivers/peripheral/dma/cy_dma.h **** * Call \ref Cy_DMA_Channel_Enable for each DMA channel in use.
  57:Generated_Source\PSoC6\pdl\drivers/peripheral/dma/cy_dma.h **** *
  58:Generated_Source\PSoC6\pdl\drivers/peripheral/dma/cy_dma.h **** * When configured, another peripheral typically triggers the DMA. The trigger is
  59:Generated_Source\PSoC6\pdl\drivers/peripheral/dma/cy_dma.h **** * connected to the DMA using the trigger multiplexer. The trigger multiplexer
  60:Generated_Source\PSoC6\pdl\drivers/peripheral/dma/cy_dma.h **** * driver has a software trigger you can use in firmware to trigger the DMA. See the
  61:Generated_Source\PSoC6\pdl\drivers/peripheral/dma/cy_dma.h **** * <a href="group__group__trigmux.html">Trigger Multiplexer</a> documentation.
  62:Generated_Source\PSoC6\pdl\drivers/peripheral/dma/cy_dma.h **** *
  63:Generated_Source\PSoC6\pdl\drivers/peripheral/dma/cy_dma.h **** * The following is a simplified structure of the DMA driver API interdependencies
  64:Generated_Source\PSoC6\pdl\drivers/peripheral/dma/cy_dma.h **** * in a typical user application:
  65:Generated_Source\PSoC6\pdl\drivers/peripheral/dma/cy_dma.h **** * \image html dma.png
  66:Generated_Source\PSoC6\pdl\drivers/peripheral/dma/cy_dma.h **** *
  67:Generated_Source\PSoC6\pdl\drivers/peripheral/dma/cy_dma.h **** * <B>NOTE:</B> Even if a DMA channel is enabled, it is not operational until 
  68:Generated_Source\PSoC6\pdl\drivers/peripheral/dma/cy_dma.h **** * the DMA block is enabled using function \ref Cy_DMA_Enable.\n
  69:Generated_Source\PSoC6\pdl\drivers/peripheral/dma/cy_dma.h **** * <B>NOTE:</B> If the DMA descriptor is configured to generate an interrupt, 
  70:Generated_Source\PSoC6\pdl\drivers/peripheral/dma/cy_dma.h **** * the interrupt must be enabled using the \ref Cy_DMA_Channel_SetInterruptMask 
  71:Generated_Source\PSoC6\pdl\drivers/peripheral/dma/cy_dma.h **** * function for each DMA channel.
  72:Generated_Source\PSoC6\pdl\drivers/peripheral/dma/cy_dma.h **** *
  73:Generated_Source\PSoC6\pdl\drivers/peripheral/dma/cy_dma.h **** * For example:
  74:Generated_Source\PSoC6\pdl\drivers/peripheral/dma/cy_dma.h **** * \snippet dma\2.10\snippet\main.c snippet_Cy_DMA_Enable
  75:Generated_Source\PSoC6\pdl\drivers/peripheral/dma/cy_dma.h **** * 
  76:Generated_Source\PSoC6\pdl\drivers/peripheral/dma/cy_dma.h **** * \section group_dma_more_information More Information.
  77:Generated_Source\PSoC6\pdl\drivers/peripheral/dma/cy_dma.h **** * See: the DMA chapter of the device technical reference manual (TRM);
  78:Generated_Source\PSoC6\pdl\drivers/peripheral/dma/cy_dma.h **** *      the DMA Component datasheet;
  79:Generated_Source\PSoC6\pdl\drivers/peripheral/dma/cy_dma.h **** *      CE219940 - PSoC 6 MCU Multiple DMA Concatenation.
  80:Generated_Source\PSoC6\pdl\drivers/peripheral/dma/cy_dma.h **** *
  81:Generated_Source\PSoC6\pdl\drivers/peripheral/dma/cy_dma.h **** * \section group_dma_MISRA MISRA-C Compliance
  82:Generated_Source\PSoC6\pdl\drivers/peripheral/dma/cy_dma.h **** * The DMA driver has the following specific deviations:
  83:Generated_Source\PSoC6\pdl\drivers/peripheral/dma/cy_dma.h **** *
  84:Generated_Source\PSoC6\pdl\drivers/peripheral/dma/cy_dma.h **** * <table class="doxtable">
  85:Generated_Source\PSoC6\pdl\drivers/peripheral/dma/cy_dma.h **** *   <tr>
  86:Generated_Source\PSoC6\pdl\drivers/peripheral/dma/cy_dma.h **** *     <th>MISRA Rule</th>
  87:Generated_Source\PSoC6\pdl\drivers/peripheral/dma/cy_dma.h **** *     <th>Rule Class (Required/Advisory)</th>
  88:Generated_Source\PSoC6\pdl\drivers/peripheral/dma/cy_dma.h **** *     <th>Rule Description</th>
  89:Generated_Source\PSoC6\pdl\drivers/peripheral/dma/cy_dma.h **** *     <th>Description of Deviation(s)</th>
  90:Generated_Source\PSoC6\pdl\drivers/peripheral/dma/cy_dma.h **** *   </tr>
  91:Generated_Source\PSoC6\pdl\drivers/peripheral/dma/cy_dma.h **** *   <tr>
  92:Generated_Source\PSoC6\pdl\drivers/peripheral/dma/cy_dma.h **** *     <td>10.3</td>
  93:Generated_Source\PSoC6\pdl\drivers/peripheral/dma/cy_dma.h **** *     <td>R</td>
  94:Generated_Source\PSoC6\pdl\drivers/peripheral/dma/cy_dma.h **** *     <td>A composite expression of the "essentially unsigned" type is being
  95:Generated_Source\PSoC6\pdl\drivers/peripheral/dma/cy_dma.h **** *         cast to a different type category.</td>
  96:Generated_Source\PSoC6\pdl\drivers/peripheral/dma/cy_dma.h **** *     <td>The value got from the bitfield physically cannot exceed the enumeration
  97:Generated_Source\PSoC6\pdl\drivers/peripheral/dma/cy_dma.h **** *         that describes this bitfield. So, the code is safe by design.</td>
  98:Generated_Source\PSoC6\pdl\drivers/peripheral/dma/cy_dma.h **** *   </tr>
  99:Generated_Source\PSoC6\pdl\drivers/peripheral/dma/cy_dma.h **** *   <tr>
 100:Generated_Source\PSoC6\pdl\drivers/peripheral/dma/cy_dma.h **** *     <td>11.4</td>
 101:Generated_Source\PSoC6\pdl\drivers/peripheral/dma/cy_dma.h **** *     <td>A</td>
 102:Generated_Source\PSoC6\pdl\drivers/peripheral/dma/cy_dma.h **** *     <td>A cast should not be performed between a pointer to object type and
 103:Generated_Source\PSoC6\pdl\drivers/peripheral/dma/cy_dma.h **** *         a different pointer to object type.</td>
 104:Generated_Source\PSoC6\pdl\drivers/peripheral/dma/cy_dma.h **** *     <td>This piece of code is written for DW_V2_Type only and it will be never
 105:Generated_Source\PSoC6\pdl\drivers/peripheral/dma/cy_dma.h **** *         executed for DW_V1_Type (which is a default build option for DW_Type).</td>
 106:Generated_Source\PSoC6\pdl\drivers/peripheral/dma/cy_dma.h **** *   </tr>
 107:Generated_Source\PSoC6\pdl\drivers/peripheral/dma/cy_dma.h **** * </table>
 108:Generated_Source\PSoC6\pdl\drivers/peripheral/dma/cy_dma.h **** *
 109:Generated_Source\PSoC6\pdl\drivers/peripheral/dma/cy_dma.h **** * \section group_dma_changelog Changelog
 110:Generated_Source\PSoC6\pdl\drivers/peripheral/dma/cy_dma.h **** *
ARM GAS  C:\Users\enes_\AppData\Local\Temp\ccRFUday.s 			page 9


 111:Generated_Source\PSoC6\pdl\drivers/peripheral/dma/cy_dma.h **** * <table class="doxtable">
 112:Generated_Source\PSoC6\pdl\drivers/peripheral/dma/cy_dma.h **** *   <tr><th>Version</th><th>Changes</th><th>Reason for Change</th></tr>
 113:Generated_Source\PSoC6\pdl\drivers/peripheral/dma/cy_dma.h **** *   <tr>
 114:Generated_Source\PSoC6\pdl\drivers/peripheral/dma/cy_dma.h **** *     <td rowspan="3">2.10</td>
 115:Generated_Source\PSoC6\pdl\drivers/peripheral/dma/cy_dma.h **** *     <td>Flattened the organization of the driver source code into the single source directory and
 116:Generated_Source\PSoC6\pdl\drivers/peripheral/dma/cy_dma.h **** *     <td>Driver library directory-structure simplification.</td>
 117:Generated_Source\PSoC6\pdl\drivers/peripheral/dma/cy_dma.h **** *   </tr>
 118:Generated_Source\PSoC6\pdl\drivers/peripheral/dma/cy_dma.h **** *   <tr>
 119:Generated_Source\PSoC6\pdl\drivers/peripheral/dma/cy_dma.h **** *     <td>Added CRC mode and the CRC descriptor support. \n Added the \ref Cy_DMA_Crc_Init function
 120:Generated_Source\PSoC6\pdl\drivers/peripheral/dma/cy_dma.h **** *     <td>New devices support.</td>
 121:Generated_Source\PSoC6\pdl\drivers/peripheral/dma/cy_dma.h **** *   </tr>
 122:Generated_Source\PSoC6\pdl\drivers/peripheral/dma/cy_dma.h **** *   <tr>
 123:Generated_Source\PSoC6\pdl\drivers/peripheral/dma/cy_dma.h **** *     <td>Added register access layer. Use register access macros instead
 124:Generated_Source\PSoC6\pdl\drivers/peripheral/dma/cy_dma.h **** *         of direct register access using dereferenced pointers.</td>
 125:Generated_Source\PSoC6\pdl\drivers/peripheral/dma/cy_dma.h **** *     <td>Makes register access device-independent, so that the PDL does 
 126:Generated_Source\PSoC6\pdl\drivers/peripheral/dma/cy_dma.h **** *         not need to be recompiled for each supported part number.</td>
 127:Generated_Source\PSoC6\pdl\drivers/peripheral/dma/cy_dma.h **** *   </tr>
 128:Generated_Source\PSoC6\pdl\drivers/peripheral/dma/cy_dma.h **** *   <tr>
 129:Generated_Source\PSoC6\pdl\drivers/peripheral/dma/cy_dma.h **** *     <td>2.0.1</td>
 130:Generated_Source\PSoC6\pdl\drivers/peripheral/dma/cy_dma.h **** *     <td>Changed CY_DMA_BWC macro values from Boolean to numeric</td>
 131:Generated_Source\PSoC6\pdl\drivers/peripheral/dma/cy_dma.h **** *     <td>Improvements made based on usability feedback</td>
 132:Generated_Source\PSoC6\pdl\drivers/peripheral/dma/cy_dma.h **** *   </tr>
 133:Generated_Source\PSoC6\pdl\drivers/peripheral/dma/cy_dma.h **** *   <tr>
 134:Generated_Source\PSoC6\pdl\drivers/peripheral/dma/cy_dma.h **** *     <td>2.0</td>
 135:Generated_Source\PSoC6\pdl\drivers/peripheral/dma/cy_dma.h **** *     <td> * All the API is refactored to be consistent within itself and with the
 136:Generated_Source\PSoC6\pdl\drivers/peripheral/dma/cy_dma.h **** *            rest of the PDL content.
 137:Generated_Source\PSoC6\pdl\drivers/peripheral/dma/cy_dma.h **** *          * The descriptor API is updated as follows:
 138:Generated_Source\PSoC6\pdl\drivers/peripheral/dma/cy_dma.h **** *            The \ref Cy_DMA_Descriptor_Init function sets a full bunch of descriptor
 139:Generated_Source\PSoC6\pdl\drivers/peripheral/dma/cy_dma.h **** *            settings, and the rest of the descriptor API is a get/set interface
 140:Generated_Source\PSoC6\pdl\drivers/peripheral/dma/cy_dma.h **** *            to each of the descriptor settings.
 141:Generated_Source\PSoC6\pdl\drivers/peripheral/dma/cy_dma.h **** *          * There is a group of macros to support the backward compatibility with most 
 142:Generated_Source\PSoC6\pdl\drivers/peripheral/dma/cy_dma.h **** *            of the driver version 1.0 API. But, you should use
 143:Generated_Source\PSoC6\pdl\drivers/peripheral/dma/cy_dma.h **** *            the new v2.0 interface in new designs (do not just copy-paste from old
 144:Generated_Source\PSoC6\pdl\drivers/peripheral/dma/cy_dma.h **** *            projects). To enable the backward compatibility support, the CY_DMA_BWC 
 145:Generated_Source\PSoC6\pdl\drivers/peripheral/dma/cy_dma.h **** *            definition should be changed to "1".</td>
 146:Generated_Source\PSoC6\pdl\drivers/peripheral/dma/cy_dma.h **** *     <td></td>
 147:Generated_Source\PSoC6\pdl\drivers/peripheral/dma/cy_dma.h **** *   </tr>
 148:Generated_Source\PSoC6\pdl\drivers/peripheral/dma/cy_dma.h **** *   <tr>
 149:Generated_Source\PSoC6\pdl\drivers/peripheral/dma/cy_dma.h **** *     <td>1.0</td>
 150:Generated_Source\PSoC6\pdl\drivers/peripheral/dma/cy_dma.h **** *     <td>Initial version</td>
 151:Generated_Source\PSoC6\pdl\drivers/peripheral/dma/cy_dma.h **** *     <td></td>
 152:Generated_Source\PSoC6\pdl\drivers/peripheral/dma/cy_dma.h **** *   </tr>
 153:Generated_Source\PSoC6\pdl\drivers/peripheral/dma/cy_dma.h **** * </table>
 154:Generated_Source\PSoC6\pdl\drivers/peripheral/dma/cy_dma.h **** *
 155:Generated_Source\PSoC6\pdl\drivers/peripheral/dma/cy_dma.h **** 
 156:Generated_Source\PSoC6\pdl\drivers/peripheral/dma/cy_dma.h **** * \defgroup group_dma_macros Macros
 157:Generated_Source\PSoC6\pdl\drivers/peripheral/dma/cy_dma.h **** * \defgroup group_dma_functions Functions
 158:Generated_Source\PSoC6\pdl\drivers/peripheral/dma/cy_dma.h **** * \{
 159:Generated_Source\PSoC6\pdl\drivers/peripheral/dma/cy_dma.h **** * \defgroup group_dma_block_functions Block Functions
 160:Generated_Source\PSoC6\pdl\drivers/peripheral/dma/cy_dma.h **** * \defgroup group_dma_channel_functions Channel Functions
 161:Generated_Source\PSoC6\pdl\drivers/peripheral/dma/cy_dma.h **** * \defgroup group_dma_descriptor_functions Descriptor Functions
 162:Generated_Source\PSoC6\pdl\drivers/peripheral/dma/cy_dma.h **** * \}
 163:Generated_Source\PSoC6\pdl\drivers/peripheral/dma/cy_dma.h **** * \defgroup group_dma_data_structures Data Structures
 164:Generated_Source\PSoC6\pdl\drivers/peripheral/dma/cy_dma.h **** * \defgroup group_dma_enums Enumerated Types
 165:Generated_Source\PSoC6\pdl\drivers/peripheral/dma/cy_dma.h **** */
 166:Generated_Source\PSoC6\pdl\drivers/peripheral/dma/cy_dma.h **** 
 167:Generated_Source\PSoC6\pdl\drivers/peripheral/dma/cy_dma.h **** #if !defined(CY_DMA_H)
ARM GAS  C:\Users\enes_\AppData\Local\Temp\ccRFUday.s 			page 10


 168:Generated_Source\PSoC6\pdl\drivers/peripheral/dma/cy_dma.h **** #define CY_DMA_H
 169:Generated_Source\PSoC6\pdl\drivers/peripheral/dma/cy_dma.h **** 
 170:Generated_Source\PSoC6\pdl\drivers/peripheral/dma/cy_dma.h **** #include "cy_device.h"
 171:Generated_Source\PSoC6\pdl\drivers/peripheral/dma/cy_dma.h **** #include "cy_device_headers.h"
 172:Generated_Source\PSoC6\pdl\drivers/peripheral/dma/cy_dma.h **** #include "cy_syslib.h"
 173:Generated_Source\PSoC6\pdl\drivers/peripheral/dma/cy_dma.h **** #include <stdint.h>
 174:Generated_Source\PSoC6\pdl\drivers/peripheral/dma/cy_dma.h **** #include <stdbool.h>
 175:Generated_Source\PSoC6\pdl\drivers/peripheral/dma/cy_dma.h **** #include <stddef.h>
 176:Generated_Source\PSoC6\pdl\drivers/peripheral/dma/cy_dma.h **** 
 177:Generated_Source\PSoC6\pdl\drivers/peripheral/dma/cy_dma.h **** #ifdef CY_IP_M4CPUSS_DMA
 178:Generated_Source\PSoC6\pdl\drivers/peripheral/dma/cy_dma.h **** 
 179:Generated_Source\PSoC6\pdl\drivers/peripheral/dma/cy_dma.h **** #if defined(__cplusplus)
 180:Generated_Source\PSoC6\pdl\drivers/peripheral/dma/cy_dma.h **** extern "C" {
 181:Generated_Source\PSoC6\pdl\drivers/peripheral/dma/cy_dma.h **** #endif
 182:Generated_Source\PSoC6\pdl\drivers/peripheral/dma/cy_dma.h **** 
 183:Generated_Source\PSoC6\pdl\drivers/peripheral/dma/cy_dma.h **** /******************************************************************************
 184:Generated_Source\PSoC6\pdl\drivers/peripheral/dma/cy_dma.h ****  * Macro definitions                                                          *
 185:Generated_Source\PSoC6\pdl\drivers/peripheral/dma/cy_dma.h ****  ******************************************************************************/
 186:Generated_Source\PSoC6\pdl\drivers/peripheral/dma/cy_dma.h **** 
 187:Generated_Source\PSoC6\pdl\drivers/peripheral/dma/cy_dma.h **** /**
 188:Generated_Source\PSoC6\pdl\drivers/peripheral/dma/cy_dma.h **** * \addtogroup group_dma_macros
 189:Generated_Source\PSoC6\pdl\drivers/peripheral/dma/cy_dma.h **** * \{
 190:Generated_Source\PSoC6\pdl\drivers/peripheral/dma/cy_dma.h **** */
 191:Generated_Source\PSoC6\pdl\drivers/peripheral/dma/cy_dma.h **** 
 192:Generated_Source\PSoC6\pdl\drivers/peripheral/dma/cy_dma.h **** /** The driver major version */
 193:Generated_Source\PSoC6\pdl\drivers/peripheral/dma/cy_dma.h **** #define CY_DMA_DRV_VERSION_MAJOR       2
 194:Generated_Source\PSoC6\pdl\drivers/peripheral/dma/cy_dma.h **** 
 195:Generated_Source\PSoC6\pdl\drivers/peripheral/dma/cy_dma.h **** /** The driver minor version */
 196:Generated_Source\PSoC6\pdl\drivers/peripheral/dma/cy_dma.h **** #define CY_DMA_DRV_VERSION_MINOR       10
 197:Generated_Source\PSoC6\pdl\drivers/peripheral/dma/cy_dma.h **** 
 198:Generated_Source\PSoC6\pdl\drivers/peripheral/dma/cy_dma.h **** /** The DMA driver identifier */
 199:Generated_Source\PSoC6\pdl\drivers/peripheral/dma/cy_dma.h **** #define CY_DMA_ID                      (CY_PDL_DRV_ID(0x13U))
 200:Generated_Source\PSoC6\pdl\drivers/peripheral/dma/cy_dma.h ****  
 201:Generated_Source\PSoC6\pdl\drivers/peripheral/dma/cy_dma.h **** /** The DMA channel interrupt mask */
 202:Generated_Source\PSoC6\pdl\drivers/peripheral/dma/cy_dma.h **** #define CY_DMA_INTR_MASK               (0x01UL)
 203:Generated_Source\PSoC6\pdl\drivers/peripheral/dma/cy_dma.h **** 
 204:Generated_Source\PSoC6\pdl\drivers/peripheral/dma/cy_dma.h **** /** The minimum X/Y Count API parameters */
 205:Generated_Source\PSoC6\pdl\drivers/peripheral/dma/cy_dma.h **** #define CY_DMA_LOOP_COUNT_MIN          (1UL)
 206:Generated_Source\PSoC6\pdl\drivers/peripheral/dma/cy_dma.h **** /** The maximum X/Y Count API parameters */
 207:Generated_Source\PSoC6\pdl\drivers/peripheral/dma/cy_dma.h **** #define CY_DMA_LOOP_COUNT_MAX          (256UL)
 208:Generated_Source\PSoC6\pdl\drivers/peripheral/dma/cy_dma.h **** 
 209:Generated_Source\PSoC6\pdl\drivers/peripheral/dma/cy_dma.h **** /** The minimum X/Y Increment API parameters */
 210:Generated_Source\PSoC6\pdl\drivers/peripheral/dma/cy_dma.h **** #define CY_DMA_LOOP_INCREMENT_MIN      (-2048L)
 211:Generated_Source\PSoC6\pdl\drivers/peripheral/dma/cy_dma.h **** /** The maximum X/Y Increment API parameters */
 212:Generated_Source\PSoC6\pdl\drivers/peripheral/dma/cy_dma.h **** #define CY_DMA_LOOP_INCREMENT_MAX      (2047L)
 213:Generated_Source\PSoC6\pdl\drivers/peripheral/dma/cy_dma.h **** 
 214:Generated_Source\PSoC6\pdl\drivers/peripheral/dma/cy_dma.h **** /** The backward compatibility flag. Enables a group of macros which provide 
 215:Generated_Source\PSoC6\pdl\drivers/peripheral/dma/cy_dma.h **** * the backward compatibility with most of the DMA driver version 1.0 interface. */
 216:Generated_Source\PSoC6\pdl\drivers/peripheral/dma/cy_dma.h **** #ifndef CY_DMA_BWC
 217:Generated_Source\PSoC6\pdl\drivers/peripheral/dma/cy_dma.h ****     #define CY_DMA_BWC                 (0U) /* Disabled by default */
 218:Generated_Source\PSoC6\pdl\drivers/peripheral/dma/cy_dma.h **** #endif
 219:Generated_Source\PSoC6\pdl\drivers/peripheral/dma/cy_dma.h **** 
 220:Generated_Source\PSoC6\pdl\drivers/peripheral/dma/cy_dma.h **** /** \} group_dma_macros */
 221:Generated_Source\PSoC6\pdl\drivers/peripheral/dma/cy_dma.h **** 
 222:Generated_Source\PSoC6\pdl\drivers/peripheral/dma/cy_dma.h **** 
 223:Generated_Source\PSoC6\pdl\drivers/peripheral/dma/cy_dma.h **** /**
 224:Generated_Source\PSoC6\pdl\drivers/peripheral/dma/cy_dma.h **** * \addtogroup group_dma_enums
ARM GAS  C:\Users\enes_\AppData\Local\Temp\ccRFUday.s 			page 11


 225:Generated_Source\PSoC6\pdl\drivers/peripheral/dma/cy_dma.h **** * \{
 226:Generated_Source\PSoC6\pdl\drivers/peripheral/dma/cy_dma.h **** */
 227:Generated_Source\PSoC6\pdl\drivers/peripheral/dma/cy_dma.h **** 
 228:Generated_Source\PSoC6\pdl\drivers/peripheral/dma/cy_dma.h **** /** Contains the possible interrupt cause values */
 229:Generated_Source\PSoC6\pdl\drivers/peripheral/dma/cy_dma.h **** typedef enum
 230:Generated_Source\PSoC6\pdl\drivers/peripheral/dma/cy_dma.h **** {
 231:Generated_Source\PSoC6\pdl\drivers/peripheral/dma/cy_dma.h ****     CY_DMA_INTR_CAUSE_NO_INTR            = 0U, /**< No interrupt.                       */
 232:Generated_Source\PSoC6\pdl\drivers/peripheral/dma/cy_dma.h ****     CY_DMA_INTR_CAUSE_COMPLETION         = 1U, /**< Completion.                         */
 233:Generated_Source\PSoC6\pdl\drivers/peripheral/dma/cy_dma.h ****     CY_DMA_INTR_CAUSE_SRC_BUS_ERROR      = 2U, /**< Source bus error.                   */
 234:Generated_Source\PSoC6\pdl\drivers/peripheral/dma/cy_dma.h ****     CY_DMA_INTR_CAUSE_DST_BUS_ERROR      = 3U, /**< Destination bus error.              */
 235:Generated_Source\PSoC6\pdl\drivers/peripheral/dma/cy_dma.h ****     CY_DMA_INTR_CAUSE_SRC_MISAL          = 4U, /**< Source address is not aligned.       */
 236:Generated_Source\PSoC6\pdl\drivers/peripheral/dma/cy_dma.h ****     CY_DMA_INTR_CAUSE_DST_MISAL          = 5U, /**< Destination address is not aligned. */
 237:Generated_Source\PSoC6\pdl\drivers/peripheral/dma/cy_dma.h ****     CY_DMA_INTR_CAUSE_CURR_PTR_NULL      = 6U, /**< Current descriptor pointer is NULL. */
 238:Generated_Source\PSoC6\pdl\drivers/peripheral/dma/cy_dma.h ****     CY_DMA_INTR_CAUSE_ACTIVE_CH_DISABLED = 7U, /**< Active channel is disabled.         */
 239:Generated_Source\PSoC6\pdl\drivers/peripheral/dma/cy_dma.h ****     CY_DMA_INTR_CAUSE_DESCR_BUS_ERROR    = 8U  /**< Descriptor bus error.               */
 240:Generated_Source\PSoC6\pdl\drivers/peripheral/dma/cy_dma.h **** } cy_en_dma_intr_cause_t;
 241:Generated_Source\PSoC6\pdl\drivers/peripheral/dma/cy_dma.h **** 
 242:Generated_Source\PSoC6\pdl\drivers/peripheral/dma/cy_dma.h **** /** Contains the options for the descriptor type */
 243:Generated_Source\PSoC6\pdl\drivers/peripheral/dma/cy_dma.h **** typedef enum
 244:Generated_Source\PSoC6\pdl\drivers/peripheral/dma/cy_dma.h **** {
 245:Generated_Source\PSoC6\pdl\drivers/peripheral/dma/cy_dma.h ****     CY_DMA_SINGLE_TRANSFER = 0UL,          /**< Single transfer. */
 246:Generated_Source\PSoC6\pdl\drivers/peripheral/dma/cy_dma.h ****     CY_DMA_1D_TRANSFER     = 1UL,          /**< 1D transfer.     */
 247:Generated_Source\PSoC6\pdl\drivers/peripheral/dma/cy_dma.h ****     CY_DMA_2D_TRANSFER     = 2UL,          /**< 2D transfer.     */
 248:Generated_Source\PSoC6\pdl\drivers/peripheral/dma/cy_dma.h ****     CY_DMA_CRC_TRANSFER    = 3UL,          /**< CRC transfer. Supported by the CPUSS_ver2 only. */
 249:Generated_Source\PSoC6\pdl\drivers/peripheral/dma/cy_dma.h **** } cy_en_dma_descriptor_type_t;
 250:Generated_Source\PSoC6\pdl\drivers/peripheral/dma/cy_dma.h **** 
 251:Generated_Source\PSoC6\pdl\drivers/peripheral/dma/cy_dma.h **** /** Contains the options for the interrupt, trig-in and trig-out type parameters of the descriptor 
 252:Generated_Source\PSoC6\pdl\drivers/peripheral/dma/cy_dma.h **** typedef enum
 253:Generated_Source\PSoC6\pdl\drivers/peripheral/dma/cy_dma.h **** {
 254:Generated_Source\PSoC6\pdl\drivers/peripheral/dma/cy_dma.h ****     CY_DMA_1ELEMENT    = 0UL,              /**< One element transfer.             */
 255:Generated_Source\PSoC6\pdl\drivers/peripheral/dma/cy_dma.h ****     CY_DMA_X_LOOP      = 1UL,              /**< One X loop transfer.              */
 256:Generated_Source\PSoC6\pdl\drivers/peripheral/dma/cy_dma.h ****     CY_DMA_DESCR       = 2UL,              /**< One descriptor transfer.          */
 257:Generated_Source\PSoC6\pdl\drivers/peripheral/dma/cy_dma.h ****     CY_DMA_DESCR_CHAIN = 3UL               /**< Entire descriptor chain transfer. */
 258:Generated_Source\PSoC6\pdl\drivers/peripheral/dma/cy_dma.h **** } cy_en_dma_trigger_type_t;
 259:Generated_Source\PSoC6\pdl\drivers/peripheral/dma/cy_dma.h **** 
 260:Generated_Source\PSoC6\pdl\drivers/peripheral/dma/cy_dma.h **** /** Contains the options for the data size */
 261:Generated_Source\PSoC6\pdl\drivers/peripheral/dma/cy_dma.h **** typedef enum
 262:Generated_Source\PSoC6\pdl\drivers/peripheral/dma/cy_dma.h **** {
 263:Generated_Source\PSoC6\pdl\drivers/peripheral/dma/cy_dma.h ****     CY_DMA_BYTE     = 0UL,                 /**< One byte.               */
 264:Generated_Source\PSoC6\pdl\drivers/peripheral/dma/cy_dma.h ****     CY_DMA_HALFWORD = 1UL,                 /**< Half word (two bytes).  */
 265:Generated_Source\PSoC6\pdl\drivers/peripheral/dma/cy_dma.h ****     CY_DMA_WORD     = 2UL                  /**< Full word (four bytes). */
 266:Generated_Source\PSoC6\pdl\drivers/peripheral/dma/cy_dma.h **** } cy_en_dma_data_size_t;
 267:Generated_Source\PSoC6\pdl\drivers/peripheral/dma/cy_dma.h **** 
 268:Generated_Source\PSoC6\pdl\drivers/peripheral/dma/cy_dma.h **** /** Contains the options for descriptor retriggering */
 269:Generated_Source\PSoC6\pdl\drivers/peripheral/dma/cy_dma.h **** typedef enum
 270:Generated_Source\PSoC6\pdl\drivers/peripheral/dma/cy_dma.h **** {
 271:Generated_Source\PSoC6\pdl\drivers/peripheral/dma/cy_dma.h ****     CY_DMA_RETRIG_IM      = 0UL,           /**< Retrigger immediately.              */
 272:Generated_Source\PSoC6\pdl\drivers/peripheral/dma/cy_dma.h ****     CY_DMA_RETRIG_4CYC    = 1UL,           /**< Retrigger after 4 Clk_Slow cycles.  */
 273:Generated_Source\PSoC6\pdl\drivers/peripheral/dma/cy_dma.h ****     CY_DMA_RETRIG_16CYC   = 2UL,           /**< Retrigger after 16 Clk_Slow cycles. */
 274:Generated_Source\PSoC6\pdl\drivers/peripheral/dma/cy_dma.h ****     CY_DMA_WAIT_FOR_REACT = 3UL            /**< Wait for trigger reactivation.      */
 275:Generated_Source\PSoC6\pdl\drivers/peripheral/dma/cy_dma.h **** } cy_en_dma_retrigger_t;
 276:Generated_Source\PSoC6\pdl\drivers/peripheral/dma/cy_dma.h **** 
 277:Generated_Source\PSoC6\pdl\drivers/peripheral/dma/cy_dma.h **** /** Contains the options for the transfer size */
 278:Generated_Source\PSoC6\pdl\drivers/peripheral/dma/cy_dma.h **** typedef enum
 279:Generated_Source\PSoC6\pdl\drivers/peripheral/dma/cy_dma.h **** {
 280:Generated_Source\PSoC6\pdl\drivers/peripheral/dma/cy_dma.h ****     CY_DMA_TRANSFER_SIZE_DATA = 0UL,       /**< As specified by dataSize. */
 281:Generated_Source\PSoC6\pdl\drivers/peripheral/dma/cy_dma.h ****     CY_DMA_TRANSFER_SIZE_WORD = 1UL,       /**< A full word (four bytes). */
ARM GAS  C:\Users\enes_\AppData\Local\Temp\ccRFUday.s 			page 12


 282:Generated_Source\PSoC6\pdl\drivers/peripheral/dma/cy_dma.h **** } cy_en_dma_transfer_size_t;
 283:Generated_Source\PSoC6\pdl\drivers/peripheral/dma/cy_dma.h **** 
 284:Generated_Source\PSoC6\pdl\drivers/peripheral/dma/cy_dma.h **** /** Contains the options for the state of the channel when the descriptor is completed   */
 285:Generated_Source\PSoC6\pdl\drivers/peripheral/dma/cy_dma.h **** typedef enum
 286:Generated_Source\PSoC6\pdl\drivers/peripheral/dma/cy_dma.h **** {
 287:Generated_Source\PSoC6\pdl\drivers/peripheral/dma/cy_dma.h ****     CY_DMA_CHANNEL_ENABLED  = 0UL,         /**< Channel stays enabled. */
 288:Generated_Source\PSoC6\pdl\drivers/peripheral/dma/cy_dma.h ****     CY_DMA_CHANNEL_DISABLED = 1UL          /**< Channel is disabled.   */
 289:Generated_Source\PSoC6\pdl\drivers/peripheral/dma/cy_dma.h **** } cy_en_dma_channel_state_t;
 290:Generated_Source\PSoC6\pdl\drivers/peripheral/dma/cy_dma.h **** 
 291:Generated_Source\PSoC6\pdl\drivers/peripheral/dma/cy_dma.h **** /** Contains the return values of the DMA driver */
 292:Generated_Source\PSoC6\pdl\drivers/peripheral/dma/cy_dma.h **** typedef enum 
 293:Generated_Source\PSoC6\pdl\drivers/peripheral/dma/cy_dma.h **** {
 294:Generated_Source\PSoC6\pdl\drivers/peripheral/dma/cy_dma.h ****     CY_DMA_SUCCESS   = 0x00UL, /**< Success. */
 295:Generated_Source\PSoC6\pdl\drivers/peripheral/dma/cy_dma.h ****     CY_DMA_BAD_PARAM = CY_DMA_ID | CY_PDL_STATUS_ERROR | 0x01UL /**< The input parameters passed to
 296:Generated_Source\PSoC6\pdl\drivers/peripheral/dma/cy_dma.h **** } cy_en_dma_status_t;
 297:Generated_Source\PSoC6\pdl\drivers/peripheral/dma/cy_dma.h **** 
 298:Generated_Source\PSoC6\pdl\drivers/peripheral/dma/cy_dma.h **** /** \} group_dma_enums */
 299:Generated_Source\PSoC6\pdl\drivers/peripheral/dma/cy_dma.h **** 
 300:Generated_Source\PSoC6\pdl\drivers/peripheral/dma/cy_dma.h **** 
 301:Generated_Source\PSoC6\pdl\drivers/peripheral/dma/cy_dma.h **** /** \cond Internal */
 302:Generated_Source\PSoC6\pdl\drivers/peripheral/dma/cy_dma.h **** 
 303:Generated_Source\PSoC6\pdl\drivers/peripheral/dma/cy_dma.h **** /* Macros for the conditions used by CY_ASSERT calls */
 304:Generated_Source\PSoC6\pdl\drivers/peripheral/dma/cy_dma.h **** #define CY_DMA_IS_LOOP_COUNT_VALID(count)      (((count) >= CY_DMA_LOOP_COUNT_MIN) && ((count) <= C
 305:Generated_Source\PSoC6\pdl\drivers/peripheral/dma/cy_dma.h **** #define CY_DMA_IS_LOOP_INCR_VALID(incr)        (((incr) >= CY_DMA_LOOP_INCREMENT_MIN) && ((incr) <=
 306:Generated_Source\PSoC6\pdl\drivers/peripheral/dma/cy_dma.h **** #define CY_DMA_IS_PRIORITY_VALID(prio)         ((prio) <= 3UL)
 307:Generated_Source\PSoC6\pdl\drivers/peripheral/dma/cy_dma.h **** #define CY_DMA_IS_INTR_MASK_VALID(intr)        (0UL == ((intr) & ((uint32_t) ~CY_DMA_INTR_MASK)))
 308:Generated_Source\PSoC6\pdl\drivers/peripheral/dma/cy_dma.h **** 
 309:Generated_Source\PSoC6\pdl\drivers/peripheral/dma/cy_dma.h **** #define CY_DMA_IS_RETRIG_VALID(retrig)         ((CY_DMA_RETRIG_IM      == (retrig)) || \
 310:Generated_Source\PSoC6\pdl\drivers/peripheral/dma/cy_dma.h ****                                                 (CY_DMA_RETRIG_4CYC    == (retrig)) || \
 311:Generated_Source\PSoC6\pdl\drivers/peripheral/dma/cy_dma.h ****                                                 (CY_DMA_RETRIG_16CYC   == (retrig)) || \
 312:Generated_Source\PSoC6\pdl\drivers/peripheral/dma/cy_dma.h ****                                                 (CY_DMA_WAIT_FOR_REACT == (retrig)))
 313:Generated_Source\PSoC6\pdl\drivers/peripheral/dma/cy_dma.h **** 
 314:Generated_Source\PSoC6\pdl\drivers/peripheral/dma/cy_dma.h **** #define CY_DMA_IS_TRIG_TYPE_VALID(trigType)    ((CY_DMA_1ELEMENT    == (trigType)) || \
 315:Generated_Source\PSoC6\pdl\drivers/peripheral/dma/cy_dma.h ****                                                 (CY_DMA_X_LOOP      == (trigType)) || \
 316:Generated_Source\PSoC6\pdl\drivers/peripheral/dma/cy_dma.h ****                                                 (CY_DMA_DESCR       == (trigType)) || \
 317:Generated_Source\PSoC6\pdl\drivers/peripheral/dma/cy_dma.h ****                                                 (CY_DMA_DESCR_CHAIN == (trigType)))
 318:Generated_Source\PSoC6\pdl\drivers/peripheral/dma/cy_dma.h **** 
 319:Generated_Source\PSoC6\pdl\drivers/peripheral/dma/cy_dma.h **** #define CY_DMA_IS_XFER_SIZE_VALID(xferSize)    ((CY_DMA_TRANSFER_SIZE_DATA == (xferSize)) || \
 320:Generated_Source\PSoC6\pdl\drivers/peripheral/dma/cy_dma.h ****                                                 (CY_DMA_TRANSFER_SIZE_WORD == (xferSize)))
 321:Generated_Source\PSoC6\pdl\drivers/peripheral/dma/cy_dma.h **** 
 322:Generated_Source\PSoC6\pdl\drivers/peripheral/dma/cy_dma.h **** #define CY_DMA_IS_CHANNEL_STATE_VALID(state)   ((CY_DMA_CHANNEL_ENABLED  == (state)) || \
 323:Generated_Source\PSoC6\pdl\drivers/peripheral/dma/cy_dma.h ****                                                 (CY_DMA_CHANNEL_DISABLED == (state)))
 324:Generated_Source\PSoC6\pdl\drivers/peripheral/dma/cy_dma.h **** 
 325:Generated_Source\PSoC6\pdl\drivers/peripheral/dma/cy_dma.h **** #define CY_DMA_IS_DATA_SIZE_VALID(dataSize)    ((CY_DMA_BYTE     == (dataSize)) || \
 326:Generated_Source\PSoC6\pdl\drivers/peripheral/dma/cy_dma.h ****                                                 (CY_DMA_HALFWORD == (dataSize)) || \
 327:Generated_Source\PSoC6\pdl\drivers/peripheral/dma/cy_dma.h ****                                                 (CY_DMA_WORD     == (dataSize)))
 328:Generated_Source\PSoC6\pdl\drivers/peripheral/dma/cy_dma.h **** 
 329:Generated_Source\PSoC6\pdl\drivers/peripheral/dma/cy_dma.h **** #define CY_DMA_IS_TYPE_VALID(descrType)        ((CY_DMA_SINGLE_TRANSFER == (descrType)) || \
 330:Generated_Source\PSoC6\pdl\drivers/peripheral/dma/cy_dma.h ****                                                 (CY_DMA_1D_TRANSFER     == (descrType)) || \
 331:Generated_Source\PSoC6\pdl\drivers/peripheral/dma/cy_dma.h ****                                                 (CY_DMA_2D_TRANSFER     == (descrType)) || \
 332:Generated_Source\PSoC6\pdl\drivers/peripheral/dma/cy_dma.h ****                                                 (CY_DMA_CRC_TRANSFER    == (descrType)))
 333:Generated_Source\PSoC6\pdl\drivers/peripheral/dma/cy_dma.h **** 
 334:Generated_Source\PSoC6\pdl\drivers/peripheral/dma/cy_dma.h **** #define CY_DMA_IS_CH_NR_VALID(chNr)            ((chNr) < CY_DW_CH_NR)
 335:Generated_Source\PSoC6\pdl\drivers/peripheral/dma/cy_dma.h **** 
 336:Generated_Source\PSoC6\pdl\drivers/peripheral/dma/cy_dma.h **** 
 337:Generated_Source\PSoC6\pdl\drivers/peripheral/dma/cy_dma.h **** /* The descriptor structure bit field definitions */
 338:Generated_Source\PSoC6\pdl\drivers/peripheral/dma/cy_dma.h **** #define CY_DMA_CTL_RETRIG_Pos      (0UL)
ARM GAS  C:\Users\enes_\AppData\Local\Temp\ccRFUday.s 			page 13


 339:Generated_Source\PSoC6\pdl\drivers/peripheral/dma/cy_dma.h **** #define CY_DMA_CTL_RETRIG_Msk      ((uint32_t)0x3UL << CY_DMA_CTL_RETRIG_Pos)
 340:Generated_Source\PSoC6\pdl\drivers/peripheral/dma/cy_dma.h **** #define CY_DMA_CTL_INTR_TYPE_Pos   (2UL)
 341:Generated_Source\PSoC6\pdl\drivers/peripheral/dma/cy_dma.h **** #define CY_DMA_CTL_INTR_TYPE_Msk   ((uint32_t)0x3UL << CY_DMA_CTL_INTR_TYPE_Pos)
 342:Generated_Source\PSoC6\pdl\drivers/peripheral/dma/cy_dma.h **** #define CY_DMA_CTL_TR_OUT_TYPE_Pos (4UL)
 343:Generated_Source\PSoC6\pdl\drivers/peripheral/dma/cy_dma.h **** #define CY_DMA_CTL_TR_OUT_TYPE_Msk ((uint32_t)0x3UL << CY_DMA_CTL_TR_OUT_TYPE_Pos)
 344:Generated_Source\PSoC6\pdl\drivers/peripheral/dma/cy_dma.h **** #define CY_DMA_CTL_TR_IN_TYPE_Pos  (6UL)
 345:Generated_Source\PSoC6\pdl\drivers/peripheral/dma/cy_dma.h **** #define CY_DMA_CTL_TR_IN_TYPE_Msk  ((uint32_t)0x3UL << CY_DMA_CTL_TR_IN_TYPE_Pos)
 346:Generated_Source\PSoC6\pdl\drivers/peripheral/dma/cy_dma.h **** #define CY_DMA_CTL_CH_DISABLE_Pos  (24UL)
 347:Generated_Source\PSoC6\pdl\drivers/peripheral/dma/cy_dma.h **** #define CY_DMA_CTL_CH_DISABLE_Msk  ((uint32_t)0x1UL << CY_DMA_CTL_CH_DISABLE_Pos)
 348:Generated_Source\PSoC6\pdl\drivers/peripheral/dma/cy_dma.h **** #define CY_DMA_CTL_SRC_SIZE_Pos    (26UL)
 349:Generated_Source\PSoC6\pdl\drivers/peripheral/dma/cy_dma.h **** #define CY_DMA_CTL_SRC_SIZE_Msk    ((uint32_t)0x1UL << CY_DMA_CTL_SRC_SIZE_Pos)
 350:Generated_Source\PSoC6\pdl\drivers/peripheral/dma/cy_dma.h **** #define CY_DMA_CTL_DST_SIZE_Pos    (27UL)
 351:Generated_Source\PSoC6\pdl\drivers/peripheral/dma/cy_dma.h **** #define CY_DMA_CTL_DST_SIZE_Msk    ((uint32_t)0x1UL << CY_DMA_CTL_DST_SIZE_Pos)
 352:Generated_Source\PSoC6\pdl\drivers/peripheral/dma/cy_dma.h **** #define CY_DMA_CTL_DATA_SIZE_Pos   (28UL)
 353:Generated_Source\PSoC6\pdl\drivers/peripheral/dma/cy_dma.h **** #define CY_DMA_CTL_DATA_SIZE_Msk   ((uint32_t)0x3UL << CY_DMA_CTL_DATA_SIZE_Pos)
 354:Generated_Source\PSoC6\pdl\drivers/peripheral/dma/cy_dma.h **** #define CY_DMA_CTL_TYPE_Pos        (30UL)
 355:Generated_Source\PSoC6\pdl\drivers/peripheral/dma/cy_dma.h **** #define CY_DMA_CTL_TYPE_Msk        ((uint32_t)0x3UL << CY_DMA_CTL_TYPE_Pos)
 356:Generated_Source\PSoC6\pdl\drivers/peripheral/dma/cy_dma.h **** 
 357:Generated_Source\PSoC6\pdl\drivers/peripheral/dma/cy_dma.h **** #define CY_DMA_CTL_SRC_INCR_Pos    (0UL)
 358:Generated_Source\PSoC6\pdl\drivers/peripheral/dma/cy_dma.h **** #define CY_DMA_CTL_SRC_INCR_Msk    ((uint32_t)0xFFFUL << CY_DMA_CTL_SRC_INCR_Pos)
 359:Generated_Source\PSoC6\pdl\drivers/peripheral/dma/cy_dma.h **** #define CY_DMA_CTL_DST_INCR_Pos    (12UL)
 360:Generated_Source\PSoC6\pdl\drivers/peripheral/dma/cy_dma.h **** #define CY_DMA_CTL_DST_INCR_Msk    ((uint32_t)0xFFFUL << CY_DMA_CTL_DST_INCR_Pos)
 361:Generated_Source\PSoC6\pdl\drivers/peripheral/dma/cy_dma.h **** #define CY_DMA_CTL_COUNT_Pos       (24UL)
 362:Generated_Source\PSoC6\pdl\drivers/peripheral/dma/cy_dma.h **** #define CY_DMA_CTL_COUNT_Msk       ((uint32_t)0xFFUL << CY_DMA_CTL_COUNT_Pos)
 363:Generated_Source\PSoC6\pdl\drivers/peripheral/dma/cy_dma.h **** 
 364:Generated_Source\PSoC6\pdl\drivers/peripheral/dma/cy_dma.h **** /** \endcond */
 365:Generated_Source\PSoC6\pdl\drivers/peripheral/dma/cy_dma.h **** 
 366:Generated_Source\PSoC6\pdl\drivers/peripheral/dma/cy_dma.h **** 
 367:Generated_Source\PSoC6\pdl\drivers/peripheral/dma/cy_dma.h **** /**
 368:Generated_Source\PSoC6\pdl\drivers/peripheral/dma/cy_dma.h **** * \addtogroup group_dma_data_structures
 369:Generated_Source\PSoC6\pdl\drivers/peripheral/dma/cy_dma.h **** * \{
 370:Generated_Source\PSoC6\pdl\drivers/peripheral/dma/cy_dma.h **** */
 371:Generated_Source\PSoC6\pdl\drivers/peripheral/dma/cy_dma.h **** 
 372:Generated_Source\PSoC6\pdl\drivers/peripheral/dma/cy_dma.h **** /** 
 373:Generated_Source\PSoC6\pdl\drivers/peripheral/dma/cy_dma.h **** * DMA descriptor structure type. It is a user/component-declared structure 
 374:Generated_Source\PSoC6\pdl\drivers/peripheral/dma/cy_dma.h **** * allocated in RAM. The DMA HW requires a pointer to this structure to work with it.
 375:Generated_Source\PSoC6\pdl\drivers/peripheral/dma/cy_dma.h **** *
 376:Generated_Source\PSoC6\pdl\drivers/peripheral/dma/cy_dma.h **** * For advanced users: the descriptor can be allocated even in flash, then the user
 377:Generated_Source\PSoC6\pdl\drivers/peripheral/dma/cy_dma.h **** * manually predefines all the structure items with constants. This is 
 378:Generated_Source\PSoC6\pdl\drivers/peripheral/dma/cy_dma.h **** * because most of the driver's API (especially functions modifying
 379:Generated_Source\PSoC6\pdl\drivers/peripheral/dma/cy_dma.h **** * descriptors, including \ref Cy_DMA_Descriptor_Init()) can't work with 
 380:Generated_Source\PSoC6\pdl\drivers/peripheral/dma/cy_dma.h **** * read-only descriptors.
 381:Generated_Source\PSoC6\pdl\drivers/peripheral/dma/cy_dma.h **** */
 382:Generated_Source\PSoC6\pdl\drivers/peripheral/dma/cy_dma.h **** typedef struct
 383:Generated_Source\PSoC6\pdl\drivers/peripheral/dma/cy_dma.h **** {
 384:Generated_Source\PSoC6\pdl\drivers/peripheral/dma/cy_dma.h ****     uint32_t ctl;                    /*!< 0x00000000 Descriptor control */
 385:Generated_Source\PSoC6\pdl\drivers/peripheral/dma/cy_dma.h ****     uint32_t src;                    /*!< 0x00000004 Descriptor source */
 386:Generated_Source\PSoC6\pdl\drivers/peripheral/dma/cy_dma.h ****     uint32_t dst;                    /*!< 0x00000008 Descriptor destination */
 387:Generated_Source\PSoC6\pdl\drivers/peripheral/dma/cy_dma.h ****     uint32_t xCtl;                   /*!< 0x0000000C Descriptor X loop control */
 388:Generated_Source\PSoC6\pdl\drivers/peripheral/dma/cy_dma.h ****     uint32_t yCtl;                   /*!< 0x00000010 Descriptor Y loop control */
 389:Generated_Source\PSoC6\pdl\drivers/peripheral/dma/cy_dma.h ****     uint32_t nextPtr;                /*!< 0x00000014 Descriptor next pointer */
 390:Generated_Source\PSoC6\pdl\drivers/peripheral/dma/cy_dma.h **** } cy_stc_dma_descriptor_t;
 391:Generated_Source\PSoC6\pdl\drivers/peripheral/dma/cy_dma.h **** 
 392:Generated_Source\PSoC6\pdl\drivers/peripheral/dma/cy_dma.h **** /**
 393:Generated_Source\PSoC6\pdl\drivers/peripheral/dma/cy_dma.h **** * This structure is a configuration structure pre-initialized by the user and
 394:Generated_Source\PSoC6\pdl\drivers/peripheral/dma/cy_dma.h **** * passed as a parameter to the \ref Cy_DMA_Descriptor_Init().
 395:Generated_Source\PSoC6\pdl\drivers/peripheral/dma/cy_dma.h **** * It can be allocated in RAM/flash (the user's choice).
ARM GAS  C:\Users\enes_\AppData\Local\Temp\ccRFUday.s 			page 14


 396:Generated_Source\PSoC6\pdl\drivers/peripheral/dma/cy_dma.h **** * In case of flash allocation, there is a possibility to reinitialize the descriptor in runtime.
 397:Generated_Source\PSoC6\pdl\drivers/peripheral/dma/cy_dma.h **** * This structure has all the parameters of the descriptor as separate parameters.
 398:Generated_Source\PSoC6\pdl\drivers/peripheral/dma/cy_dma.h **** * Most of these parameters are represented in the \ref cy_stc_dma_descriptor_t structure as bitfiel
 399:Generated_Source\PSoC6\pdl\drivers/peripheral/dma/cy_dma.h **** */
 400:Generated_Source\PSoC6\pdl\drivers/peripheral/dma/cy_dma.h **** typedef struct
 401:Generated_Source\PSoC6\pdl\drivers/peripheral/dma/cy_dma.h **** {
 402:Generated_Source\PSoC6\pdl\drivers/peripheral/dma/cy_dma.h ****     cy_en_dma_retrigger_t       retrigger;       /**< Specifies whether the DW controller should wa
 403:Generated_Source\PSoC6\pdl\drivers/peripheral/dma/cy_dma.h ****     cy_en_dma_trigger_type_t    interruptType;   /**< Sets the event that triggers an interrupt. Se
 404:Generated_Source\PSoC6\pdl\drivers/peripheral/dma/cy_dma.h ****     cy_en_dma_trigger_type_t    triggerOutType;  /**< Sets the event that triggers an output. See \
 405:Generated_Source\PSoC6\pdl\drivers/peripheral/dma/cy_dma.h ****     cy_en_dma_channel_state_t   channelState;    /**< Specifies whether the channel is enabled or d
 406:Generated_Source\PSoC6\pdl\drivers/peripheral/dma/cy_dma.h ****     cy_en_dma_trigger_type_t    triggerInType;   /**< Sets what type of transfer is triggered. See 
 407:Generated_Source\PSoC6\pdl\drivers/peripheral/dma/cy_dma.h ****     cy_en_dma_data_size_t       dataSize;        /**< The size of the data bus for transfer. See \r
 408:Generated_Source\PSoC6\pdl\drivers/peripheral/dma/cy_dma.h ****     cy_en_dma_transfer_size_t   srcTransferSize; /**< The source transfer size. */
 409:Generated_Source\PSoC6\pdl\drivers/peripheral/dma/cy_dma.h ****     cy_en_dma_transfer_size_t   dstTransferSize; /**< The destination transfer size. */
 410:Generated_Source\PSoC6\pdl\drivers/peripheral/dma/cy_dma.h ****     cy_en_dma_descriptor_type_t descriptorType;  /**< The type of the descriptor. See \ref cy_en_dm
 411:Generated_Source\PSoC6\pdl\drivers/peripheral/dma/cy_dma.h ****     void *                      srcAddress;      /**< The source address of the transfer. */
 412:Generated_Source\PSoC6\pdl\drivers/peripheral/dma/cy_dma.h ****     void *                      dstAddress;      /**< The destination address of the transfer.
 413:Generated_Source\PSoC6\pdl\drivers/peripheral/dma/cy_dma.h ****                                                    *  For CPUSS_ver2 only: for CRC transfer, the CR
 414:Generated_Source\PSoC6\pdl\drivers/peripheral/dma/cy_dma.h ****                                                    *  (reversing and/or XORing, if used) is placed 
 415:Generated_Source\PSoC6\pdl\drivers/peripheral/dma/cy_dma.h ****                                                    */
 416:Generated_Source\PSoC6\pdl\drivers/peripheral/dma/cy_dma.h ****     int32_t                     srcXincrement;   /**< The address increment of the source after eac
 417:Generated_Source\PSoC6\pdl\drivers/peripheral/dma/cy_dma.h ****     int32_t                     dstXincrement;   /**< The address increment of the destination afte
 418:Generated_Source\PSoC6\pdl\drivers/peripheral/dma/cy_dma.h ****     uint32_t                    xCount;          /**< The number of transfers in an X-loop. Valid r
 419:Generated_Source\PSoC6\pdl\drivers/peripheral/dma/cy_dma.h ****     int32_t                     srcYincrement;   /**< The address increment of the source after eac
 420:Generated_Source\PSoC6\pdl\drivers/peripheral/dma/cy_dma.h ****     int32_t                     dstYincrement;   /**< The address increment of the destination afte
 421:Generated_Source\PSoC6\pdl\drivers/peripheral/dma/cy_dma.h ****     uint32_t                    yCount;          /**< The number of X-loops in the Y-loop. Valid ra
 422:Generated_Source\PSoC6\pdl\drivers/peripheral/dma/cy_dma.h ****     cy_stc_dma_descriptor_t *   nextDescriptor;  /**< The next descriptor to chain after completion
 423:Generated_Source\PSoC6\pdl\drivers/peripheral/dma/cy_dma.h **** } cy_stc_dma_descriptor_config_t;
 424:Generated_Source\PSoC6\pdl\drivers/peripheral/dma/cy_dma.h **** 
 425:Generated_Source\PSoC6\pdl\drivers/peripheral/dma/cy_dma.h **** /** This structure holds the initialization values for the DMA channel */
 426:Generated_Source\PSoC6\pdl\drivers/peripheral/dma/cy_dma.h **** typedef struct
 427:Generated_Source\PSoC6\pdl\drivers/peripheral/dma/cy_dma.h **** {
 428:Generated_Source\PSoC6\pdl\drivers/peripheral/dma/cy_dma.h ****     cy_stc_dma_descriptor_t * descriptor;      /**< The DMA descriptor associated with the channel 
 429:Generated_Source\PSoC6\pdl\drivers/peripheral/dma/cy_dma.h ****     bool     preemptable;                      /**< Specifies whether the channel is preemptable by
 430:Generated_Source\PSoC6\pdl\drivers/peripheral/dma/cy_dma.h ****     uint32_t priority;                         /**< This parameter specifies the channel's priority
 431:Generated_Source\PSoC6\pdl\drivers/peripheral/dma/cy_dma.h ****     bool     enable;                           /**< This parameter specifies whether the channel is
 432:Generated_Source\PSoC6\pdl\drivers/peripheral/dma/cy_dma.h ****     bool     bufferable;                       /**< This parameter specifies whether a write transa
 433:Generated_Source\PSoC6\pdl\drivers/peripheral/dma/cy_dma.h ****                                                     without waiting for the destination to accept t
 434:Generated_Source\PSoC6\pdl\drivers/peripheral/dma/cy_dma.h **** } cy_stc_dma_channel_config_t;
 435:Generated_Source\PSoC6\pdl\drivers/peripheral/dma/cy_dma.h **** 
 436:Generated_Source\PSoC6\pdl\drivers/peripheral/dma/cy_dma.h **** 
 437:Generated_Source\PSoC6\pdl\drivers/peripheral/dma/cy_dma.h **** /** This structure holds the initialization values for the CRC feature, only for CPUSS_ver2 */
 438:Generated_Source\PSoC6\pdl\drivers/peripheral/dma/cy_dma.h **** typedef struct
 439:Generated_Source\PSoC6\pdl\drivers/peripheral/dma/cy_dma.h **** {
 440:Generated_Source\PSoC6\pdl\drivers/peripheral/dma/cy_dma.h ****     bool     dataReverse;     /**< Specifies the bit order in which a data byte is processed (rever
 441:Generated_Source\PSoC6\pdl\drivers/peripheral/dma/cy_dma.h ****                                * 'false': Most significant bit (bit 1) first.
 442:Generated_Source\PSoC6\pdl\drivers/peripheral/dma/cy_dma.h ****                                * 'true': Least significant bit (bit 0) first.
 443:Generated_Source\PSoC6\pdl\drivers/peripheral/dma/cy_dma.h ****                                */
 444:Generated_Source\PSoC6\pdl\drivers/peripheral/dma/cy_dma.h ****     uint32_t dataXor;         /**< Specifies a byte mask with which each data byte is XORed. The XO
 445:Generated_Source\PSoC6\pdl\drivers/peripheral/dma/cy_dma.h ****     bool     reminderReverse; /**< Specifies whether the remainder is bit reversed (reversal is per
 446:Generated_Source\PSoC6\pdl\drivers/peripheral/dma/cy_dma.h ****                                *   Note: this parameter doesn't affect the CRC value stored into th
 447:Generated_Source\PSoC6\pdl\drivers/peripheral/dma/cy_dma.h ****                                *   The reversed value remains in the CRC_REM_RESULT register.
 448:Generated_Source\PSoC6\pdl\drivers/peripheral/dma/cy_dma.h ****                                */
 449:Generated_Source\PSoC6\pdl\drivers/peripheral/dma/cy_dma.h ****     uint32_t reminderXor;     /**< Specifies a mask with which the remainder is XORed. The XOR is p
 450:Generated_Source\PSoC6\pdl\drivers/peripheral/dma/cy_dma.h ****                                *   Note: this parameter doesn't affect the CRC value stored into th
 451:Generated_Source\PSoC6\pdl\drivers/peripheral/dma/cy_dma.h ****                                *   The XORed value remains in the CRC_REM_RESULT register.
 452:Generated_Source\PSoC6\pdl\drivers/peripheral/dma/cy_dma.h ****                                */
ARM GAS  C:\Users\enes_\AppData\Local\Temp\ccRFUday.s 			page 15


 453:Generated_Source\PSoC6\pdl\drivers/peripheral/dma/cy_dma.h ****     uint32_t polynomial;      /**< CRC polynomial. The polynomial is represented WITHOUT the high o
 454:Generated_Source\PSoC6\pdl\drivers/peripheral/dma/cy_dma.h ****                                * The polynomial should be aligned/shifted such that the more signif
 455:Generated_Source\PSoC6\pdl\drivers/peripheral/dma/cy_dma.h ****                                * and the less significant bits (bit 0 and up) contain padding '0's.
 456:Generated_Source\PSoC6\pdl\drivers/peripheral/dma/cy_dma.h ****                                * - CRC32: POLYNOMIAL is 0x04c11db7 (x^32 + x^26 + x^23 + x^22 + x^1
 457:Generated_Source\PSoC6\pdl\drivers/peripheral/dma/cy_dma.h ****                                * - CRC16: POLYNOMIAL is 0x80050000 (x^16 + x^15 + x^2 + 1, shifted 
 458:Generated_Source\PSoC6\pdl\drivers/peripheral/dma/cy_dma.h ****                                * - CRC16 CCITT: POLYNOMIAL is 0x10210000 (x^16 + x^12 + x^5 + 1, sh
 459:Generated_Source\PSoC6\pdl\drivers/peripheral/dma/cy_dma.h ****                                */
 460:Generated_Source\PSoC6\pdl\drivers/peripheral/dma/cy_dma.h ****     uint32_t lfsrInitVal;     /**< The initial value of the Linear Feedback Shift Register */
 461:Generated_Source\PSoC6\pdl\drivers/peripheral/dma/cy_dma.h **** } cy_stc_dma_crc_config_t;
 462:Generated_Source\PSoC6\pdl\drivers/peripheral/dma/cy_dma.h **** 
 463:Generated_Source\PSoC6\pdl\drivers/peripheral/dma/cy_dma.h **** /** \} group_dma_data_structures */
 464:Generated_Source\PSoC6\pdl\drivers/peripheral/dma/cy_dma.h **** 
 465:Generated_Source\PSoC6\pdl\drivers/peripheral/dma/cy_dma.h **** 
 466:Generated_Source\PSoC6\pdl\drivers/peripheral/dma/cy_dma.h **** /**
 467:Generated_Source\PSoC6\pdl\drivers/peripheral/dma/cy_dma.h **** * \addtogroup group_dma_functions
 468:Generated_Source\PSoC6\pdl\drivers/peripheral/dma/cy_dma.h **** * \{
 469:Generated_Source\PSoC6\pdl\drivers/peripheral/dma/cy_dma.h **** */
 470:Generated_Source\PSoC6\pdl\drivers/peripheral/dma/cy_dma.h **** 
 471:Generated_Source\PSoC6\pdl\drivers/peripheral/dma/cy_dma.h **** 
 472:Generated_Source\PSoC6\pdl\drivers/peripheral/dma/cy_dma.h **** /**
 473:Generated_Source\PSoC6\pdl\drivers/peripheral/dma/cy_dma.h **** * \addtogroup group_dma_block_functions
 474:Generated_Source\PSoC6\pdl\drivers/peripheral/dma/cy_dma.h **** * \{
 475:Generated_Source\PSoC6\pdl\drivers/peripheral/dma/cy_dma.h **** */
 476:Generated_Source\PSoC6\pdl\drivers/peripheral/dma/cy_dma.h **** 
 477:Generated_Source\PSoC6\pdl\drivers/peripheral/dma/cy_dma.h **** 
 478:Generated_Source\PSoC6\pdl\drivers/peripheral/dma/cy_dma.h **** __STATIC_INLINE void     Cy_DMA_Enable             (DW_Type * base);
 479:Generated_Source\PSoC6\pdl\drivers/peripheral/dma/cy_dma.h **** __STATIC_INLINE void     Cy_DMA_Disable            (DW_Type * base);
 480:Generated_Source\PSoC6\pdl\drivers/peripheral/dma/cy_dma.h **** __STATIC_INLINE uint32_t Cy_DMA_GetActiveChannel   (DW_Type const * base);
 481:Generated_Source\PSoC6\pdl\drivers/peripheral/dma/cy_dma.h **** __STATIC_INLINE void *   Cy_DMA_GetActiveSrcAddress(DW_Type * base);
 482:Generated_Source\PSoC6\pdl\drivers/peripheral/dma/cy_dma.h **** __STATIC_INLINE void *   Cy_DMA_GetActiveDstAddress(DW_Type * base);
 483:Generated_Source\PSoC6\pdl\drivers/peripheral/dma/cy_dma.h ****       cy_en_dma_status_t Cy_DMA_Crc_Init           (DW_Type * base, cy_stc_dma_crc_config_t const *
 484:Generated_Source\PSoC6\pdl\drivers/peripheral/dma/cy_dma.h **** 
 485:Generated_Source\PSoC6\pdl\drivers/peripheral/dma/cy_dma.h **** /** \} group_dma_block_functions */
 486:Generated_Source\PSoC6\pdl\drivers/peripheral/dma/cy_dma.h **** 
 487:Generated_Source\PSoC6\pdl\drivers/peripheral/dma/cy_dma.h **** 
 488:Generated_Source\PSoC6\pdl\drivers/peripheral/dma/cy_dma.h **** /**
 489:Generated_Source\PSoC6\pdl\drivers/peripheral/dma/cy_dma.h **** * \addtogroup group_dma_channel_functions
 490:Generated_Source\PSoC6\pdl\drivers/peripheral/dma/cy_dma.h **** * \{
 491:Generated_Source\PSoC6\pdl\drivers/peripheral/dma/cy_dma.h **** */
 492:Generated_Source\PSoC6\pdl\drivers/peripheral/dma/cy_dma.h ****       cy_en_dma_status_t Cy_DMA_Channel_Init                    (DW_Type       * base, uint32_t cha
 493:Generated_Source\PSoC6\pdl\drivers/peripheral/dma/cy_dma.h ****                 void     Cy_DMA_Channel_DeInit                  (DW_Type       * base, uint32_t cha
 494:Generated_Source\PSoC6\pdl\drivers/peripheral/dma/cy_dma.h **** __STATIC_INLINE void     Cy_DMA_Channel_SetDescriptor           (DW_Type       * base, uint32_t cha
 495:Generated_Source\PSoC6\pdl\drivers/peripheral/dma/cy_dma.h **** __STATIC_INLINE void     Cy_DMA_Channel_Enable                  (DW_Type       * base, uint32_t cha
 496:Generated_Source\PSoC6\pdl\drivers/peripheral/dma/cy_dma.h **** __STATIC_INLINE void     Cy_DMA_Channel_Disable                 (DW_Type       * base, uint32_t cha
 497:Generated_Source\PSoC6\pdl\drivers/peripheral/dma/cy_dma.h **** __STATIC_INLINE void     Cy_DMA_Channel_SetPriority             (DW_Type       * base, uint32_t cha
 498:Generated_Source\PSoC6\pdl\drivers/peripheral/dma/cy_dma.h **** __STATIC_INLINE uint32_t Cy_DMA_Channel_GetPriority             (DW_Type const * base, uint32_t cha
 499:Generated_Source\PSoC6\pdl\drivers/peripheral/dma/cy_dma.h **** __STATIC_INLINE
 500:Generated_Source\PSoC6\pdl\drivers/peripheral/dma/cy_dma.h ****   cy_en_dma_intr_cause_t Cy_DMA_Channel_GetStatus               (DW_Type const * base, uint32_t cha
 501:Generated_Source\PSoC6\pdl\drivers/peripheral/dma/cy_dma.h **** __STATIC_INLINE
 502:Generated_Source\PSoC6\pdl\drivers/peripheral/dma/cy_dma.h **** cy_stc_dma_descriptor_t * Cy_DMA_Channel_GetCurrentDescriptor   (DW_Type const * base, uint32_t cha
 503:Generated_Source\PSoC6\pdl\drivers/peripheral/dma/cy_dma.h **** 
 504:Generated_Source\PSoC6\pdl\drivers/peripheral/dma/cy_dma.h **** __STATIC_INLINE uint32_t Cy_DMA_Channel_GetInterruptStatus      (DW_Type const * base, uint32_t cha
 505:Generated_Source\PSoC6\pdl\drivers/peripheral/dma/cy_dma.h **** __STATIC_INLINE void     Cy_DMA_Channel_ClearInterrupt          (DW_Type       * base, uint32_t cha
 506:Generated_Source\PSoC6\pdl\drivers/peripheral/dma/cy_dma.h **** __STATIC_INLINE void     Cy_DMA_Channel_SetInterrupt            (DW_Type       * base, uint32_t cha
 507:Generated_Source\PSoC6\pdl\drivers/peripheral/dma/cy_dma.h **** __STATIC_INLINE uint32_t Cy_DMA_Channel_GetInterruptMask        (DW_Type const * base, uint32_t cha
 508:Generated_Source\PSoC6\pdl\drivers/peripheral/dma/cy_dma.h **** __STATIC_INLINE void     Cy_DMA_Channel_SetInterruptMask        (DW_Type       * base, uint32_t cha
 509:Generated_Source\PSoC6\pdl\drivers/peripheral/dma/cy_dma.h **** __STATIC_INLINE uint32_t Cy_DMA_Channel_GetInterruptStatusMasked(DW_Type const * base, uint32_t cha
ARM GAS  C:\Users\enes_\AppData\Local\Temp\ccRFUday.s 			page 16


 510:Generated_Source\PSoC6\pdl\drivers/peripheral/dma/cy_dma.h **** 
 511:Generated_Source\PSoC6\pdl\drivers/peripheral/dma/cy_dma.h **** /** \} group_dma_channel_functions */
 512:Generated_Source\PSoC6\pdl\drivers/peripheral/dma/cy_dma.h **** 
 513:Generated_Source\PSoC6\pdl\drivers/peripheral/dma/cy_dma.h **** 
 514:Generated_Source\PSoC6\pdl\drivers/peripheral/dma/cy_dma.h **** /**
 515:Generated_Source\PSoC6\pdl\drivers/peripheral/dma/cy_dma.h **** * \addtogroup group_dma_descriptor_functions
 516:Generated_Source\PSoC6\pdl\drivers/peripheral/dma/cy_dma.h **** * \{
 517:Generated_Source\PSoC6\pdl\drivers/peripheral/dma/cy_dma.h **** */
 518:Generated_Source\PSoC6\pdl\drivers/peripheral/dma/cy_dma.h **** 
 519:Generated_Source\PSoC6\pdl\drivers/peripheral/dma/cy_dma.h ****   cy_en_dma_status_t Cy_DMA_Descriptor_Init  (cy_stc_dma_descriptor_t * descriptor, cy_stc_dma_desc
 520:Generated_Source\PSoC6\pdl\drivers/peripheral/dma/cy_dma.h ****                 void Cy_DMA_Descriptor_DeInit(cy_stc_dma_descriptor_t * descriptor);
 521:Generated_Source\PSoC6\pdl\drivers/peripheral/dma/cy_dma.h ****                 
 522:Generated_Source\PSoC6\pdl\drivers/peripheral/dma/cy_dma.h ****                 void Cy_DMA_Descriptor_SetNextDescriptor   (cy_stc_dma_descriptor_t * descriptor, c
 523:Generated_Source\PSoC6\pdl\drivers/peripheral/dma/cy_dma.h ****                 void Cy_DMA_Descriptor_SetDescriptorType   (cy_stc_dma_descriptor_t * descriptor, c
 524:Generated_Source\PSoC6\pdl\drivers/peripheral/dma/cy_dma.h **** __STATIC_INLINE void Cy_DMA_Descriptor_SetSrcAddress       (cy_stc_dma_descriptor_t * descriptor, v
 525:Generated_Source\PSoC6\pdl\drivers/peripheral/dma/cy_dma.h **** __STATIC_INLINE void Cy_DMA_Descriptor_SetDstAddress       (cy_stc_dma_descriptor_t * descriptor, v
 526:Generated_Source\PSoC6\pdl\drivers/peripheral/dma/cy_dma.h **** __STATIC_INLINE void Cy_DMA_Descriptor_SetXloopDataCount   (cy_stc_dma_descriptor_t * descriptor, u
 527:Generated_Source\PSoC6\pdl\drivers/peripheral/dma/cy_dma.h **** __STATIC_INLINE void Cy_DMA_Descriptor_SetYloopDataCount   (cy_stc_dma_descriptor_t * descriptor, u
 528:Generated_Source\PSoC6\pdl\drivers/peripheral/dma/cy_dma.h **** __STATIC_INLINE void Cy_DMA_Descriptor_SetXloopSrcIncrement(cy_stc_dma_descriptor_t * descriptor, i
 529:Generated_Source\PSoC6\pdl\drivers/peripheral/dma/cy_dma.h **** __STATIC_INLINE void Cy_DMA_Descriptor_SetXloopDstIncrement(cy_stc_dma_descriptor_t * descriptor, i
 530:Generated_Source\PSoC6\pdl\drivers/peripheral/dma/cy_dma.h **** __STATIC_INLINE void Cy_DMA_Descriptor_SetYloopSrcIncrement(cy_stc_dma_descriptor_t * descriptor, i
 531:Generated_Source\PSoC6\pdl\drivers/peripheral/dma/cy_dma.h **** __STATIC_INLINE void Cy_DMA_Descriptor_SetYloopDstIncrement(cy_stc_dma_descriptor_t * descriptor, i
 532:Generated_Source\PSoC6\pdl\drivers/peripheral/dma/cy_dma.h **** __STATIC_INLINE void Cy_DMA_Descriptor_SetInterruptType    (cy_stc_dma_descriptor_t * descriptor, c
 533:Generated_Source\PSoC6\pdl\drivers/peripheral/dma/cy_dma.h **** __STATIC_INLINE void Cy_DMA_Descriptor_SetTriggerInType    (cy_stc_dma_descriptor_t * descriptor, c
 534:Generated_Source\PSoC6\pdl\drivers/peripheral/dma/cy_dma.h **** __STATIC_INLINE void Cy_DMA_Descriptor_SetTriggerOutType   (cy_stc_dma_descriptor_t * descriptor, c
 535:Generated_Source\PSoC6\pdl\drivers/peripheral/dma/cy_dma.h **** __STATIC_INLINE void Cy_DMA_Descriptor_SetDataSize         (cy_stc_dma_descriptor_t * descriptor, c
 536:Generated_Source\PSoC6\pdl\drivers/peripheral/dma/cy_dma.h **** __STATIC_INLINE void Cy_DMA_Descriptor_SetSrcTransferSize  (cy_stc_dma_descriptor_t * descriptor, c
 537:Generated_Source\PSoC6\pdl\drivers/peripheral/dma/cy_dma.h **** __STATIC_INLINE void Cy_DMA_Descriptor_SetDstTransferSize  (cy_stc_dma_descriptor_t * descriptor, c
 538:Generated_Source\PSoC6\pdl\drivers/peripheral/dma/cy_dma.h **** __STATIC_INLINE void Cy_DMA_Descriptor_SetRetrigger        (cy_stc_dma_descriptor_t * descriptor, c
 539:Generated_Source\PSoC6\pdl\drivers/peripheral/dma/cy_dma.h **** __STATIC_INLINE void Cy_DMA_Descriptor_SetChannelState     (cy_stc_dma_descriptor_t * descriptor, c
 540:Generated_Source\PSoC6\pdl\drivers/peripheral/dma/cy_dma.h **** 
 541:Generated_Source\PSoC6\pdl\drivers/peripheral/dma/cy_dma.h ****                 cy_stc_dma_descriptor_t *   Cy_DMA_Descriptor_GetNextDescriptor   (cy_stc_dma_descr
 542:Generated_Source\PSoC6\pdl\drivers/peripheral/dma/cy_dma.h **** __STATIC_INLINE cy_en_dma_descriptor_type_t Cy_DMA_Descriptor_GetDescriptorType   (cy_stc_dma_descr
 543:Generated_Source\PSoC6\pdl\drivers/peripheral/dma/cy_dma.h **** __STATIC_INLINE void *                      Cy_DMA_Descriptor_GetSrcAddress       (cy_stc_dma_descr
 544:Generated_Source\PSoC6\pdl\drivers/peripheral/dma/cy_dma.h **** __STATIC_INLINE void *                      Cy_DMA_Descriptor_GetDstAddress       (cy_stc_dma_descr
 545:Generated_Source\PSoC6\pdl\drivers/peripheral/dma/cy_dma.h **** __STATIC_INLINE uint32_t                    Cy_DMA_Descriptor_GetXloopDataCount   (cy_stc_dma_descr
 546:Generated_Source\PSoC6\pdl\drivers/peripheral/dma/cy_dma.h **** __STATIC_INLINE uint32_t                    Cy_DMA_Descriptor_GetYloopDataCount   (cy_stc_dma_descr
 547:Generated_Source\PSoC6\pdl\drivers/peripheral/dma/cy_dma.h **** __STATIC_INLINE int32_t                     Cy_DMA_Descriptor_GetXloopSrcIncrement(cy_stc_dma_descr
 548:Generated_Source\PSoC6\pdl\drivers/peripheral/dma/cy_dma.h **** __STATIC_INLINE int32_t                     Cy_DMA_Descriptor_GetXloopDstIncrement(cy_stc_dma_descr
 549:Generated_Source\PSoC6\pdl\drivers/peripheral/dma/cy_dma.h **** __STATIC_INLINE int32_t                     Cy_DMA_Descriptor_GetYloopSrcIncrement(cy_stc_dma_descr
 550:Generated_Source\PSoC6\pdl\drivers/peripheral/dma/cy_dma.h **** __STATIC_INLINE int32_t                     Cy_DMA_Descriptor_GetYloopDstIncrement(cy_stc_dma_descr
 551:Generated_Source\PSoC6\pdl\drivers/peripheral/dma/cy_dma.h **** __STATIC_INLINE cy_en_dma_trigger_type_t    Cy_DMA_Descriptor_GetInterruptType    (cy_stc_dma_descr
 552:Generated_Source\PSoC6\pdl\drivers/peripheral/dma/cy_dma.h **** __STATIC_INLINE cy_en_dma_trigger_type_t    Cy_DMA_Descriptor_GetTriggerInType    (cy_stc_dma_descr
 553:Generated_Source\PSoC6\pdl\drivers/peripheral/dma/cy_dma.h **** __STATIC_INLINE cy_en_dma_trigger_type_t    Cy_DMA_Descriptor_GetTriggerOutType   (cy_stc_dma_descr
 554:Generated_Source\PSoC6\pdl\drivers/peripheral/dma/cy_dma.h **** __STATIC_INLINE cy_en_dma_data_size_t       Cy_DMA_Descriptor_GetDataSize         (cy_stc_dma_descr
 555:Generated_Source\PSoC6\pdl\drivers/peripheral/dma/cy_dma.h **** __STATIC_INLINE cy_en_dma_transfer_size_t   Cy_DMA_Descriptor_GetSrcTransferSize  (cy_stc_dma_descr
 556:Generated_Source\PSoC6\pdl\drivers/peripheral/dma/cy_dma.h **** __STATIC_INLINE cy_en_dma_transfer_size_t   Cy_DMA_Descriptor_GetDstTransferSize  (cy_stc_dma_descr
 557:Generated_Source\PSoC6\pdl\drivers/peripheral/dma/cy_dma.h **** __STATIC_INLINE cy_en_dma_retrigger_t       Cy_DMA_Descriptor_GetRetrigger        (cy_stc_dma_descr
 558:Generated_Source\PSoC6\pdl\drivers/peripheral/dma/cy_dma.h **** __STATIC_INLINE cy_en_dma_channel_state_t   Cy_DMA_Descriptor_GetChannelState     (cy_stc_dma_descr
 559:Generated_Source\PSoC6\pdl\drivers/peripheral/dma/cy_dma.h **** 
 560:Generated_Source\PSoC6\pdl\drivers/peripheral/dma/cy_dma.h **** /** \} group_dma_descriptor_functions */
 561:Generated_Source\PSoC6\pdl\drivers/peripheral/dma/cy_dma.h **** 
 562:Generated_Source\PSoC6\pdl\drivers/peripheral/dma/cy_dma.h **** 
 563:Generated_Source\PSoC6\pdl\drivers/peripheral/dma/cy_dma.h **** 
 564:Generated_Source\PSoC6\pdl\drivers/peripheral/dma/cy_dma.h **** /***************************************
 565:Generated_Source\PSoC6\pdl\drivers/peripheral/dma/cy_dma.h **** *    In-line Function Implementation
 566:Generated_Source\PSoC6\pdl\drivers/peripheral/dma/cy_dma.h **** ***************************************/
ARM GAS  C:\Users\enes_\AppData\Local\Temp\ccRFUday.s 			page 17


 567:Generated_Source\PSoC6\pdl\drivers/peripheral/dma/cy_dma.h **** 
 568:Generated_Source\PSoC6\pdl\drivers/peripheral/dma/cy_dma.h **** 
 569:Generated_Source\PSoC6\pdl\drivers/peripheral/dma/cy_dma.h **** /**
 570:Generated_Source\PSoC6\pdl\drivers/peripheral/dma/cy_dma.h **** * \addtogroup group_dma_block_functions
 571:Generated_Source\PSoC6\pdl\drivers/peripheral/dma/cy_dma.h **** * \{
 572:Generated_Source\PSoC6\pdl\drivers/peripheral/dma/cy_dma.h **** */
 573:Generated_Source\PSoC6\pdl\drivers/peripheral/dma/cy_dma.h **** 
 574:Generated_Source\PSoC6\pdl\drivers/peripheral/dma/cy_dma.h **** 
 575:Generated_Source\PSoC6\pdl\drivers/peripheral/dma/cy_dma.h **** /*******************************************************************************
 576:Generated_Source\PSoC6\pdl\drivers/peripheral/dma/cy_dma.h **** * Function Name: Cy_DMA_Enable
 577:Generated_Source\PSoC6\pdl\drivers/peripheral/dma/cy_dma.h **** ****************************************************************************//**
 578:Generated_Source\PSoC6\pdl\drivers/peripheral/dma/cy_dma.h **** *
 579:Generated_Source\PSoC6\pdl\drivers/peripheral/dma/cy_dma.h **** * Enables the DMA block.
 580:Generated_Source\PSoC6\pdl\drivers/peripheral/dma/cy_dma.h **** *
 581:Generated_Source\PSoC6\pdl\drivers/peripheral/dma/cy_dma.h **** * \param base
 582:Generated_Source\PSoC6\pdl\drivers/peripheral/dma/cy_dma.h **** * The pointer to the hardware DMA block.
 583:Generated_Source\PSoC6\pdl\drivers/peripheral/dma/cy_dma.h **** *
 584:Generated_Source\PSoC6\pdl\drivers/peripheral/dma/cy_dma.h **** * \funcusage 
 585:Generated_Source\PSoC6\pdl\drivers/peripheral/dma/cy_dma.h **** * \snippet dma\2.10\snippet\main.c snippet_Cy_DMA_Enable
 586:Generated_Source\PSoC6\pdl\drivers/peripheral/dma/cy_dma.h **** *
 587:Generated_Source\PSoC6\pdl\drivers/peripheral/dma/cy_dma.h **** *******************************************************************************/
 588:Generated_Source\PSoC6\pdl\drivers/peripheral/dma/cy_dma.h **** __STATIC_INLINE void Cy_DMA_Enable(DW_Type * base)
 589:Generated_Source\PSoC6\pdl\drivers/peripheral/dma/cy_dma.h **** {
 590:Generated_Source\PSoC6\pdl\drivers/peripheral/dma/cy_dma.h ****     DW_CTL(base) |= DW_CTL_ENABLED_Msk;
 591:Generated_Source\PSoC6\pdl\drivers/peripheral/dma/cy_dma.h **** }
 592:Generated_Source\PSoC6\pdl\drivers/peripheral/dma/cy_dma.h **** 
 593:Generated_Source\PSoC6\pdl\drivers/peripheral/dma/cy_dma.h **** 
 594:Generated_Source\PSoC6\pdl\drivers/peripheral/dma/cy_dma.h **** /*******************************************************************************
 595:Generated_Source\PSoC6\pdl\drivers/peripheral/dma/cy_dma.h **** * Function Name: Cy_DMA_Disable
 596:Generated_Source\PSoC6\pdl\drivers/peripheral/dma/cy_dma.h **** ****************************************************************************//**
 597:Generated_Source\PSoC6\pdl\drivers/peripheral/dma/cy_dma.h **** *
 598:Generated_Source\PSoC6\pdl\drivers/peripheral/dma/cy_dma.h **** * Disables the DMA block.
 599:Generated_Source\PSoC6\pdl\drivers/peripheral/dma/cy_dma.h **** *
 600:Generated_Source\PSoC6\pdl\drivers/peripheral/dma/cy_dma.h **** * \param base
 601:Generated_Source\PSoC6\pdl\drivers/peripheral/dma/cy_dma.h **** * The pointer to the hardware DMA block.
 602:Generated_Source\PSoC6\pdl\drivers/peripheral/dma/cy_dma.h **** *
 603:Generated_Source\PSoC6\pdl\drivers/peripheral/dma/cy_dma.h **** * \funcusage 
 604:Generated_Source\PSoC6\pdl\drivers/peripheral/dma/cy_dma.h **** * \snippet dma\2.10\snippet\main.c snippet_Cy_DMA_Disable
 605:Generated_Source\PSoC6\pdl\drivers/peripheral/dma/cy_dma.h **** *
 606:Generated_Source\PSoC6\pdl\drivers/peripheral/dma/cy_dma.h **** *******************************************************************************/
 607:Generated_Source\PSoC6\pdl\drivers/peripheral/dma/cy_dma.h **** __STATIC_INLINE void Cy_DMA_Disable(DW_Type * base)
 608:Generated_Source\PSoC6\pdl\drivers/peripheral/dma/cy_dma.h **** {
 609:Generated_Source\PSoC6\pdl\drivers/peripheral/dma/cy_dma.h ****     DW_CTL(base) &= (uint32_t) ~DW_CTL_ENABLED_Msk;
 610:Generated_Source\PSoC6\pdl\drivers/peripheral/dma/cy_dma.h **** }
 611:Generated_Source\PSoC6\pdl\drivers/peripheral/dma/cy_dma.h **** 
 612:Generated_Source\PSoC6\pdl\drivers/peripheral/dma/cy_dma.h **** 
 613:Generated_Source\PSoC6\pdl\drivers/peripheral/dma/cy_dma.h **** /*******************************************************************************
 614:Generated_Source\PSoC6\pdl\drivers/peripheral/dma/cy_dma.h **** * Function Name: Cy_DMA_GetActiveChannel
 615:Generated_Source\PSoC6\pdl\drivers/peripheral/dma/cy_dma.h **** ****************************************************************************//**
 616:Generated_Source\PSoC6\pdl\drivers/peripheral/dma/cy_dma.h **** *
 617:Generated_Source\PSoC6\pdl\drivers/peripheral/dma/cy_dma.h **** * Returns the status of the active/pending channels.
 618:Generated_Source\PSoC6\pdl\drivers/peripheral/dma/cy_dma.h **** * the DMA block.
 619:Generated_Source\PSoC6\pdl\drivers/peripheral/dma/cy_dma.h **** *
 620:Generated_Source\PSoC6\pdl\drivers/peripheral/dma/cy_dma.h **** * \param base
 621:Generated_Source\PSoC6\pdl\drivers/peripheral/dma/cy_dma.h **** * The pointer to the hardware DMA block.
 622:Generated_Source\PSoC6\pdl\drivers/peripheral/dma/cy_dma.h **** *
 623:Generated_Source\PSoC6\pdl\drivers/peripheral/dma/cy_dma.h **** * \return
ARM GAS  C:\Users\enes_\AppData\Local\Temp\ccRFUday.s 			page 18


 624:Generated_Source\PSoC6\pdl\drivers/peripheral/dma/cy_dma.h **** * Returns a bit-field with all of the currently active/pending channels in the
 625:Generated_Source\PSoC6\pdl\drivers/peripheral/dma/cy_dma.h **** * DMA block.
 626:Generated_Source\PSoC6\pdl\drivers/peripheral/dma/cy_dma.h **** *
 627:Generated_Source\PSoC6\pdl\drivers/peripheral/dma/cy_dma.h **** * \funcusage 
 628:Generated_Source\PSoC6\pdl\drivers/peripheral/dma/cy_dma.h **** * \snippet dma\2.10\snippet\main.c snippet_Cy_DMA_Disable
 629:Generated_Source\PSoC6\pdl\drivers/peripheral/dma/cy_dma.h **** *
 630:Generated_Source\PSoC6\pdl\drivers/peripheral/dma/cy_dma.h **** *******************************************************************************/
 631:Generated_Source\PSoC6\pdl\drivers/peripheral/dma/cy_dma.h **** __STATIC_INLINE uint32_t Cy_DMA_GetActiveChannel(DW_Type const * base)
 632:Generated_Source\PSoC6\pdl\drivers/peripheral/dma/cy_dma.h **** {
 633:Generated_Source\PSoC6\pdl\drivers/peripheral/dma/cy_dma.h ****     return(_FLD2VAL(CY_DW_STATUS_CH_IDX, DW_STATUS(base)));
 634:Generated_Source\PSoC6\pdl\drivers/peripheral/dma/cy_dma.h **** }
 635:Generated_Source\PSoC6\pdl\drivers/peripheral/dma/cy_dma.h **** 
 636:Generated_Source\PSoC6\pdl\drivers/peripheral/dma/cy_dma.h **** 
 637:Generated_Source\PSoC6\pdl\drivers/peripheral/dma/cy_dma.h **** /*******************************************************************************
 638:Generated_Source\PSoC6\pdl\drivers/peripheral/dma/cy_dma.h **** * Function Name: Cy_DMA_GetActiveSrcAddress
 639:Generated_Source\PSoC6\pdl\drivers/peripheral/dma/cy_dma.h **** ****************************************************************************//**
 640:Generated_Source\PSoC6\pdl\drivers/peripheral/dma/cy_dma.h **** *
 641:Generated_Source\PSoC6\pdl\drivers/peripheral/dma/cy_dma.h **** * Returns the source address being used for the current transfer.
 642:Generated_Source\PSoC6\pdl\drivers/peripheral/dma/cy_dma.h **** *
 643:Generated_Source\PSoC6\pdl\drivers/peripheral/dma/cy_dma.h **** * \param base
 644:Generated_Source\PSoC6\pdl\drivers/peripheral/dma/cy_dma.h **** * The pointer to the hardware DMA block.
 645:Generated_Source\PSoC6\pdl\drivers/peripheral/dma/cy_dma.h **** *
 646:Generated_Source\PSoC6\pdl\drivers/peripheral/dma/cy_dma.h **** * \return
 647:Generated_Source\PSoC6\pdl\drivers/peripheral/dma/cy_dma.h **** * Returns the pointer to the source of transfer.
 648:Generated_Source\PSoC6\pdl\drivers/peripheral/dma/cy_dma.h **** *
 649:Generated_Source\PSoC6\pdl\drivers/peripheral/dma/cy_dma.h **** * \funcusage 
 650:Generated_Source\PSoC6\pdl\drivers/peripheral/dma/cy_dma.h **** * \snippet dma\2.10\snippet\main.c snippet_Cy_DMA_GetActiveSrcAddress
 651:Generated_Source\PSoC6\pdl\drivers/peripheral/dma/cy_dma.h **** *
 652:Generated_Source\PSoC6\pdl\drivers/peripheral/dma/cy_dma.h **** *******************************************************************************/
 653:Generated_Source\PSoC6\pdl\drivers/peripheral/dma/cy_dma.h **** __STATIC_INLINE void * Cy_DMA_GetActiveSrcAddress(DW_Type * base)
 654:Generated_Source\PSoC6\pdl\drivers/peripheral/dma/cy_dma.h **** {
 655:Generated_Source\PSoC6\pdl\drivers/peripheral/dma/cy_dma.h ****     return ((void *) DW_DESCR_SRC(base));
 656:Generated_Source\PSoC6\pdl\drivers/peripheral/dma/cy_dma.h **** }
 657:Generated_Source\PSoC6\pdl\drivers/peripheral/dma/cy_dma.h **** 
 658:Generated_Source\PSoC6\pdl\drivers/peripheral/dma/cy_dma.h **** 
 659:Generated_Source\PSoC6\pdl\drivers/peripheral/dma/cy_dma.h **** /*******************************************************************************
 660:Generated_Source\PSoC6\pdl\drivers/peripheral/dma/cy_dma.h **** * Function Name: Cy_DMA_GetActiveDstAddress
 661:Generated_Source\PSoC6\pdl\drivers/peripheral/dma/cy_dma.h **** ****************************************************************************//**
 662:Generated_Source\PSoC6\pdl\drivers/peripheral/dma/cy_dma.h **** *
 663:Generated_Source\PSoC6\pdl\drivers/peripheral/dma/cy_dma.h **** * Returns the destination address being used for the current transfer.
 664:Generated_Source\PSoC6\pdl\drivers/peripheral/dma/cy_dma.h **** *
 665:Generated_Source\PSoC6\pdl\drivers/peripheral/dma/cy_dma.h **** * \param base
 666:Generated_Source\PSoC6\pdl\drivers/peripheral/dma/cy_dma.h **** * The pointer to the hardware DMA block.
 667:Generated_Source\PSoC6\pdl\drivers/peripheral/dma/cy_dma.h **** *
 668:Generated_Source\PSoC6\pdl\drivers/peripheral/dma/cy_dma.h **** * \return
 669:Generated_Source\PSoC6\pdl\drivers/peripheral/dma/cy_dma.h **** * Returns the pointer to the destination of transfer.
 670:Generated_Source\PSoC6\pdl\drivers/peripheral/dma/cy_dma.h **** *
 671:Generated_Source\PSoC6\pdl\drivers/peripheral/dma/cy_dma.h **** * \funcusage 
 672:Generated_Source\PSoC6\pdl\drivers/peripheral/dma/cy_dma.h **** * \snippet dma\2.10\snippet\main.c snippet_Cy_DMA_GetActiveSrcAddress
 673:Generated_Source\PSoC6\pdl\drivers/peripheral/dma/cy_dma.h **** *
 674:Generated_Source\PSoC6\pdl\drivers/peripheral/dma/cy_dma.h **** *******************************************************************************/
 675:Generated_Source\PSoC6\pdl\drivers/peripheral/dma/cy_dma.h **** __STATIC_INLINE void * Cy_DMA_GetActiveDstAddress(DW_Type * base)
 676:Generated_Source\PSoC6\pdl\drivers/peripheral/dma/cy_dma.h **** {
 677:Generated_Source\PSoC6\pdl\drivers/peripheral/dma/cy_dma.h ****     return ((void *) DW_DESCR_DST(base));
 678:Generated_Source\PSoC6\pdl\drivers/peripheral/dma/cy_dma.h **** }
 679:Generated_Source\PSoC6\pdl\drivers/peripheral/dma/cy_dma.h **** 
 680:Generated_Source\PSoC6\pdl\drivers/peripheral/dma/cy_dma.h **** /** \} group_dma_block_functions */
ARM GAS  C:\Users\enes_\AppData\Local\Temp\ccRFUday.s 			page 19


 681:Generated_Source\PSoC6\pdl\drivers/peripheral/dma/cy_dma.h **** 
 682:Generated_Source\PSoC6\pdl\drivers/peripheral/dma/cy_dma.h **** /**
 683:Generated_Source\PSoC6\pdl\drivers/peripheral/dma/cy_dma.h **** * \addtogroup group_dma_descriptor_functions
 684:Generated_Source\PSoC6\pdl\drivers/peripheral/dma/cy_dma.h **** * \{
 685:Generated_Source\PSoC6\pdl\drivers/peripheral/dma/cy_dma.h **** */
 686:Generated_Source\PSoC6\pdl\drivers/peripheral/dma/cy_dma.h **** 
 687:Generated_Source\PSoC6\pdl\drivers/peripheral/dma/cy_dma.h **** 
 688:Generated_Source\PSoC6\pdl\drivers/peripheral/dma/cy_dma.h **** /*******************************************************************************
 689:Generated_Source\PSoC6\pdl\drivers/peripheral/dma/cy_dma.h **** * Function Name: Cy_DMA_Descriptor_SetSrcAddress
 690:Generated_Source\PSoC6\pdl\drivers/peripheral/dma/cy_dma.h **** ****************************************************************************//**
 691:Generated_Source\PSoC6\pdl\drivers/peripheral/dma/cy_dma.h **** *
 692:Generated_Source\PSoC6\pdl\drivers/peripheral/dma/cy_dma.h **** * Sets the source address for the specified descriptor.
 693:Generated_Source\PSoC6\pdl\drivers/peripheral/dma/cy_dma.h **** *
 694:Generated_Source\PSoC6\pdl\drivers/peripheral/dma/cy_dma.h **** * \param descriptor
 695:Generated_Source\PSoC6\pdl\drivers/peripheral/dma/cy_dma.h **** * The descriptor structure instance declared by the user/component.
 696:Generated_Source\PSoC6\pdl\drivers/peripheral/dma/cy_dma.h **** *
 697:Generated_Source\PSoC6\pdl\drivers/peripheral/dma/cy_dma.h **** * \param srcAddress
 698:Generated_Source\PSoC6\pdl\drivers/peripheral/dma/cy_dma.h **** * The source address value for the descriptor.
 699:Generated_Source\PSoC6\pdl\drivers/peripheral/dma/cy_dma.h **** *
 700:Generated_Source\PSoC6\pdl\drivers/peripheral/dma/cy_dma.h **** * \funcusage 
 701:Generated_Source\PSoC6\pdl\drivers/peripheral/dma/cy_dma.h **** * \snippet dma\2.10\snippet\main.c snippet_Cy_DMA_Descriptor_SetterFunctions
 702:Generated_Source\PSoC6\pdl\drivers/peripheral/dma/cy_dma.h **** *
 703:Generated_Source\PSoC6\pdl\drivers/peripheral/dma/cy_dma.h **** *******************************************************************************/
 704:Generated_Source\PSoC6\pdl\drivers/peripheral/dma/cy_dma.h **** __STATIC_INLINE void Cy_DMA_Descriptor_SetSrcAddress(cy_stc_dma_descriptor_t * descriptor, void con
 705:Generated_Source\PSoC6\pdl\drivers/peripheral/dma/cy_dma.h **** {
 706:Generated_Source\PSoC6\pdl\drivers/peripheral/dma/cy_dma.h ****     descriptor->src = (uint32_t) srcAddress;
 707:Generated_Source\PSoC6\pdl\drivers/peripheral/dma/cy_dma.h **** }
 708:Generated_Source\PSoC6\pdl\drivers/peripheral/dma/cy_dma.h **** 
 709:Generated_Source\PSoC6\pdl\drivers/peripheral/dma/cy_dma.h **** 
 710:Generated_Source\PSoC6\pdl\drivers/peripheral/dma/cy_dma.h **** /*******************************************************************************
 711:Generated_Source\PSoC6\pdl\drivers/peripheral/dma/cy_dma.h **** * Function Name: Cy_DMA_Descriptor_GetSrcAddress
 712:Generated_Source\PSoC6\pdl\drivers/peripheral/dma/cy_dma.h **** ****************************************************************************//**
 713:Generated_Source\PSoC6\pdl\drivers/peripheral/dma/cy_dma.h **** *
 714:Generated_Source\PSoC6\pdl\drivers/peripheral/dma/cy_dma.h **** * Returns the source address parameter of the specified descriptor.
 715:Generated_Source\PSoC6\pdl\drivers/peripheral/dma/cy_dma.h **** * 
 716:Generated_Source\PSoC6\pdl\drivers/peripheral/dma/cy_dma.h **** * \param descriptor
 717:Generated_Source\PSoC6\pdl\drivers/peripheral/dma/cy_dma.h **** * The descriptor structure instance declared by the user/component.
 718:Generated_Source\PSoC6\pdl\drivers/peripheral/dma/cy_dma.h **** *
 719:Generated_Source\PSoC6\pdl\drivers/peripheral/dma/cy_dma.h **** * \return
 720:Generated_Source\PSoC6\pdl\drivers/peripheral/dma/cy_dma.h **** * The source address value of the descriptor.
 721:Generated_Source\PSoC6\pdl\drivers/peripheral/dma/cy_dma.h **** *
 722:Generated_Source\PSoC6\pdl\drivers/peripheral/dma/cy_dma.h **** * \funcusage 
 723:Generated_Source\PSoC6\pdl\drivers/peripheral/dma/cy_dma.h **** * \snippet dma\2.10\snippet\main.c snippet_Cy_DMA_Descriptor_GetterFunctions
 724:Generated_Source\PSoC6\pdl\drivers/peripheral/dma/cy_dma.h **** *
 725:Generated_Source\PSoC6\pdl\drivers/peripheral/dma/cy_dma.h **** *******************************************************************************/
 726:Generated_Source\PSoC6\pdl\drivers/peripheral/dma/cy_dma.h **** __STATIC_INLINE void * Cy_DMA_Descriptor_GetSrcAddress(cy_stc_dma_descriptor_t const * descriptor)
 727:Generated_Source\PSoC6\pdl\drivers/peripheral/dma/cy_dma.h **** {
 728:Generated_Source\PSoC6\pdl\drivers/peripheral/dma/cy_dma.h ****     return ((void *) descriptor->src);
 729:Generated_Source\PSoC6\pdl\drivers/peripheral/dma/cy_dma.h **** }
 730:Generated_Source\PSoC6\pdl\drivers/peripheral/dma/cy_dma.h **** 
 731:Generated_Source\PSoC6\pdl\drivers/peripheral/dma/cy_dma.h **** 
 732:Generated_Source\PSoC6\pdl\drivers/peripheral/dma/cy_dma.h **** /*******************************************************************************
 733:Generated_Source\PSoC6\pdl\drivers/peripheral/dma/cy_dma.h **** * Function Name: Cy_DMA_Descriptor_SetDstAddress
 734:Generated_Source\PSoC6\pdl\drivers/peripheral/dma/cy_dma.h **** ****************************************************************************//**
 735:Generated_Source\PSoC6\pdl\drivers/peripheral/dma/cy_dma.h **** *
 736:Generated_Source\PSoC6\pdl\drivers/peripheral/dma/cy_dma.h **** * Sets the destination address for the specified descriptor.
 737:Generated_Source\PSoC6\pdl\drivers/peripheral/dma/cy_dma.h **** *
ARM GAS  C:\Users\enes_\AppData\Local\Temp\ccRFUday.s 			page 20


 738:Generated_Source\PSoC6\pdl\drivers/peripheral/dma/cy_dma.h **** * \param descriptor
 739:Generated_Source\PSoC6\pdl\drivers/peripheral/dma/cy_dma.h **** * The descriptor structure instance declared by the user/component.
 740:Generated_Source\PSoC6\pdl\drivers/peripheral/dma/cy_dma.h **** *
 741:Generated_Source\PSoC6\pdl\drivers/peripheral/dma/cy_dma.h **** * \param dstAddress
 742:Generated_Source\PSoC6\pdl\drivers/peripheral/dma/cy_dma.h **** * The destination address value for the descriptor.
 743:Generated_Source\PSoC6\pdl\drivers/peripheral/dma/cy_dma.h **** *
 744:Generated_Source\PSoC6\pdl\drivers/peripheral/dma/cy_dma.h **** * \funcusage 
 745:Generated_Source\PSoC6\pdl\drivers/peripheral/dma/cy_dma.h **** * \snippet dma\2.10\snippet\main.c snippet_Cy_DMA_Descriptor_SetterFunctions
 746:Generated_Source\PSoC6\pdl\drivers/peripheral/dma/cy_dma.h **** *
 747:Generated_Source\PSoC6\pdl\drivers/peripheral/dma/cy_dma.h **** *******************************************************************************/
 748:Generated_Source\PSoC6\pdl\drivers/peripheral/dma/cy_dma.h **** __STATIC_INLINE void Cy_DMA_Descriptor_SetDstAddress(cy_stc_dma_descriptor_t * descriptor, void con
 749:Generated_Source\PSoC6\pdl\drivers/peripheral/dma/cy_dma.h **** {
 750:Generated_Source\PSoC6\pdl\drivers/peripheral/dma/cy_dma.h ****     descriptor->dst = (uint32_t) dstAddress;
 751:Generated_Source\PSoC6\pdl\drivers/peripheral/dma/cy_dma.h **** }
 752:Generated_Source\PSoC6\pdl\drivers/peripheral/dma/cy_dma.h **** 
 753:Generated_Source\PSoC6\pdl\drivers/peripheral/dma/cy_dma.h **** 
 754:Generated_Source\PSoC6\pdl\drivers/peripheral/dma/cy_dma.h **** /*******************************************************************************
 755:Generated_Source\PSoC6\pdl\drivers/peripheral/dma/cy_dma.h **** * Function Name: Cy_DMA_Descriptor_GetDstAddress
 756:Generated_Source\PSoC6\pdl\drivers/peripheral/dma/cy_dma.h **** ****************************************************************************//**
 757:Generated_Source\PSoC6\pdl\drivers/peripheral/dma/cy_dma.h **** *
 758:Generated_Source\PSoC6\pdl\drivers/peripheral/dma/cy_dma.h **** * Returns the destination address parameter of the specified descriptor.
 759:Generated_Source\PSoC6\pdl\drivers/peripheral/dma/cy_dma.h **** * 
 760:Generated_Source\PSoC6\pdl\drivers/peripheral/dma/cy_dma.h **** * \param descriptor
 761:Generated_Source\PSoC6\pdl\drivers/peripheral/dma/cy_dma.h **** * The descriptor structure instance declared by the user/component.
 762:Generated_Source\PSoC6\pdl\drivers/peripheral/dma/cy_dma.h **** *
 763:Generated_Source\PSoC6\pdl\drivers/peripheral/dma/cy_dma.h **** * \return
 764:Generated_Source\PSoC6\pdl\drivers/peripheral/dma/cy_dma.h **** * The destination address value of the descriptor.
 765:Generated_Source\PSoC6\pdl\drivers/peripheral/dma/cy_dma.h **** *
 766:Generated_Source\PSoC6\pdl\drivers/peripheral/dma/cy_dma.h **** * \funcusage 
 767:Generated_Source\PSoC6\pdl\drivers/peripheral/dma/cy_dma.h **** * \snippet dma\2.10\snippet\main.c snippet_Cy_DMA_Descriptor_GetterFunctions
 768:Generated_Source\PSoC6\pdl\drivers/peripheral/dma/cy_dma.h **** *
 769:Generated_Source\PSoC6\pdl\drivers/peripheral/dma/cy_dma.h **** *******************************************************************************/
 770:Generated_Source\PSoC6\pdl\drivers/peripheral/dma/cy_dma.h **** __STATIC_INLINE void * Cy_DMA_Descriptor_GetDstAddress(cy_stc_dma_descriptor_t const * descriptor)
 771:Generated_Source\PSoC6\pdl\drivers/peripheral/dma/cy_dma.h **** {
 772:Generated_Source\PSoC6\pdl\drivers/peripheral/dma/cy_dma.h ****     return ((void *) descriptor->dst);
 773:Generated_Source\PSoC6\pdl\drivers/peripheral/dma/cy_dma.h **** }
 774:Generated_Source\PSoC6\pdl\drivers/peripheral/dma/cy_dma.h **** 
 775:Generated_Source\PSoC6\pdl\drivers/peripheral/dma/cy_dma.h **** 
 776:Generated_Source\PSoC6\pdl\drivers/peripheral/dma/cy_dma.h **** /*******************************************************************************
 777:Generated_Source\PSoC6\pdl\drivers/peripheral/dma/cy_dma.h **** * Function Name: Cy_DMA_Descriptor_SetInterruptType
 778:Generated_Source\PSoC6\pdl\drivers/peripheral/dma/cy_dma.h **** ****************************************************************************//**
 779:Generated_Source\PSoC6\pdl\drivers/peripheral/dma/cy_dma.h **** *
 780:Generated_Source\PSoC6\pdl\drivers/peripheral/dma/cy_dma.h **** * Sets the interrupt type for the specified descriptor.
 781:Generated_Source\PSoC6\pdl\drivers/peripheral/dma/cy_dma.h **** *
 782:Generated_Source\PSoC6\pdl\drivers/peripheral/dma/cy_dma.h **** * \param descriptor
 783:Generated_Source\PSoC6\pdl\drivers/peripheral/dma/cy_dma.h **** * The descriptor structure instance declared by the user/component.
 784:Generated_Source\PSoC6\pdl\drivers/peripheral/dma/cy_dma.h **** *
 785:Generated_Source\PSoC6\pdl\drivers/peripheral/dma/cy_dma.h **** * \param interruptType
 786:Generated_Source\PSoC6\pdl\drivers/peripheral/dma/cy_dma.h **** * The interrupt type set for the descriptor. \ref cy_en_dma_trigger_type_t
 787:Generated_Source\PSoC6\pdl\drivers/peripheral/dma/cy_dma.h **** *
 788:Generated_Source\PSoC6\pdl\drivers/peripheral/dma/cy_dma.h **** * \funcusage 
 789:Generated_Source\PSoC6\pdl\drivers/peripheral/dma/cy_dma.h **** * \snippet dma\2.10\snippet\main.c snippet_Cy_DMA_Descriptor_SetterFunctions
 790:Generated_Source\PSoC6\pdl\drivers/peripheral/dma/cy_dma.h **** *
 791:Generated_Source\PSoC6\pdl\drivers/peripheral/dma/cy_dma.h **** *******************************************************************************/
 792:Generated_Source\PSoC6\pdl\drivers/peripheral/dma/cy_dma.h **** __STATIC_INLINE void Cy_DMA_Descriptor_SetInterruptType(cy_stc_dma_descriptor_t * descriptor, cy_en
 793:Generated_Source\PSoC6\pdl\drivers/peripheral/dma/cy_dma.h **** {
 794:Generated_Source\PSoC6\pdl\drivers/peripheral/dma/cy_dma.h ****     CY_ASSERT_L3(CY_DMA_IS_TRIG_TYPE_VALID(interruptType));
ARM GAS  C:\Users\enes_\AppData\Local\Temp\ccRFUday.s 			page 21


 795:Generated_Source\PSoC6\pdl\drivers/peripheral/dma/cy_dma.h ****     
 796:Generated_Source\PSoC6\pdl\drivers/peripheral/dma/cy_dma.h ****     CY_REG32_CLR_SET(descriptor->ctl, CY_DMA_CTL_INTR_TYPE, interruptType);
 797:Generated_Source\PSoC6\pdl\drivers/peripheral/dma/cy_dma.h **** }
 798:Generated_Source\PSoC6\pdl\drivers/peripheral/dma/cy_dma.h **** 
 799:Generated_Source\PSoC6\pdl\drivers/peripheral/dma/cy_dma.h **** 
 800:Generated_Source\PSoC6\pdl\drivers/peripheral/dma/cy_dma.h **** /*******************************************************************************
 801:Generated_Source\PSoC6\pdl\drivers/peripheral/dma/cy_dma.h **** * Function Name: Cy_DMA_Descriptor_GetInterruptType
 802:Generated_Source\PSoC6\pdl\drivers/peripheral/dma/cy_dma.h **** ****************************************************************************//**
 803:Generated_Source\PSoC6\pdl\drivers/peripheral/dma/cy_dma.h **** *
 804:Generated_Source\PSoC6\pdl\drivers/peripheral/dma/cy_dma.h **** * Returns the Interrupt-Type of the specified descriptor.
 805:Generated_Source\PSoC6\pdl\drivers/peripheral/dma/cy_dma.h **** *
 806:Generated_Source\PSoC6\pdl\drivers/peripheral/dma/cy_dma.h **** * \param descriptor
 807:Generated_Source\PSoC6\pdl\drivers/peripheral/dma/cy_dma.h **** * The descriptor structure instance declared by the user/component.
 808:Generated_Source\PSoC6\pdl\drivers/peripheral/dma/cy_dma.h **** *
 809:Generated_Source\PSoC6\pdl\drivers/peripheral/dma/cy_dma.h **** * \return
 810:Generated_Source\PSoC6\pdl\drivers/peripheral/dma/cy_dma.h **** * The Interrupt-Type \ref cy_en_dma_trigger_type_t.
 811:Generated_Source\PSoC6\pdl\drivers/peripheral/dma/cy_dma.h **** *
 812:Generated_Source\PSoC6\pdl\drivers/peripheral/dma/cy_dma.h **** * \funcusage 
 813:Generated_Source\PSoC6\pdl\drivers/peripheral/dma/cy_dma.h **** * \snippet dma\2.10\snippet\main.c snippet_Cy_DMA_Descriptor_GetterFunctions
 814:Generated_Source\PSoC6\pdl\drivers/peripheral/dma/cy_dma.h **** *  
 815:Generated_Source\PSoC6\pdl\drivers/peripheral/dma/cy_dma.h **** *******************************************************************************/
 816:Generated_Source\PSoC6\pdl\drivers/peripheral/dma/cy_dma.h **** __STATIC_INLINE cy_en_dma_trigger_type_t Cy_DMA_Descriptor_GetInterruptType(cy_stc_dma_descriptor_t
 817:Generated_Source\PSoC6\pdl\drivers/peripheral/dma/cy_dma.h **** {
 818:Generated_Source\PSoC6\pdl\drivers/peripheral/dma/cy_dma.h ****     return((cy_en_dma_trigger_type_t) _FLD2VAL(CY_DMA_CTL_INTR_TYPE, descriptor->ctl));
 819:Generated_Source\PSoC6\pdl\drivers/peripheral/dma/cy_dma.h **** }
 820:Generated_Source\PSoC6\pdl\drivers/peripheral/dma/cy_dma.h **** 
 821:Generated_Source\PSoC6\pdl\drivers/peripheral/dma/cy_dma.h **** 
 822:Generated_Source\PSoC6\pdl\drivers/peripheral/dma/cy_dma.h **** /*******************************************************************************
 823:Generated_Source\PSoC6\pdl\drivers/peripheral/dma/cy_dma.h **** * Function Name: Cy_DMA_Descriptor_SetTriggerInType
 824:Generated_Source\PSoC6\pdl\drivers/peripheral/dma/cy_dma.h **** ****************************************************************************//**
 825:Generated_Source\PSoC6\pdl\drivers/peripheral/dma/cy_dma.h **** *
 826:Generated_Source\PSoC6\pdl\drivers/peripheral/dma/cy_dma.h **** * Sets the Trigger-In-Type for the specified descriptor.
 827:Generated_Source\PSoC6\pdl\drivers/peripheral/dma/cy_dma.h **** *
 828:Generated_Source\PSoC6\pdl\drivers/peripheral/dma/cy_dma.h **** * \param descriptor
 829:Generated_Source\PSoC6\pdl\drivers/peripheral/dma/cy_dma.h **** * The descriptor structure instance declared by the user/component.
 830:Generated_Source\PSoC6\pdl\drivers/peripheral/dma/cy_dma.h **** *
 831:Generated_Source\PSoC6\pdl\drivers/peripheral/dma/cy_dma.h **** * \param triggerInType
 832:Generated_Source\PSoC6\pdl\drivers/peripheral/dma/cy_dma.h **** * The Trigger In Type parameter \ref cy_en_dma_trigger_type_t
 833:Generated_Source\PSoC6\pdl\drivers/peripheral/dma/cy_dma.h **** *
 834:Generated_Source\PSoC6\pdl\drivers/peripheral/dma/cy_dma.h **** * \funcusage 
 835:Generated_Source\PSoC6\pdl\drivers/peripheral/dma/cy_dma.h **** * \snippet dma\2.10\snippet\main.c snippet_Cy_DMA_Descriptor_SetterFunctions
 836:Generated_Source\PSoC6\pdl\drivers/peripheral/dma/cy_dma.h **** *
 837:Generated_Source\PSoC6\pdl\drivers/peripheral/dma/cy_dma.h **** *******************************************************************************/
 838:Generated_Source\PSoC6\pdl\drivers/peripheral/dma/cy_dma.h **** __STATIC_INLINE void Cy_DMA_Descriptor_SetTriggerInType(cy_stc_dma_descriptor_t * descriptor, cy_en
 839:Generated_Source\PSoC6\pdl\drivers/peripheral/dma/cy_dma.h **** {
 840:Generated_Source\PSoC6\pdl\drivers/peripheral/dma/cy_dma.h ****     CY_ASSERT_L3(CY_DMA_IS_TRIG_TYPE_VALID(triggerInType));
 841:Generated_Source\PSoC6\pdl\drivers/peripheral/dma/cy_dma.h ****     
 842:Generated_Source\PSoC6\pdl\drivers/peripheral/dma/cy_dma.h ****     CY_REG32_CLR_SET(descriptor->ctl, CY_DMA_CTL_TR_IN_TYPE, triggerInType);
 843:Generated_Source\PSoC6\pdl\drivers/peripheral/dma/cy_dma.h **** }
 844:Generated_Source\PSoC6\pdl\drivers/peripheral/dma/cy_dma.h **** 
 845:Generated_Source\PSoC6\pdl\drivers/peripheral/dma/cy_dma.h **** 
 846:Generated_Source\PSoC6\pdl\drivers/peripheral/dma/cy_dma.h **** /*******************************************************************************
 847:Generated_Source\PSoC6\pdl\drivers/peripheral/dma/cy_dma.h **** * Function Name: Cy_DMA_Descriptor_GetTriggerInType
 848:Generated_Source\PSoC6\pdl\drivers/peripheral/dma/cy_dma.h **** ****************************************************************************//**
 849:Generated_Source\PSoC6\pdl\drivers/peripheral/dma/cy_dma.h **** *
 850:Generated_Source\PSoC6\pdl\drivers/peripheral/dma/cy_dma.h **** * Returns the Trigger-In-Type parameter of the specified descriptor.
 851:Generated_Source\PSoC6\pdl\drivers/peripheral/dma/cy_dma.h **** *
ARM GAS  C:\Users\enes_\AppData\Local\Temp\ccRFUday.s 			page 22


 852:Generated_Source\PSoC6\pdl\drivers/peripheral/dma/cy_dma.h **** * \param descriptor
 853:Generated_Source\PSoC6\pdl\drivers/peripheral/dma/cy_dma.h **** * The descriptor structure instance declared by the user/component.
 854:Generated_Source\PSoC6\pdl\drivers/peripheral/dma/cy_dma.h **** *
 855:Generated_Source\PSoC6\pdl\drivers/peripheral/dma/cy_dma.h **** * \return
 856:Generated_Source\PSoC6\pdl\drivers/peripheral/dma/cy_dma.h **** * The Trigger-In-Type \ref cy_en_dma_trigger_type_t
 857:Generated_Source\PSoC6\pdl\drivers/peripheral/dma/cy_dma.h **** *
 858:Generated_Source\PSoC6\pdl\drivers/peripheral/dma/cy_dma.h **** * \funcusage 
 859:Generated_Source\PSoC6\pdl\drivers/peripheral/dma/cy_dma.h **** * \snippet dma\2.10\snippet\main.c snippet_Cy_DMA_Descriptor_GetterFunctions
 860:Generated_Source\PSoC6\pdl\drivers/peripheral/dma/cy_dma.h **** *  
 861:Generated_Source\PSoC6\pdl\drivers/peripheral/dma/cy_dma.h **** *******************************************************************************/
 862:Generated_Source\PSoC6\pdl\drivers/peripheral/dma/cy_dma.h **** __STATIC_INLINE cy_en_dma_trigger_type_t Cy_DMA_Descriptor_GetTriggerInType(cy_stc_dma_descriptor_t
 863:Generated_Source\PSoC6\pdl\drivers/peripheral/dma/cy_dma.h **** {
 864:Generated_Source\PSoC6\pdl\drivers/peripheral/dma/cy_dma.h ****     return((cy_en_dma_trigger_type_t) _FLD2VAL(CY_DMA_CTL_TR_IN_TYPE, descriptor->ctl));
 865:Generated_Source\PSoC6\pdl\drivers/peripheral/dma/cy_dma.h **** }
 866:Generated_Source\PSoC6\pdl\drivers/peripheral/dma/cy_dma.h **** 
 867:Generated_Source\PSoC6\pdl\drivers/peripheral/dma/cy_dma.h **** 
 868:Generated_Source\PSoC6\pdl\drivers/peripheral/dma/cy_dma.h **** /*******************************************************************************
 869:Generated_Source\PSoC6\pdl\drivers/peripheral/dma/cy_dma.h **** * Function Name: Cy_DMA_Descriptor_SetTriggerOutType
 870:Generated_Source\PSoC6\pdl\drivers/peripheral/dma/cy_dma.h **** ****************************************************************************//**
 871:Generated_Source\PSoC6\pdl\drivers/peripheral/dma/cy_dma.h **** *
 872:Generated_Source\PSoC6\pdl\drivers/peripheral/dma/cy_dma.h **** * Sets the Trigger-Out-Type for the specified descriptor.
 873:Generated_Source\PSoC6\pdl\drivers/peripheral/dma/cy_dma.h **** *
 874:Generated_Source\PSoC6\pdl\drivers/peripheral/dma/cy_dma.h **** * \param descriptor
 875:Generated_Source\PSoC6\pdl\drivers/peripheral/dma/cy_dma.h **** * The descriptor structure instance declared by the user/component.
 876:Generated_Source\PSoC6\pdl\drivers/peripheral/dma/cy_dma.h **** *
 877:Generated_Source\PSoC6\pdl\drivers/peripheral/dma/cy_dma.h **** * \param triggerOutType
 878:Generated_Source\PSoC6\pdl\drivers/peripheral/dma/cy_dma.h **** * The Trigger-Out-Type set for the descriptor. \ref cy_en_dma_trigger_type_t
 879:Generated_Source\PSoC6\pdl\drivers/peripheral/dma/cy_dma.h **** *
 880:Generated_Source\PSoC6\pdl\drivers/peripheral/dma/cy_dma.h **** * \funcusage 
 881:Generated_Source\PSoC6\pdl\drivers/peripheral/dma/cy_dma.h **** * \snippet dma\2.10\snippet\main.c snippet_Cy_DMA_Descriptor_SetterFunctions
 882:Generated_Source\PSoC6\pdl\drivers/peripheral/dma/cy_dma.h **** *
 883:Generated_Source\PSoC6\pdl\drivers/peripheral/dma/cy_dma.h **** *******************************************************************************/
 884:Generated_Source\PSoC6\pdl\drivers/peripheral/dma/cy_dma.h **** __STATIC_INLINE void Cy_DMA_Descriptor_SetTriggerOutType(cy_stc_dma_descriptor_t * descriptor, cy_e
 885:Generated_Source\PSoC6\pdl\drivers/peripheral/dma/cy_dma.h **** {
 886:Generated_Source\PSoC6\pdl\drivers/peripheral/dma/cy_dma.h ****     CY_ASSERT_L3(CY_DMA_IS_TRIG_TYPE_VALID(triggerOutType));
 887:Generated_Source\PSoC6\pdl\drivers/peripheral/dma/cy_dma.h ****     
 888:Generated_Source\PSoC6\pdl\drivers/peripheral/dma/cy_dma.h ****     CY_REG32_CLR_SET(descriptor->ctl, CY_DMA_CTL_TR_OUT_TYPE, triggerOutType);
 889:Generated_Source\PSoC6\pdl\drivers/peripheral/dma/cy_dma.h **** }
 890:Generated_Source\PSoC6\pdl\drivers/peripheral/dma/cy_dma.h **** 
 891:Generated_Source\PSoC6\pdl\drivers/peripheral/dma/cy_dma.h **** 
 892:Generated_Source\PSoC6\pdl\drivers/peripheral/dma/cy_dma.h **** /*******************************************************************************
 893:Generated_Source\PSoC6\pdl\drivers/peripheral/dma/cy_dma.h **** * Function Name: Cy_DMA_Descriptor_GetTriggerOutType
 894:Generated_Source\PSoC6\pdl\drivers/peripheral/dma/cy_dma.h **** ****************************************************************************//**
 895:Generated_Source\PSoC6\pdl\drivers/peripheral/dma/cy_dma.h **** *
 896:Generated_Source\PSoC6\pdl\drivers/peripheral/dma/cy_dma.h **** * Returns the Trigger-Out-Type parameter of the specified descriptor.
 897:Generated_Source\PSoC6\pdl\drivers/peripheral/dma/cy_dma.h **** *
 898:Generated_Source\PSoC6\pdl\drivers/peripheral/dma/cy_dma.h **** * \param descriptor
 899:Generated_Source\PSoC6\pdl\drivers/peripheral/dma/cy_dma.h **** * The descriptor structure instance declared by the user/component.
 900:Generated_Source\PSoC6\pdl\drivers/peripheral/dma/cy_dma.h **** *
 901:Generated_Source\PSoC6\pdl\drivers/peripheral/dma/cy_dma.h **** * \return
 902:Generated_Source\PSoC6\pdl\drivers/peripheral/dma/cy_dma.h **** * The Trigger-Out-Type parameter \ref cy_en_dma_trigger_type_t.
 903:Generated_Source\PSoC6\pdl\drivers/peripheral/dma/cy_dma.h **** *
 904:Generated_Source\PSoC6\pdl\drivers/peripheral/dma/cy_dma.h **** * \funcusage 
 905:Generated_Source\PSoC6\pdl\drivers/peripheral/dma/cy_dma.h **** * \snippet dma\2.10\snippet\main.c snippet_Cy_DMA_Descriptor_GetterFunctions
 906:Generated_Source\PSoC6\pdl\drivers/peripheral/dma/cy_dma.h **** *  
 907:Generated_Source\PSoC6\pdl\drivers/peripheral/dma/cy_dma.h **** *******************************************************************************/
 908:Generated_Source\PSoC6\pdl\drivers/peripheral/dma/cy_dma.h **** __STATIC_INLINE cy_en_dma_trigger_type_t Cy_DMA_Descriptor_GetTriggerOutType(cy_stc_dma_descriptor_
ARM GAS  C:\Users\enes_\AppData\Local\Temp\ccRFUday.s 			page 23


 909:Generated_Source\PSoC6\pdl\drivers/peripheral/dma/cy_dma.h **** {
 910:Generated_Source\PSoC6\pdl\drivers/peripheral/dma/cy_dma.h ****     return((cy_en_dma_trigger_type_t) _FLD2VAL(CY_DMA_CTL_TR_OUT_TYPE, descriptor->ctl));
 911:Generated_Source\PSoC6\pdl\drivers/peripheral/dma/cy_dma.h **** }
 912:Generated_Source\PSoC6\pdl\drivers/peripheral/dma/cy_dma.h **** 
 913:Generated_Source\PSoC6\pdl\drivers/peripheral/dma/cy_dma.h **** 
 914:Generated_Source\PSoC6\pdl\drivers/peripheral/dma/cy_dma.h **** /*******************************************************************************
 915:Generated_Source\PSoC6\pdl\drivers/peripheral/dma/cy_dma.h **** * Function Name: Cy_DMA_Descriptor_SetDataSize
 916:Generated_Source\PSoC6\pdl\drivers/peripheral/dma/cy_dma.h **** ****************************************************************************//**
 917:Generated_Source\PSoC6\pdl\drivers/peripheral/dma/cy_dma.h **** *
 918:Generated_Source\PSoC6\pdl\drivers/peripheral/dma/cy_dma.h **** * Sets the Data Element Size for the specified descriptor.
 919:Generated_Source\PSoC6\pdl\drivers/peripheral/dma/cy_dma.h **** *
 920:Generated_Source\PSoC6\pdl\drivers/peripheral/dma/cy_dma.h **** * \param descriptor
 921:Generated_Source\PSoC6\pdl\drivers/peripheral/dma/cy_dma.h **** * The descriptor structure instance declared by the user/component.
 922:Generated_Source\PSoC6\pdl\drivers/peripheral/dma/cy_dma.h **** *
 923:Generated_Source\PSoC6\pdl\drivers/peripheral/dma/cy_dma.h **** * \param dataSize
 924:Generated_Source\PSoC6\pdl\drivers/peripheral/dma/cy_dma.h **** * The Data Element Size \ref cy_en_dma_data_size_t
 925:Generated_Source\PSoC6\pdl\drivers/peripheral/dma/cy_dma.h **** *
 926:Generated_Source\PSoC6\pdl\drivers/peripheral/dma/cy_dma.h **** * \funcusage 
 927:Generated_Source\PSoC6\pdl\drivers/peripheral/dma/cy_dma.h **** * \snippet dma\2.10\snippet\main.c snippet_Cy_DMA_Descriptor_SetterFunctions
 928:Generated_Source\PSoC6\pdl\drivers/peripheral/dma/cy_dma.h **** *  
 929:Generated_Source\PSoC6\pdl\drivers/peripheral/dma/cy_dma.h **** *******************************************************************************/
 930:Generated_Source\PSoC6\pdl\drivers/peripheral/dma/cy_dma.h **** __STATIC_INLINE void Cy_DMA_Descriptor_SetDataSize(cy_stc_dma_descriptor_t * descriptor, cy_en_dma_
 931:Generated_Source\PSoC6\pdl\drivers/peripheral/dma/cy_dma.h **** {
 932:Generated_Source\PSoC6\pdl\drivers/peripheral/dma/cy_dma.h ****     CY_ASSERT_L3(CY_DMA_IS_DATA_SIZE_VALID(dataSize));
  48              		.loc 2 932 0
  49 000a 022A     		cmp	r2, #2
  50 000c 04D9     		bls	.L2
  51 000e E921     		movs	r1, #233
  52              	.LVL2:
  53 0010 8900     		lsls	r1, r1, #2
  54 0012 2A48     		ldr	r0, .L9
  55              	.LVL3:
  56 0014 FFF7FEFF 		bl	Cy_SysLib_AssertFailed
  57              	.LVL4:
  58              	.L2:
 933:Generated_Source\PSoC6\pdl\drivers/peripheral/dma/cy_dma.h ****     
 934:Generated_Source\PSoC6\pdl\drivers/peripheral/dma/cy_dma.h ****     CY_REG32_CLR_SET(descriptor->ctl, CY_DMA_CTL_DATA_SIZE, dataSize);
  59              		.loc 2 934 0
  60 0018 294A     		ldr	r2, .L9+4
  61 001a 2168     		ldr	r1, [r4]
  62 001c 1140     		ands	r1, r2
  63 001e 2A07     		lsls	r2, r5, #28
  64 0020 C023     		movs	r3, #192
  65 0022 9B05     		lsls	r3, r3, #22
  66 0024 1A40     		ands	r2, r3
  67 0026 0A43     		orrs	r2, r1
  68 0028 2260     		str	r2, [r4]
  69              	.LVL5:
  70              	.LBE128:
  71              	.LBE127:
 300:Generated_Source\PSoC6\pdl\drivers\peripheral\usbfs/cy_usbfs_dev_drv_io_dma.c ****     Cy_DMA_Descriptor_SetDataSize(descr, dataSize);
 301:Generated_Source\PSoC6\pdl\drivers\peripheral\usbfs/cy_usbfs_dev_drv_io_dma.c **** 
 302:Generated_Source\PSoC6\pdl\drivers\peripheral\usbfs/cy_usbfs_dev_drv_io_dma.c ****     if (inDirection)
  72              		.loc 1 302 0
  73 002a 002F     		cmp	r7, #0
  74 002c 20D0     		beq	.L3
  75              	.LVL6:
ARM GAS  C:\Users\enes_\AppData\Local\Temp\ccRFUday.s 			page 24


  76              	.LBB129:
  77              	.LBB130:
 935:Generated_Source\PSoC6\pdl\drivers/peripheral/dma/cy_dma.h **** }
 936:Generated_Source\PSoC6\pdl\drivers/peripheral/dma/cy_dma.h **** 
 937:Generated_Source\PSoC6\pdl\drivers/peripheral/dma/cy_dma.h **** 
 938:Generated_Source\PSoC6\pdl\drivers/peripheral/dma/cy_dma.h **** /*******************************************************************************
 939:Generated_Source\PSoC6\pdl\drivers/peripheral/dma/cy_dma.h **** * Function Name: Cy_DMA_Descriptor_GetDataSize
 940:Generated_Source\PSoC6\pdl\drivers/peripheral/dma/cy_dma.h **** ****************************************************************************//**
 941:Generated_Source\PSoC6\pdl\drivers/peripheral/dma/cy_dma.h **** *
 942:Generated_Source\PSoC6\pdl\drivers/peripheral/dma/cy_dma.h **** * Returns the Data Element Size parameter of the specified descriptor.
 943:Generated_Source\PSoC6\pdl\drivers/peripheral/dma/cy_dma.h **** *
 944:Generated_Source\PSoC6\pdl\drivers/peripheral/dma/cy_dma.h **** * \param descriptor
 945:Generated_Source\PSoC6\pdl\drivers/peripheral/dma/cy_dma.h **** * The descriptor structure instance declared by the user/component.
 946:Generated_Source\PSoC6\pdl\drivers/peripheral/dma/cy_dma.h **** *
 947:Generated_Source\PSoC6\pdl\drivers/peripheral/dma/cy_dma.h **** * \return
 948:Generated_Source\PSoC6\pdl\drivers/peripheral/dma/cy_dma.h **** * The Data Element Size \ref cy_en_dma_data_size_t.
 949:Generated_Source\PSoC6\pdl\drivers/peripheral/dma/cy_dma.h **** *
 950:Generated_Source\PSoC6\pdl\drivers/peripheral/dma/cy_dma.h **** * \funcusage 
 951:Generated_Source\PSoC6\pdl\drivers/peripheral/dma/cy_dma.h **** * \snippet dma\2.10\snippet\main.c snippet_Cy_DMA_Descriptor_GetterFunctions
 952:Generated_Source\PSoC6\pdl\drivers/peripheral/dma/cy_dma.h **** *  
 953:Generated_Source\PSoC6\pdl\drivers/peripheral/dma/cy_dma.h **** *******************************************************************************/
 954:Generated_Source\PSoC6\pdl\drivers/peripheral/dma/cy_dma.h **** __STATIC_INLINE cy_en_dma_data_size_t Cy_DMA_Descriptor_GetDataSize(cy_stc_dma_descriptor_t const *
 955:Generated_Source\PSoC6\pdl\drivers/peripheral/dma/cy_dma.h **** {
 956:Generated_Source\PSoC6\pdl\drivers/peripheral/dma/cy_dma.h ****     return((cy_en_dma_data_size_t) _FLD2VAL(CY_DMA_CTL_DATA_SIZE, descriptor->ctl));
 957:Generated_Source\PSoC6\pdl\drivers/peripheral/dma/cy_dma.h **** }
 958:Generated_Source\PSoC6\pdl\drivers/peripheral/dma/cy_dma.h **** 
 959:Generated_Source\PSoC6\pdl\drivers/peripheral/dma/cy_dma.h **** 
 960:Generated_Source\PSoC6\pdl\drivers/peripheral/dma/cy_dma.h **** /*******************************************************************************
 961:Generated_Source\PSoC6\pdl\drivers/peripheral/dma/cy_dma.h **** * Function Name: Cy_DMA_Descriptor_SetSrcTransferSize
 962:Generated_Source\PSoC6\pdl\drivers/peripheral/dma/cy_dma.h **** ****************************************************************************//**
 963:Generated_Source\PSoC6\pdl\drivers/peripheral/dma/cy_dma.h **** *
 964:Generated_Source\PSoC6\pdl\drivers/peripheral/dma/cy_dma.h **** * Sets the Source Transfer Size for the specified descriptor.
 965:Generated_Source\PSoC6\pdl\drivers/peripheral/dma/cy_dma.h **** *
 966:Generated_Source\PSoC6\pdl\drivers/peripheral/dma/cy_dma.h **** * \param descriptor
 967:Generated_Source\PSoC6\pdl\drivers/peripheral/dma/cy_dma.h **** * The descriptor structure instance declared by the user/component.
 968:Generated_Source\PSoC6\pdl\drivers/peripheral/dma/cy_dma.h **** *
 969:Generated_Source\PSoC6\pdl\drivers/peripheral/dma/cy_dma.h **** * \param srcTransferSize
 970:Generated_Source\PSoC6\pdl\drivers/peripheral/dma/cy_dma.h **** * The Source Transfer Size \ref cy_en_dma_transfer_size_t.
 971:Generated_Source\PSoC6\pdl\drivers/peripheral/dma/cy_dma.h **** *
 972:Generated_Source\PSoC6\pdl\drivers/peripheral/dma/cy_dma.h **** * \funcusage 
 973:Generated_Source\PSoC6\pdl\drivers/peripheral/dma/cy_dma.h **** * \snippet dma\2.10\snippet\main.c snippet_Cy_DMA_Descriptor_SetterFunctions
 974:Generated_Source\PSoC6\pdl\drivers/peripheral/dma/cy_dma.h **** *
 975:Generated_Source\PSoC6\pdl\drivers/peripheral/dma/cy_dma.h **** *******************************************************************************/
 976:Generated_Source\PSoC6\pdl\drivers/peripheral/dma/cy_dma.h **** __STATIC_INLINE void Cy_DMA_Descriptor_SetSrcTransferSize(cy_stc_dma_descriptor_t * descriptor, cy_
 977:Generated_Source\PSoC6\pdl\drivers/peripheral/dma/cy_dma.h **** {
 978:Generated_Source\PSoC6\pdl\drivers/peripheral/dma/cy_dma.h ****     CY_ASSERT_L3(CY_DMA_IS_XFER_SIZE_VALID(srcTransferSize));
 979:Generated_Source\PSoC6\pdl\drivers/peripheral/dma/cy_dma.h **** 
 980:Generated_Source\PSoC6\pdl\drivers/peripheral/dma/cy_dma.h ****     CY_REG32_CLR_SET(descriptor->ctl, CY_DMA_CTL_SRC_SIZE, srcTransferSize);
  78              		.loc 2 980 0
  79 002e 254B     		ldr	r3, .L9+8
  80 0030 1A40     		ands	r2, r3
  81              	.LVL7:
  82              	.LBE130:
  83              	.LBE129:
  84              	.LBB131:
  85              	.LBB132:
 981:Generated_Source\PSoC6\pdl\drivers/peripheral/dma/cy_dma.h **** }
ARM GAS  C:\Users\enes_\AppData\Local\Temp\ccRFUday.s 			page 25


 982:Generated_Source\PSoC6\pdl\drivers/peripheral/dma/cy_dma.h **** 
 983:Generated_Source\PSoC6\pdl\drivers/peripheral/dma/cy_dma.h **** 
 984:Generated_Source\PSoC6\pdl\drivers/peripheral/dma/cy_dma.h **** /*******************************************************************************
 985:Generated_Source\PSoC6\pdl\drivers/peripheral/dma/cy_dma.h **** * Function Name: Cy_DMA_Descriptor_GetSrcTransferSize
 986:Generated_Source\PSoC6\pdl\drivers/peripheral/dma/cy_dma.h **** ****************************************************************************//**
 987:Generated_Source\PSoC6\pdl\drivers/peripheral/dma/cy_dma.h **** *
 988:Generated_Source\PSoC6\pdl\drivers/peripheral/dma/cy_dma.h **** * Returns the Source Transfer Size parameter of the specified descriptor.
 989:Generated_Source\PSoC6\pdl\drivers/peripheral/dma/cy_dma.h **** *
 990:Generated_Source\PSoC6\pdl\drivers/peripheral/dma/cy_dma.h **** * \param descriptor
 991:Generated_Source\PSoC6\pdl\drivers/peripheral/dma/cy_dma.h **** * The descriptor structure instance declared by the user/component.
 992:Generated_Source\PSoC6\pdl\drivers/peripheral/dma/cy_dma.h **** *
 993:Generated_Source\PSoC6\pdl\drivers/peripheral/dma/cy_dma.h **** * \return
 994:Generated_Source\PSoC6\pdl\drivers/peripheral/dma/cy_dma.h **** * The Source Transfer Size \ref cy_en_dma_transfer_size_t.
 995:Generated_Source\PSoC6\pdl\drivers/peripheral/dma/cy_dma.h **** *
 996:Generated_Source\PSoC6\pdl\drivers/peripheral/dma/cy_dma.h **** * \funcusage 
 997:Generated_Source\PSoC6\pdl\drivers/peripheral/dma/cy_dma.h **** * \snippet dma\2.10\snippet\main.c snippet_Cy_DMA_Descriptor_GetterFunctions
 998:Generated_Source\PSoC6\pdl\drivers/peripheral/dma/cy_dma.h **** *  
 999:Generated_Source\PSoC6\pdl\drivers/peripheral/dma/cy_dma.h **** *******************************************************************************/
1000:Generated_Source\PSoC6\pdl\drivers/peripheral/dma/cy_dma.h **** __STATIC_INLINE cy_en_dma_transfer_size_t Cy_DMA_Descriptor_GetSrcTransferSize(cy_stc_dma_descripto
1001:Generated_Source\PSoC6\pdl\drivers/peripheral/dma/cy_dma.h **** {
1002:Generated_Source\PSoC6\pdl\drivers/peripheral/dma/cy_dma.h ****     return((cy_en_dma_transfer_size_t) _FLD2VAL(CY_DMA_CTL_SRC_SIZE, descriptor->ctl));
1003:Generated_Source\PSoC6\pdl\drivers/peripheral/dma/cy_dma.h **** }
1004:Generated_Source\PSoC6\pdl\drivers/peripheral/dma/cy_dma.h **** 
1005:Generated_Source\PSoC6\pdl\drivers/peripheral/dma/cy_dma.h **** 
1006:Generated_Source\PSoC6\pdl\drivers/peripheral/dma/cy_dma.h **** /*******************************************************************************
1007:Generated_Source\PSoC6\pdl\drivers/peripheral/dma/cy_dma.h **** * Function Name: Cy_DMA_Descriptor_SetDstTransferSize
1008:Generated_Source\PSoC6\pdl\drivers/peripheral/dma/cy_dma.h **** ****************************************************************************//**
1009:Generated_Source\PSoC6\pdl\drivers/peripheral/dma/cy_dma.h **** *
1010:Generated_Source\PSoC6\pdl\drivers/peripheral/dma/cy_dma.h **** * Sets the Destination Transfer Size for the specified descriptor.
1011:Generated_Source\PSoC6\pdl\drivers/peripheral/dma/cy_dma.h **** *
1012:Generated_Source\PSoC6\pdl\drivers/peripheral/dma/cy_dma.h **** * \param descriptor
1013:Generated_Source\PSoC6\pdl\drivers/peripheral/dma/cy_dma.h **** * The descriptor structure instance declared by the user/component.
1014:Generated_Source\PSoC6\pdl\drivers/peripheral/dma/cy_dma.h **** *
1015:Generated_Source\PSoC6\pdl\drivers/peripheral/dma/cy_dma.h **** * \param dstTransferSize
1016:Generated_Source\PSoC6\pdl\drivers/peripheral/dma/cy_dma.h **** * The Destination Transfer Size \ref cy_en_dma_transfer_size_t.
1017:Generated_Source\PSoC6\pdl\drivers/peripheral/dma/cy_dma.h **** *
1018:Generated_Source\PSoC6\pdl\drivers/peripheral/dma/cy_dma.h **** * \funcusage 
1019:Generated_Source\PSoC6\pdl\drivers/peripheral/dma/cy_dma.h **** * \snippet dma\2.10\snippet\main.c snippet_Cy_DMA_Descriptor_SetterFunctions
1020:Generated_Source\PSoC6\pdl\drivers/peripheral/dma/cy_dma.h **** *
1021:Generated_Source\PSoC6\pdl\drivers/peripheral/dma/cy_dma.h **** *******************************************************************************/
1022:Generated_Source\PSoC6\pdl\drivers/peripheral/dma/cy_dma.h **** __STATIC_INLINE void Cy_DMA_Descriptor_SetDstTransferSize(cy_stc_dma_descriptor_t * descriptor, cy_
1023:Generated_Source\PSoC6\pdl\drivers/peripheral/dma/cy_dma.h **** {
1024:Generated_Source\PSoC6\pdl\drivers/peripheral/dma/cy_dma.h ****     CY_ASSERT_L3(CY_DMA_IS_XFER_SIZE_VALID(dstTransferSize));
1025:Generated_Source\PSoC6\pdl\drivers/peripheral/dma/cy_dma.h ****     
1026:Generated_Source\PSoC6\pdl\drivers/peripheral/dma/cy_dma.h ****     CY_REG32_CLR_SET(descriptor->ctl, CY_DMA_CTL_DST_SIZE, dstTransferSize);
  86              		.loc 2 1026 0
  87 0032 254B     		ldr	r3, .L9+12
  88 0034 1A40     		ands	r2, r3
  89 0036 8023     		movs	r3, #128
  90 0038 1B05     		lsls	r3, r3, #20
  91 003a 1A43     		orrs	r2, r3
  92 003c 2260     		str	r2, [r4]
  93              	.LVL8:
  94              	.LBE132:
  95              	.LBE131:
  96              	.LBB133:
  97              	.LBB134:
ARM GAS  C:\Users\enes_\AppData\Local\Temp\ccRFUday.s 			page 26


  98              	.LBB135:
  99              	.LBB136:
1027:Generated_Source\PSoC6\pdl\drivers/peripheral/dma/cy_dma.h **** }
1028:Generated_Source\PSoC6\pdl\drivers/peripheral/dma/cy_dma.h **** 
1029:Generated_Source\PSoC6\pdl\drivers/peripheral/dma/cy_dma.h **** 
1030:Generated_Source\PSoC6\pdl\drivers/peripheral/dma/cy_dma.h **** /*******************************************************************************
1031:Generated_Source\PSoC6\pdl\drivers/peripheral/dma/cy_dma.h **** * Function Name: Cy_DMA_Descriptor_GetDstTransferSize
1032:Generated_Source\PSoC6\pdl\drivers/peripheral/dma/cy_dma.h **** ****************************************************************************//**
1033:Generated_Source\PSoC6\pdl\drivers/peripheral/dma/cy_dma.h **** *
1034:Generated_Source\PSoC6\pdl\drivers/peripheral/dma/cy_dma.h **** * Returns the Destination Transfer Size parameter of the specified descriptor.
1035:Generated_Source\PSoC6\pdl\drivers/peripheral/dma/cy_dma.h **** *
1036:Generated_Source\PSoC6\pdl\drivers/peripheral/dma/cy_dma.h **** * \param descriptor
1037:Generated_Source\PSoC6\pdl\drivers/peripheral/dma/cy_dma.h **** * The descriptor structure instance declared by the user/component.
1038:Generated_Source\PSoC6\pdl\drivers/peripheral/dma/cy_dma.h **** *
1039:Generated_Source\PSoC6\pdl\drivers/peripheral/dma/cy_dma.h **** * \return
1040:Generated_Source\PSoC6\pdl\drivers/peripheral/dma/cy_dma.h **** * The Destination Transfer Size \ref cy_en_dma_transfer_size_t.
1041:Generated_Source\PSoC6\pdl\drivers/peripheral/dma/cy_dma.h **** *
1042:Generated_Source\PSoC6\pdl\drivers/peripheral/dma/cy_dma.h **** * \funcusage 
1043:Generated_Source\PSoC6\pdl\drivers/peripheral/dma/cy_dma.h **** * \snippet dma\2.10\snippet\main.c snippet_Cy_DMA_Descriptor_GetterFunctions
1044:Generated_Source\PSoC6\pdl\drivers/peripheral/dma/cy_dma.h **** *  
1045:Generated_Source\PSoC6\pdl\drivers/peripheral/dma/cy_dma.h **** *******************************************************************************/
1046:Generated_Source\PSoC6\pdl\drivers/peripheral/dma/cy_dma.h **** __STATIC_INLINE cy_en_dma_transfer_size_t Cy_DMA_Descriptor_GetDstTransferSize(cy_stc_dma_descripto
1047:Generated_Source\PSoC6\pdl\drivers/peripheral/dma/cy_dma.h **** {
1048:Generated_Source\PSoC6\pdl\drivers/peripheral/dma/cy_dma.h ****     return((cy_en_dma_transfer_size_t) _FLD2VAL(CY_DMA_CTL_DST_SIZE, descriptor->ctl));
1049:Generated_Source\PSoC6\pdl\drivers/peripheral/dma/cy_dma.h **** }
1050:Generated_Source\PSoC6\pdl\drivers/peripheral/dma/cy_dma.h **** 
1051:Generated_Source\PSoC6\pdl\drivers/peripheral/dma/cy_dma.h **** 
1052:Generated_Source\PSoC6\pdl\drivers/peripheral/dma/cy_dma.h **** /*******************************************************************************
1053:Generated_Source\PSoC6\pdl\drivers/peripheral/dma/cy_dma.h **** * Function Name: Cy_DMA_Descriptor_SetRetrigger
1054:Generated_Source\PSoC6\pdl\drivers/peripheral/dma/cy_dma.h **** ****************************************************************************//**
1055:Generated_Source\PSoC6\pdl\drivers/peripheral/dma/cy_dma.h **** *
1056:Generated_Source\PSoC6\pdl\drivers/peripheral/dma/cy_dma.h **** * Sets the retrigger value that specifies whether the controller should 
1057:Generated_Source\PSoC6\pdl\drivers/peripheral/dma/cy_dma.h **** * wait for the input trigger to be deactivated.
1058:Generated_Source\PSoC6\pdl\drivers/peripheral/dma/cy_dma.h **** *
1059:Generated_Source\PSoC6\pdl\drivers/peripheral/dma/cy_dma.h **** * \param descriptor
1060:Generated_Source\PSoC6\pdl\drivers/peripheral/dma/cy_dma.h **** * The descriptor structure instance declared by the user/component.
1061:Generated_Source\PSoC6\pdl\drivers/peripheral/dma/cy_dma.h **** *
1062:Generated_Source\PSoC6\pdl\drivers/peripheral/dma/cy_dma.h **** * \param retrigger 
1063:Generated_Source\PSoC6\pdl\drivers/peripheral/dma/cy_dma.h **** * The \ref cy_en_dma_retrigger_t parameter specifies whether the controller
1064:Generated_Source\PSoC6\pdl\drivers/peripheral/dma/cy_dma.h **** * should wait for the input trigger to be deactivated.
1065:Generated_Source\PSoC6\pdl\drivers/peripheral/dma/cy_dma.h **** *
1066:Generated_Source\PSoC6\pdl\drivers/peripheral/dma/cy_dma.h **** * \funcusage 
1067:Generated_Source\PSoC6\pdl\drivers/peripheral/dma/cy_dma.h **** * \snippet dma\2.10\snippet\main.c snippet_Cy_DMA_Descriptor_SetterFunctions
1068:Generated_Source\PSoC6\pdl\drivers/peripheral/dma/cy_dma.h **** *
1069:Generated_Source\PSoC6\pdl\drivers/peripheral/dma/cy_dma.h **** *******************************************************************************/
1070:Generated_Source\PSoC6\pdl\drivers/peripheral/dma/cy_dma.h **** __STATIC_INLINE void Cy_DMA_Descriptor_SetRetrigger(cy_stc_dma_descriptor_t * descriptor, cy_en_dma
1071:Generated_Source\PSoC6\pdl\drivers/peripheral/dma/cy_dma.h **** {
1072:Generated_Source\PSoC6\pdl\drivers/peripheral/dma/cy_dma.h ****     CY_ASSERT_L3(CY_DMA_IS_RETRIG_VALID(retrigger));
1073:Generated_Source\PSoC6\pdl\drivers/peripheral/dma/cy_dma.h ****     
1074:Generated_Source\PSoC6\pdl\drivers/peripheral/dma/cy_dma.h ****     CY_REG32_CLR_SET(descriptor->ctl, CY_DMA_CTL_RETRIG, retrigger);
1075:Generated_Source\PSoC6\pdl\drivers/peripheral/dma/cy_dma.h **** }
1076:Generated_Source\PSoC6\pdl\drivers/peripheral/dma/cy_dma.h **** 
1077:Generated_Source\PSoC6\pdl\drivers/peripheral/dma/cy_dma.h **** 
1078:Generated_Source\PSoC6\pdl\drivers/peripheral/dma/cy_dma.h **** /*******************************************************************************
1079:Generated_Source\PSoC6\pdl\drivers/peripheral/dma/cy_dma.h **** * Function Name: Cy_DMA_Descriptor_GetRetrigger
1080:Generated_Source\PSoC6\pdl\drivers/peripheral/dma/cy_dma.h **** ****************************************************************************//**
1081:Generated_Source\PSoC6\pdl\drivers/peripheral/dma/cy_dma.h **** *
ARM GAS  C:\Users\enes_\AppData\Local\Temp\ccRFUday.s 			page 27


1082:Generated_Source\PSoC6\pdl\drivers/peripheral/dma/cy_dma.h **** * Returns a value that specifies whether the controller should 
1083:Generated_Source\PSoC6\pdl\drivers/peripheral/dma/cy_dma.h **** * wait for the input trigger to be deactivated.
1084:Generated_Source\PSoC6\pdl\drivers/peripheral/dma/cy_dma.h **** *
1085:Generated_Source\PSoC6\pdl\drivers/peripheral/dma/cy_dma.h **** * \param descriptor
1086:Generated_Source\PSoC6\pdl\drivers/peripheral/dma/cy_dma.h **** * The descriptor structure instance declared by the user/component.
1087:Generated_Source\PSoC6\pdl\drivers/peripheral/dma/cy_dma.h **** *
1088:Generated_Source\PSoC6\pdl\drivers/peripheral/dma/cy_dma.h **** * \return
1089:Generated_Source\PSoC6\pdl\drivers/peripheral/dma/cy_dma.h **** * The Retrigger setting \ref cy_en_dma_retrigger_t.
1090:Generated_Source\PSoC6\pdl\drivers/peripheral/dma/cy_dma.h **** *
1091:Generated_Source\PSoC6\pdl\drivers/peripheral/dma/cy_dma.h **** * \funcusage 
1092:Generated_Source\PSoC6\pdl\drivers/peripheral/dma/cy_dma.h **** * \snippet dma\2.10\snippet\main.c snippet_Cy_DMA_Descriptor_GetterFunctions
1093:Generated_Source\PSoC6\pdl\drivers/peripheral/dma/cy_dma.h **** *  
1094:Generated_Source\PSoC6\pdl\drivers/peripheral/dma/cy_dma.h **** *******************************************************************************/
1095:Generated_Source\PSoC6\pdl\drivers/peripheral/dma/cy_dma.h **** __STATIC_INLINE cy_en_dma_retrigger_t Cy_DMA_Descriptor_GetRetrigger(cy_stc_dma_descriptor_t const 
1096:Generated_Source\PSoC6\pdl\drivers/peripheral/dma/cy_dma.h **** {
1097:Generated_Source\PSoC6\pdl\drivers/peripheral/dma/cy_dma.h ****     return((cy_en_dma_retrigger_t) _FLD2VAL(CY_DMA_CTL_RETRIG, descriptor->ctl));
1098:Generated_Source\PSoC6\pdl\drivers/peripheral/dma/cy_dma.h **** }
1099:Generated_Source\PSoC6\pdl\drivers/peripheral/dma/cy_dma.h **** 
1100:Generated_Source\PSoC6\pdl\drivers/peripheral/dma/cy_dma.h **** 
1101:Generated_Source\PSoC6\pdl\drivers/peripheral/dma/cy_dma.h **** /*******************************************************************************
1102:Generated_Source\PSoC6\pdl\drivers/peripheral/dma/cy_dma.h **** * Function Name: Cy_DMA_Descriptor_GetDescriptorType
1103:Generated_Source\PSoC6\pdl\drivers/peripheral/dma/cy_dma.h **** ****************************************************************************//**
1104:Generated_Source\PSoC6\pdl\drivers/peripheral/dma/cy_dma.h **** *
1105:Generated_Source\PSoC6\pdl\drivers/peripheral/dma/cy_dma.h **** * Returns the descriptor's type of the specified descriptor.
1106:Generated_Source\PSoC6\pdl\drivers/peripheral/dma/cy_dma.h **** *
1107:Generated_Source\PSoC6\pdl\drivers/peripheral/dma/cy_dma.h **** * \param descriptor
1108:Generated_Source\PSoC6\pdl\drivers/peripheral/dma/cy_dma.h **** * The descriptor structure instance declared by the user/component.
1109:Generated_Source\PSoC6\pdl\drivers/peripheral/dma/cy_dma.h **** *
1110:Generated_Source\PSoC6\pdl\drivers/peripheral/dma/cy_dma.h **** * \return
1111:Generated_Source\PSoC6\pdl\drivers/peripheral/dma/cy_dma.h **** * The descriptor type \ref cy_en_dma_descriptor_type_t.
1112:Generated_Source\PSoC6\pdl\drivers/peripheral/dma/cy_dma.h **** *
1113:Generated_Source\PSoC6\pdl\drivers/peripheral/dma/cy_dma.h **** * \funcusage 
1114:Generated_Source\PSoC6\pdl\drivers/peripheral/dma/cy_dma.h **** * \snippet dma\2.10\snippet\main.c snippet_Cy_DMA_Descriptor_GetterFunctions
1115:Generated_Source\PSoC6\pdl\drivers/peripheral/dma/cy_dma.h **** *  
1116:Generated_Source\PSoC6\pdl\drivers/peripheral/dma/cy_dma.h **** *******************************************************************************/
1117:Generated_Source\PSoC6\pdl\drivers/peripheral/dma/cy_dma.h **** __STATIC_INLINE cy_en_dma_descriptor_type_t Cy_DMA_Descriptor_GetDescriptorType(cy_stc_dma_descript
1118:Generated_Source\PSoC6\pdl\drivers/peripheral/dma/cy_dma.h **** {
1119:Generated_Source\PSoC6\pdl\drivers/peripheral/dma/cy_dma.h ****     return((cy_en_dma_descriptor_type_t) _FLD2VAL(CY_DMA_CTL_TYPE, descriptor->ctl));
 100              		.loc 2 1119 0
 101 003e 920F     		lsrs	r2, r2, #30
 102              	.LVL9:
 103              	.LBE136:
 104              	.LBE135:
1120:Generated_Source\PSoC6\pdl\drivers/peripheral/dma/cy_dma.h **** }
1121:Generated_Source\PSoC6\pdl\drivers/peripheral/dma/cy_dma.h **** 
1122:Generated_Source\PSoC6\pdl\drivers/peripheral/dma/cy_dma.h **** 
1123:Generated_Source\PSoC6\pdl\drivers/peripheral/dma/cy_dma.h **** /*******************************************************************************
1124:Generated_Source\PSoC6\pdl\drivers/peripheral/dma/cy_dma.h **** * Function Name: Cy_DMA_Descriptor_SetChannelState
1125:Generated_Source\PSoC6\pdl\drivers/peripheral/dma/cy_dma.h **** ****************************************************************************//**
1126:Generated_Source\PSoC6\pdl\drivers/peripheral/dma/cy_dma.h **** *
1127:Generated_Source\PSoC6\pdl\drivers/peripheral/dma/cy_dma.h **** * Sets the channel state on completion of the specified descriptor.
1128:Generated_Source\PSoC6\pdl\drivers/peripheral/dma/cy_dma.h **** *
1129:Generated_Source\PSoC6\pdl\drivers/peripheral/dma/cy_dma.h **** * \param descriptor
1130:Generated_Source\PSoC6\pdl\drivers/peripheral/dma/cy_dma.h **** * The descriptor structure instance declared by the user/component.
1131:Generated_Source\PSoC6\pdl\drivers/peripheral/dma/cy_dma.h **** *
1132:Generated_Source\PSoC6\pdl\drivers/peripheral/dma/cy_dma.h **** * \param channelState 
1133:Generated_Source\PSoC6\pdl\drivers/peripheral/dma/cy_dma.h **** * The channel state \ref cy_en_dma_channel_state_t.
ARM GAS  C:\Users\enes_\AppData\Local\Temp\ccRFUday.s 			page 28


1134:Generated_Source\PSoC6\pdl\drivers/peripheral/dma/cy_dma.h **** *
1135:Generated_Source\PSoC6\pdl\drivers/peripheral/dma/cy_dma.h **** * \funcusage 
1136:Generated_Source\PSoC6\pdl\drivers/peripheral/dma/cy_dma.h **** * \snippet dma\2.10\snippet\main.c snippet_Cy_DMA_Descriptor_SetterFunctions
1137:Generated_Source\PSoC6\pdl\drivers/peripheral/dma/cy_dma.h **** *
1138:Generated_Source\PSoC6\pdl\drivers/peripheral/dma/cy_dma.h **** *******************************************************************************/
1139:Generated_Source\PSoC6\pdl\drivers/peripheral/dma/cy_dma.h **** __STATIC_INLINE void Cy_DMA_Descriptor_SetChannelState(cy_stc_dma_descriptor_t * descriptor, cy_en_
1140:Generated_Source\PSoC6\pdl\drivers/peripheral/dma/cy_dma.h **** {
1141:Generated_Source\PSoC6\pdl\drivers/peripheral/dma/cy_dma.h ****     CY_ASSERT_L3(CY_DMA_IS_CHANNEL_STATE_VALID(channelState));
1142:Generated_Source\PSoC6\pdl\drivers/peripheral/dma/cy_dma.h ****     
1143:Generated_Source\PSoC6\pdl\drivers/peripheral/dma/cy_dma.h ****     CY_REG32_CLR_SET(descriptor->ctl, CY_DMA_CTL_CH_DISABLE, channelState);
1144:Generated_Source\PSoC6\pdl\drivers/peripheral/dma/cy_dma.h **** }
1145:Generated_Source\PSoC6\pdl\drivers/peripheral/dma/cy_dma.h **** 
1146:Generated_Source\PSoC6\pdl\drivers/peripheral/dma/cy_dma.h **** 
1147:Generated_Source\PSoC6\pdl\drivers/peripheral/dma/cy_dma.h **** /*******************************************************************************
1148:Generated_Source\PSoC6\pdl\drivers/peripheral/dma/cy_dma.h **** * Function Name: Cy_DMA_Descriptor_GetChannelState
1149:Generated_Source\PSoC6\pdl\drivers/peripheral/dma/cy_dma.h **** ****************************************************************************//**
1150:Generated_Source\PSoC6\pdl\drivers/peripheral/dma/cy_dma.h **** *
1151:Generated_Source\PSoC6\pdl\drivers/peripheral/dma/cy_dma.h **** * Returns the channel state on completion of the specified descriptor.
1152:Generated_Source\PSoC6\pdl\drivers/peripheral/dma/cy_dma.h **** *
1153:Generated_Source\PSoC6\pdl\drivers/peripheral/dma/cy_dma.h **** * \param descriptor
1154:Generated_Source\PSoC6\pdl\drivers/peripheral/dma/cy_dma.h **** * The descriptor structure instance declared by the user/component.
1155:Generated_Source\PSoC6\pdl\drivers/peripheral/dma/cy_dma.h **** *
1156:Generated_Source\PSoC6\pdl\drivers/peripheral/dma/cy_dma.h **** * \return
1157:Generated_Source\PSoC6\pdl\drivers/peripheral/dma/cy_dma.h **** * The Channel State setting \ref cy_en_dma_channel_state_t.
1158:Generated_Source\PSoC6\pdl\drivers/peripheral/dma/cy_dma.h **** *
1159:Generated_Source\PSoC6\pdl\drivers/peripheral/dma/cy_dma.h **** * \funcusage 
1160:Generated_Source\PSoC6\pdl\drivers/peripheral/dma/cy_dma.h **** * \snippet dma\2.10\snippet\main.c snippet_Cy_DMA_Descriptor_GetterFunctions
1161:Generated_Source\PSoC6\pdl\drivers/peripheral/dma/cy_dma.h **** *  
1162:Generated_Source\PSoC6\pdl\drivers/peripheral/dma/cy_dma.h **** *******************************************************************************/
1163:Generated_Source\PSoC6\pdl\drivers/peripheral/dma/cy_dma.h **** __STATIC_INLINE cy_en_dma_channel_state_t Cy_DMA_Descriptor_GetChannelState(cy_stc_dma_descriptor_t
1164:Generated_Source\PSoC6\pdl\drivers/peripheral/dma/cy_dma.h **** {
1165:Generated_Source\PSoC6\pdl\drivers/peripheral/dma/cy_dma.h ****     return((cy_en_dma_channel_state_t) _FLD2VAL(CY_DMA_CTL_CH_DISABLE, descriptor->ctl));
1166:Generated_Source\PSoC6\pdl\drivers/peripheral/dma/cy_dma.h **** }
1167:Generated_Source\PSoC6\pdl\drivers/peripheral/dma/cy_dma.h **** 
1168:Generated_Source\PSoC6\pdl\drivers/peripheral/dma/cy_dma.h **** 
1169:Generated_Source\PSoC6\pdl\drivers/peripheral/dma/cy_dma.h **** /*******************************************************************************
1170:Generated_Source\PSoC6\pdl\drivers/peripheral/dma/cy_dma.h **** * Function Name: Cy_DMA_Descriptor_SetXloopDataCount
1171:Generated_Source\PSoC6\pdl\drivers/peripheral/dma/cy_dma.h **** ****************************************************************************//**
1172:Generated_Source\PSoC6\pdl\drivers/peripheral/dma/cy_dma.h **** *
1173:Generated_Source\PSoC6\pdl\drivers/peripheral/dma/cy_dma.h **** * Sets the number of data elements to transfer in the X loop
1174:Generated_Source\PSoC6\pdl\drivers/peripheral/dma/cy_dma.h **** * for the specified descriptor (for 1D or 2D descriptors only).
1175:Generated_Source\PSoC6\pdl\drivers/peripheral/dma/cy_dma.h **** *
1176:Generated_Source\PSoC6\pdl\drivers/peripheral/dma/cy_dma.h **** * \param descriptor
1177:Generated_Source\PSoC6\pdl\drivers/peripheral/dma/cy_dma.h **** * The descriptor structure instance declared by the user/component.
1178:Generated_Source\PSoC6\pdl\drivers/peripheral/dma/cy_dma.h **** *
1179:Generated_Source\PSoC6\pdl\drivers/peripheral/dma/cy_dma.h **** * \param xCount
1180:Generated_Source\PSoC6\pdl\drivers/peripheral/dma/cy_dma.h **** * The number of data elements to transfer in the X loop. Valid range is 1 ... 256.
1181:Generated_Source\PSoC6\pdl\drivers/peripheral/dma/cy_dma.h **** *
1182:Generated_Source\PSoC6\pdl\drivers/peripheral/dma/cy_dma.h **** * \funcusage 
1183:Generated_Source\PSoC6\pdl\drivers/peripheral/dma/cy_dma.h **** * \snippet dma\2.10\snippet\main.c snippet_Cy_DMA_Descriptor_SetterFunctions
1184:Generated_Source\PSoC6\pdl\drivers/peripheral/dma/cy_dma.h **** *  
1185:Generated_Source\PSoC6\pdl\drivers/peripheral/dma/cy_dma.h **** *******************************************************************************/
1186:Generated_Source\PSoC6\pdl\drivers/peripheral/dma/cy_dma.h **** __STATIC_INLINE void Cy_DMA_Descriptor_SetXloopDataCount(cy_stc_dma_descriptor_t * descriptor, uint
1187:Generated_Source\PSoC6\pdl\drivers/peripheral/dma/cy_dma.h **** {
1188:Generated_Source\PSoC6\pdl\drivers/peripheral/dma/cy_dma.h ****     CY_ASSERT_L1(CY_DMA_SINGLE_TRANSFER != Cy_DMA_Descriptor_GetDescriptorType(descriptor));
1189:Generated_Source\PSoC6\pdl\drivers/peripheral/dma/cy_dma.h ****     CY_ASSERT_L2(CY_DMA_IS_LOOP_COUNT_VALID(xCount));
1190:Generated_Source\PSoC6\pdl\drivers/peripheral/dma/cy_dma.h ****     /* Convert the data count from the user's range (1-256) into the machine range (0-255). */
ARM GAS  C:\Users\enes_\AppData\Local\Temp\ccRFUday.s 			page 29


1191:Generated_Source\PSoC6\pdl\drivers/peripheral/dma/cy_dma.h ****     CY_REG32_CLR_SET(descriptor->xCtl, CY_DMA_CTL_COUNT, xCount - 1UL);
1192:Generated_Source\PSoC6\pdl\drivers/peripheral/dma/cy_dma.h **** }
1193:Generated_Source\PSoC6\pdl\drivers/peripheral/dma/cy_dma.h **** 
1194:Generated_Source\PSoC6\pdl\drivers/peripheral/dma/cy_dma.h **** 
1195:Generated_Source\PSoC6\pdl\drivers/peripheral/dma/cy_dma.h **** /*******************************************************************************
1196:Generated_Source\PSoC6\pdl\drivers/peripheral/dma/cy_dma.h **** * Function Name: Cy_DMA_Descriptor_GetXloopDataCount
1197:Generated_Source\PSoC6\pdl\drivers/peripheral/dma/cy_dma.h **** ****************************************************************************//**
1198:Generated_Source\PSoC6\pdl\drivers/peripheral/dma/cy_dma.h **** *
1199:Generated_Source\PSoC6\pdl\drivers/peripheral/dma/cy_dma.h **** * Returns the number of data elements for the X loop of the specified
1200:Generated_Source\PSoC6\pdl\drivers/peripheral/dma/cy_dma.h **** * descriptor (for 1D or 2D descriptors only).
1201:Generated_Source\PSoC6\pdl\drivers/peripheral/dma/cy_dma.h **** *
1202:Generated_Source\PSoC6\pdl\drivers/peripheral/dma/cy_dma.h **** * \param descriptor
1203:Generated_Source\PSoC6\pdl\drivers/peripheral/dma/cy_dma.h **** * The descriptor structure instance declared by the user/component.
1204:Generated_Source\PSoC6\pdl\drivers/peripheral/dma/cy_dma.h **** *
1205:Generated_Source\PSoC6\pdl\drivers/peripheral/dma/cy_dma.h **** * \return
1206:Generated_Source\PSoC6\pdl\drivers/peripheral/dma/cy_dma.h **** * The number of data elements to transfer in the X loop. The range is 1 ... 256.
1207:Generated_Source\PSoC6\pdl\drivers/peripheral/dma/cy_dma.h **** *
1208:Generated_Source\PSoC6\pdl\drivers/peripheral/dma/cy_dma.h **** * \funcusage 
1209:Generated_Source\PSoC6\pdl\drivers/peripheral/dma/cy_dma.h **** * \snippet dma\2.10\snippet\main.c snippet_Cy_DMA_Descriptor_GetterFunctions
1210:Generated_Source\PSoC6\pdl\drivers/peripheral/dma/cy_dma.h **** *  
1211:Generated_Source\PSoC6\pdl\drivers/peripheral/dma/cy_dma.h **** *******************************************************************************/
1212:Generated_Source\PSoC6\pdl\drivers/peripheral/dma/cy_dma.h **** __STATIC_INLINE uint32_t Cy_DMA_Descriptor_GetXloopDataCount(cy_stc_dma_descriptor_t const * descri
1213:Generated_Source\PSoC6\pdl\drivers/peripheral/dma/cy_dma.h **** {
1214:Generated_Source\PSoC6\pdl\drivers/peripheral/dma/cy_dma.h ****     CY_ASSERT_L1(CY_DMA_SINGLE_TRANSFER != Cy_DMA_Descriptor_GetDescriptorType(descriptor));
1215:Generated_Source\PSoC6\pdl\drivers/peripheral/dma/cy_dma.h ****     /* Convert the data count from the machine range (0-255) into the user's range (1-256). */
1216:Generated_Source\PSoC6\pdl\drivers/peripheral/dma/cy_dma.h ****     return (_FLD2VAL(CY_DMA_CTL_COUNT, descriptor->xCtl) + 1UL);
1217:Generated_Source\PSoC6\pdl\drivers/peripheral/dma/cy_dma.h **** }
1218:Generated_Source\PSoC6\pdl\drivers/peripheral/dma/cy_dma.h **** 
1219:Generated_Source\PSoC6\pdl\drivers/peripheral/dma/cy_dma.h **** 
1220:Generated_Source\PSoC6\pdl\drivers/peripheral/dma/cy_dma.h **** /*******************************************************************************
1221:Generated_Source\PSoC6\pdl\drivers/peripheral/dma/cy_dma.h **** * Function Name: Cy_DMA_Descriptor_SetXloopSrcIncrement
1222:Generated_Source\PSoC6\pdl\drivers/peripheral/dma/cy_dma.h **** ****************************************************************************//**
1223:Generated_Source\PSoC6\pdl\drivers/peripheral/dma/cy_dma.h **** *
1224:Generated_Source\PSoC6\pdl\drivers/peripheral/dma/cy_dma.h **** * Sets the source increment parameter for the X loop of the specified
1225:Generated_Source\PSoC6\pdl\drivers/peripheral/dma/cy_dma.h **** * descriptor (for 1D or 2D descriptors only).
1226:Generated_Source\PSoC6\pdl\drivers/peripheral/dma/cy_dma.h **** *
1227:Generated_Source\PSoC6\pdl\drivers/peripheral/dma/cy_dma.h **** * \param descriptor
1228:Generated_Source\PSoC6\pdl\drivers/peripheral/dma/cy_dma.h **** * The descriptor structure instance declared by the user/component.
1229:Generated_Source\PSoC6\pdl\drivers/peripheral/dma/cy_dma.h **** *
1230:Generated_Source\PSoC6\pdl\drivers/peripheral/dma/cy_dma.h **** * \param srcXincrement
1231:Generated_Source\PSoC6\pdl\drivers/peripheral/dma/cy_dma.h **** * The value of the source increment. The valid range is -2048 ... 2047.
1232:Generated_Source\PSoC6\pdl\drivers/peripheral/dma/cy_dma.h **** *
1233:Generated_Source\PSoC6\pdl\drivers/peripheral/dma/cy_dma.h **** * \funcusage 
1234:Generated_Source\PSoC6\pdl\drivers/peripheral/dma/cy_dma.h **** * \snippet dma\2.10\snippet\main.c snippet_Cy_DMA_Descriptor_SetterFunctions
1235:Generated_Source\PSoC6\pdl\drivers/peripheral/dma/cy_dma.h **** *
1236:Generated_Source\PSoC6\pdl\drivers/peripheral/dma/cy_dma.h **** *******************************************************************************/
1237:Generated_Source\PSoC6\pdl\drivers/peripheral/dma/cy_dma.h **** __STATIC_INLINE void Cy_DMA_Descriptor_SetXloopSrcIncrement(cy_stc_dma_descriptor_t * descriptor, i
1238:Generated_Source\PSoC6\pdl\drivers/peripheral/dma/cy_dma.h **** {
1239:Generated_Source\PSoC6\pdl\drivers/peripheral/dma/cy_dma.h ****     CY_ASSERT_L1(CY_DMA_SINGLE_TRANSFER != Cy_DMA_Descriptor_GetDescriptorType(descriptor));
 105              		.loc 2 1239 0
 106 0040 03D1     		bne	.L4
 107 0042 2249     		ldr	r1, .L9+16
 108 0044 1D48     		ldr	r0, .L9
 109 0046 FFF7FEFF 		bl	Cy_SysLib_AssertFailed
 110              	.LVL10:
 111              	.L4:
1240:Generated_Source\PSoC6\pdl\drivers/peripheral/dma/cy_dma.h ****     CY_ASSERT_L2(CY_DMA_IS_LOOP_INCR_VALID(srcXincrement));
ARM GAS  C:\Users\enes_\AppData\Local\Temp\ccRFUday.s 			page 30


1241:Generated_Source\PSoC6\pdl\drivers/peripheral/dma/cy_dma.h ****     
1242:Generated_Source\PSoC6\pdl\drivers/peripheral/dma/cy_dma.h ****     CY_REG32_CLR_SET(descriptor->xCtl, CY_DMA_CTL_SRC_INCR, srcXincrement);
 112              		.loc 2 1242 0
 113 004a E368     		ldr	r3, [r4, #12]
 114 004c 1B0B     		lsrs	r3, r3, #12
 115 004e 1B03     		lsls	r3, r3, #12
 116 0050 0122     		movs	r2, #1
 117 0052 1343     		orrs	r3, r2
 118 0054 E360     		str	r3, [r4, #12]
 119              	.LVL11:
 120              	.LBE134:
 121              	.LBE133:
 122              	.LBB137:
 123              	.LBB138:
 124              	.LBB139:
 125              	.LBB140:
1119:Generated_Source\PSoC6\pdl\drivers/peripheral/dma/cy_dma.h **** }
 126              		.loc 2 1119 0
 127 0056 2368     		ldr	r3, [r4]
 128 0058 9B0F     		lsrs	r3, r3, #30
 129              	.LVL12:
 130              	.LBE140:
 131              	.LBE139:
1243:Generated_Source\PSoC6\pdl\drivers/peripheral/dma/cy_dma.h **** }
1244:Generated_Source\PSoC6\pdl\drivers/peripheral/dma/cy_dma.h **** 
1245:Generated_Source\PSoC6\pdl\drivers/peripheral/dma/cy_dma.h **** 
1246:Generated_Source\PSoC6\pdl\drivers/peripheral/dma/cy_dma.h **** /*******************************************************************************
1247:Generated_Source\PSoC6\pdl\drivers/peripheral/dma/cy_dma.h **** * Function Name: Cy_DMA_Descriptor_GetXloopSrcIncrement
1248:Generated_Source\PSoC6\pdl\drivers/peripheral/dma/cy_dma.h **** ****************************************************************************//**
1249:Generated_Source\PSoC6\pdl\drivers/peripheral/dma/cy_dma.h **** *
1250:Generated_Source\PSoC6\pdl\drivers/peripheral/dma/cy_dma.h **** * Returns the source increment parameter for the X loop of the specified
1251:Generated_Source\PSoC6\pdl\drivers/peripheral/dma/cy_dma.h **** * descriptor (for 1D or 2D descriptors only).
1252:Generated_Source\PSoC6\pdl\drivers/peripheral/dma/cy_dma.h **** *
1253:Generated_Source\PSoC6\pdl\drivers/peripheral/dma/cy_dma.h **** * \param descriptor
1254:Generated_Source\PSoC6\pdl\drivers/peripheral/dma/cy_dma.h **** * The descriptor structure instance declared by the user/component.
1255:Generated_Source\PSoC6\pdl\drivers/peripheral/dma/cy_dma.h **** *
1256:Generated_Source\PSoC6\pdl\drivers/peripheral/dma/cy_dma.h **** * \return
1257:Generated_Source\PSoC6\pdl\drivers/peripheral/dma/cy_dma.h **** * The value of the source increment. The range is -2048 ... 2047.
1258:Generated_Source\PSoC6\pdl\drivers/peripheral/dma/cy_dma.h **** *
1259:Generated_Source\PSoC6\pdl\drivers/peripheral/dma/cy_dma.h **** * \funcusage 
1260:Generated_Source\PSoC6\pdl\drivers/peripheral/dma/cy_dma.h **** * \snippet dma\2.10\snippet\main.c snippet_Cy_DMA_Descriptor_GetterFunctions
1261:Generated_Source\PSoC6\pdl\drivers/peripheral/dma/cy_dma.h **** *  
1262:Generated_Source\PSoC6\pdl\drivers/peripheral/dma/cy_dma.h **** *******************************************************************************/
1263:Generated_Source\PSoC6\pdl\drivers/peripheral/dma/cy_dma.h **** __STATIC_INLINE int32_t Cy_DMA_Descriptor_GetXloopSrcIncrement(cy_stc_dma_descriptor_t const * desc
1264:Generated_Source\PSoC6\pdl\drivers/peripheral/dma/cy_dma.h **** {
1265:Generated_Source\PSoC6\pdl\drivers/peripheral/dma/cy_dma.h ****     CY_ASSERT_L1(CY_DMA_SINGLE_TRANSFER != Cy_DMA_Descriptor_GetDescriptorType(descriptor));
1266:Generated_Source\PSoC6\pdl\drivers/peripheral/dma/cy_dma.h ****     
1267:Generated_Source\PSoC6\pdl\drivers/peripheral/dma/cy_dma.h ****     return ((int32_t) _FLD2VAL(CY_DMA_CTL_SRC_INCR, descriptor->xCtl));
1268:Generated_Source\PSoC6\pdl\drivers/peripheral/dma/cy_dma.h **** }
1269:Generated_Source\PSoC6\pdl\drivers/peripheral/dma/cy_dma.h **** 
1270:Generated_Source\PSoC6\pdl\drivers/peripheral/dma/cy_dma.h **** 
1271:Generated_Source\PSoC6\pdl\drivers/peripheral/dma/cy_dma.h **** /*******************************************************************************
1272:Generated_Source\PSoC6\pdl\drivers/peripheral/dma/cy_dma.h **** * Function Name: Cy_DMA_Descriptor_SetXloopDstIncrement
1273:Generated_Source\PSoC6\pdl\drivers/peripheral/dma/cy_dma.h **** ****************************************************************************//**
1274:Generated_Source\PSoC6\pdl\drivers/peripheral/dma/cy_dma.h **** *
1275:Generated_Source\PSoC6\pdl\drivers/peripheral/dma/cy_dma.h **** * Sets the destination increment parameter for the X loop for the specified
1276:Generated_Source\PSoC6\pdl\drivers/peripheral/dma/cy_dma.h **** * descriptor (for 1D or 2D descriptors only).
ARM GAS  C:\Users\enes_\AppData\Local\Temp\ccRFUday.s 			page 31


1277:Generated_Source\PSoC6\pdl\drivers/peripheral/dma/cy_dma.h **** *
1278:Generated_Source\PSoC6\pdl\drivers/peripheral/dma/cy_dma.h **** * \param descriptor
1279:Generated_Source\PSoC6\pdl\drivers/peripheral/dma/cy_dma.h **** * The descriptor structure instance declared by the user/component.
1280:Generated_Source\PSoC6\pdl\drivers/peripheral/dma/cy_dma.h **** *
1281:Generated_Source\PSoC6\pdl\drivers/peripheral/dma/cy_dma.h **** * \param dstXincrement
1282:Generated_Source\PSoC6\pdl\drivers/peripheral/dma/cy_dma.h **** * The value of the destination increment. The valid range is -2048 ... 2047.
1283:Generated_Source\PSoC6\pdl\drivers/peripheral/dma/cy_dma.h **** *
1284:Generated_Source\PSoC6\pdl\drivers/peripheral/dma/cy_dma.h **** * \funcusage 
1285:Generated_Source\PSoC6\pdl\drivers/peripheral/dma/cy_dma.h **** * \snippet dma\2.10\snippet\main.c snippet_Cy_DMA_Descriptor_SetterFunctions
1286:Generated_Source\PSoC6\pdl\drivers/peripheral/dma/cy_dma.h **** *  
1287:Generated_Source\PSoC6\pdl\drivers/peripheral/dma/cy_dma.h **** *******************************************************************************/
1288:Generated_Source\PSoC6\pdl\drivers/peripheral/dma/cy_dma.h **** __STATIC_INLINE void Cy_DMA_Descriptor_SetXloopDstIncrement(cy_stc_dma_descriptor_t * descriptor, i
1289:Generated_Source\PSoC6\pdl\drivers/peripheral/dma/cy_dma.h **** {
1290:Generated_Source\PSoC6\pdl\drivers/peripheral/dma/cy_dma.h ****     CY_ASSERT_L1(CY_DMA_SINGLE_TRANSFER != Cy_DMA_Descriptor_GetDescriptorType(descriptor));
 132              		.loc 2 1290 0
 133 005a 03D1     		bne	.L5
 134 005c 1C49     		ldr	r1, .L9+20
 135 005e 1748     		ldr	r0, .L9
 136 0060 FFF7FEFF 		bl	Cy_SysLib_AssertFailed
 137              	.LVL13:
 138              	.L5:
1291:Generated_Source\PSoC6\pdl\drivers/peripheral/dma/cy_dma.h ****     CY_ASSERT_L2(CY_DMA_IS_LOOP_INCR_VALID(dstXincrement));
1292:Generated_Source\PSoC6\pdl\drivers/peripheral/dma/cy_dma.h ****     
1293:Generated_Source\PSoC6\pdl\drivers/peripheral/dma/cy_dma.h ****     CY_REG32_CLR_SET(descriptor->xCtl, CY_DMA_CTL_DST_INCR, dstXincrement);
 139              		.loc 2 1293 0
 140 0064 1B4B     		ldr	r3, .L9+24
 141 0066 E268     		ldr	r2, [r4, #12]
 142 0068 1340     		ands	r3, r2
 143 006a E360     		str	r3, [r4, #12]
 144              	.LVL14:
 145              	.LBE138:
 146              	.LBE137:
 147              	.LBB141:
 148              	.LBB142:
 750:Generated_Source\PSoC6\pdl\drivers/peripheral/dma/cy_dma.h **** }
 149              		.loc 2 750 0
 150 006c A660     		str	r6, [r4, #8]
 151 006e 20E0     		b	.L6
 152              	.LVL15:
 153              	.L3:
 154              	.LBE142:
 155              	.LBE141:
 156              	.LBB143:
 157              	.LBB144:
 980:Generated_Source\PSoC6\pdl\drivers/peripheral/dma/cy_dma.h **** }
 158              		.loc 2 980 0
 159 0070 144B     		ldr	r3, .L9+8
 160 0072 1A40     		ands	r2, r3
 161 0074 8023     		movs	r3, #128
 162 0076 DB04     		lsls	r3, r3, #19
 163 0078 1A43     		orrs	r2, r3
 164              	.LVL16:
 165              	.LBE144:
 166              	.LBE143:
 167              	.LBB145:
 168              	.LBB146:
1026:Generated_Source\PSoC6\pdl\drivers/peripheral/dma/cy_dma.h **** }
ARM GAS  C:\Users\enes_\AppData\Local\Temp\ccRFUday.s 			page 32


 169              		.loc 2 1026 0
 170 007a 134B     		ldr	r3, .L9+12
 171 007c 1A40     		ands	r2, r3
 172 007e 2260     		str	r2, [r4]
 173              	.LVL17:
 174              	.LBE146:
 175              	.LBE145:
 176              	.LBB147:
 177              	.LBB148:
 178              	.LBB149:
 179              	.LBB150:
1119:Generated_Source\PSoC6\pdl\drivers/peripheral/dma/cy_dma.h **** }
 180              		.loc 2 1119 0
 181 0080 920F     		lsrs	r2, r2, #30
 182              	.LVL18:
 183              	.LBE150:
 184              	.LBE149:
1239:Generated_Source\PSoC6\pdl\drivers/peripheral/dma/cy_dma.h ****     CY_ASSERT_L2(CY_DMA_IS_LOOP_INCR_VALID(srcXincrement));
 185              		.loc 2 1239 0
 186 0082 03D1     		bne	.L7
 187 0084 1149     		ldr	r1, .L9+16
 188 0086 0D48     		ldr	r0, .L9
 189 0088 FFF7FEFF 		bl	Cy_SysLib_AssertFailed
 190              	.LVL19:
 191              	.L7:
1242:Generated_Source\PSoC6\pdl\drivers/peripheral/dma/cy_dma.h **** }
 192              		.loc 2 1242 0
 193 008c E368     		ldr	r3, [r4, #12]
 194 008e 1B0B     		lsrs	r3, r3, #12
 195 0090 1B03     		lsls	r3, r3, #12
 196 0092 E360     		str	r3, [r4, #12]
 197              	.LVL20:
 198              	.LBE148:
 199              	.LBE147:
 200              	.LBB151:
 201              	.LBB152:
 202              	.LBB153:
 203              	.LBB154:
1119:Generated_Source\PSoC6\pdl\drivers/peripheral/dma/cy_dma.h **** }
 204              		.loc 2 1119 0
 205 0094 2368     		ldr	r3, [r4]
 206 0096 9B0F     		lsrs	r3, r3, #30
 207              	.LVL21:
 208              	.LBE154:
 209              	.LBE153:
1290:Generated_Source\PSoC6\pdl\drivers/peripheral/dma/cy_dma.h ****     CY_ASSERT_L2(CY_DMA_IS_LOOP_INCR_VALID(dstXincrement));
 210              		.loc 2 1290 0
 211 0098 03D1     		bne	.L8
 212 009a 0D49     		ldr	r1, .L9+20
 213 009c 0748     		ldr	r0, .L9
 214 009e FFF7FEFF 		bl	Cy_SysLib_AssertFailed
 215              	.LVL22:
 216              	.L8:
 217              		.loc 2 1293 0
 218 00a2 0C4B     		ldr	r3, .L9+24
 219 00a4 E268     		ldr	r2, [r4, #12]
 220 00a6 1340     		ands	r3, r2
ARM GAS  C:\Users\enes_\AppData\Local\Temp\ccRFUday.s 			page 33


 221 00a8 8022     		movs	r2, #128
 222 00aa 5201     		lsls	r2, r2, #5
 223 00ac 1343     		orrs	r3, r2
 224 00ae E360     		str	r3, [r4, #12]
 225              	.LVL23:
 226              	.LBE152:
 227              	.LBE151:
 228              	.LBB155:
 229              	.LBB156:
 706:Generated_Source\PSoC6\pdl\drivers/peripheral/dma/cy_dma.h **** }
 230              		.loc 2 706 0
 231 00b0 6660     		str	r6, [r4, #4]
 232              	.LVL24:
 233              	.L6:
 234              	.LBE156:
 235              	.LBE155:
 303:Generated_Source\PSoC6\pdl\drivers\peripheral\usbfs/cy_usbfs_dev_drv_io_dma.c ****     {
 304:Generated_Source\PSoC6\pdl\drivers\peripheral\usbfs/cy_usbfs_dev_drv_io_dma.c ****         Cy_DMA_Descriptor_SetSrcTransferSize(descr, CY_DMA_TRANSFER_SIZE_DATA);
 305:Generated_Source\PSoC6\pdl\drivers\peripheral\usbfs/cy_usbfs_dev_drv_io_dma.c ****         Cy_DMA_Descriptor_SetDstTransferSize(descr, CY_DMA_TRANSFER_SIZE_WORD);
 306:Generated_Source\PSoC6\pdl\drivers\peripheral\usbfs/cy_usbfs_dev_drv_io_dma.c **** 
 307:Generated_Source\PSoC6\pdl\drivers\peripheral\usbfs/cy_usbfs_dev_drv_io_dma.c ****         Cy_DMA_Descriptor_SetXloopSrcIncrement(descr, DMA_XLOOP_INCREMENT);
 308:Generated_Source\PSoC6\pdl\drivers\peripheral\usbfs/cy_usbfs_dev_drv_io_dma.c ****         Cy_DMA_Descriptor_SetXloopDstIncrement(descr, DMA_NO_INCREMENT);
 309:Generated_Source\PSoC6\pdl\drivers\peripheral\usbfs/cy_usbfs_dev_drv_io_dma.c **** 
 310:Generated_Source\PSoC6\pdl\drivers\peripheral\usbfs/cy_usbfs_dev_drv_io_dma.c ****         Cy_DMA_Descriptor_SetDstAddress(descr, (void const *) dataReg);
 311:Generated_Source\PSoC6\pdl\drivers\peripheral\usbfs/cy_usbfs_dev_drv_io_dma.c ****     }
 312:Generated_Source\PSoC6\pdl\drivers\peripheral\usbfs/cy_usbfs_dev_drv_io_dma.c ****     else
 313:Generated_Source\PSoC6\pdl\drivers\peripheral\usbfs/cy_usbfs_dev_drv_io_dma.c ****     {
 314:Generated_Source\PSoC6\pdl\drivers\peripheral\usbfs/cy_usbfs_dev_drv_io_dma.c ****         Cy_DMA_Descriptor_SetSrcTransferSize(descr, CY_DMA_TRANSFER_SIZE_WORD);
 315:Generated_Source\PSoC6\pdl\drivers\peripheral\usbfs/cy_usbfs_dev_drv_io_dma.c ****         Cy_DMA_Descriptor_SetDstTransferSize(descr, CY_DMA_TRANSFER_SIZE_DATA);
 316:Generated_Source\PSoC6\pdl\drivers\peripheral\usbfs/cy_usbfs_dev_drv_io_dma.c **** 
 317:Generated_Source\PSoC6\pdl\drivers\peripheral\usbfs/cy_usbfs_dev_drv_io_dma.c ****         Cy_DMA_Descriptor_SetXloopSrcIncrement(descr, DMA_NO_INCREMENT);
 318:Generated_Source\PSoC6\pdl\drivers\peripheral\usbfs/cy_usbfs_dev_drv_io_dma.c ****         Cy_DMA_Descriptor_SetXloopDstIncrement(descr, DMA_XLOOP_INCREMENT);
 319:Generated_Source\PSoC6\pdl\drivers\peripheral\usbfs/cy_usbfs_dev_drv_io_dma.c **** 
 320:Generated_Source\PSoC6\pdl\drivers\peripheral\usbfs/cy_usbfs_dev_drv_io_dma.c ****         Cy_DMA_Descriptor_SetSrcAddress(descr, (void const *) dataReg);
 321:Generated_Source\PSoC6\pdl\drivers\peripheral\usbfs/cy_usbfs_dev_drv_io_dma.c ****     }
 322:Generated_Source\PSoC6\pdl\drivers\peripheral\usbfs/cy_usbfs_dev_drv_io_dma.c **** 
 323:Generated_Source\PSoC6\pdl\drivers\peripheral\usbfs/cy_usbfs_dev_drv_io_dma.c ****     /* Link descriptor to itself */
 324:Generated_Source\PSoC6\pdl\drivers\peripheral\usbfs/cy_usbfs_dev_drv_io_dma.c ****     Cy_DMA_Descriptor_SetNextDescriptor(descr, descr);    
 236              		.loc 1 324 0
 237 00b2 2100     		movs	r1, r4
 238 00b4 2000     		movs	r0, r4
 239 00b6 FFF7FEFF 		bl	Cy_DMA_Descriptor_SetNextDescriptor
 240              	.LVL25:
 325:Generated_Source\PSoC6\pdl\drivers\peripheral\usbfs/cy_usbfs_dev_drv_io_dma.c **** }
 241              		.loc 1 325 0
 242              		@ sp needed
 243              	.LVL26:
 244              	.LVL27:
 245 00ba F8BD     		pop	{r3, r4, r5, r6, r7, pc}
 246              	.L10:
 247              		.align	2
 248              	.L9:
 249 00bc 00000000 		.word	.LC2
 250 00c0 FFFFFFCF 		.word	-805306369
 251 00c4 FFFFFFFB 		.word	-67108865
 252 00c8 FFFFFFF7 		.word	-134217729
 253 00cc D7040000 		.word	1239
ARM GAS  C:\Users\enes_\AppData\Local\Temp\ccRFUday.s 			page 34


 254 00d0 0A050000 		.word	1290
 255 00d4 FF0F00FF 		.word	-16773121
 256              		.cfi_endproc
 257              	.LFE172:
 258              		.size	DmaEndpointInit1D, .-DmaEndpointInit1D
 259              		.section	.text.DmaEndpointInit2D,"ax",%progbits
 260              		.align	2
 261              		.code	16
 262              		.thumb_func
 263              		.type	DmaEndpointInit2D, %function
 264              	DmaEndpointInit2D:
 265              	.LFB173:
 326:Generated_Source\PSoC6\pdl\drivers\peripheral\usbfs/cy_usbfs_dev_drv_io_dma.c **** 
 327:Generated_Source\PSoC6\pdl\drivers\peripheral\usbfs/cy_usbfs_dev_drv_io_dma.c **** 
 328:Generated_Source\PSoC6\pdl\drivers\peripheral\usbfs/cy_usbfs_dev_drv_io_dma.c **** /*******************************************************************************
 329:Generated_Source\PSoC6\pdl\drivers\peripheral\usbfs/cy_usbfs_dev_drv_io_dma.c **** * Function Name: DmaEndpointInit2D
 330:Generated_Source\PSoC6\pdl\drivers\peripheral\usbfs/cy_usbfs_dev_drv_io_dma.c **** ****************************************************************************//**
 331:Generated_Source\PSoC6\pdl\drivers\peripheral\usbfs/cy_usbfs_dev_drv_io_dma.c **** *
 332:Generated_Source\PSoC6\pdl\drivers\peripheral\usbfs/cy_usbfs_dev_drv_io_dma.c **** * Configures DMA 2D descriptor used in the DMA Automatic mode.
 333:Generated_Source\PSoC6\pdl\drivers\peripheral\usbfs/cy_usbfs_dev_drv_io_dma.c **** *
 334:Generated_Source\PSoC6\pdl\drivers\peripheral\usbfs/cy_usbfs_dev_drv_io_dma.c **** * \param descr
 335:Generated_Source\PSoC6\pdl\drivers\peripheral\usbfs/cy_usbfs_dev_drv_io_dma.c **** * The pointer to the DMA descriptor.
 336:Generated_Source\PSoC6\pdl\drivers\peripheral\usbfs/cy_usbfs_dev_drv_io_dma.c **** *
 337:Generated_Source\PSoC6\pdl\drivers\peripheral\usbfs/cy_usbfs_dev_drv_io_dma.c **** * \param inDirection
 338:Generated_Source\PSoC6\pdl\drivers\peripheral\usbfs/cy_usbfs_dev_drv_io_dma.c **** * Endpoint direction associated with DMA descriptor.
 339:Generated_Source\PSoC6\pdl\drivers\peripheral\usbfs/cy_usbfs_dev_drv_io_dma.c **** *
 340:Generated_Source\PSoC6\pdl\drivers\peripheral\usbfs/cy_usbfs_dev_drv_io_dma.c **** * \param numElements
 341:Generated_Source\PSoC6\pdl\drivers\peripheral\usbfs/cy_usbfs_dev_drv_io_dma.c **** * Number of elements to transfer.
 342:Generated_Source\PSoC6\pdl\drivers\peripheral\usbfs/cy_usbfs_dev_drv_io_dma.c **** *
 343:Generated_Source\PSoC6\pdl\drivers\peripheral\usbfs/cy_usbfs_dev_drv_io_dma.c **** *******************************************************************************/
 344:Generated_Source\PSoC6\pdl\drivers\peripheral\usbfs/cy_usbfs_dev_drv_io_dma.c **** static void DmaEndpointInit2D(cy_stc_dma_descriptor_t *descr, bool inDirection, 
 345:Generated_Source\PSoC6\pdl\drivers\peripheral\usbfs/cy_usbfs_dev_drv_io_dma.c ****                               int32_t numElements)
 346:Generated_Source\PSoC6\pdl\drivers\peripheral\usbfs/cy_usbfs_dev_drv_io_dma.c **** {
 266              		.loc 1 346 0
 267              		.cfi_startproc
 268              		@ args = 0, pretend = 0, frame = 0
 269              		@ frame_needed = 0, uses_anonymous_args = 0
 270              	.LVL28:
 271 0000 F8B5     		push	{r3, r4, r5, r6, r7, lr}
 272              		.cfi_def_cfa_offset 24
 273              		.cfi_offset 3, -24
 274              		.cfi_offset 4, -20
 275              		.cfi_offset 5, -16
 276              		.cfi_offset 6, -12
 277              		.cfi_offset 7, -8
 278              		.cfi_offset 14, -4
 279 0002 0400     		movs	r4, r0
 280 0004 0F00     		movs	r7, r1
 281 0006 1500     		movs	r5, r2
 282              	.LVL29:
 283              	.LBB177:
 284              	.LBB178:
 285              	.LBB179:
 286              	.LBB180:
1119:Generated_Source\PSoC6\pdl\drivers/peripheral/dma/cy_dma.h **** }
 287              		.loc 2 1119 0
 288 0008 0368     		ldr	r3, [r0]
ARM GAS  C:\Users\enes_\AppData\Local\Temp\ccRFUday.s 			page 35


 289 000a 9B0F     		lsrs	r3, r3, #30
 290              	.LVL30:
 291              	.LBE180:
 292              	.LBE179:
1188:Generated_Source\PSoC6\pdl\drivers/peripheral/dma/cy_dma.h ****     CY_ASSERT_L2(CY_DMA_IS_LOOP_COUNT_VALID(xCount));
 293              		.loc 2 1188 0
 294 000c 03D1     		bne	.L12
 295 000e 3149     		ldr	r1, .L22
 296              	.LVL31:
 297 0010 3148     		ldr	r0, .L22+4
 298              	.LVL32:
 299 0012 FFF7FEFF 		bl	Cy_SysLib_AssertFailed
 300              	.LVL33:
 301              	.L12:
1189:Generated_Source\PSoC6\pdl\drivers/peripheral/dma/cy_dma.h ****     /* Convert the data count from the user's range (1-256) into the machine range (0-255). */
 302              		.loc 2 1189 0
 303 0016 6E1E     		subs	r6, r5, #1
 304 0018 FF2E     		cmp	r6, #255
 305 001a 03D9     		bls	.L13
 306 001c 2F49     		ldr	r1, .L22+8
 307 001e 2E48     		ldr	r0, .L22+4
 308 0020 FFF7FEFF 		bl	Cy_SysLib_AssertFailed
 309              	.LVL34:
 310              	.L13:
1191:Generated_Source\PSoC6\pdl\drivers/peripheral/dma/cy_dma.h **** }
 311              		.loc 2 1191 0
 312 0024 E368     		ldr	r3, [r4, #12]
 313 0026 1B02     		lsls	r3, r3, #8
 314 0028 1B0A     		lsrs	r3, r3, #8
 315 002a 3606     		lsls	r6, r6, #24
 316 002c 1E43     		orrs	r6, r3
 317 002e E660     		str	r6, [r4, #12]
 318              	.LVL35:
 319              	.LBE178:
 320              	.LBE177:
 347:Generated_Source\PSoC6\pdl\drivers\peripheral\usbfs/cy_usbfs_dev_drv_io_dma.c ****     /* Descriptor 0 (2D): it transfers number of data elements (X loop count) 
 348:Generated_Source\PSoC6\pdl\drivers\peripheral\usbfs/cy_usbfs_dev_drv_io_dma.c ****     * and increments source/destination (depends on direction) by this amount 
 349:Generated_Source\PSoC6\pdl\drivers\peripheral\usbfs/cy_usbfs_dev_drv_io_dma.c ****     * (Y loop increment).
 350:Generated_Source\PSoC6\pdl\drivers\peripheral\usbfs/cy_usbfs_dev_drv_io_dma.c ****     */
 351:Generated_Source\PSoC6\pdl\drivers\peripheral\usbfs/cy_usbfs_dev_drv_io_dma.c ****     Cy_DMA_Descriptor_SetXloopDataCount(descr, (uint32_t) numElements);
 352:Generated_Source\PSoC6\pdl\drivers\peripheral\usbfs/cy_usbfs_dev_drv_io_dma.c **** 
 353:Generated_Source\PSoC6\pdl\drivers\peripheral\usbfs/cy_usbfs_dev_drv_io_dma.c ****     if (inDirection)
 321              		.loc 1 353 0
 322 0030 002F     		cmp	r7, #0
 323 0032 26D0     		beq	.L14
 324              	.LVL36:
 325              	.LBB181:
 326              	.LBB182:
 327              	.LBB183:
 328              	.LBB184:
1119:Generated_Source\PSoC6\pdl\drivers/peripheral/dma/cy_dma.h **** }
 329              		.loc 2 1119 0
 330 0034 2368     		ldr	r3, [r4]
 331 0036 9B0F     		lsrs	r3, r3, #30
 332              	.LVL37:
 333              	.LBE184:
 334              	.LBE183:
ARM GAS  C:\Users\enes_\AppData\Local\Temp\ccRFUday.s 			page 36


1294:Generated_Source\PSoC6\pdl\drivers/peripheral/dma/cy_dma.h **** }
1295:Generated_Source\PSoC6\pdl\drivers/peripheral/dma/cy_dma.h **** 
1296:Generated_Source\PSoC6\pdl\drivers/peripheral/dma/cy_dma.h **** 
1297:Generated_Source\PSoC6\pdl\drivers/peripheral/dma/cy_dma.h **** /*******************************************************************************
1298:Generated_Source\PSoC6\pdl\drivers/peripheral/dma/cy_dma.h **** * Function Name: Cy_DMA_Descriptor_GetXloopDstIncrement
1299:Generated_Source\PSoC6\pdl\drivers/peripheral/dma/cy_dma.h **** ****************************************************************************//**
1300:Generated_Source\PSoC6\pdl\drivers/peripheral/dma/cy_dma.h **** *
1301:Generated_Source\PSoC6\pdl\drivers/peripheral/dma/cy_dma.h **** * Returns the destination increment parameter for the X loop of the specified
1302:Generated_Source\PSoC6\pdl\drivers/peripheral/dma/cy_dma.h **** * descriptor (for 1D or 2D descriptors only).
1303:Generated_Source\PSoC6\pdl\drivers/peripheral/dma/cy_dma.h **** *
1304:Generated_Source\PSoC6\pdl\drivers/peripheral/dma/cy_dma.h **** * \param descriptor
1305:Generated_Source\PSoC6\pdl\drivers/peripheral/dma/cy_dma.h **** * The descriptor structure instance declared by the user/component.
1306:Generated_Source\PSoC6\pdl\drivers/peripheral/dma/cy_dma.h **** *
1307:Generated_Source\PSoC6\pdl\drivers/peripheral/dma/cy_dma.h **** * \return
1308:Generated_Source\PSoC6\pdl\drivers/peripheral/dma/cy_dma.h **** * The value of the destination increment. The range is -2048 ... 2047.
1309:Generated_Source\PSoC6\pdl\drivers/peripheral/dma/cy_dma.h **** *
1310:Generated_Source\PSoC6\pdl\drivers/peripheral/dma/cy_dma.h **** * \funcusage 
1311:Generated_Source\PSoC6\pdl\drivers/peripheral/dma/cy_dma.h **** * \snippet dma\2.10\snippet\main.c snippet_Cy_DMA_Descriptor_GetterFunctions
1312:Generated_Source\PSoC6\pdl\drivers/peripheral/dma/cy_dma.h **** *  
1313:Generated_Source\PSoC6\pdl\drivers/peripheral/dma/cy_dma.h **** *******************************************************************************/
1314:Generated_Source\PSoC6\pdl\drivers/peripheral/dma/cy_dma.h **** __STATIC_INLINE int32_t Cy_DMA_Descriptor_GetXloopDstIncrement(cy_stc_dma_descriptor_t const * desc
1315:Generated_Source\PSoC6\pdl\drivers/peripheral/dma/cy_dma.h **** {
1316:Generated_Source\PSoC6\pdl\drivers/peripheral/dma/cy_dma.h ****     CY_ASSERT_L1(CY_DMA_SINGLE_TRANSFER != Cy_DMA_Descriptor_GetDescriptorType(descriptor));
1317:Generated_Source\PSoC6\pdl\drivers/peripheral/dma/cy_dma.h ****     
1318:Generated_Source\PSoC6\pdl\drivers/peripheral/dma/cy_dma.h ****     return ((int32_t) _FLD2VAL(CY_DMA_CTL_DST_INCR, descriptor->xCtl));
1319:Generated_Source\PSoC6\pdl\drivers/peripheral/dma/cy_dma.h **** }
1320:Generated_Source\PSoC6\pdl\drivers/peripheral/dma/cy_dma.h **** 
1321:Generated_Source\PSoC6\pdl\drivers/peripheral/dma/cy_dma.h **** 
1322:Generated_Source\PSoC6\pdl\drivers/peripheral/dma/cy_dma.h **** /*******************************************************************************
1323:Generated_Source\PSoC6\pdl\drivers/peripheral/dma/cy_dma.h **** * Function Name: Cy_DMA_Descriptor_SetYloopDataCount
1324:Generated_Source\PSoC6\pdl\drivers/peripheral/dma/cy_dma.h **** ****************************************************************************//**
1325:Generated_Source\PSoC6\pdl\drivers/peripheral/dma/cy_dma.h **** *
1326:Generated_Source\PSoC6\pdl\drivers/peripheral/dma/cy_dma.h **** * Sets the number of data elements for the Y loop of the specified descriptor
1327:Generated_Source\PSoC6\pdl\drivers/peripheral/dma/cy_dma.h **** * (for 2D descriptors only).
1328:Generated_Source\PSoC6\pdl\drivers/peripheral/dma/cy_dma.h **** *
1329:Generated_Source\PSoC6\pdl\drivers/peripheral/dma/cy_dma.h **** * \param descriptor
1330:Generated_Source\PSoC6\pdl\drivers/peripheral/dma/cy_dma.h **** * The descriptor structure instance declared by the user/component.
1331:Generated_Source\PSoC6\pdl\drivers/peripheral/dma/cy_dma.h **** *
1332:Generated_Source\PSoC6\pdl\drivers/peripheral/dma/cy_dma.h **** * \param yCount
1333:Generated_Source\PSoC6\pdl\drivers/peripheral/dma/cy_dma.h **** * The number of X loops to execute in the Y loop. The valid range is 1 ... 256.
1334:Generated_Source\PSoC6\pdl\drivers/peripheral/dma/cy_dma.h **** *
1335:Generated_Source\PSoC6\pdl\drivers/peripheral/dma/cy_dma.h **** * \funcusage 
1336:Generated_Source\PSoC6\pdl\drivers/peripheral/dma/cy_dma.h **** * \snippet dma\2.10\snippet\main.c snippet_Cy_DMA_Descriptor_SetterFunctions
1337:Generated_Source\PSoC6\pdl\drivers/peripheral/dma/cy_dma.h **** *  
1338:Generated_Source\PSoC6\pdl\drivers/peripheral/dma/cy_dma.h **** *******************************************************************************/
1339:Generated_Source\PSoC6\pdl\drivers/peripheral/dma/cy_dma.h **** __STATIC_INLINE void Cy_DMA_Descriptor_SetYloopDataCount(cy_stc_dma_descriptor_t * descriptor, uint
1340:Generated_Source\PSoC6\pdl\drivers/peripheral/dma/cy_dma.h **** {
1341:Generated_Source\PSoC6\pdl\drivers/peripheral/dma/cy_dma.h ****     CY_ASSERT_L1(CY_DMA_2D_TRANSFER == Cy_DMA_Descriptor_GetDescriptorType(descriptor));
1342:Generated_Source\PSoC6\pdl\drivers/peripheral/dma/cy_dma.h ****     CY_ASSERT_L2(CY_DMA_IS_LOOP_COUNT_VALID(yCount));
1343:Generated_Source\PSoC6\pdl\drivers/peripheral/dma/cy_dma.h ****     /* Convert the data count from the user's range (1-256) into the machine range (0-255). */
1344:Generated_Source\PSoC6\pdl\drivers/peripheral/dma/cy_dma.h ****     CY_REG32_CLR_SET(descriptor->yCtl, CY_DMA_CTL_COUNT, yCount - 1UL);
1345:Generated_Source\PSoC6\pdl\drivers/peripheral/dma/cy_dma.h **** }
1346:Generated_Source\PSoC6\pdl\drivers/peripheral/dma/cy_dma.h **** 
1347:Generated_Source\PSoC6\pdl\drivers/peripheral/dma/cy_dma.h **** 
1348:Generated_Source\PSoC6\pdl\drivers/peripheral/dma/cy_dma.h **** /*******************************************************************************
1349:Generated_Source\PSoC6\pdl\drivers/peripheral/dma/cy_dma.h **** * Function Name: Cy_DMA_Descriptor_GetYloopDataCount
1350:Generated_Source\PSoC6\pdl\drivers/peripheral/dma/cy_dma.h **** ****************************************************************************//**
ARM GAS  C:\Users\enes_\AppData\Local\Temp\ccRFUday.s 			page 37


1351:Generated_Source\PSoC6\pdl\drivers/peripheral/dma/cy_dma.h **** *
1352:Generated_Source\PSoC6\pdl\drivers/peripheral/dma/cy_dma.h **** * Returns the number of X loops to execute in the Y loop of the specified
1353:Generated_Source\PSoC6\pdl\drivers/peripheral/dma/cy_dma.h **** * descriptor (for 2D descriptors only).
1354:Generated_Source\PSoC6\pdl\drivers/peripheral/dma/cy_dma.h **** *
1355:Generated_Source\PSoC6\pdl\drivers/peripheral/dma/cy_dma.h **** * \param descriptor
1356:Generated_Source\PSoC6\pdl\drivers/peripheral/dma/cy_dma.h **** * The descriptor structure instance declared by the user/component.
1357:Generated_Source\PSoC6\pdl\drivers/peripheral/dma/cy_dma.h **** *
1358:Generated_Source\PSoC6\pdl\drivers/peripheral/dma/cy_dma.h **** * \return
1359:Generated_Source\PSoC6\pdl\drivers/peripheral/dma/cy_dma.h **** * The number of X loops to execute in the Y loop. The range is 1 ... 256.
1360:Generated_Source\PSoC6\pdl\drivers/peripheral/dma/cy_dma.h **** *
1361:Generated_Source\PSoC6\pdl\drivers/peripheral/dma/cy_dma.h **** * \funcusage 
1362:Generated_Source\PSoC6\pdl\drivers/peripheral/dma/cy_dma.h **** * \snippet dma\2.10\snippet\main.c snippet_Cy_DMA_Descriptor_GetterFunctions
1363:Generated_Source\PSoC6\pdl\drivers/peripheral/dma/cy_dma.h **** *  
1364:Generated_Source\PSoC6\pdl\drivers/peripheral/dma/cy_dma.h **** *******************************************************************************/
1365:Generated_Source\PSoC6\pdl\drivers/peripheral/dma/cy_dma.h **** __STATIC_INLINE uint32_t Cy_DMA_Descriptor_GetYloopDataCount(cy_stc_dma_descriptor_t const * descri
1366:Generated_Source\PSoC6\pdl\drivers/peripheral/dma/cy_dma.h **** {
1367:Generated_Source\PSoC6\pdl\drivers/peripheral/dma/cy_dma.h ****     CY_ASSERT_L1(CY_DMA_2D_TRANSFER == Cy_DMA_Descriptor_GetDescriptorType(descriptor));
1368:Generated_Source\PSoC6\pdl\drivers/peripheral/dma/cy_dma.h ****     /* Convert the data count from the machine range (0-255) into the user's range (1-256). */
1369:Generated_Source\PSoC6\pdl\drivers/peripheral/dma/cy_dma.h ****     return (_FLD2VAL(CY_DMA_CTL_COUNT, descriptor->yCtl) + 1UL);
1370:Generated_Source\PSoC6\pdl\drivers/peripheral/dma/cy_dma.h **** }
1371:Generated_Source\PSoC6\pdl\drivers/peripheral/dma/cy_dma.h **** 
1372:Generated_Source\PSoC6\pdl\drivers/peripheral/dma/cy_dma.h **** 
1373:Generated_Source\PSoC6\pdl\drivers/peripheral/dma/cy_dma.h **** /*******************************************************************************
1374:Generated_Source\PSoC6\pdl\drivers/peripheral/dma/cy_dma.h **** * Function Name: Cy_DMA_Descriptor_SetYloopSrcIncrement
1375:Generated_Source\PSoC6\pdl\drivers/peripheral/dma/cy_dma.h **** ****************************************************************************//**
1376:Generated_Source\PSoC6\pdl\drivers/peripheral/dma/cy_dma.h **** *
1377:Generated_Source\PSoC6\pdl\drivers/peripheral/dma/cy_dma.h **** * Sets the source increment parameter for the Y loop for the specified
1378:Generated_Source\PSoC6\pdl\drivers/peripheral/dma/cy_dma.h **** * descriptor (for 2D descriptors only).
1379:Generated_Source\PSoC6\pdl\drivers/peripheral/dma/cy_dma.h **** *
1380:Generated_Source\PSoC6\pdl\drivers/peripheral/dma/cy_dma.h **** * \param descriptor
1381:Generated_Source\PSoC6\pdl\drivers/peripheral/dma/cy_dma.h **** * The descriptor structure instance declared by the user/component.
1382:Generated_Source\PSoC6\pdl\drivers/peripheral/dma/cy_dma.h **** *
1383:Generated_Source\PSoC6\pdl\drivers/peripheral/dma/cy_dma.h **** * \param srcYincrement
1384:Generated_Source\PSoC6\pdl\drivers/peripheral/dma/cy_dma.h **** * The value of the source increment. The valid range is -2048 ... 2047.
1385:Generated_Source\PSoC6\pdl\drivers/peripheral/dma/cy_dma.h **** *
1386:Generated_Source\PSoC6\pdl\drivers/peripheral/dma/cy_dma.h **** * \funcusage 
1387:Generated_Source\PSoC6\pdl\drivers/peripheral/dma/cy_dma.h **** * \snippet dma\2.10\snippet\main.c snippet_Cy_DMA_Descriptor_SetterFunctions
1388:Generated_Source\PSoC6\pdl\drivers/peripheral/dma/cy_dma.h **** *  
1389:Generated_Source\PSoC6\pdl\drivers/peripheral/dma/cy_dma.h **** *******************************************************************************/
1390:Generated_Source\PSoC6\pdl\drivers/peripheral/dma/cy_dma.h **** __STATIC_INLINE void Cy_DMA_Descriptor_SetYloopSrcIncrement(cy_stc_dma_descriptor_t * descriptor, i
1391:Generated_Source\PSoC6\pdl\drivers/peripheral/dma/cy_dma.h **** {
1392:Generated_Source\PSoC6\pdl\drivers/peripheral/dma/cy_dma.h ****     CY_ASSERT_L1(CY_DMA_2D_TRANSFER == Cy_DMA_Descriptor_GetDescriptorType(descriptor));
 335              		.loc 2 1392 0
 336 0038 022B     		cmp	r3, #2
 337 003a 04D0     		beq	.L15
 338 003c AE21     		movs	r1, #174
 339 003e C900     		lsls	r1, r1, #3
 340 0040 2548     		ldr	r0, .L22+4
 341 0042 FFF7FEFF 		bl	Cy_SysLib_AssertFailed
 342              	.LVL38:
 343              	.L15:
1393:Generated_Source\PSoC6\pdl\drivers/peripheral/dma/cy_dma.h ****     CY_ASSERT_L2(CY_DMA_IS_LOOP_INCR_VALID(srcYincrement));
 344              		.loc 2 1393 0
 345 0046 264A     		ldr	r2, .L22+12
 346 0048 8023     		movs	r3, #128
 347 004a 1B01     		lsls	r3, r3, #4
 348 004c EB18     		adds	r3, r5, r3
ARM GAS  C:\Users\enes_\AppData\Local\Temp\ccRFUday.s 			page 38


 349 004e 9342     		cmp	r3, r2
 350 0050 03D9     		bls	.L16
 351 0052 2449     		ldr	r1, .L22+16
 352 0054 2048     		ldr	r0, .L22+4
 353 0056 FFF7FEFF 		bl	Cy_SysLib_AssertFailed
 354              	.LVL39:
 355              	.L16:
1394:Generated_Source\PSoC6\pdl\drivers/peripheral/dma/cy_dma.h ****     
1395:Generated_Source\PSoC6\pdl\drivers/peripheral/dma/cy_dma.h ****     CY_REG32_CLR_SET(descriptor->yCtl, CY_DMA_CTL_SRC_INCR, srcYincrement);
 356              		.loc 2 1395 0
 357 005a 2369     		ldr	r3, [r4, #16]
 358 005c 1B0B     		lsrs	r3, r3, #12
 359 005e 1B03     		lsls	r3, r3, #12
 360 0060 2D05     		lsls	r5, r5, #20
 361              	.LVL40:
 362 0062 2D0D     		lsrs	r5, r5, #20
 363 0064 1D43     		orrs	r5, r3
 364 0066 2561     		str	r5, [r4, #16]
 365              	.LVL41:
 366              	.LBE182:
 367              	.LBE181:
 368              	.LBB185:
 369              	.LBB186:
 370              	.LBB187:
 371              	.LBB188:
1119:Generated_Source\PSoC6\pdl\drivers/peripheral/dma/cy_dma.h **** }
 372              		.loc 2 1119 0
 373 0068 2368     		ldr	r3, [r4]
 374 006a 9B0F     		lsrs	r3, r3, #30
 375              	.LVL42:
 376              	.LBE188:
 377              	.LBE187:
1396:Generated_Source\PSoC6\pdl\drivers/peripheral/dma/cy_dma.h **** }
1397:Generated_Source\PSoC6\pdl\drivers/peripheral/dma/cy_dma.h **** 
1398:Generated_Source\PSoC6\pdl\drivers/peripheral/dma/cy_dma.h **** 
1399:Generated_Source\PSoC6\pdl\drivers/peripheral/dma/cy_dma.h **** /*******************************************************************************
1400:Generated_Source\PSoC6\pdl\drivers/peripheral/dma/cy_dma.h **** * Function Name: Cy_DMA_Descriptor_GetYloopSrcIncrement
1401:Generated_Source\PSoC6\pdl\drivers/peripheral/dma/cy_dma.h **** ****************************************************************************//**
1402:Generated_Source\PSoC6\pdl\drivers/peripheral/dma/cy_dma.h **** *
1403:Generated_Source\PSoC6\pdl\drivers/peripheral/dma/cy_dma.h **** * Returns the source increment parameter for the outer Y of the specified
1404:Generated_Source\PSoC6\pdl\drivers/peripheral/dma/cy_dma.h **** * descriptor (for 2D descriptors only).
1405:Generated_Source\PSoC6\pdl\drivers/peripheral/dma/cy_dma.h **** *
1406:Generated_Source\PSoC6\pdl\drivers/peripheral/dma/cy_dma.h **** * \param descriptor
1407:Generated_Source\PSoC6\pdl\drivers/peripheral/dma/cy_dma.h **** * The descriptor structure instance declared by the user/component.
1408:Generated_Source\PSoC6\pdl\drivers/peripheral/dma/cy_dma.h **** *
1409:Generated_Source\PSoC6\pdl\drivers/peripheral/dma/cy_dma.h **** * \return
1410:Generated_Source\PSoC6\pdl\drivers/peripheral/dma/cy_dma.h **** * The value of the source increment. The range is -2048 ... 2047.
1411:Generated_Source\PSoC6\pdl\drivers/peripheral/dma/cy_dma.h **** *
1412:Generated_Source\PSoC6\pdl\drivers/peripheral/dma/cy_dma.h **** * \funcusage 
1413:Generated_Source\PSoC6\pdl\drivers/peripheral/dma/cy_dma.h **** * \snippet dma\2.10\snippet\main.c snippet_Cy_DMA_Descriptor_GetterFunctions
1414:Generated_Source\PSoC6\pdl\drivers/peripheral/dma/cy_dma.h **** *  
1415:Generated_Source\PSoC6\pdl\drivers/peripheral/dma/cy_dma.h **** *******************************************************************************/
1416:Generated_Source\PSoC6\pdl\drivers/peripheral/dma/cy_dma.h **** __STATIC_INLINE int32_t Cy_DMA_Descriptor_GetYloopSrcIncrement(cy_stc_dma_descriptor_t const * desc
1417:Generated_Source\PSoC6\pdl\drivers/peripheral/dma/cy_dma.h **** {
1418:Generated_Source\PSoC6\pdl\drivers/peripheral/dma/cy_dma.h ****     CY_ASSERT_L1(CY_DMA_2D_TRANSFER == Cy_DMA_Descriptor_GetDescriptorType(descriptor));
1419:Generated_Source\PSoC6\pdl\drivers/peripheral/dma/cy_dma.h ****     
1420:Generated_Source\PSoC6\pdl\drivers/peripheral/dma/cy_dma.h ****     return ((int32_t) _FLD2VAL(CY_DMA_CTL_SRC_INCR, descriptor->yCtl));
ARM GAS  C:\Users\enes_\AppData\Local\Temp\ccRFUday.s 			page 39


1421:Generated_Source\PSoC6\pdl\drivers/peripheral/dma/cy_dma.h **** }
1422:Generated_Source\PSoC6\pdl\drivers/peripheral/dma/cy_dma.h **** 
1423:Generated_Source\PSoC6\pdl\drivers/peripheral/dma/cy_dma.h **** 
1424:Generated_Source\PSoC6\pdl\drivers/peripheral/dma/cy_dma.h **** /*******************************************************************************
1425:Generated_Source\PSoC6\pdl\drivers/peripheral/dma/cy_dma.h **** * Function Name: Cy_DMA_Descriptor_SetYloopDstIncrement
1426:Generated_Source\PSoC6\pdl\drivers/peripheral/dma/cy_dma.h **** ****************************************************************************//**
1427:Generated_Source\PSoC6\pdl\drivers/peripheral/dma/cy_dma.h **** *
1428:Generated_Source\PSoC6\pdl\drivers/peripheral/dma/cy_dma.h **** * Sets the destination increment parameter for the Y loop of the specified
1429:Generated_Source\PSoC6\pdl\drivers/peripheral/dma/cy_dma.h **** * descriptor (for 2D descriptors only).
1430:Generated_Source\PSoC6\pdl\drivers/peripheral/dma/cy_dma.h **** *
1431:Generated_Source\PSoC6\pdl\drivers/peripheral/dma/cy_dma.h **** * \param descriptor
1432:Generated_Source\PSoC6\pdl\drivers/peripheral/dma/cy_dma.h **** * The descriptor structure instance declared by the user/component.
1433:Generated_Source\PSoC6\pdl\drivers/peripheral/dma/cy_dma.h **** *
1434:Generated_Source\PSoC6\pdl\drivers/peripheral/dma/cy_dma.h **** * \param dstYincrement
1435:Generated_Source\PSoC6\pdl\drivers/peripheral/dma/cy_dma.h **** * The value of the destination increment. The valid range is -2048 ... 2047.
1436:Generated_Source\PSoC6\pdl\drivers/peripheral/dma/cy_dma.h **** *
1437:Generated_Source\PSoC6\pdl\drivers/peripheral/dma/cy_dma.h **** * \funcusage 
1438:Generated_Source\PSoC6\pdl\drivers/peripheral/dma/cy_dma.h **** * \snippet dma\2.10\snippet\main.c snippet_Cy_DMA_Descriptor_SetterFunctions
1439:Generated_Source\PSoC6\pdl\drivers/peripheral/dma/cy_dma.h **** *
1440:Generated_Source\PSoC6\pdl\drivers/peripheral/dma/cy_dma.h **** *******************************************************************************/
1441:Generated_Source\PSoC6\pdl\drivers/peripheral/dma/cy_dma.h **** __STATIC_INLINE void Cy_DMA_Descriptor_SetYloopDstIncrement(cy_stc_dma_descriptor_t * descriptor, i
1442:Generated_Source\PSoC6\pdl\drivers/peripheral/dma/cy_dma.h **** {
1443:Generated_Source\PSoC6\pdl\drivers/peripheral/dma/cy_dma.h ****     CY_ASSERT_L1(CY_DMA_2D_TRANSFER == Cy_DMA_Descriptor_GetDescriptorType(descriptor));
 378              		.loc 2 1443 0
 379 006c 022B     		cmp	r3, #2
 380 006e 03D0     		beq	.L17
 381 0070 1D49     		ldr	r1, .L22+20
 382 0072 1948     		ldr	r0, .L22+4
 383 0074 FFF7FEFF 		bl	Cy_SysLib_AssertFailed
 384              	.LVL43:
 385              	.L17:
1444:Generated_Source\PSoC6\pdl\drivers/peripheral/dma/cy_dma.h ****     CY_ASSERT_L2(CY_DMA_IS_LOOP_INCR_VALID(dstYincrement));
1445:Generated_Source\PSoC6\pdl\drivers/peripheral/dma/cy_dma.h ****     
1446:Generated_Source\PSoC6\pdl\drivers/peripheral/dma/cy_dma.h ****     CY_REG32_CLR_SET(descriptor->yCtl, CY_DMA_CTL_DST_INCR, dstYincrement);
 386              		.loc 2 1446 0
 387 0078 1C4B     		ldr	r3, .L22+24
 388 007a 2269     		ldr	r2, [r4, #16]
 389 007c 1340     		ands	r3, r2
 390 007e 2361     		str	r3, [r4, #16]
 391 0080 26E0     		b	.L11
 392              	.LVL44:
 393              	.L14:
 394              	.LBE186:
 395              	.LBE185:
 396              	.LBB189:
 397              	.LBB190:
 398              	.LBB191:
 399              	.LBB192:
1119:Generated_Source\PSoC6\pdl\drivers/peripheral/dma/cy_dma.h **** }
 400              		.loc 2 1119 0
 401 0082 2368     		ldr	r3, [r4]
 402 0084 9B0F     		lsrs	r3, r3, #30
 403              	.LVL45:
 404              	.LBE192:
 405              	.LBE191:
1392:Generated_Source\PSoC6\pdl\drivers/peripheral/dma/cy_dma.h ****     CY_ASSERT_L2(CY_DMA_IS_LOOP_INCR_VALID(srcYincrement));
 406              		.loc 2 1392 0
ARM GAS  C:\Users\enes_\AppData\Local\Temp\ccRFUday.s 			page 40


 407 0086 022B     		cmp	r3, #2
 408 0088 04D0     		beq	.L19
 409 008a AE21     		movs	r1, #174
 410 008c C900     		lsls	r1, r1, #3
 411 008e 1248     		ldr	r0, .L22+4
 412 0090 FFF7FEFF 		bl	Cy_SysLib_AssertFailed
 413              	.LVL46:
 414              	.L19:
1395:Generated_Source\PSoC6\pdl\drivers/peripheral/dma/cy_dma.h **** }
 415              		.loc 2 1395 0
 416 0094 2369     		ldr	r3, [r4, #16]
 417 0096 1B0B     		lsrs	r3, r3, #12
 418 0098 1B03     		lsls	r3, r3, #12
 419 009a 2361     		str	r3, [r4, #16]
 420              	.LVL47:
 421              	.LBE190:
 422              	.LBE189:
 423              	.LBB193:
 424              	.LBB194:
 425              	.LBB195:
 426              	.LBB196:
1119:Generated_Source\PSoC6\pdl\drivers/peripheral/dma/cy_dma.h **** }
 427              		.loc 2 1119 0
 428 009c 2368     		ldr	r3, [r4]
 429 009e 9B0F     		lsrs	r3, r3, #30
 430              	.LVL48:
 431              	.LBE196:
 432              	.LBE195:
1443:Generated_Source\PSoC6\pdl\drivers/peripheral/dma/cy_dma.h ****     CY_ASSERT_L2(CY_DMA_IS_LOOP_INCR_VALID(dstYincrement));
 433              		.loc 2 1443 0
 434 00a0 022B     		cmp	r3, #2
 435 00a2 03D0     		beq	.L20
 436 00a4 1049     		ldr	r1, .L22+20
 437 00a6 0C48     		ldr	r0, .L22+4
 438 00a8 FFF7FEFF 		bl	Cy_SysLib_AssertFailed
 439              	.LVL49:
 440              	.L20:
1444:Generated_Source\PSoC6\pdl\drivers/peripheral/dma/cy_dma.h ****     
 441              		.loc 2 1444 0
 442 00ac 0C4A     		ldr	r2, .L22+12
 443 00ae 8023     		movs	r3, #128
 444 00b0 1B01     		lsls	r3, r3, #4
 445 00b2 EB18     		adds	r3, r5, r3
 446 00b4 9342     		cmp	r3, r2
 447 00b6 03D9     		bls	.L21
 448 00b8 0D49     		ldr	r1, .L22+28
 449 00ba 0748     		ldr	r0, .L22+4
 450 00bc FFF7FEFF 		bl	Cy_SysLib_AssertFailed
 451              	.LVL50:
 452              	.L21:
 453              		.loc 2 1446 0
 454 00c0 0A4A     		ldr	r2, .L22+24
 455 00c2 2369     		ldr	r3, [r4, #16]
 456 00c4 1A40     		ands	r2, r3
 457 00c6 2D03     		lsls	r5, r5, #12
 458              	.LVL51:
 459 00c8 0A4B     		ldr	r3, .L22+32
ARM GAS  C:\Users\enes_\AppData\Local\Temp\ccRFUday.s 			page 41


 460 00ca 1D40     		ands	r5, r3
 461 00cc 1543     		orrs	r5, r2
 462 00ce 2561     		str	r5, [r4, #16]
 463              	.LVL52:
 464              	.L11:
 465              	.LBE194:
 466              	.LBE193:
 354:Generated_Source\PSoC6\pdl\drivers\peripheral\usbfs/cy_usbfs_dev_drv_io_dma.c ****     {
 355:Generated_Source\PSoC6\pdl\drivers\peripheral\usbfs/cy_usbfs_dev_drv_io_dma.c ****         Cy_DMA_Descriptor_SetYloopSrcIncrement(descr, numElements);
 356:Generated_Source\PSoC6\pdl\drivers\peripheral\usbfs/cy_usbfs_dev_drv_io_dma.c ****         Cy_DMA_Descriptor_SetYloopDstIncrement(descr, DMA_NO_INCREMENT);
 357:Generated_Source\PSoC6\pdl\drivers\peripheral\usbfs/cy_usbfs_dev_drv_io_dma.c ****     }
 358:Generated_Source\PSoC6\pdl\drivers\peripheral\usbfs/cy_usbfs_dev_drv_io_dma.c ****     else
 359:Generated_Source\PSoC6\pdl\drivers\peripheral\usbfs/cy_usbfs_dev_drv_io_dma.c ****     {
 360:Generated_Source\PSoC6\pdl\drivers\peripheral\usbfs/cy_usbfs_dev_drv_io_dma.c ****         Cy_DMA_Descriptor_SetYloopSrcIncrement(descr, DMA_NO_INCREMENT);
 361:Generated_Source\PSoC6\pdl\drivers\peripheral\usbfs/cy_usbfs_dev_drv_io_dma.c ****         Cy_DMA_Descriptor_SetYloopDstIncrement(descr, numElements);
 362:Generated_Source\PSoC6\pdl\drivers\peripheral\usbfs/cy_usbfs_dev_drv_io_dma.c ****     }
 363:Generated_Source\PSoC6\pdl\drivers\peripheral\usbfs/cy_usbfs_dev_drv_io_dma.c **** }
 467              		.loc 1 363 0
 468              		@ sp needed
 469              	.LVL53:
 470 00d0 F8BD     		pop	{r3, r4, r5, r6, r7, pc}
 471              	.L23:
 472 00d2 C046     		.align	2
 473              	.L22:
 474 00d4 A4040000 		.word	1188
 475 00d8 00000000 		.word	.LC2
 476 00dc A5040000 		.word	1189
 477 00e0 FF0F0000 		.word	4095
 478 00e4 71050000 		.word	1393
 479 00e8 A3050000 		.word	1443
 480 00ec FF0F00FF 		.word	-16773121
 481 00f0 A4050000 		.word	1444
 482 00f4 00F0FF00 		.word	16773120
 483              		.cfi_endproc
 484              	.LFE173:
 485              		.size	DmaEndpointInit2D, .-DmaEndpointInit2D
 486              		.section	.text.DmaEndpointSetLength,"ax",%progbits
 487              		.align	2
 488              		.code	16
 489              		.thumb_func
 490              		.type	DmaEndpointSetLength, %function
 491              	DmaEndpointSetLength:
 492              	.LFB174:
 364:Generated_Source\PSoC6\pdl\drivers\peripheral\usbfs/cy_usbfs_dev_drv_io_dma.c **** 
 365:Generated_Source\PSoC6\pdl\drivers\peripheral\usbfs/cy_usbfs_dev_drv_io_dma.c **** 
 366:Generated_Source\PSoC6\pdl\drivers\peripheral\usbfs/cy_usbfs_dev_drv_io_dma.c **** /*******************************************************************************
 367:Generated_Source\PSoC6\pdl\drivers\peripheral\usbfs/cy_usbfs_dev_drv_io_dma.c **** * Function Name: DmaEndpointSetLength
 368:Generated_Source\PSoC6\pdl\drivers\peripheral\usbfs/cy_usbfs_dev_drv_io_dma.c **** ****************************************************************************//**
 369:Generated_Source\PSoC6\pdl\drivers\peripheral\usbfs/cy_usbfs_dev_drv_io_dma.c **** *
 370:Generated_Source\PSoC6\pdl\drivers\peripheral\usbfs/cy_usbfs_dev_drv_io_dma.c **** * Completes DMA initialization for the OUT data endpoint.
 371:Generated_Source\PSoC6\pdl\drivers\peripheral\usbfs/cy_usbfs_dev_drv_io_dma.c **** * Applicable only when mode is \ref CY_USBFS_DEV_DRV_EP_MANAGEMENT_DMA_AUTO.
 372:Generated_Source\PSoC6\pdl\drivers\peripheral\usbfs/cy_usbfs_dev_drv_io_dma.c **** *
 373:Generated_Source\PSoC6\pdl\drivers\peripheral\usbfs/cy_usbfs_dev_drv_io_dma.c **** * \param endpoint
 374:Generated_Source\PSoC6\pdl\drivers\peripheral\usbfs/cy_usbfs_dev_drv_io_dma.c **** * The pointer to the structure that stores endpoint information.
 375:Generated_Source\PSoC6\pdl\drivers\peripheral\usbfs/cy_usbfs_dev_drv_io_dma.c **** *
 376:Generated_Source\PSoC6\pdl\drivers\peripheral\usbfs/cy_usbfs_dev_drv_io_dma.c **** *******************************************************************************/
 377:Generated_Source\PSoC6\pdl\drivers\peripheral\usbfs/cy_usbfs_dev_drv_io_dma.c **** static void DmaEndpointSetLength(bool inDirection, uint32_t size, 
ARM GAS  C:\Users\enes_\AppData\Local\Temp\ccRFUday.s 			page 42


 378:Generated_Source\PSoC6\pdl\drivers\peripheral\usbfs/cy_usbfs_dev_drv_io_dma.c ****                                  cy_stc_usbfs_dev_drv_endpoint_data_t *endpoint)
 379:Generated_Source\PSoC6\pdl\drivers\peripheral\usbfs/cy_usbfs_dev_drv_io_dma.c **** {
 493              		.loc 1 379 0
 494              		.cfi_startproc
 495              		@ args = 0, pretend = 0, frame = 0
 496              		@ frame_needed = 0, uses_anonymous_args = 0
 497              	.LVL54:
 498 0000 F0B5     		push	{r4, r5, r6, r7, lr}
 499              		.cfi_def_cfa_offset 20
 500              		.cfi_offset 4, -20
 501              		.cfi_offset 5, -16
 502              		.cfi_offset 6, -12
 503              		.cfi_offset 7, -8
 504              		.cfi_offset 14, -4
 505 0002 4746     		mov	r7, r8
 506 0004 80B4     		push	{r7}
 507              		.cfi_def_cfa_offset 24
 508              		.cfi_offset 8, -24
 509 0006 1400     		movs	r4, r2
 380:Generated_Source\PSoC6\pdl\drivers\peripheral\usbfs/cy_usbfs_dev_drv_io_dma.c ****     uint8_t *buf = endpoint->buffer;
 510              		.loc 1 380 0
 511 0008 5268     		ldr	r2, [r2, #4]
 512              	.LVL55:
 381:Generated_Source\PSoC6\pdl\drivers\peripheral\usbfs/cy_usbfs_dev_drv_io_dma.c ****     
 382:Generated_Source\PSoC6\pdl\drivers\peripheral\usbfs/cy_usbfs_dev_drv_io_dma.c ****     /*
 383:Generated_Source\PSoC6\pdl\drivers\peripheral\usbfs/cy_usbfs_dev_drv_io_dma.c ****     * Descriptor 0: get number of Y loops. It transfers data in multiples of 32 bytes.
 384:Generated_Source\PSoC6\pdl\drivers\peripheral\usbfs/cy_usbfs_dev_drv_io_dma.c ****     * Descriptor 1: get number of X loops. It transfers data what was left 1-31 bytes.
 385:Generated_Source\PSoC6\pdl\drivers\peripheral\usbfs/cy_usbfs_dev_drv_io_dma.c ****     */
 386:Generated_Source\PSoC6\pdl\drivers\peripheral\usbfs/cy_usbfs_dev_drv_io_dma.c ****     uint32_t numYloops = size / (uint32_t) DMA_YLOOP_INCREMENT;
 513              		.loc 1 386 0
 514 000a 4E09     		lsrs	r6, r1, #5
 515              	.LVL56:
 387:Generated_Source\PSoC6\pdl\drivers\peripheral\usbfs/cy_usbfs_dev_drv_io_dma.c ****     uint32_t numXloops = size % (uint32_t) DMA_YLOOP_INCREMENT;
 516              		.loc 1 387 0
 517 000c 1F25     		movs	r5, #31
 518 000e 0D40     		ands	r5, r1
 519              	.LVL57:
 388:Generated_Source\PSoC6\pdl\drivers\peripheral\usbfs/cy_usbfs_dev_drv_io_dma.c **** 
 389:Generated_Source\PSoC6\pdl\drivers\peripheral\usbfs/cy_usbfs_dev_drv_io_dma.c ****     /* Configure */
 390:Generated_Source\PSoC6\pdl\drivers\peripheral\usbfs/cy_usbfs_dev_drv_io_dma.c ****     if (inDirection)
 520              		.loc 1 390 0
 521 0010 0028     		cmp	r0, #0
 522 0012 08D0     		beq	.L25
 391:Generated_Source\PSoC6\pdl\drivers\peripheral\usbfs/cy_usbfs_dev_drv_io_dma.c ****     {
 392:Generated_Source\PSoC6\pdl\drivers\peripheral\usbfs/cy_usbfs_dev_drv_io_dma.c ****         endpoint->startBuf = (uint16_t) size;  /* Store DMA transfer size */
 523              		.loc 1 392 0
 524 0014 8BB2     		uxth	r3, r1
 525 0016 6381     		strh	r3, [r4, #10]
 393:Generated_Source\PSoC6\pdl\drivers\peripheral\usbfs/cy_usbfs_dev_drv_io_dma.c ****         Cy_DMA_Descriptor_SetSrcAddress(endpoint->descr0, buf);
 526              		.loc 1 393 0
 527 0018 236A     		ldr	r3, [r4, #32]
 528              	.LVL58:
 529              	.LBB219:
 530              	.LBB220:
 706:Generated_Source\PSoC6\pdl\drivers/peripheral/dma/cy_dma.h **** }
 531              		.loc 2 706 0
 532 001a 5A60     		str	r2, [r3, #4]
ARM GAS  C:\Users\enes_\AppData\Local\Temp\ccRFUday.s 			page 43


 533              	.LVL59:
 534              	.LBE220:
 535              	.LBE219:
 394:Generated_Source\PSoC6\pdl\drivers\peripheral\usbfs/cy_usbfs_dev_drv_io_dma.c ****         Cy_DMA_Descriptor_SetSrcAddress(endpoint->descr1, &buf[size - numXloops]);
 536              		.loc 1 394 0
 537 001c 606A     		ldr	r0, [r4, #36]
 538              	.LVL60:
 539 001e 4B1B     		subs	r3, r1, r5
 540 0020 D118     		adds	r1, r2, r3
 541              	.LVL61:
 542              	.LBB221:
 543              	.LBB222:
 706:Generated_Source\PSoC6\pdl\drivers/peripheral/dma/cy_dma.h **** }
 544              		.loc 2 706 0
 545 0022 4160     		str	r1, [r0, #4]
 546 0024 0BE0     		b	.L26
 547              	.LVL62:
 548              	.L25:
 549              	.LBE222:
 550              	.LBE221:
 395:Generated_Source\PSoC6\pdl\drivers\peripheral\usbfs/cy_usbfs_dev_drv_io_dma.c ****     }
 396:Generated_Source\PSoC6\pdl\drivers\peripheral\usbfs/cy_usbfs_dev_drv_io_dma.c ****     else
 397:Generated_Source\PSoC6\pdl\drivers\peripheral\usbfs/cy_usbfs_dev_drv_io_dma.c ****     {
 398:Generated_Source\PSoC6\pdl\drivers\peripheral\usbfs/cy_usbfs_dev_drv_io_dma.c ****         endpoint->startBuf = (numYloops > 0U) ? 1U : 0U; /* Store 1st DMA descriptor to execute */
 551              		.loc 1 398 0
 552 0026 002E     		cmp	r6, #0
 553 0028 01D0     		beq	.L43
 554 002a 0123     		movs	r3, #1
 555 002c 00E0     		b	.L27
 556              	.L43:
 557 002e 0023     		movs	r3, #0
 558              	.L27:
 559              		.loc 1 398 0 is_stmt 0 discriminator 4
 560 0030 6381     		strh	r3, [r4, #10]
 399:Generated_Source\PSoC6\pdl\drivers\peripheral\usbfs/cy_usbfs_dev_drv_io_dma.c ****         Cy_DMA_Descriptor_SetDstAddress(endpoint->descr0, buf);
 561              		.loc 1 399 0 is_stmt 1 discriminator 4
 562 0032 236A     		ldr	r3, [r4, #32]
 563              	.LVL63:
 564              	.LBB223:
 565              	.LBB224:
 750:Generated_Source\PSoC6\pdl\drivers/peripheral/dma/cy_dma.h **** }
 566              		.loc 2 750 0 discriminator 4
 567 0034 9A60     		str	r2, [r3, #8]
 568              	.LVL64:
 569              	.LBE224:
 570              	.LBE223:
 400:Generated_Source\PSoC6\pdl\drivers\peripheral\usbfs/cy_usbfs_dev_drv_io_dma.c ****         Cy_DMA_Descriptor_SetDstAddress(endpoint->descr1, &buf[size - numXloops]);
 571              		.loc 1 400 0 discriminator 4
 572 0036 606A     		ldr	r0, [r4, #36]
 573              	.LVL65:
 574 0038 4B1B     		subs	r3, r1, r5
 575 003a D118     		adds	r1, r2, r3
 576              	.LVL66:
 577              	.LBB225:
 578              	.LBB226:
 750:Generated_Source\PSoC6\pdl\drivers/peripheral/dma/cy_dma.h **** }
 579              		.loc 2 750 0 discriminator 4
ARM GAS  C:\Users\enes_\AppData\Local\Temp\ccRFUday.s 			page 44


 580 003c 8160     		str	r1, [r0, #8]
 581              	.LVL67:
 582              	.L26:
 583              	.LBE226:
 584              	.LBE225:
 401:Generated_Source\PSoC6\pdl\drivers\peripheral\usbfs/cy_usbfs_dev_drv_io_dma.c ****     }
 402:Generated_Source\PSoC6\pdl\drivers\peripheral\usbfs/cy_usbfs_dev_drv_io_dma.c **** 
 403:Generated_Source\PSoC6\pdl\drivers\peripheral\usbfs/cy_usbfs_dev_drv_io_dma.c ****     /* Configure loop length */
 404:Generated_Source\PSoC6\pdl\drivers\peripheral\usbfs/cy_usbfs_dev_drv_io_dma.c ****     if (numYloops > 0UL)
 585              		.loc 1 404 0
 586 003e 002E     		cmp	r6, #0
 587 0040 18D0     		beq	.L28
 405:Generated_Source\PSoC6\pdl\drivers\peripheral\usbfs/cy_usbfs_dev_drv_io_dma.c ****     {
 406:Generated_Source\PSoC6\pdl\drivers\peripheral\usbfs/cy_usbfs_dev_drv_io_dma.c ****         Cy_DMA_Descriptor_SetYloopDataCount(endpoint->descr0, numYloops);
 588              		.loc 1 406 0
 589 0042 236A     		ldr	r3, [r4, #32]
 590 0044 9846     		mov	r8, r3
 591              	.LVL68:
 592              	.LBB227:
 593              	.LBB228:
 594              	.LBB229:
 595              	.LBB230:
1119:Generated_Source\PSoC6\pdl\drivers/peripheral/dma/cy_dma.h **** }
 596              		.loc 2 1119 0
 597 0046 1B68     		ldr	r3, [r3]
 598              	.LVL69:
 599 0048 9B0F     		lsrs	r3, r3, #30
 600              	.LVL70:
 601              	.LBE230:
 602              	.LBE229:
1341:Generated_Source\PSoC6\pdl\drivers/peripheral/dma/cy_dma.h ****     CY_ASSERT_L2(CY_DMA_IS_LOOP_COUNT_VALID(yCount));
 603              		.loc 2 1341 0
 604 004a 022B     		cmp	r3, #2
 605 004c 03D0     		beq	.L29
 606 004e 4A49     		ldr	r1, .L46
 607 0050 4A48     		ldr	r0, .L46+4
 608 0052 FFF7FEFF 		bl	Cy_SysLib_AssertFailed
 609              	.LVL71:
 610              	.L29:
1342:Generated_Source\PSoC6\pdl\drivers/peripheral/dma/cy_dma.h ****     /* Convert the data count from the user's range (1-256) into the machine range (0-255). */
 611              		.loc 2 1342 0
 612 0056 771E     		subs	r7, r6, #1
 613 0058 FF2F     		cmp	r7, #255
 614 005a 03D9     		bls	.L30
 615 005c 4849     		ldr	r1, .L46+8
 616 005e 4748     		ldr	r0, .L46+4
 617 0060 FFF7FEFF 		bl	Cy_SysLib_AssertFailed
 618              	.LVL72:
 619              	.L30:
1344:Generated_Source\PSoC6\pdl\drivers/peripheral/dma/cy_dma.h **** }
 620              		.loc 2 1344 0
 621 0064 4346     		mov	r3, r8
 622 0066 1B69     		ldr	r3, [r3, #16]
 623 0068 1B02     		lsls	r3, r3, #8
 624 006a 1B0A     		lsrs	r3, r3, #8
 625 006c 3F06     		lsls	r7, r7, #24
 626 006e 1F43     		orrs	r7, r3
ARM GAS  C:\Users\enes_\AppData\Local\Temp\ccRFUday.s 			page 45


 627 0070 4346     		mov	r3, r8
 628 0072 1F61     		str	r7, [r3, #16]
 629              	.LVL73:
 630              	.L28:
 631              	.LBE228:
 632              	.LBE227:
 407:Generated_Source\PSoC6\pdl\drivers\peripheral\usbfs/cy_usbfs_dev_drv_io_dma.c ****     }
 408:Generated_Source\PSoC6\pdl\drivers\peripheral\usbfs/cy_usbfs_dev_drv_io_dma.c **** 
 409:Generated_Source\PSoC6\pdl\drivers\peripheral\usbfs/cy_usbfs_dev_drv_io_dma.c ****     if (numXloops > 0UL)
 633              		.loc 1 409 0
 634 0074 002D     		cmp	r5, #0
 635 0076 17D0     		beq	.L31
 410:Generated_Source\PSoC6\pdl\drivers\peripheral\usbfs/cy_usbfs_dev_drv_io_dma.c ****     {        
 411:Generated_Source\PSoC6\pdl\drivers\peripheral\usbfs/cy_usbfs_dev_drv_io_dma.c ****         Cy_DMA_Descriptor_SetXloopDataCount(endpoint->descr1, numXloops);
 636              		.loc 1 411 0
 637 0078 636A     		ldr	r3, [r4, #36]
 638 007a 9846     		mov	r8, r3
 639              	.LVL74:
 640              	.LBB231:
 641              	.LBB232:
 642              	.LBB233:
 643              	.LBB234:
1119:Generated_Source\PSoC6\pdl\drivers/peripheral/dma/cy_dma.h **** }
 644              		.loc 2 1119 0
 645 007c 1B68     		ldr	r3, [r3]
 646              	.LVL75:
 647 007e 9B0F     		lsrs	r3, r3, #30
 648              	.LVL76:
 649              	.LBE234:
 650              	.LBE233:
1188:Generated_Source\PSoC6\pdl\drivers/peripheral/dma/cy_dma.h ****     CY_ASSERT_L2(CY_DMA_IS_LOOP_COUNT_VALID(xCount));
 651              		.loc 2 1188 0
 652 0080 03D1     		bne	.L32
 653 0082 4049     		ldr	r1, .L46+12
 654 0084 3D48     		ldr	r0, .L46+4
 655 0086 FFF7FEFF 		bl	Cy_SysLib_AssertFailed
 656              	.LVL77:
 657              	.L32:
1189:Generated_Source\PSoC6\pdl\drivers/peripheral/dma/cy_dma.h ****     /* Convert the data count from the user's range (1-256) into the machine range (0-255). */
 658              		.loc 2 1189 0
 659 008a 6F1E     		subs	r7, r5, #1
 660 008c FF2F     		cmp	r7, #255
 661 008e 03D9     		bls	.L33
 662 0090 3D49     		ldr	r1, .L46+16
 663 0092 3A48     		ldr	r0, .L46+4
 664 0094 FFF7FEFF 		bl	Cy_SysLib_AssertFailed
 665              	.LVL78:
 666              	.L33:
1191:Generated_Source\PSoC6\pdl\drivers/peripheral/dma/cy_dma.h **** }
 667              		.loc 2 1191 0
 668 0098 4346     		mov	r3, r8
 669 009a DB68     		ldr	r3, [r3, #12]
 670 009c 1B02     		lsls	r3, r3, #8
 671 009e 1B0A     		lsrs	r3, r3, #8
 672 00a0 3F06     		lsls	r7, r7, #24
 673 00a2 1F43     		orrs	r7, r3
 674 00a4 4346     		mov	r3, r8
ARM GAS  C:\Users\enes_\AppData\Local\Temp\ccRFUday.s 			page 46


 675 00a6 DF60     		str	r7, [r3, #12]
 676              	.LVL79:
 677              	.L31:
 678              	.LBE232:
 679              	.LBE231:
 412:Generated_Source\PSoC6\pdl\drivers\peripheral\usbfs/cy_usbfs_dev_drv_io_dma.c ****     }
 413:Generated_Source\PSoC6\pdl\drivers\peripheral\usbfs/cy_usbfs_dev_drv_io_dma.c **** 
 414:Generated_Source\PSoC6\pdl\drivers\peripheral\usbfs/cy_usbfs_dev_drv_io_dma.c ****     /* Chain descriptors to operate */
 415:Generated_Source\PSoC6\pdl\drivers\peripheral\usbfs/cy_usbfs_dev_drv_io_dma.c ****     if (numYloops == 0UL)
 680              		.loc 1 415 0
 681 00a8 002E     		cmp	r6, #0
 682 00aa 04D1     		bne	.L34
 416:Generated_Source\PSoC6\pdl\drivers\peripheral\usbfs/cy_usbfs_dev_drv_io_dma.c ****     {
 417:Generated_Source\PSoC6\pdl\drivers\peripheral\usbfs/cy_usbfs_dev_drv_io_dma.c ****         /* (Size < 32): only Descriptor 1 transfers data */
 418:Generated_Source\PSoC6\pdl\drivers\peripheral\usbfs/cy_usbfs_dev_drv_io_dma.c ****         Cy_DMA_Descriptor_SetNextDescriptor(endpoint->descr1, endpoint->descr1);
 683              		.loc 1 418 0
 684 00ac 616A     		ldr	r1, [r4, #36]
 685 00ae 0800     		movs	r0, r1
 686 00b0 FFF7FEFF 		bl	Cy_DMA_Descriptor_SetNextDescriptor
 687              	.LVL80:
 688 00b4 0EE0     		b	.L35
 689              	.L34:
 419:Generated_Source\PSoC6\pdl\drivers\peripheral\usbfs/cy_usbfs_dev_drv_io_dma.c ****     }
 420:Generated_Source\PSoC6\pdl\drivers\peripheral\usbfs/cy_usbfs_dev_drv_io_dma.c ****     else if (numXloops == 0UL)
 690              		.loc 1 420 0
 691 00b6 002D     		cmp	r5, #0
 692 00b8 04D1     		bne	.L36
 421:Generated_Source\PSoC6\pdl\drivers\peripheral\usbfs/cy_usbfs_dev_drv_io_dma.c ****     {
 422:Generated_Source\PSoC6\pdl\drivers\peripheral\usbfs/cy_usbfs_dev_drv_io_dma.c ****         /* Size multiple of 32: only Descriptor 0 transfers data */
 423:Generated_Source\PSoC6\pdl\drivers\peripheral\usbfs/cy_usbfs_dev_drv_io_dma.c ****         Cy_DMA_Descriptor_SetNextDescriptor(endpoint->descr0, endpoint->descr0);
 693              		.loc 1 423 0
 694 00ba 216A     		ldr	r1, [r4, #32]
 695 00bc 0800     		movs	r0, r1
 696 00be FFF7FEFF 		bl	Cy_DMA_Descriptor_SetNextDescriptor
 697              	.LVL81:
 698 00c2 07E0     		b	.L35
 699              	.L36:
 424:Generated_Source\PSoC6\pdl\drivers\peripheral\usbfs/cy_usbfs_dev_drv_io_dma.c ****     }
 425:Generated_Source\PSoC6\pdl\drivers\peripheral\usbfs/cy_usbfs_dev_drv_io_dma.c ****     else
 426:Generated_Source\PSoC6\pdl\drivers\peripheral\usbfs/cy_usbfs_dev_drv_io_dma.c ****     {
 427:Generated_Source\PSoC6\pdl\drivers\peripheral\usbfs/cy_usbfs_dev_drv_io_dma.c ****         /* (Size > 32): both Descriptor 0 and 1 transfer data */
 428:Generated_Source\PSoC6\pdl\drivers\peripheral\usbfs/cy_usbfs_dev_drv_io_dma.c ****         Cy_DMA_Descriptor_SetNextDescriptor(endpoint->descr0, endpoint->descr1);
 700              		.loc 1 428 0
 701 00c4 616A     		ldr	r1, [r4, #36]
 702 00c6 206A     		ldr	r0, [r4, #32]
 703 00c8 FFF7FEFF 		bl	Cy_DMA_Descriptor_SetNextDescriptor
 704              	.LVL82:
 429:Generated_Source\PSoC6\pdl\drivers\peripheral\usbfs/cy_usbfs_dev_drv_io_dma.c ****         Cy_DMA_Descriptor_SetNextDescriptor(endpoint->descr1, endpoint->descr0);
 705              		.loc 1 429 0
 706 00cc 216A     		ldr	r1, [r4, #32]
 707 00ce 606A     		ldr	r0, [r4, #36]
 708 00d0 FFF7FEFF 		bl	Cy_DMA_Descriptor_SetNextDescriptor
 709              	.LVL83:
 710              	.L35:
 430:Generated_Source\PSoC6\pdl\drivers\peripheral\usbfs/cy_usbfs_dev_drv_io_dma.c ****     }
 431:Generated_Source\PSoC6\pdl\drivers\peripheral\usbfs/cy_usbfs_dev_drv_io_dma.c ****     
 432:Generated_Source\PSoC6\pdl\drivers\peripheral\usbfs/cy_usbfs_dev_drv_io_dma.c ****     /* Keep channel enabled after execution of Descriptor 0 to execute Descriptor 1 */
ARM GAS  C:\Users\enes_\AppData\Local\Temp\ccRFUday.s 			page 47


 433:Generated_Source\PSoC6\pdl\drivers\peripheral\usbfs/cy_usbfs_dev_drv_io_dma.c ****     Cy_DMA_Descriptor_SetChannelState(endpoint->descr0,
 711              		.loc 1 433 0
 712 00d4 216A     		ldr	r1, [r4, #32]
 434:Generated_Source\PSoC6\pdl\drivers\peripheral\usbfs/cy_usbfs_dev_drv_io_dma.c ****                                         ((numYloops > 0UL) && (numXloops > 0UL)) ?
 435:Generated_Source\PSoC6\pdl\drivers\peripheral\usbfs/cy_usbfs_dev_drv_io_dma.c ****                                             CY_DMA_CHANNEL_ENABLED : CY_DMA_CHANNEL_DISABLED);
 713              		.loc 1 435 0
 714 00d6 002E     		cmp	r6, #0
 715 00d8 03D0     		beq	.L44
 716              		.loc 1 435 0 is_stmt 0 discriminator 2
 717 00da 002D     		cmp	r5, #0
 718 00dc 03D1     		bne	.L45
 719              		.loc 1 435 0
 720 00de 0123     		movs	r3, #1
 721 00e0 02E0     		b	.L38
 722              	.L44:
 723 00e2 0123     		movs	r3, #1
 724 00e4 00E0     		b	.L38
 725              	.L45:
 726 00e6 0023     		movs	r3, #0
 727              	.LVL84:
 728              	.L38:
 729              	.LBB235:
 730              	.LBB236:
1143:Generated_Source\PSoC6\pdl\drivers/peripheral/dma/cy_dma.h **** }
 731              		.loc 2 1143 0 is_stmt 1
 732 00e8 284A     		ldr	r2, .L46+20
 733 00ea 0868     		ldr	r0, [r1]
 734 00ec 0240     		ands	r2, r0
 735 00ee 1B06     		lsls	r3, r3, #24
 736 00f0 1343     		orrs	r3, r2
 737 00f2 0B60     		str	r3, [r1]
 738              	.LBE236:
 739              	.LBE235:
 436:Generated_Source\PSoC6\pdl\drivers\peripheral\usbfs/cy_usbfs_dev_drv_io_dma.c ****     
 437:Generated_Source\PSoC6\pdl\drivers\peripheral\usbfs/cy_usbfs_dev_drv_io_dma.c ****     /* Start execution from Descriptor 0 (length >= 32) or Descriptor 1 (length < 32) */
 438:Generated_Source\PSoC6\pdl\drivers\peripheral\usbfs/cy_usbfs_dev_drv_io_dma.c ****     Cy_DMA_Channel_SetDescriptor(endpoint->base, endpoint->chNum,
 740              		.loc 1 438 0
 741 00f4 6769     		ldr	r7, [r4, #20]
 742 00f6 A569     		ldr	r5, [r4, #24]
 743              	.LVL85:
 744 00f8 002E     		cmp	r6, #0
 745 00fa 01D0     		beq	.L39
 746              		.loc 1 438 0 is_stmt 0 discriminator 1
 747 00fc 266A     		ldr	r6, [r4, #32]
 748              	.LVL86:
 749 00fe 00E0     		b	.L40
 750              	.LVL87:
 751              	.L39:
 752              		.loc 1 438 0 discriminator 2
 753 0100 666A     		ldr	r6, [r4, #36]
 754              	.LVL88:
 755              	.L40:
 756              	.LBB237:
 757              	.LBB238:
1447:Generated_Source\PSoC6\pdl\drivers/peripheral/dma/cy_dma.h **** }
1448:Generated_Source\PSoC6\pdl\drivers/peripheral/dma/cy_dma.h **** 
1449:Generated_Source\PSoC6\pdl\drivers/peripheral/dma/cy_dma.h **** 
ARM GAS  C:\Users\enes_\AppData\Local\Temp\ccRFUday.s 			page 48


1450:Generated_Source\PSoC6\pdl\drivers/peripheral/dma/cy_dma.h **** /*******************************************************************************
1451:Generated_Source\PSoC6\pdl\drivers/peripheral/dma/cy_dma.h **** * Function Name: Cy_DMA_Descriptor_GetYloopDstIncrement
1452:Generated_Source\PSoC6\pdl\drivers/peripheral/dma/cy_dma.h **** ****************************************************************************//**
1453:Generated_Source\PSoC6\pdl\drivers/peripheral/dma/cy_dma.h **** *
1454:Generated_Source\PSoC6\pdl\drivers/peripheral/dma/cy_dma.h **** * Returns the destination increment parameter for the Y loop of the specified
1455:Generated_Source\PSoC6\pdl\drivers/peripheral/dma/cy_dma.h **** * descriptor (for 2D descriptors only). 
1456:Generated_Source\PSoC6\pdl\drivers/peripheral/dma/cy_dma.h **** *
1457:Generated_Source\PSoC6\pdl\drivers/peripheral/dma/cy_dma.h **** * \param descriptor
1458:Generated_Source\PSoC6\pdl\drivers/peripheral/dma/cy_dma.h **** * The descriptor structure instance declared by the user/component.
1459:Generated_Source\PSoC6\pdl\drivers/peripheral/dma/cy_dma.h **** *
1460:Generated_Source\PSoC6\pdl\drivers/peripheral/dma/cy_dma.h **** * \return
1461:Generated_Source\PSoC6\pdl\drivers/peripheral/dma/cy_dma.h **** * The value of the destination increment. The range is -2048 ... 2047.
1462:Generated_Source\PSoC6\pdl\drivers/peripheral/dma/cy_dma.h **** *
1463:Generated_Source\PSoC6\pdl\drivers/peripheral/dma/cy_dma.h **** * \funcusage 
1464:Generated_Source\PSoC6\pdl\drivers/peripheral/dma/cy_dma.h **** * \snippet dma\2.10\snippet\main.c snippet_Cy_DMA_Descriptor_GetterFunctions
1465:Generated_Source\PSoC6\pdl\drivers/peripheral/dma/cy_dma.h **** *  
1466:Generated_Source\PSoC6\pdl\drivers/peripheral/dma/cy_dma.h **** *******************************************************************************/
1467:Generated_Source\PSoC6\pdl\drivers/peripheral/dma/cy_dma.h **** __STATIC_INLINE int32_t Cy_DMA_Descriptor_GetYloopDstIncrement(cy_stc_dma_descriptor_t const * desc
1468:Generated_Source\PSoC6\pdl\drivers/peripheral/dma/cy_dma.h **** {
