ARM GAS  C:\Users\enes_\AppData\Local\Temp\ccMmLuTv.s 			page 1


   1              		.syntax unified
   2              		.cpu cortex-m4
   3              		.eabi_attribute 27, 1
   4              		.fpu fpv4-sp-d16
   5              		.eabi_attribute 20, 1
   6              		.eabi_attribute 21, 1
   7              		.eabi_attribute 23, 3
   8              		.eabi_attribute 24, 1
   9              		.eabi_attribute 25, 1
  10              		.eabi_attribute 26, 1
  11              		.eabi_attribute 30, 1
  12              		.eabi_attribute 34, 1
  13              		.eabi_attribute 18, 4
  14              		.thumb
  15              		.syntax unified
  16              		.file	"CapSense_1_INT.c"
  17              		.text
  18              	.Ltext0:
  19              		.cfi_sections	.debug_frame
  20              		.section	.text.CapSense_1_SsCSDPostScan,"ax",%progbits
  21              		.align	2
  22              		.thumb
  23              		.thumb_func
  24              		.type	CapSense_1_SsCSDPostScan, %function
  25              	CapSense_1_SsCSDPostScan:
  26              	.LFB266:
  27              		.file 1 "Generated_Source\\PSoC6\\CapSense_1_INT.c"
   1:Generated_Source\PSoC6/CapSense_1_INT.c **** /***************************************************************************//**
   2:Generated_Source\PSoC6/CapSense_1_INT.c **** * \file CapSense_1_INT.c
   3:Generated_Source\PSoC6/CapSense_1_INT.c **** * \version 3.0
   4:Generated_Source\PSoC6/CapSense_1_INT.c **** *
   5:Generated_Source\PSoC6/CapSense_1_INT.c **** * \brief
   6:Generated_Source\PSoC6/CapSense_1_INT.c **** *   This file contains the source code for implementation of the CapSense_1
   7:Generated_Source\PSoC6/CapSense_1_INT.c **** *   Component Interrupt Service Routine (ISR).
   8:Generated_Source\PSoC6/CapSense_1_INT.c **** *
   9:Generated_Source\PSoC6/CapSense_1_INT.c **** * \see CapSense_1 v3.0 Datasheet
  10:Generated_Source\PSoC6/CapSense_1_INT.c **** *
  11:Generated_Source\PSoC6/CapSense_1_INT.c **** *//*****************************************************************************
  12:Generated_Source\PSoC6/CapSense_1_INT.c **** * Copyright (2016-2017), Cypress Semiconductor Corporation.
  13:Generated_Source\PSoC6/CapSense_1_INT.c **** ********************************************************************************
  14:Generated_Source\PSoC6/CapSense_1_INT.c **** * This software is owned by Cypress Semiconductor Corporation (Cypress) and is
  15:Generated_Source\PSoC6/CapSense_1_INT.c **** * protected by and subject to worldwide patent protection (United States and
  16:Generated_Source\PSoC6/CapSense_1_INT.c **** * foreign), United States copyright laws and international treaty provisions.
  17:Generated_Source\PSoC6/CapSense_1_INT.c **** * Cypress hereby grants to licensee a personal, non-exclusive, non-transferable
  18:Generated_Source\PSoC6/CapSense_1_INT.c **** * license to copy, use, modify, create derivative works of, and compile the
  19:Generated_Source\PSoC6/CapSense_1_INT.c **** * Cypress Source Code and derivative works for the sole purpose of creating
  20:Generated_Source\PSoC6/CapSense_1_INT.c **** * custom software in support of licensee product to be used only in conjunction
  21:Generated_Source\PSoC6/CapSense_1_INT.c **** * with a Cypress integrated circuit as specified in the applicable agreement.
  22:Generated_Source\PSoC6/CapSense_1_INT.c **** * Any reproduction, modification, translation, compilation, or representation of
  23:Generated_Source\PSoC6/CapSense_1_INT.c **** * this software except as specified above is prohibited without the express
  24:Generated_Source\PSoC6/CapSense_1_INT.c **** * written permission of Cypress.
  25:Generated_Source\PSoC6/CapSense_1_INT.c **** *
  26:Generated_Source\PSoC6/CapSense_1_INT.c **** * Disclaimer: CYPRESS MAKES NO WARRANTY OF ANY KIND, EXPRESS OR IMPLIED, WITH
  27:Generated_Source\PSoC6/CapSense_1_INT.c **** * REGARD TO THIS MATERIAL, INCLUDING, BUT NOT LIMITED TO, THE IMPLIED
  28:Generated_Source\PSoC6/CapSense_1_INT.c **** * WARRANTIES OF MERCHANTABILITY AND FITNESS FOR A PARTICULAR PURPOSE.
  29:Generated_Source\PSoC6/CapSense_1_INT.c **** * Cypress reserves the right to make changes without further notice to the
  30:Generated_Source\PSoC6/CapSense_1_INT.c **** * materials described herein. Cypress does not assume any liability arising out
ARM GAS  C:\Users\enes_\AppData\Local\Temp\ccMmLuTv.s 			page 2


  31:Generated_Source\PSoC6/CapSense_1_INT.c **** * of the application or use of any product or circuit described herein. Cypress
  32:Generated_Source\PSoC6/CapSense_1_INT.c **** * does not authorize its products for use as critical components in life-support
  33:Generated_Source\PSoC6/CapSense_1_INT.c **** * systems where a malfunction or failure may reasonably be expected to result in
  34:Generated_Source\PSoC6/CapSense_1_INT.c **** * significant injury to the user. The inclusion of Cypress' product in a life-
  35:Generated_Source\PSoC6/CapSense_1_INT.c **** * support systems application implies that the manufacturer assumes all risk of
  36:Generated_Source\PSoC6/CapSense_1_INT.c **** * such use and in doing so indemnifies Cypress against all charges. Use may be
  37:Generated_Source\PSoC6/CapSense_1_INT.c **** * limited by and subject to the applicable Cypress software license agreement.
  38:Generated_Source\PSoC6/CapSense_1_INT.c **** *******************************************************************************/
  39:Generated_Source\PSoC6/CapSense_1_INT.c **** #include "syslib/cy_syslib.h"
  40:Generated_Source\PSoC6/CapSense_1_INT.c **** #include "cyfitter.h"
  41:Generated_Source\PSoC6/CapSense_1_INT.c **** #include "CapSense_1_Configuration.h"
  42:Generated_Source\PSoC6/CapSense_1_INT.c **** #include "CapSense_1_Structure.h"
  43:Generated_Source\PSoC6/CapSense_1_INT.c **** #include "CapSense_1_Sensing.h"
  44:Generated_Source\PSoC6/CapSense_1_INT.c **** #if (CapSense_1_ENABLE == CapSense_1_CSD_EN)
  45:Generated_Source\PSoC6/CapSense_1_INT.c ****     #include "CapSense_1_SensingCSD_LL.h"
  46:Generated_Source\PSoC6/CapSense_1_INT.c **** #endif /* (CapSense_1_ENABLE == CapSense_1_CSD_EN) */
  47:Generated_Source\PSoC6/CapSense_1_INT.c **** #include "cyapicallbacks.h"
  48:Generated_Source\PSoC6/CapSense_1_INT.c **** 
  49:Generated_Source\PSoC6/CapSense_1_INT.c **** /*******************************************************************************
  50:Generated_Source\PSoC6/CapSense_1_INT.c **** * Static Function Prototypes
  51:Generated_Source\PSoC6/CapSense_1_INT.c **** *******************************************************************************/
  52:Generated_Source\PSoC6/CapSense_1_INT.c **** /**
  53:Generated_Source\PSoC6/CapSense_1_INT.c **** * \cond SECTION_CYSENSE_INTERNAL
  54:Generated_Source\PSoC6/CapSense_1_INT.c **** * \addtogroup group_cysense_internal
  55:Generated_Source\PSoC6/CapSense_1_INT.c **** * \{
  56:Generated_Source\PSoC6/CapSense_1_INT.c **** */
  57:Generated_Source\PSoC6/CapSense_1_INT.c **** 
  58:Generated_Source\PSoC6/CapSense_1_INT.c **** #if (((CapSense_1_ENABLE == CapSense_1_CSD_EN) || (CapSense_1_ENABLE == CapSense_1_CSD_CSX_EN)) && 
  59:Generated_Source\PSoC6/CapSense_1_INT.c ****      (CapSense_1_ENABLE == CapSense_1_MULTI_FREQ_SCAN_EN))
  60:Generated_Source\PSoC6/CapSense_1_INT.c ****     static void CapSense_1_SsNextFrequencyScan(void);
  61:Generated_Source\PSoC6/CapSense_1_INT.c **** #endif /* (((CapSense_1_ENABLE == CapSense_1_CSD_EN) || (CapSense_1_ENABLE == CapSense_1_CSD_CSX_EN
  62:Generated_Source\PSoC6/CapSense_1_INT.c ****             (CapSense_1_ENABLE == CapSense_1_MULTI_FREQ_SCAN_EN)) */
  63:Generated_Source\PSoC6/CapSense_1_INT.c **** 
  64:Generated_Source\PSoC6/CapSense_1_INT.c **** #if ((CapSense_1_ENABLE == CapSense_1_CSD_EN) || (CapSense_1_ENABLE == CapSense_1_CSD_CSX_EN))
  65:Generated_Source\PSoC6/CapSense_1_INT.c ****     static void CapSense_1_SsCSDPostScan(void);
  66:Generated_Source\PSoC6/CapSense_1_INT.c ****     static void CapSense_1_SsCSDInitNextScan(void);
  67:Generated_Source\PSoC6/CapSense_1_INT.c **** #endif /* ((CapSense_1_ENABLE == CapSense_1_CSD_EN) || (CapSense_1_ENABLE == CapSense_1_CSD_CSX_EN)
  68:Generated_Source\PSoC6/CapSense_1_INT.c **** /** \}
  69:Generated_Source\PSoC6/CapSense_1_INT.c **** * \endcond */
  70:Generated_Source\PSoC6/CapSense_1_INT.c **** 
  71:Generated_Source\PSoC6/CapSense_1_INT.c **** 
  72:Generated_Source\PSoC6/CapSense_1_INT.c **** /**
  73:Generated_Source\PSoC6/CapSense_1_INT.c **** * \cond SECTION_CYSENSE_INTERRUPT
  74:Generated_Source\PSoC6/CapSense_1_INT.c **** * \addtogroup group_cysense_interrupt
  75:Generated_Source\PSoC6/CapSense_1_INT.c **** * \{
  76:Generated_Source\PSoC6/CapSense_1_INT.c **** */
  77:Generated_Source\PSoC6/CapSense_1_INT.c **** 
  78:Generated_Source\PSoC6/CapSense_1_INT.c **** 
  79:Generated_Source\PSoC6/CapSense_1_INT.c **** #if ((CapSense_1_ENABLE == CapSense_1_CSD_EN) || (CapSense_1_ENABLE == CapSense_1_CSD_CSX_EN))
  80:Generated_Source\PSoC6/CapSense_1_INT.c **** 
  81:Generated_Source\PSoC6/CapSense_1_INT.c **** 
  82:Generated_Source\PSoC6/CapSense_1_INT.c ****     /*******************************************************************************
  83:Generated_Source\PSoC6/CapSense_1_INT.c ****     * Function Name: CapSense_1_CSDPostSingleScan
  84:Generated_Source\PSoC6/CapSense_1_INT.c ****     ****************************************************************************//**
  85:Generated_Source\PSoC6/CapSense_1_INT.c ****     *
  86:Generated_Source\PSoC6/CapSense_1_INT.c ****     * \brief
  87:Generated_Source\PSoC6/CapSense_1_INT.c ****     *  This is an internal ISR function for the single-sensor scanning implementation.
ARM GAS  C:\Users\enes_\AppData\Local\Temp\ccMmLuTv.s 			page 3


  88:Generated_Source\PSoC6/CapSense_1_INT.c ****     *
  89:Generated_Source\PSoC6/CapSense_1_INT.c ****     * \details
  90:Generated_Source\PSoC6/CapSense_1_INT.c ****     *  This ISR handler is triggered when the user calls the
  91:Generated_Source\PSoC6/CapSense_1_INT.c ****     *  CapSense_1_CSDScanExt() function.
  92:Generated_Source\PSoC6/CapSense_1_INT.c ****     *
  93:Generated_Source\PSoC6/CapSense_1_INT.c ****     *  The following tasks are performed:
  94:Generated_Source\PSoC6/CapSense_1_INT.c ****     *    1. Check if the raw data is not noisy.
  95:Generated_Source\PSoC6/CapSense_1_INT.c ****     *    2. Read the Counter register and update the data structure with raw data.
  96:Generated_Source\PSoC6/CapSense_1_INT.c ****     *    3. Configure and start the scan for the next frequency if the
  97:Generated_Source\PSoC6/CapSense_1_INT.c ****     *      multi-frequency is enabled.
  98:Generated_Source\PSoC6/CapSense_1_INT.c ****     *    4. Update the Scan Counter.
  99:Generated_Source\PSoC6/CapSense_1_INT.c ****     *    5. Reset the BUSY flag.
 100:Generated_Source\PSoC6/CapSense_1_INT.c ****     *    6. Enable the CSD interrupt.
 101:Generated_Source\PSoC6/CapSense_1_INT.c ****     *
 102:Generated_Source\PSoC6/CapSense_1_INT.c ****     *  The ISR handler changes the scanning for the next frequency
 103:Generated_Source\PSoC6/CapSense_1_INT.c ****     *  channels when multi-frequency scanning is enabled.
 104:Generated_Source\PSoC6/CapSense_1_INT.c ****     *
 105:Generated_Source\PSoC6/CapSense_1_INT.c ****     *  This function has two Macro Callbacks that allow calling the user code
 106:Generated_Source\PSoC6/CapSense_1_INT.c ****     *  from macros specified in Component's generated code. Refer to the
 107:Generated_Source\PSoC6/CapSense_1_INT.c ****     *  \ref group_cysense_macrocallbacks section of the PSoC Creator User Guide
 108:Generated_Source\PSoC6/CapSense_1_INT.c ****     *  for details.
 109:Generated_Source\PSoC6/CapSense_1_INT.c ****     *
 110:Generated_Source\PSoC6/CapSense_1_INT.c ****     *******************************************************************************/
 111:Generated_Source\PSoC6/CapSense_1_INT.c ****     void CapSense_1_CSDPostSingleScan(void)
 112:Generated_Source\PSoC6/CapSense_1_INT.c ****     {
 113:Generated_Source\PSoC6/CapSense_1_INT.c ****         #ifdef CapSense_1_ENTRY_CALLBACK
 114:Generated_Source\PSoC6/CapSense_1_INT.c ****             CapSense_1_EntryCallback();
 115:Generated_Source\PSoC6/CapSense_1_INT.c ****         #endif /* CapSense_1_ENTRY_CALLBACK */
 116:Generated_Source\PSoC6/CapSense_1_INT.c **** 
 117:Generated_Source\PSoC6/CapSense_1_INT.c ****         /* Clear pending interrupt */
 118:Generated_Source\PSoC6/CapSense_1_INT.c ****         CY_SET_REG32(CapSense_1_CSD_INTR_PTR, CapSense_1_CSD_INTR_ALL_MSK);
 119:Generated_Source\PSoC6/CapSense_1_INT.c ****         (void)CY_GET_REG32(CapSense_1_CSD_INTR_PTR);
 120:Generated_Source\PSoC6/CapSense_1_INT.c **** 
 121:Generated_Source\PSoC6/CapSense_1_INT.c ****         #if (CapSense_1_ENABLE == CapSense_1_CSD_NOISE_METRIC_EN)
 122:Generated_Source\PSoC6/CapSense_1_INT.c ****             if ((CapSense_1_CSD_NOISE_METRIC_TH < ((CY_GET_REG32(CapSense_1_CSD_RESULT_VAL1_PTR) &
 123:Generated_Source\PSoC6/CapSense_1_INT.c ****                                                         CapSense_1_CSD_RESULT_VAL1_BAD_CONVS_MSK) >
 124:Generated_Source\PSoC6/CapSense_1_INT.c ****                                                         CapSense_1_CSD_RESULT_VAL1_BAD_CONVS_POS)) 
 125:Generated_Source\PSoC6/CapSense_1_INT.c ****                                                         (0u < CapSense_1_badConversionsNum))
 126:Generated_Source\PSoC6/CapSense_1_INT.c ****             {
 127:Generated_Source\PSoC6/CapSense_1_INT.c ****                 /* Decrement bad conversions number */
 128:Generated_Source\PSoC6/CapSense_1_INT.c ****                 CapSense_1_badConversionsNum--;
 129:Generated_Source\PSoC6/CapSense_1_INT.c **** 
 130:Generated_Source\PSoC6/CapSense_1_INT.c ****                 /* Start the re-scan */
 131:Generated_Source\PSoC6/CapSense_1_INT.c ****                 CY_SET_REG32(CapSense_1_CSD_SEQ_START_PTR, CapSense_1_CSD_SEQ_START_AZ0_SKIP_MSK |
 132:Generated_Source\PSoC6/CapSense_1_INT.c ****                                                              CapSense_1_CSD_SEQ_START_AZ1_SKIP_MSK 
 133:Generated_Source\PSoC6/CapSense_1_INT.c ****                                                              CapSense_1_CSD_SEQ_START_START_MSK);
 134:Generated_Source\PSoC6/CapSense_1_INT.c ****             }
 135:Generated_Source\PSoC6/CapSense_1_INT.c ****             else
 136:Generated_Source\PSoC6/CapSense_1_INT.c ****             {
 137:Generated_Source\PSoC6/CapSense_1_INT.c ****         #endif /* (CapSense_1_ENABLE == CapSense_1_CSD_NOISE_METRIC_EN) */
 138:Generated_Source\PSoC6/CapSense_1_INT.c **** 
 139:Generated_Source\PSoC6/CapSense_1_INT.c ****             CapSense_1_SsCSDPostScan();
 140:Generated_Source\PSoC6/CapSense_1_INT.c **** 
 141:Generated_Source\PSoC6/CapSense_1_INT.c ****             #if (CapSense_1_ENABLE == CapSense_1_MULTI_FREQ_SCAN_EN)
 142:Generated_Source\PSoC6/CapSense_1_INT.c ****                 if (CapSense_1_FREQ_CHANNEL_2 > CapSense_1_scanFreqIndex)
 143:Generated_Source\PSoC6/CapSense_1_INT.c ****                 {
 144:Generated_Source\PSoC6/CapSense_1_INT.c ****                     /* Scan the next channel */
ARM GAS  C:\Users\enes_\AppData\Local\Temp\ccMmLuTv.s 			page 4


 145:Generated_Source\PSoC6/CapSense_1_INT.c ****                     CapSense_1_SsNextFrequencyScan();
 146:Generated_Source\PSoC6/CapSense_1_INT.c ****                 }
 147:Generated_Source\PSoC6/CapSense_1_INT.c ****                 else
 148:Generated_Source\PSoC6/CapSense_1_INT.c ****                 {
 149:Generated_Source\PSoC6/CapSense_1_INT.c ****                     /* All channels are scanned. Reset the frequency scan channel */
 150:Generated_Source\PSoC6/CapSense_1_INT.c ****                     CapSense_1_scanFreqIndex = CapSense_1_FREQ_CHANNEL_0;
 151:Generated_Source\PSoC6/CapSense_1_INT.c ****                     CapSense_1_SsChangeClkFreq(CapSense_1_FREQ_CHANNEL_0);
 152:Generated_Source\PSoC6/CapSense_1_INT.c **** 
 153:Generated_Source\PSoC6/CapSense_1_INT.c ****                     #if (CapSense_1_ENABLE == CapSense_1_BLOCK_OFF_AFTER_SCAN_EN)
 154:Generated_Source\PSoC6/CapSense_1_INT.c ****                         /* Disable HW IP block */
 155:Generated_Source\PSoC6/CapSense_1_INT.c ****                         CY_SET_REG32(CapSense_1_CSD_CONFIG_PTR, CapSense_1_configCsd);
 156:Generated_Source\PSoC6/CapSense_1_INT.c ****                     #endif /* (CapSense_1_ENABLE == CapSense_1_BLOCK_OFF_AFTER_SCAN_EN) */
 157:Generated_Source\PSoC6/CapSense_1_INT.c **** 
 158:Generated_Source\PSoC6/CapSense_1_INT.c ****                     /* Update Scan Counter */
 159:Generated_Source\PSoC6/CapSense_1_INT.c ****                     CapSense_1_dsRam.scanCounter++;
 160:Generated_Source\PSoC6/CapSense_1_INT.c **** 
 161:Generated_Source\PSoC6/CapSense_1_INT.c ****                     /* Sensor is totally scanned. Reset BUSY flag */
 162:Generated_Source\PSoC6/CapSense_1_INT.c ****                     CapSense_1_ClrBusyFlags(CapSense_1_SW_STS_BUSY | CapSense_1_WDGT_SW_STS_BUSY);
 163:Generated_Source\PSoC6/CapSense_1_INT.c ****                 }
 164:Generated_Source\PSoC6/CapSense_1_INT.c ****             #else
 165:Generated_Source\PSoC6/CapSense_1_INT.c ****                 {
 166:Generated_Source\PSoC6/CapSense_1_INT.c ****                     #if (CapSense_1_ENABLE == CapSense_1_BLOCK_OFF_AFTER_SCAN_EN)
 167:Generated_Source\PSoC6/CapSense_1_INT.c ****                         /* Disable HW IP block */
 168:Generated_Source\PSoC6/CapSense_1_INT.c ****                         CY_SET_REG32(CapSense_1_CSD_CONFIG_PTR, CapSense_1_configCsd);
 169:Generated_Source\PSoC6/CapSense_1_INT.c ****                     #endif /* (CapSense_1_ENABLE == CapSense_1_BLOCK_OFF_AFTER_SCAN_EN) */
 170:Generated_Source\PSoC6/CapSense_1_INT.c **** 
 171:Generated_Source\PSoC6/CapSense_1_INT.c ****                     /* Update Scan Counter */
 172:Generated_Source\PSoC6/CapSense_1_INT.c ****                     CapSense_1_dsRam.scanCounter++;
 173:Generated_Source\PSoC6/CapSense_1_INT.c **** 
 174:Generated_Source\PSoC6/CapSense_1_INT.c ****                     /* Sensor is totally scanned. Reset BUSY flag */
 175:Generated_Source\PSoC6/CapSense_1_INT.c ****                     CapSense_1_ClrBusyFlags(CapSense_1_SW_STS_BUSY | CapSense_1_WDGT_SW_STS_BUSY);
 176:Generated_Source\PSoC6/CapSense_1_INT.c ****                 }
 177:Generated_Source\PSoC6/CapSense_1_INT.c ****             #endif /* (CapSense_1_ENABLE == CapSense_1_MULTI_FREQ_SCAN_EN) */
 178:Generated_Source\PSoC6/CapSense_1_INT.c ****     #if (CapSense_1_ENABLE == CapSense_1_CSD_NOISE_METRIC_EN)
 179:Generated_Source\PSoC6/CapSense_1_INT.c ****         }
 180:Generated_Source\PSoC6/CapSense_1_INT.c ****     #endif /* (CapSense_1_ENABLE == CapSense_1_CSD_NOISE_METRIC_EN) */
 181:Generated_Source\PSoC6/CapSense_1_INT.c **** 
 182:Generated_Source\PSoC6/CapSense_1_INT.c ****         #ifdef CapSense_1_EXIT_CALLBACK
 183:Generated_Source\PSoC6/CapSense_1_INT.c ****             CapSense_1_ExitCallback();
 184:Generated_Source\PSoC6/CapSense_1_INT.c ****         #endif /* CapSense_1_EXIT_CALLBACK */
 185:Generated_Source\PSoC6/CapSense_1_INT.c ****     }
 186:Generated_Source\PSoC6/CapSense_1_INT.c **** 
 187:Generated_Source\PSoC6/CapSense_1_INT.c **** 
 188:Generated_Source\PSoC6/CapSense_1_INT.c ****     /*******************************************************************************
 189:Generated_Source\PSoC6/CapSense_1_INT.c ****     * Function Name: CapSense_1_CSDPostMultiScan
 190:Generated_Source\PSoC6/CapSense_1_INT.c ****     ****************************************************************************//**
 191:Generated_Source\PSoC6/CapSense_1_INT.c ****     *
 192:Generated_Source\PSoC6/CapSense_1_INT.c ****     * \brief
 193:Generated_Source\PSoC6/CapSense_1_INT.c ****     *  This is an internal ISR function for the multiple-sensor scanning
 194:Generated_Source\PSoC6/CapSense_1_INT.c ****     *  implementation.
 195:Generated_Source\PSoC6/CapSense_1_INT.c ****     *
 196:Generated_Source\PSoC6/CapSense_1_INT.c ****     * \details
 197:Generated_Source\PSoC6/CapSense_1_INT.c ****     *  This ISR handler is triggered when the user calls the
 198:Generated_Source\PSoC6/CapSense_1_INT.c ****     *  CapSense_1_Scan() or CapSense_1_ScanAllWidgets() APIs.
 199:Generated_Source\PSoC6/CapSense_1_INT.c ****     *
 200:Generated_Source\PSoC6/CapSense_1_INT.c ****     *  The following tasks are performed:
 201:Generated_Source\PSoC6/CapSense_1_INT.c ****     *    1. Disable the CSD interrupt.
ARM GAS  C:\Users\enes_\AppData\Local\Temp\ccMmLuTv.s 			page 5


 202:Generated_Source\PSoC6/CapSense_1_INT.c ****     *    2. Read the Counter register and update the data structure with raw data.
 203:Generated_Source\PSoC6/CapSense_1_INT.c ****     *    3. Connect the Vref buffer to the AMUX bus.
 204:Generated_Source\PSoC6/CapSense_1_INT.c ****     *    4. Disable the CSD block (after the widget has been scanned).
 205:Generated_Source\PSoC6/CapSense_1_INT.c ****     *    5. Update the Scan Counter.
 206:Generated_Source\PSoC6/CapSense_1_INT.c ****     *    6. Reset the BUSY flag.
 207:Generated_Source\PSoC6/CapSense_1_INT.c ****     *    7. Enable the CSD interrupt.
 208:Generated_Source\PSoC6/CapSense_1_INT.c ****     *
 209:Generated_Source\PSoC6/CapSense_1_INT.c ****     *  The ISR handler initializes scanning for the previous sensor when the
 210:Generated_Source\PSoC6/CapSense_1_INT.c ****     *  widget has more than one sensor.
 211:Generated_Source\PSoC6/CapSense_1_INT.c ****     *  The ISR handler initializes scanning for the next widget when the
 212:Generated_Source\PSoC6/CapSense_1_INT.c ****     *  CapSense_1_ScanAllWidgets() APIs are called and the project has
 213:Generated_Source\PSoC6/CapSense_1_INT.c ****     *  more than one widget.
 214:Generated_Source\PSoC6/CapSense_1_INT.c ****     *  The ISR handler changes the IMO and initializes scanning for the next
 215:Generated_Source\PSoC6/CapSense_1_INT.c ****     *  frequency channels when multi-frequency scanning is enabled.
 216:Generated_Source\PSoC6/CapSense_1_INT.c ****     *
 217:Generated_Source\PSoC6/CapSense_1_INT.c ****     *  This function has two Macro Callbacks that allow calling the user
 218:Generated_Source\PSoC6/CapSense_1_INT.c ****     *  code from macros specified in Component's generated code. Refer to the
 219:Generated_Source\PSoC6/CapSense_1_INT.c ****     *  \ref group_cysense_macrocallbacks section of the PSoC Creator User Guide
 220:Generated_Source\PSoC6/CapSense_1_INT.c ****     *  for details.
 221:Generated_Source\PSoC6/CapSense_1_INT.c ****     *
 222:Generated_Source\PSoC6/CapSense_1_INT.c ****     *******************************************************************************/
 223:Generated_Source\PSoC6/CapSense_1_INT.c ****     void CapSense_1_CSDPostMultiScan(void)
 224:Generated_Source\PSoC6/CapSense_1_INT.c ****     {
 225:Generated_Source\PSoC6/CapSense_1_INT.c ****         /* Declare and initialize ptr to sensor IO structure to appropriate address */
 226:Generated_Source\PSoC6/CapSense_1_INT.c ****         CapSense_1_FLASH_IO_STRUCT const *curSnsIOPtr = (CapSense_1_FLASH_IO_STRUCT const *)
 227:Generated_Source\PSoC6/CapSense_1_INT.c ****                                                           CapSense_1_dsFlash.wdgtArray[CapSense_1_w
 228:Generated_Source\PSoC6/CapSense_1_INT.c ****                                                           + CapSense_1_sensorIndex;
 229:Generated_Source\PSoC6/CapSense_1_INT.c **** 
 230:Generated_Source\PSoC6/CapSense_1_INT.c ****         #ifdef CapSense_1_ENTRY_CALLBACK
 231:Generated_Source\PSoC6/CapSense_1_INT.c ****             CapSense_1_EntryCallback();
 232:Generated_Source\PSoC6/CapSense_1_INT.c ****         #endif /* CapSense_1_ENTRY_CALLBACK */
 233:Generated_Source\PSoC6/CapSense_1_INT.c **** 
 234:Generated_Source\PSoC6/CapSense_1_INT.c ****         /* Clear pending interrupt */
 235:Generated_Source\PSoC6/CapSense_1_INT.c ****         CY_SET_REG32(CapSense_1_CSD_INTR_PTR, CapSense_1_CSD_INTR_ALL_MSK);
 236:Generated_Source\PSoC6/CapSense_1_INT.c ****         (void)CY_GET_REG32(CapSense_1_CSD_INTR_PTR);
 237:Generated_Source\PSoC6/CapSense_1_INT.c **** 
 238:Generated_Source\PSoC6/CapSense_1_INT.c ****         #if (CapSense_1_ENABLE == CapSense_1_CSD_NOISE_METRIC_EN)
 239:Generated_Source\PSoC6/CapSense_1_INT.c ****             if ((CapSense_1_CSD_NOISE_METRIC_TH < ((CY_GET_REG32(CapSense_1_CSD_RESULT_VAL1_PTR) &
 240:Generated_Source\PSoC6/CapSense_1_INT.c ****                                                       CapSense_1_CSD_RESULT_VAL1_BAD_CONVS_MSK) >>
 241:Generated_Source\PSoC6/CapSense_1_INT.c ****                                                       CapSense_1_CSD_RESULT_VAL1_BAD_CONVS_POS)) &&
 242:Generated_Source\PSoC6/CapSense_1_INT.c ****                                                       (0u < CapSense_1_badConversionsNum))
 243:Generated_Source\PSoC6/CapSense_1_INT.c ****             {
 244:Generated_Source\PSoC6/CapSense_1_INT.c ****                 /* Decrement bad conversions number */
 245:Generated_Source\PSoC6/CapSense_1_INT.c ****                 CapSense_1_badConversionsNum--;
 246:Generated_Source\PSoC6/CapSense_1_INT.c **** 
 247:Generated_Source\PSoC6/CapSense_1_INT.c ****                 /* Start the re-scan */
 248:Generated_Source\PSoC6/CapSense_1_INT.c ****                 CY_SET_REG32(CapSense_1_CSD_SEQ_START_PTR, CapSense_1_CSD_SEQ_START_AZ0_SKIP_MSK |
 249:Generated_Source\PSoC6/CapSense_1_INT.c ****                                                              CapSense_1_CSD_SEQ_START_AZ1_SKIP_MSK 
 250:Generated_Source\PSoC6/CapSense_1_INT.c ****                                                              CapSense_1_CSD_SEQ_START_START_MSK);
 251:Generated_Source\PSoC6/CapSense_1_INT.c ****             }
 252:Generated_Source\PSoC6/CapSense_1_INT.c ****             else
 253:Generated_Source\PSoC6/CapSense_1_INT.c ****             {
 254:Generated_Source\PSoC6/CapSense_1_INT.c ****         #endif /* (CapSense_1_ENABLE == CapSense_1_CSD_NOISE_METRIC_EN) */
 255:Generated_Source\PSoC6/CapSense_1_INT.c **** 
 256:Generated_Source\PSoC6/CapSense_1_INT.c ****         CapSense_1_SsCSDPostScan();
 257:Generated_Source\PSoC6/CapSense_1_INT.c **** 
 258:Generated_Source\PSoC6/CapSense_1_INT.c ****         /* Disable sensor when all frequency channels are scanned */
ARM GAS  C:\Users\enes_\AppData\Local\Temp\ccMmLuTv.s 			page 6


 259:Generated_Source\PSoC6/CapSense_1_INT.c ****         #if (CapSense_1_ENABLE == CapSense_1_MULTI_FREQ_SCAN_EN)
 260:Generated_Source\PSoC6/CapSense_1_INT.c ****             if (CapSense_1_FREQ_CHANNEL_2 == CapSense_1_scanFreqIndex)
 261:Generated_Source\PSoC6/CapSense_1_INT.c ****         #endif /* (CapSense_1_ENABLE == CapSense_1_MULTI_FREQ_SCAN_EN) */
 262:Generated_Source\PSoC6/CapSense_1_INT.c ****         {
 263:Generated_Source\PSoC6/CapSense_1_INT.c ****             /* Disable sensor */
 264:Generated_Source\PSoC6/CapSense_1_INT.c ****             CapSense_1_CSDDisconnectSns(curSnsIOPtr);
 265:Generated_Source\PSoC6/CapSense_1_INT.c ****         }
 266:Generated_Source\PSoC6/CapSense_1_INT.c **** 
 267:Generated_Source\PSoC6/CapSense_1_INT.c ****         #if (CapSense_1_ENABLE == CapSense_1_MULTI_FREQ_SCAN_EN)
 268:Generated_Source\PSoC6/CapSense_1_INT.c ****             if (CapSense_1_FREQ_CHANNEL_2 > CapSense_1_scanFreqIndex)
 269:Generated_Source\PSoC6/CapSense_1_INT.c ****             {
 270:Generated_Source\PSoC6/CapSense_1_INT.c ****                  /* Scan the next channel */
 271:Generated_Source\PSoC6/CapSense_1_INT.c ****                 CapSense_1_SsNextFrequencyScan();
 272:Generated_Source\PSoC6/CapSense_1_INT.c ****             }
 273:Generated_Source\PSoC6/CapSense_1_INT.c ****             else
 274:Generated_Source\PSoC6/CapSense_1_INT.c ****             {
 275:Generated_Source\PSoC6/CapSense_1_INT.c ****                 /* All channels are scanned. Reset the frequency scan channel */
 276:Generated_Source\PSoC6/CapSense_1_INT.c ****                 CapSense_1_scanFreqIndex = CapSense_1_FREQ_CHANNEL_0;
 277:Generated_Source\PSoC6/CapSense_1_INT.c ****                 CapSense_1_SsChangeClkFreq(CapSense_1_FREQ_CHANNEL_0);
 278:Generated_Source\PSoC6/CapSense_1_INT.c **** 
 279:Generated_Source\PSoC6/CapSense_1_INT.c ****                  /* Scan the next sensor */
 280:Generated_Source\PSoC6/CapSense_1_INT.c ****                 CapSense_1_SsCSDInitNextScan();
 281:Generated_Source\PSoC6/CapSense_1_INT.c ****             }
 282:Generated_Source\PSoC6/CapSense_1_INT.c ****         #else
 283:Generated_Source\PSoC6/CapSense_1_INT.c ****             /* Scan the next sensor */
 284:Generated_Source\PSoC6/CapSense_1_INT.c ****             CapSense_1_SsCSDInitNextScan();
 285:Generated_Source\PSoC6/CapSense_1_INT.c ****         #endif /* (CapSense_1_ENABLE == CapSense_1_MULTI_FREQ_SCAN_EN) */
 286:Generated_Source\PSoC6/CapSense_1_INT.c ****     #if (CapSense_1_ENABLE == CapSense_1_CSD_NOISE_METRIC_EN)
 287:Generated_Source\PSoC6/CapSense_1_INT.c ****         }
 288:Generated_Source\PSoC6/CapSense_1_INT.c ****     #endif /* (CapSense_1_ENABLE == CapSense_1_CSD_NOISE_METRIC_EN) */
 289:Generated_Source\PSoC6/CapSense_1_INT.c **** 
 290:Generated_Source\PSoC6/CapSense_1_INT.c ****     #ifdef CapSense_1_EXIT_CALLBACK
 291:Generated_Source\PSoC6/CapSense_1_INT.c ****         CapSense_1_ExitCallback();
 292:Generated_Source\PSoC6/CapSense_1_INT.c ****     #endif /* CapSense_1_EXIT_CALLBACK */
 293:Generated_Source\PSoC6/CapSense_1_INT.c **** }
 294:Generated_Source\PSoC6/CapSense_1_INT.c **** 
 295:Generated_Source\PSoC6/CapSense_1_INT.c **** 
 296:Generated_Source\PSoC6/CapSense_1_INT.c **** #if (CapSense_1_ENABLE == CapSense_1_CSD_GANGED_SNS_EN)
 297:Generated_Source\PSoC6/CapSense_1_INT.c **** /*******************************************************************************
 298:Generated_Source\PSoC6/CapSense_1_INT.c **** * Function Name: CapSense_1_CSDPostMultiScanGanged
 299:Generated_Source\PSoC6/CapSense_1_INT.c **** ****************************************************************************//**
 300:Generated_Source\PSoC6/CapSense_1_INT.c **** *
 301:Generated_Source\PSoC6/CapSense_1_INT.c **** * \brief
 302:Generated_Source\PSoC6/CapSense_1_INT.c **** *  This is an internal ISR function for the multiple-sensor scanning
 303:Generated_Source\PSoC6/CapSense_1_INT.c **** *  implementation for ganged sensors.
 304:Generated_Source\PSoC6/CapSense_1_INT.c **** *
 305:Generated_Source\PSoC6/CapSense_1_INT.c **** * \details
 306:Generated_Source\PSoC6/CapSense_1_INT.c **** *  This ISR handler is triggered when the user calls the
 307:Generated_Source\PSoC6/CapSense_1_INT.c **** *  CapSense_1_Scan() API for a ganged sensor or the
 308:Generated_Source\PSoC6/CapSense_1_INT.c **** *  CapSense_1_ScanAllWidgets() API in the project with ganged sensors.
 309:Generated_Source\PSoC6/CapSense_1_INT.c **** *
 310:Generated_Source\PSoC6/CapSense_1_INT.c **** *  The following tasks are performed:
 311:Generated_Source\PSoC6/CapSense_1_INT.c **** *    1. Disable the CSD interrupt.
 312:Generated_Source\PSoC6/CapSense_1_INT.c **** *    2. Read the Counter register and update the data structure with raw data.
 313:Generated_Source\PSoC6/CapSense_1_INT.c **** *    3. Connect the Vref buffer to the AMUX bus.
 314:Generated_Source\PSoC6/CapSense_1_INT.c **** *    4. Disable the CSD block (after the widget has been scanned).
 315:Generated_Source\PSoC6/CapSense_1_INT.c **** *    5. Update the Scan Counter.
ARM GAS  C:\Users\enes_\AppData\Local\Temp\ccMmLuTv.s 			page 7


 316:Generated_Source\PSoC6/CapSense_1_INT.c **** *    6. Reset the BUSY flag.
 317:Generated_Source\PSoC6/CapSense_1_INT.c **** *    7. Enable the CSD interrupt.
 318:Generated_Source\PSoC6/CapSense_1_INT.c **** *
 319:Generated_Source\PSoC6/CapSense_1_INT.c **** *  The ISR handler initializes scanning for the previous sensor when the
 320:Generated_Source\PSoC6/CapSense_1_INT.c **** *  widget has more than one sensor.
 321:Generated_Source\PSoC6/CapSense_1_INT.c **** *  The ISR handler initializes scanning for the next widget when the
 322:Generated_Source\PSoC6/CapSense_1_INT.c **** *  CapSense_1_ScanAllWidgets() APIs are called and the project has
 323:Generated_Source\PSoC6/CapSense_1_INT.c **** *  more than one widget.
 324:Generated_Source\PSoC6/CapSense_1_INT.c **** *  The ISR handler changes the IMO and initializes scanning for the next
 325:Generated_Source\PSoC6/CapSense_1_INT.c **** *  frequency channels when multi-frequency scanning is enabled.
 326:Generated_Source\PSoC6/CapSense_1_INT.c **** *
 327:Generated_Source\PSoC6/CapSense_1_INT.c **** *  This function has two Macro Callbacks that allow calling the user
 328:Generated_Source\PSoC6/CapSense_1_INT.c **** *  code from macros specified in Component's generated code. Refer to the
 329:Generated_Source\PSoC6/CapSense_1_INT.c **** *  \ref group_cysense_macrocallbacks section of the PSoC Creator User Guide
 330:Generated_Source\PSoC6/CapSense_1_INT.c **** *  for details.
 331:Generated_Source\PSoC6/CapSense_1_INT.c **** *
 332:Generated_Source\PSoC6/CapSense_1_INT.c **** *******************************************************************************/
 333:Generated_Source\PSoC6/CapSense_1_INT.c **** void CapSense_1_CSDPostMultiScanGanged(void)
 334:Generated_Source\PSoC6/CapSense_1_INT.c **** {
 335:Generated_Source\PSoC6/CapSense_1_INT.c ****     #ifdef CapSense_1_ENTRY_CALLBACK
 336:Generated_Source\PSoC6/CapSense_1_INT.c ****         CapSense_1_EntryCallback();
 337:Generated_Source\PSoC6/CapSense_1_INT.c ****     #endif /* CapSense_1_ENTRY_CALLBACK */
 338:Generated_Source\PSoC6/CapSense_1_INT.c **** 
 339:Generated_Source\PSoC6/CapSense_1_INT.c ****         /* Clear pending interrupt */
 340:Generated_Source\PSoC6/CapSense_1_INT.c ****     CY_SET_REG32(CapSense_1_CSD_INTR_PTR, CapSense_1_CSD_INTR_ALL_MSK);
 341:Generated_Source\PSoC6/CapSense_1_INT.c ****     (void)CY_GET_REG32(CapSense_1_CSD_INTR_PTR);
 342:Generated_Source\PSoC6/CapSense_1_INT.c **** 
 343:Generated_Source\PSoC6/CapSense_1_INT.c ****     #if (CapSense_1_ENABLE == CapSense_1_CSD_NOISE_METRIC_EN)
 344:Generated_Source\PSoC6/CapSense_1_INT.c ****         if ((CapSense_1_CSD_NOISE_METRIC_TH < ((CY_GET_REG32(CapSense_1_CSD_RESULT_VAL1_PTR) &
 345:Generated_Source\PSoC6/CapSense_1_INT.c ****                                                   CapSense_1_CSD_RESULT_VAL1_BAD_CONVS_MSK) >>
 346:Generated_Source\PSoC6/CapSense_1_INT.c ****                                                   CapSense_1_CSD_RESULT_VAL1_BAD_CONVS_POS)) &&
 347:Generated_Source\PSoC6/CapSense_1_INT.c ****                                                   (0u < CapSense_1_badConversionsNum))
 348:Generated_Source\PSoC6/CapSense_1_INT.c ****         {
 349:Generated_Source\PSoC6/CapSense_1_INT.c ****             /* Decrement bad conversions number */
 350:Generated_Source\PSoC6/CapSense_1_INT.c ****             CapSense_1_badConversionsNum--;
 351:Generated_Source\PSoC6/CapSense_1_INT.c **** 
 352:Generated_Source\PSoC6/CapSense_1_INT.c ****             /* Start the re-scan */
 353:Generated_Source\PSoC6/CapSense_1_INT.c ****             CY_SET_REG32(CapSense_1_CSD_SEQ_START_PTR, CapSense_1_CSD_SEQ_START_AZ0_SKIP_MSK |
 354:Generated_Source\PSoC6/CapSense_1_INT.c ****                                                          CapSense_1_CSD_SEQ_START_AZ1_SKIP_MSK |
 355:Generated_Source\PSoC6/CapSense_1_INT.c ****                                                          CapSense_1_CSD_SEQ_START_START_MSK);
 356:Generated_Source\PSoC6/CapSense_1_INT.c ****         }
 357:Generated_Source\PSoC6/CapSense_1_INT.c ****         else
 358:Generated_Source\PSoC6/CapSense_1_INT.c ****         {
 359:Generated_Source\PSoC6/CapSense_1_INT.c ****     #endif /* (CapSense_1_ENABLE == CapSense_1_CSD_NOISE_METRIC_EN) */
 360:Generated_Source\PSoC6/CapSense_1_INT.c **** 
 361:Generated_Source\PSoC6/CapSense_1_INT.c ****         CapSense_1_SsCSDPostScan();
 362:Generated_Source\PSoC6/CapSense_1_INT.c **** 
 363:Generated_Source\PSoC6/CapSense_1_INT.c ****         #if (CapSense_1_ENABLE == CapSense_1_MULTI_FREQ_SCAN_EN)
 364:Generated_Source\PSoC6/CapSense_1_INT.c ****             if (CapSense_1_FREQ_CHANNEL_2 == CapSense_1_scanFreqIndex)
 365:Generated_Source\PSoC6/CapSense_1_INT.c ****         #endif /* (CapSense_1_ENABLE == CapSense_1_MULTI_FREQ_SCAN_EN) */
 366:Generated_Source\PSoC6/CapSense_1_INT.c ****         {
 367:Generated_Source\PSoC6/CapSense_1_INT.c ****             CapSense_1_SsCSDDisconnectSnsExt((uint32)CapSense_1_widgetIndex, (uint32)CapSense_1_sen
 368:Generated_Source\PSoC6/CapSense_1_INT.c ****         }
 369:Generated_Source\PSoC6/CapSense_1_INT.c **** 
 370:Generated_Source\PSoC6/CapSense_1_INT.c ****         #if (CapSense_1_ENABLE == CapSense_1_MULTI_FREQ_SCAN_EN)
 371:Generated_Source\PSoC6/CapSense_1_INT.c ****             if (CapSense_1_FREQ_CHANNEL_2 > CapSense_1_scanFreqIndex)
 372:Generated_Source\PSoC6/CapSense_1_INT.c ****             {
ARM GAS  C:\Users\enes_\AppData\Local\Temp\ccMmLuTv.s 			page 8


 373:Generated_Source\PSoC6/CapSense_1_INT.c ****                  /* Scan the next channel */
 374:Generated_Source\PSoC6/CapSense_1_INT.c ****                 CapSense_1_SsNextFrequencyScan();
 375:Generated_Source\PSoC6/CapSense_1_INT.c ****             }
 376:Generated_Source\PSoC6/CapSense_1_INT.c ****             else
 377:Generated_Source\PSoC6/CapSense_1_INT.c ****             {
 378:Generated_Source\PSoC6/CapSense_1_INT.c ****                 /* All channels are scanned. Reset the frequency scan channel */
 379:Generated_Source\PSoC6/CapSense_1_INT.c ****                 CapSense_1_scanFreqIndex = CapSense_1_FREQ_CHANNEL_0;
 380:Generated_Source\PSoC6/CapSense_1_INT.c ****                 CapSense_1_SsChangeClkFreq(CapSense_1_FREQ_CHANNEL_0);
 381:Generated_Source\PSoC6/CapSense_1_INT.c **** 
 382:Generated_Source\PSoC6/CapSense_1_INT.c ****                  /* Scan the next sensor */
 383:Generated_Source\PSoC6/CapSense_1_INT.c ****                 CapSense_1_SsCSDInitNextScan();
 384:Generated_Source\PSoC6/CapSense_1_INT.c ****             }
 385:Generated_Source\PSoC6/CapSense_1_INT.c ****         #else
 386:Generated_Source\PSoC6/CapSense_1_INT.c ****              /* Scan the next sensor */
 387:Generated_Source\PSoC6/CapSense_1_INT.c ****             CapSense_1_SsCSDInitNextScan();
 388:Generated_Source\PSoC6/CapSense_1_INT.c ****         #endif /* (CapSense_1_ENABLE == CapSense_1_MULTI_FREQ_SCAN_EN) */
 389:Generated_Source\PSoC6/CapSense_1_INT.c ****     #if (CapSense_1_ENABLE == CapSense_1_CSD_NOISE_METRIC_EN)
 390:Generated_Source\PSoC6/CapSense_1_INT.c ****         }
 391:Generated_Source\PSoC6/CapSense_1_INT.c ****     #endif /* (CapSense_1_ENABLE == CapSense_1_CSD_NOISE_METRIC_EN) */
 392:Generated_Source\PSoC6/CapSense_1_INT.c **** 
 393:Generated_Source\PSoC6/CapSense_1_INT.c ****     #ifdef CapSense_1_EXIT_CALLBACK
 394:Generated_Source\PSoC6/CapSense_1_INT.c ****         CapSense_1_ExitCallback();
 395:Generated_Source\PSoC6/CapSense_1_INT.c ****     #endif /* CapSense_1_EXIT_CALLBACK */
 396:Generated_Source\PSoC6/CapSense_1_INT.c **** 
 397:Generated_Source\PSoC6/CapSense_1_INT.c ****     (void)CY_GET_REG32(CapSense_1_CSD_INTR_PTR);
 398:Generated_Source\PSoC6/CapSense_1_INT.c **** }
 399:Generated_Source\PSoC6/CapSense_1_INT.c **** #endif /* (CapSense_1_ENABLE == CapSense_1_CSD_GANGED_SNS_EN) */
 400:Generated_Source\PSoC6/CapSense_1_INT.c **** 
 401:Generated_Source\PSoC6/CapSense_1_INT.c **** 
 402:Generated_Source\PSoC6/CapSense_1_INT.c **** #endif /* ((CapSense_1_ENABLE == CapSense_1_CSD_EN) || (CapSense_1_ENABLE == CapSense_1_CSD_CSX_EN)
 403:Generated_Source\PSoC6/CapSense_1_INT.c **** 
 404:Generated_Source\PSoC6/CapSense_1_INT.c **** /** \}
 405:Generated_Source\PSoC6/CapSense_1_INT.c ****  * \endcond */
 406:Generated_Source\PSoC6/CapSense_1_INT.c **** 
 407:Generated_Source\PSoC6/CapSense_1_INT.c **** 
 408:Generated_Source\PSoC6/CapSense_1_INT.c **** #if ((CapSense_1_ENABLE == CapSense_1_CSD_EN) || (CapSense_1_ENABLE == CapSense_1_CSD_CSX_EN))
 409:Generated_Source\PSoC6/CapSense_1_INT.c **** 
 410:Generated_Source\PSoC6/CapSense_1_INT.c **** /*******************************************************************************
 411:Generated_Source\PSoC6/CapSense_1_INT.c **** * Function Name: CapSense_1_SsCSDPostScan
 412:Generated_Source\PSoC6/CapSense_1_INT.c **** ****************************************************************************//**
 413:Generated_Source\PSoC6/CapSense_1_INT.c **** *
 414:Generated_Source\PSoC6/CapSense_1_INT.c **** * \brief
 415:Generated_Source\PSoC6/CapSense_1_INT.c **** *   This function reads rawdata and releases required HW resources after scan.
 416:Generated_Source\PSoC6/CapSense_1_INT.c **** *
 417:Generated_Source\PSoC6/CapSense_1_INT.c **** * \details
 418:Generated_Source\PSoC6/CapSense_1_INT.c **** *   This function performs following tasks after scan:
 419:Generated_Source\PSoC6/CapSense_1_INT.c **** *   - Reads SlotResult from Raw Counter;
 420:Generated_Source\PSoC6/CapSense_1_INT.c **** *   - Inits bad Conversions number;
 421:Generated_Source\PSoC6/CapSense_1_INT.c **** *   - Disconnects Vrefhi from AMUBUF positive input;
 422:Generated_Source\PSoC6/CapSense_1_INT.c **** *   - Disconnects AMUBUF output from CSDBUSB with sych PHI2+HSCMP;
 423:Generated_Source\PSoC6/CapSense_1_INT.c **** *   - Opens HCBV and HCBG switches.
 424:Generated_Source\PSoC6/CapSense_1_INT.c **** *
 425:Generated_Source\PSoC6/CapSense_1_INT.c **** *******************************************************************************/
 426:Generated_Source\PSoC6/CapSense_1_INT.c **** static void CapSense_1_SsCSDPostScan(void)
 427:Generated_Source\PSoC6/CapSense_1_INT.c **** {
  28              		.loc 1 427 0
  29              		.cfi_startproc
ARM GAS  C:\Users\enes_\AppData\Local\Temp\ccMmLuTv.s 			page 9


  30              		@ args = 0, pretend = 0, frame = 0
  31              		@ frame_needed = 0, uses_anonymous_args = 0
  32              		@ link register save eliminated.
 428:Generated_Source\PSoC6/CapSense_1_INT.c ****     uint32 tmpRawData;
 429:Generated_Source\PSoC6/CapSense_1_INT.c ****     uint32 tmpMaxCount;
 430:Generated_Source\PSoC6/CapSense_1_INT.c ****     CapSense_1_RAM_WD_BASE_STRUCT const *ptrWdgt = (CapSense_1_RAM_WD_BASE_STRUCT *)
 431:Generated_Source\PSoC6/CapSense_1_INT.c ****                                         CapSense_1_dsFlash.wdgtArray[CapSense_1_widgetIndex].ptr2Wd
  33              		.loc 1 431 0
  34 0000 0F4B     		ldr	r3, .L4
  35 0002 1978     		ldrb	r1, [r3]	@ zero_extendqisi2
 430:Generated_Source\PSoC6/CapSense_1_INT.c ****                                         CapSense_1_dsFlash.wdgtArray[CapSense_1_widgetIndex].ptr2Wd
  36              		.loc 1 430 0
  37 0004 2C22     		movs	r2, #44
  38 0006 0F4B     		ldr	r3, .L4+4
  39 0008 01FB0233 		mla	r3, r1, r2, r3
  40 000c 5B68     		ldr	r3, [r3, #4]
  41              	.LVL0:
 432:Generated_Source\PSoC6/CapSense_1_INT.c **** 
 433:Generated_Source\PSoC6/CapSense_1_INT.c ****     /* Read SlotResult from Raw Counter */
 434:Generated_Source\PSoC6/CapSense_1_INT.c ****     tmpRawData = CapSense_1_CSD_RESULT_VAL1_REG & CapSense_1_CSD_RESULT_VAL1_VALUE_MSK;
  42              		.loc 1 434 0
  43 000e 0E4A     		ldr	r2, .L4+8
  44 0010 D2F8D020 		ldr	r2, [r2, #208]
  45 0014 91B2     		uxth	r1, r2
  46              	.LVL1:
 435:Generated_Source\PSoC6/CapSense_1_INT.c **** 
 436:Generated_Source\PSoC6/CapSense_1_INT.c ****     tmpMaxCount = ((1uL << ptrWdgt->resolution) - 1uL);
  47              		.loc 1 436 0
  48 0016 1888     		ldrh	r0, [r3]
  49 0018 0123     		movs	r3, #1
  50              	.LVL2:
  51 001a 8340     		lsls	r3, r3, r0
  52 001c 013B     		subs	r3, r3, #1
  53              	.LVL3:
 437:Generated_Source\PSoC6/CapSense_1_INT.c ****     if(tmpRawData < tmpMaxCount)
  54              		.loc 1 437 0
  55 001e 9942     		cmp	r1, r3
  56 0020 06D2     		bcs	.L2
 438:Generated_Source\PSoC6/CapSense_1_INT.c ****     {
 439:Generated_Source\PSoC6/CapSense_1_INT.c ****         CapSense_1_curRamSnsPtr->raw[CapSense_1_scanFreqIndex] = CY_LO16(tmpRawData);
  57              		.loc 1 439 0
  58 0022 0A4B     		ldr	r3, .L4+12
  59              	.LVL4:
  60 0024 1B68     		ldr	r3, [r3]
  61 0026 0A49     		ldr	r1, .L4+16
  62              	.LVL5:
  63 0028 0978     		ldrb	r1, [r1]	@ zero_extendqisi2
  64 002a 23F81120 		strh	r2, [r3, r1, lsl #1]	@ movhi
  65 002e 7047     		bx	lr
  66              	.LVL6:
  67              	.L2:
 440:Generated_Source\PSoC6/CapSense_1_INT.c ****     }
 441:Generated_Source\PSoC6/CapSense_1_INT.c ****     else
 442:Generated_Source\PSoC6/CapSense_1_INT.c ****     {
 443:Generated_Source\PSoC6/CapSense_1_INT.c ****         CapSense_1_curRamSnsPtr->raw[CapSense_1_scanFreqIndex] = CY_LO16(tmpMaxCount);
  68              		.loc 1 443 0
  69 0030 064A     		ldr	r2, .L4+12
ARM GAS  C:\Users\enes_\AppData\Local\Temp\ccMmLuTv.s 			page 10


  70 0032 1268     		ldr	r2, [r2]
  71 0034 0649     		ldr	r1, .L4+16
  72              	.LVL7:
  73 0036 0978     		ldrb	r1, [r1]	@ zero_extendqisi2
  74 0038 22F81130 		strh	r3, [r2, r1, lsl #1]	@ movhi
  75 003c 7047     		bx	lr
  76              	.L5:
  77 003e 00BF     		.align	2
  78              	.L4:
  79 0040 00000000 		.word	CapSense_1_widgetIndex
  80 0044 00000000 		.word	CapSense_1_dsFlash
  81 0048 00003640 		.word	1077280768
  82 004c 00000000 		.word	CapSense_1_curRamSnsPtr
  83 0050 00000000 		.word	CapSense_1_scanFreqIndex
  84              		.cfi_endproc
  85              	.LFE266:
  86              		.size	CapSense_1_SsCSDPostScan, .-CapSense_1_SsCSDPostScan
  87              		.section	.text.CapSense_1_SsCSDInitNextScan,"ax",%progbits
  88              		.align	2
  89              		.thumb
  90              		.thumb_func
  91              		.type	CapSense_1_SsCSDInitNextScan, %function
  92              	CapSense_1_SsCSDInitNextScan:
  93              	.LFB267:
 444:Generated_Source\PSoC6/CapSense_1_INT.c ****     }
 445:Generated_Source\PSoC6/CapSense_1_INT.c **** 
 446:Generated_Source\PSoC6/CapSense_1_INT.c ****     #if (CapSense_1_ENABLE == CapSense_1_CSD_NOISE_METRIC_EN)
 447:Generated_Source\PSoC6/CapSense_1_INT.c ****         /* Init bad Conversions number */
 448:Generated_Source\PSoC6/CapSense_1_INT.c ****         CapSense_1_badConversionsNum = CapSense_1_BAD_CONVERSIONS_NUM;
 449:Generated_Source\PSoC6/CapSense_1_INT.c ****     #endif /* (CapSense_1_ENABLE == CapSense_1_CSD_NOISE_METRIC_EN) */
 450:Generated_Source\PSoC6/CapSense_1_INT.c **** 
 451:Generated_Source\PSoC6/CapSense_1_INT.c ****     #if (CapSense_1_ENABLE == CapSense_1_CSD_SHIELD_EN)
 452:Generated_Source\PSoC6/CapSense_1_INT.c ****         /* Open HCBV and HCBG switches */
 453:Generated_Source\PSoC6/CapSense_1_INT.c ****         CY_SET_REG32(CapSense_1_CSD_SW_SHIELD_SEL_PTR, CapSense_1_CSD_SW_SHIELD_SEL_SW_HCBV_STATIC_
 454:Generated_Source\PSoC6/CapSense_1_INT.c ****                                                          CapSense_1_CSD_SW_SHIELD_SEL_SW_HCBG_STATI
 455:Generated_Source\PSoC6/CapSense_1_INT.c ****     #endif /* (CapSense_1_ENABLE == CapSense_1_CSD_SHIELD_EN) */
 456:Generated_Source\PSoC6/CapSense_1_INT.c **** }
 457:Generated_Source\PSoC6/CapSense_1_INT.c **** 
 458:Generated_Source\PSoC6/CapSense_1_INT.c **** 
 459:Generated_Source\PSoC6/CapSense_1_INT.c **** /*******************************************************************************
 460:Generated_Source\PSoC6/CapSense_1_INT.c **** * Function Name: CapSense_1_SsCSDInitNextScan
 461:Generated_Source\PSoC6/CapSense_1_INT.c **** ****************************************************************************//**
 462:Generated_Source\PSoC6/CapSense_1_INT.c **** *
 463:Generated_Source\PSoC6/CapSense_1_INT.c **** * \brief
 464:Generated_Source\PSoC6/CapSense_1_INT.c **** *   This function initializes the next sensor scan.
 465:Generated_Source\PSoC6/CapSense_1_INT.c **** *
 466:Generated_Source\PSoC6/CapSense_1_INT.c **** * \details
 467:Generated_Source\PSoC6/CapSense_1_INT.c **** *   The function increments the sensor index, updates sense clock for matrix
 468:Generated_Source\PSoC6/CapSense_1_INT.c **** *   or touchpad widgets only, sets up Compensation IDAC, enables the sensor and
 469:Generated_Source\PSoC6/CapSense_1_INT.c **** *   scans it. When all the sensors are scanned it continues to set up the next widget
 470:Generated_Source\PSoC6/CapSense_1_INT.c **** *   until all the widgets are scanned. The CSD block is disabled when all the widgets are
 471:Generated_Source\PSoC6/CapSense_1_INT.c **** *   scanned.
 472:Generated_Source\PSoC6/CapSense_1_INT.c **** *
 473:Generated_Source\PSoC6/CapSense_1_INT.c **** *******************************************************************************/
 474:Generated_Source\PSoC6/CapSense_1_INT.c **** static void CapSense_1_SsCSDInitNextScan(void)
 475:Generated_Source\PSoC6/CapSense_1_INT.c **** {
  94              		.loc 1 475 0
ARM GAS  C:\Users\enes_\AppData\Local\Temp\ccMmLuTv.s 			page 11


  95              		.cfi_startproc
  96              		@ args = 0, pretend = 0, frame = 0
  97              		@ frame_needed = 0, uses_anonymous_args = 0
  98 0000 38B5     		push	{r3, r4, r5, lr}
  99              		.cfi_def_cfa_offset 16
 100              		.cfi_offset 3, -16
 101              		.cfi_offset 4, -12
 102              		.cfi_offset 5, -8
 103              		.cfi_offset 14, -4
 476:Generated_Source\PSoC6/CapSense_1_INT.c ****     /* Declare and initialize ptr to widget and sensor structures to appropriate address */
 477:Generated_Source\PSoC6/CapSense_1_INT.c ****     #if (((CapSense_1_ENABLE == CapSense_1_CSD_IDAC_COMP_EN) || \
 478:Generated_Source\PSoC6/CapSense_1_INT.c ****             (CapSense_1_CSD_MATRIX_WIDGET_EN || CapSense_1_CSD_TOUCHPAD_WIDGET_EN)) || \
 479:Generated_Source\PSoC6/CapSense_1_INT.c ****             (((CapSense_1_DISABLE == CapSense_1_CSD_COMMON_SNS_CLK_EN) && \
 480:Generated_Source\PSoC6/CapSense_1_INT.c ****             (CapSense_1_CSD_MATRIX_WIDGET_EN || CapSense_1_CSD_TOUCHPAD_WIDGET_EN))))
 481:Generated_Source\PSoC6/CapSense_1_INT.c ****         CapSense_1_RAM_WD_BASE_STRUCT *ptrWdgt = (CapSense_1_RAM_WD_BASE_STRUCT *)
 482:Generated_Source\PSoC6/CapSense_1_INT.c ****             CapSense_1_dsFlash.wdgtArray[CapSense_1_widgetIndex].ptr2WdgtRam;
 104              		.loc 1 482 0
 105 0002 214C     		ldr	r4, .L11
 106 0004 2278     		ldrb	r2, [r4]	@ zero_extendqisi2
 481:Generated_Source\PSoC6/CapSense_1_INT.c ****             CapSense_1_dsFlash.wdgtArray[CapSense_1_widgetIndex].ptr2WdgtRam;
 107              		.loc 1 481 0
 108 0006 2149     		ldr	r1, .L11+4
 109 0008 2C23     		movs	r3, #44
 110 000a 02FB0312 		mla	r2, r2, r3, r1
 111 000e 5068     		ldr	r0, [r2, #4]
 112              	.LVL8:
 483:Generated_Source\PSoC6/CapSense_1_INT.c ****     #endif
 484:Generated_Source\PSoC6/CapSense_1_INT.c **** 
 485:Generated_Source\PSoC6/CapSense_1_INT.c ****     /* Check if all the sensors are scanned in widget */
 486:Generated_Source\PSoC6/CapSense_1_INT.c ****     if (((uint8)CapSense_1_dsFlash.wdgtArray[(CapSense_1_widgetIndex)].totalNumSns - 1u) > CapSense
 113              		.loc 1 486 0
 114 0010 2278     		ldrb	r2, [r4]	@ zero_extendqisi2
 115 0012 02FB0313 		mla	r3, r2, r3, r1
 116 0016 1A7E     		ldrb	r2, [r3, #24]	@ zero_extendqisi2
 117 0018 013A     		subs	r2, r2, #1
 118 001a 1D4B     		ldr	r3, .L11+8
 119 001c 1B78     		ldrb	r3, [r3]	@ zero_extendqisi2
 120 001e DBB2     		uxtb	r3, r3
 121 0020 9A42     		cmp	r2, r3
 122 0022 1BD9     		bls	.L7
 487:Generated_Source\PSoC6/CapSense_1_INT.c ****     {
 488:Generated_Source\PSoC6/CapSense_1_INT.c ****         /* Increment sensor index to configure next sensor in widget */
 489:Generated_Source\PSoC6/CapSense_1_INT.c ****         CapSense_1_sensorIndex++;
 123              		.loc 1 489 0
 124 0024 1A4C     		ldr	r4, .L11+8
 125 0026 2378     		ldrb	r3, [r4]	@ zero_extendqisi2
 126 0028 0133     		adds	r3, r3, #1
 127 002a DBB2     		uxtb	r3, r3
 128 002c 2370     		strb	r3, [r4]
 490:Generated_Source\PSoC6/CapSense_1_INT.c **** 
 491:Generated_Source\PSoC6/CapSense_1_INT.c ****         /* Update global pointer to CapSense_1_RAM_SNS_STRUCT to current sensor */
 492:Generated_Source\PSoC6/CapSense_1_INT.c ****         CapSense_1_curRamSnsPtr = (CapSense_1_RAM_SNS_STRUCT *)
 129              		.loc 1 492 0
 130 002e 164D     		ldr	r5, .L11
 131 0030 2978     		ldrb	r1, [r5]	@ zero_extendqisi2
 493:Generated_Source\PSoC6/CapSense_1_INT.c ****                                                   CapSense_1_dsFlash.wdgtArray[CapSense_1_widgetInd
 132              		.loc 1 493 0
ARM GAS  C:\Users\enes_\AppData\Local\Temp\ccMmLuTv.s 			page 12


 133 0032 2C22     		movs	r2, #44
 134 0034 154B     		ldr	r3, .L11+4
 135 0036 01FB0233 		mla	r3, r1, r2, r3
 136 003a 9968     		ldr	r1, [r3, #8]
 494:Generated_Source\PSoC6/CapSense_1_INT.c ****                                                   + CapSense_1_sensorIndex;
 137              		.loc 1 494 0
 138 003c 2378     		ldrb	r3, [r4]	@ zero_extendqisi2
 139 003e 03EB8303 		add	r3, r3, r3, lsl #2
 140 0042 5A00     		lsls	r2, r3, #1
 141 0044 0A44     		add	r2, r2, r1
 492:Generated_Source\PSoC6/CapSense_1_INT.c ****                                                   CapSense_1_dsFlash.wdgtArray[CapSense_1_widgetInd
 142              		.loc 1 492 0
 143 0046 134B     		ldr	r3, .L11+12
 144 0048 1A60     		str	r2, [r3]
 495:Generated_Source\PSoC6/CapSense_1_INT.c **** 
 496:Generated_Source\PSoC6/CapSense_1_INT.c ****         /* Configure clock divider to row or column */
 497:Generated_Source\PSoC6/CapSense_1_INT.c ****         #if ((CapSense_1_DISABLE == CapSense_1_CSD_COMMON_SNS_CLK_EN) && \
 498:Generated_Source\PSoC6/CapSense_1_INT.c ****              (CapSense_1_CSD_MATRIX_WIDGET_EN || CapSense_1_CSD_TOUCHPAD_WIDGET_EN))
 499:Generated_Source\PSoC6/CapSense_1_INT.c ****              CapSense_1_SsCSDConfigClock();
 500:Generated_Source\PSoC6/CapSense_1_INT.c **** 
 501:Generated_Source\PSoC6/CapSense_1_INT.c ****              /* Set up scanning resolution */
 502:Generated_Source\PSoC6/CapSense_1_INT.c ****              CapSense_1_SsCSDCalculateScanDuration(ptrWdgt);
 503:Generated_Source\PSoC6/CapSense_1_INT.c ****         #endif /* ((CapSense_1_DISABLE == CapSense_1_CSD_COMMON_SNS_CLK_EN) && \
 504:Generated_Source\PSoC6/CapSense_1_INT.c ****                    (CapSense_1_CSD_MATRIX_WIDGET_EN || CapSense_1_CSD_TOUCHPAD_WIDGET_EN))) */
 505:Generated_Source\PSoC6/CapSense_1_INT.c **** 
 506:Generated_Source\PSoC6/CapSense_1_INT.c ****         /* Setup Compensation IDAC for next sensor in widget */
 507:Generated_Source\PSoC6/CapSense_1_INT.c ****         #if ((CapSense_1_ENABLE == CapSense_1_CSD_IDAC_COMP_EN) || \
 508:Generated_Source\PSoC6/CapSense_1_INT.c ****              (CapSense_1_CSD_MATRIX_WIDGET_EN || CapSense_1_CSD_TOUCHPAD_WIDGET_EN))
 509:Generated_Source\PSoC6/CapSense_1_INT.c ****             CapSense_1_SsCSDSetUpIdacs(ptrWdgt);
 145              		.loc 1 509 0
 146 004a FFF7FEFF 		bl	CapSense_1_SsCSDSetUpIdacs
 147              	.LVL9:
 510:Generated_Source\PSoC6/CapSense_1_INT.c ****         #endif /* ((CapSense_1_ENABLE == CapSense_1_CSD_IDAC_COMP_EN) || \
 511:Generated_Source\PSoC6/CapSense_1_INT.c ****              (CapSense_1_CSD_MATRIX_WIDGET_EN || CapSense_1_CSD_TOUCHPAD_WIDGET_EN)) */
 512:Generated_Source\PSoC6/CapSense_1_INT.c **** 
 513:Generated_Source\PSoC6/CapSense_1_INT.c ****         /* Enable sensor */
 514:Generated_Source\PSoC6/CapSense_1_INT.c ****         CapSense_1_SsCSDConnectSensorExt((uint32)CapSense_1_widgetIndex, (uint32)CapSense_1_sensorI
 148              		.loc 1 514 0
 149 004e 2878     		ldrb	r0, [r5]	@ zero_extendqisi2
 150 0050 2178     		ldrb	r1, [r4]	@ zero_extendqisi2
 151 0052 FFF7FEFF 		bl	CapSense_1_SsCSDConnectSensorExt
 152              	.LVL10:
 515:Generated_Source\PSoC6/CapSense_1_INT.c **** 
 516:Generated_Source\PSoC6/CapSense_1_INT.c ****         /* Proceed scanning */
 517:Generated_Source\PSoC6/CapSense_1_INT.c ****         CapSense_1_SsCSDStartSample();
 153              		.loc 1 517 0
 154 0056 FFF7FEFF 		bl	CapSense_1_SsCSDStartSample
 155              	.LVL11:
 156 005a 38BD     		pop	{r3, r4, r5, pc}
 157              	.LVL12:
 158              	.L7:
 518:Generated_Source\PSoC6/CapSense_1_INT.c ****     }
 519:Generated_Source\PSoC6/CapSense_1_INT.c ****     /* Call scan next widget API if requested, if not, complete the scan */
 520:Generated_Source\PSoC6/CapSense_1_INT.c ****     else
 521:Generated_Source\PSoC6/CapSense_1_INT.c ****     {
 522:Generated_Source\PSoC6/CapSense_1_INT.c ****         CapSense_1_sensorIndex = 0u;
 159              		.loc 1 522 0
ARM GAS  C:\Users\enes_\AppData\Local\Temp\ccMmLuTv.s 			page 13


 160 005c 0022     		movs	r2, #0
 161 005e 0C4B     		ldr	r3, .L11+8
 162 0060 1A70     		strb	r2, [r3]
 523:Generated_Source\PSoC6/CapSense_1_INT.c **** 
 524:Generated_Source\PSoC6/CapSense_1_INT.c ****         /* Current widget is totally scanned. Reset WIDGET BUSY flag */
 525:Generated_Source\PSoC6/CapSense_1_INT.c ****         CapSense_1_ClrBusyFlags(CapSense_1_WDGT_SW_STS_BUSY);
 163              		.loc 1 525 0
 164 0062 4FF48030 		mov	r0, #65536
 165              	.LVL13:
 166 0066 FFF7FEFF 		bl	CapSense_1_ClrBusyFlags
 167              	.LVL14:
 526:Generated_Source\PSoC6/CapSense_1_INT.c **** 
 527:Generated_Source\PSoC6/CapSense_1_INT.c ****         /* Check if all the widgets have been scanned */
 528:Generated_Source\PSoC6/CapSense_1_INT.c ****         if (CapSense_1_ENABLE == CapSense_1_requestScanAllWidget)
 168              		.loc 1 528 0
 169 006a 0B4B     		ldr	r3, .L11+16
 170 006c 1B78     		ldrb	r3, [r3]	@ zero_extendqisi2
 171 006e 012B     		cmp	r3, #1
 172 0070 02D1     		bne	.L9
 529:Generated_Source\PSoC6/CapSense_1_INT.c ****         {
 530:Generated_Source\PSoC6/CapSense_1_INT.c ****             /* Configure and begin scanning next widget */
 531:Generated_Source\PSoC6/CapSense_1_INT.c ****             CapSense_1_SsPostAllWidgetsScan();
 173              		.loc 1 531 0
 174 0072 FFF7FEFF 		bl	CapSense_1_SsPostAllWidgetsScan
 175              	.LVL15:
 176 0076 38BD     		pop	{r3, r4, r5, pc}
 177              	.L9:
 532:Generated_Source\PSoC6/CapSense_1_INT.c ****         }
 533:Generated_Source\PSoC6/CapSense_1_INT.c ****         else
 534:Generated_Source\PSoC6/CapSense_1_INT.c ****         {
 535:Generated_Source\PSoC6/CapSense_1_INT.c ****             #if (CapSense_1_ENABLE == CapSense_1_BLOCK_OFF_AFTER_SCAN_EN)
 536:Generated_Source\PSoC6/CapSense_1_INT.c ****                 /* Disable the CSD block */
 537:Generated_Source\PSoC6/CapSense_1_INT.c ****                 CY_SET_REG32(CapSense_1_CSD_CONFIG_PTR, CapSense_1_configCsd);
 538:Generated_Source\PSoC6/CapSense_1_INT.c ****             #endif /* (CapSense_1_ENABLE == CapSense_1_BLOCK_OFF_AFTER_SCAN_EN) */
 539:Generated_Source\PSoC6/CapSense_1_INT.c **** 
 540:Generated_Source\PSoC6/CapSense_1_INT.c ****             /* all the widgets are totally scanned. Reset BUSY flag */
 541:Generated_Source\PSoC6/CapSense_1_INT.c ****             CapSense_1_ClrBusyFlags(CapSense_1_SW_STS_BUSY);
 178              		.loc 1 541 0
 179 0078 8020     		movs	r0, #128
 180 007a FFF7FEFF 		bl	CapSense_1_ClrBusyFlags
 181              	.LVL16:
 542:Generated_Source\PSoC6/CapSense_1_INT.c **** 
 543:Generated_Source\PSoC6/CapSense_1_INT.c ****             /* Update scan Counter */
 544:Generated_Source\PSoC6/CapSense_1_INT.c ****             CapSense_1_dsRam.scanCounter++;
 182              		.loc 1 544 0
 183 007e 074A     		ldr	r2, .L11+20
 184 0080 1389     		ldrh	r3, [r2, #8]
 185 0082 0133     		adds	r3, r3, #1
 186 0084 1381     		strh	r3, [r2, #8]	@ movhi
 187 0086 38BD     		pop	{r3, r4, r5, pc}
 188              	.L12:
 189              		.align	2
 190              	.L11:
 191 0088 00000000 		.word	CapSense_1_widgetIndex
 192 008c 00000000 		.word	CapSense_1_dsFlash
 193 0090 00000000 		.word	CapSense_1_sensorIndex
 194 0094 00000000 		.word	CapSense_1_curRamSnsPtr
ARM GAS  C:\Users\enes_\AppData\Local\Temp\ccMmLuTv.s 			page 14


 195 0098 00000000 		.word	CapSense_1_requestScanAllWidget
 196 009c 00000000 		.word	CapSense_1_dsRam
 197              		.cfi_endproc
 198              	.LFE267:
 199              		.size	CapSense_1_SsCSDInitNextScan, .-CapSense_1_SsCSDInitNextScan
 200              		.section	.text.CapSense_1_CSDPostSingleScan,"ax",%progbits
 201              		.align	2
 202              		.global	CapSense_1_CSDPostSingleScan
 203              		.thumb
 204              		.thumb_func
 205              		.type	CapSense_1_CSDPostSingleScan, %function
 206              	CapSense_1_CSDPostSingleScan:
 207              	.LFB264:
 112:Generated_Source\PSoC6/CapSense_1_INT.c ****         #ifdef CapSense_1_ENTRY_CALLBACK
 208              		.loc 1 112 0
 209              		.cfi_startproc
 210              		@ args = 0, pretend = 0, frame = 0
 211              		@ frame_needed = 0, uses_anonymous_args = 0
 212 0000 08B5     		push	{r3, lr}
 213              		.cfi_def_cfa_offset 8
 214              		.cfi_offset 3, -8
 215              		.cfi_offset 14, -4
 118:Generated_Source\PSoC6/CapSense_1_INT.c ****         (void)CY_GET_REG32(CapSense_1_CSD_INTR_PTR);
 216              		.loc 1 118 0
 217 0002 074B     		ldr	r3, .L15
 218 0004 4FF48372 		mov	r2, #262
 219 0008 1A60     		str	r2, [r3]
 119:Generated_Source\PSoC6/CapSense_1_INT.c **** 
 220              		.loc 1 119 0
 221 000a 1B68     		ldr	r3, [r3]
 139:Generated_Source\PSoC6/CapSense_1_INT.c **** 
 222              		.loc 1 139 0
 223 000c FFF7FEFF 		bl	CapSense_1_SsCSDPostScan
 224              	.LVL17:
 172:Generated_Source\PSoC6/CapSense_1_INT.c **** 
 225              		.loc 1 172 0
 226 0010 044A     		ldr	r2, .L15+4
 227 0012 1389     		ldrh	r3, [r2, #8]
 228 0014 0133     		adds	r3, r3, #1
 229 0016 1381     		strh	r3, [r2, #8]	@ movhi
 175:Generated_Source\PSoC6/CapSense_1_INT.c ****                 }
 230              		.loc 1 175 0
 231 0018 0348     		ldr	r0, .L15+8
 232 001a FFF7FEFF 		bl	CapSense_1_ClrBusyFlags
 233              	.LVL18:
 234 001e 08BD     		pop	{r3, pc}
 235              	.L16:
 236              		.align	2
 237              	.L15:
 238 0020 F0003640 		.word	1077281008
 239 0024 00000000 		.word	CapSense_1_dsRam
 240 0028 80000100 		.word	65664
 241              		.cfi_endproc
 242              	.LFE264:
 243              		.size	CapSense_1_CSDPostSingleScan, .-CapSense_1_CSDPostSingleScan
 244              		.section	.text.CapSense_1_CSDPostMultiScan,"ax",%progbits
 245              		.align	2
ARM GAS  C:\Users\enes_\AppData\Local\Temp\ccMmLuTv.s 			page 15


 246              		.global	CapSense_1_CSDPostMultiScan
 247              		.thumb
 248              		.thumb_func
 249              		.type	CapSense_1_CSDPostMultiScan, %function
 250              	CapSense_1_CSDPostMultiScan:
 251              	.LFB265:
 224:Generated_Source\PSoC6/CapSense_1_INT.c ****         /* Declare and initialize ptr to sensor IO structure to appropriate address */
 252              		.loc 1 224 0
 253              		.cfi_startproc
 254              		@ args = 0, pretend = 0, frame = 0
 255              		@ frame_needed = 0, uses_anonymous_args = 0
 256 0000 10B5     		push	{r4, lr}
 257              		.cfi_def_cfa_offset 8
 258              		.cfi_offset 4, -8
 259              		.cfi_offset 14, -4
 226:Generated_Source\PSoC6/CapSense_1_INT.c ****                                                           CapSense_1_dsFlash.wdgtArray[CapSense_1_w
 260              		.loc 1 226 0
 261 0002 0C4B     		ldr	r3, .L19
 262 0004 1B78     		ldrb	r3, [r3]	@ zero_extendqisi2
 227:Generated_Source\PSoC6/CapSense_1_INT.c ****                                                           + CapSense_1_sensorIndex;
 263              		.loc 1 227 0
 264 0006 2C22     		movs	r2, #44
 265 0008 03FB02F3 		mul	r3, r3, r2
 266 000c 0A4A     		ldr	r2, .L19+4
 267 000e D358     		ldr	r3, [r2, r3]
 228:Generated_Source\PSoC6/CapSense_1_INT.c **** 
 268              		.loc 1 228 0
 269 0010 0A4A     		ldr	r2, .L19+8
 270 0012 1478     		ldrb	r4, [r2]	@ zero_extendqisi2
 226:Generated_Source\PSoC6/CapSense_1_INT.c ****                                                           CapSense_1_dsFlash.wdgtArray[CapSense_1_w
 271              		.loc 1 226 0
 272 0014 03EBC404 		add	r4, r3, r4, lsl #3
 273              	.LVL19:
 235:Generated_Source\PSoC6/CapSense_1_INT.c ****         (void)CY_GET_REG32(CapSense_1_CSD_INTR_PTR);
 274              		.loc 1 235 0
 275 0018 094B     		ldr	r3, .L19+12
 276 001a 4FF48372 		mov	r2, #262
 277 001e 1A60     		str	r2, [r3]
 236:Generated_Source\PSoC6/CapSense_1_INT.c **** 
 278              		.loc 1 236 0
 279 0020 1B68     		ldr	r3, [r3]
 256:Generated_Source\PSoC6/CapSense_1_INT.c **** 
 280              		.loc 1 256 0
 281 0022 FFF7FEFF 		bl	CapSense_1_SsCSDPostScan
 282              	.LVL20:
 264:Generated_Source\PSoC6/CapSense_1_INT.c ****         }
 283              		.loc 1 264 0
 284 0026 2046     		mov	r0, r4
 285 0028 FFF7FEFF 		bl	CapSense_1_CSDDisconnectSns
 286              	.LVL21:
 284:Generated_Source\PSoC6/CapSense_1_INT.c ****         #endif /* (CapSense_1_ENABLE == CapSense_1_MULTI_FREQ_SCAN_EN) */
 287              		.loc 1 284 0
 288 002c FFF7FEFF 		bl	CapSense_1_SsCSDInitNextScan
 289              	.LVL22:
 290 0030 10BD     		pop	{r4, pc}
 291              	.LVL23:
 292              	.L20:
ARM GAS  C:\Users\enes_\AppData\Local\Temp\ccMmLuTv.s 			page 16


 293 0032 00BF     		.align	2
 294              	.L19:
 295 0034 00000000 		.word	CapSense_1_widgetIndex
 296 0038 00000000 		.word	CapSense_1_dsFlash
 297 003c 00000000 		.word	CapSense_1_sensorIndex
 298 0040 F0003640 		.word	1077281008
 299              		.cfi_endproc
 300              	.LFE265:
 301              		.size	CapSense_1_CSDPostMultiScan, .-CapSense_1_CSDPostMultiScan
 302              		.text
 303              	.Letext0:
 304              		.file 2 "c:\\program files (x86)\\cypress\\psoc creator\\4.4\\psoc creator\\import\\gnu\\arm\\5.4.
 305              		.file 3 "c:\\program files (x86)\\cypress\\psoc creator\\4.4\\psoc creator\\import\\gnu\\arm\\5.4.
 306              		.file 4 "Generated_Source\\PSoC6\\pdl\\devices/psoc6/include/ip/cyip_gpio.h"
 307              		.file 5 "Generated_Source\\PSoC6\\pdl\\drivers/peripheral/device/cy_device.h"
 308              		.file 6 "Generated_Source\\PSoC6\\pdl\\devices/psoc6/include/ip/cyip_csd.h"
 309              		.file 7 "Generated_Source\\PSoC6\\pdl\\devices/psoc6/include/psoc6_01_config.h"
 310              		.file 8 "Generated_Source\\PSoC6\\pdl\\drivers/peripheral/syslib/cy_syslib.h"
 311              		.file 9 "Generated_Source\\PSoC6\\CapSense_1_Configuration.h"
 312              		.file 10 "Generated_Source\\PSoC6\\CapSense_1_SmartSense_LL.h"
 313              		.file 11 "Generated_Source\\PSoC6\\CapSense_1_Structure.h"
 314              		.file 12 "Generated_Source\\PSoC6\\pdl\\cmsis/include/core_cm4.h"
 315              		.file 13 "Generated_Source\\PSoC6\\CapSense_1_Sensing.h"
 316              		.file 14 "Generated_Source\\PSoC6\\CapSense_1_SensingCSD_LL.h"