ARM GAS  C:\Users\enes_\AppData\Local\Temp\cctsluYK.s 			page 1


   1              		.syntax unified
   2              		.cpu cortex-m4
   3              		.eabi_attribute 27, 1
   4              		.fpu fpv4-sp-d16
   5              		.eabi_attribute 20, 1
   6              		.eabi_attribute 21, 1
   7              		.eabi_attribute 23, 3
   8              		.eabi_attribute 24, 1
   9              		.eabi_attribute 25, 1
  10              		.eabi_attribute 26, 1
  11              		.eabi_attribute 30, 1
  12              		.eabi_attribute 34, 1
  13              		.eabi_attribute 18, 4
  14              		.thumb
  15              		.syntax unified
  16              		.file	"CapSense_1_Control.c"
  17              		.text
  18              	.Ltext0:
  19              		.cfi_sections	.debug_frame
  20              		.section	.text.CapSense_1_Initialize,"ax",%progbits
  21              		.align	2
  22              		.global	CapSense_1_Initialize
  23              		.thumb
  24              		.thumb_func
  25              		.type	CapSense_1_Initialize, %function
  26              	CapSense_1_Initialize:
  27              	.LFB268:
  28              		.file 1 "Generated_Source\\PSoC6\\CapSense_1_Control.c"
   1:Generated_Source\PSoC6/CapSense_1_Control.c **** /***************************************************************************//**
   2:Generated_Source\PSoC6/CapSense_1_Control.c **** * \file CapSense_1_Control.c
   3:Generated_Source\PSoC6/CapSense_1_Control.c **** * \version 3.0
   4:Generated_Source\PSoC6/CapSense_1_Control.c **** *
   5:Generated_Source\PSoC6/CapSense_1_Control.c **** * \brief
   6:Generated_Source\PSoC6/CapSense_1_Control.c **** *   This file provides the source code to the Control module API of the Component.
   7:Generated_Source\PSoC6/CapSense_1_Control.c **** *
   8:Generated_Source\PSoC6/CapSense_1_Control.c **** * \see CapSense_1 v3.0 Datasheet
   9:Generated_Source\PSoC6/CapSense_1_Control.c **** *
  10:Generated_Source\PSoC6/CapSense_1_Control.c **** *//*****************************************************************************
  11:Generated_Source\PSoC6/CapSense_1_Control.c **** * Copyright (2016-2017), Cypress Semiconductor Corporation.
  12:Generated_Source\PSoC6/CapSense_1_Control.c **** ********************************************************************************
  13:Generated_Source\PSoC6/CapSense_1_Control.c **** * This software is owned by Cypress Semiconductor Corporation (Cypress) and is
  14:Generated_Source\PSoC6/CapSense_1_Control.c **** * protected by and subject to worldwide patent protection (United States and
  15:Generated_Source\PSoC6/CapSense_1_Control.c **** * foreign), United States copyright laws and international treaty provisions.
  16:Generated_Source\PSoC6/CapSense_1_Control.c **** * Cypress hereby grants to licensee a personal, non-exclusive, non-transferable
  17:Generated_Source\PSoC6/CapSense_1_Control.c **** * license to copy, use, modify, create derivative works of, and compile the
  18:Generated_Source\PSoC6/CapSense_1_Control.c **** * Cypress Source Code and derivative works for the sole purpose of creating
  19:Generated_Source\PSoC6/CapSense_1_Control.c **** * custom software in support of licensee product to be used only in conjunction
  20:Generated_Source\PSoC6/CapSense_1_Control.c **** * with a Cypress integrated circuit as specified in the applicable agreement.
  21:Generated_Source\PSoC6/CapSense_1_Control.c **** * Any reproduction, modification, translation, compilation, or representation of
  22:Generated_Source\PSoC6/CapSense_1_Control.c **** * this software except as specified above is prohibited without the express
  23:Generated_Source\PSoC6/CapSense_1_Control.c **** * written permission of Cypress.
  24:Generated_Source\PSoC6/CapSense_1_Control.c **** *
  25:Generated_Source\PSoC6/CapSense_1_Control.c **** * Disclaimer: CYPRESS MAKES NO WARRANTY OF ANY KIND, EXPRESS OR IMPLIED, WITH
  26:Generated_Source\PSoC6/CapSense_1_Control.c **** * REGARD TO THIS MATERIAL, INCLUDING, BUT NOT LIMITED TO, THE IMPLIED
  27:Generated_Source\PSoC6/CapSense_1_Control.c **** * WARRANTIES OF MERCHANTABILITY AND FITNESS FOR A PARTICULAR PURPOSE.
  28:Generated_Source\PSoC6/CapSense_1_Control.c **** * Cypress reserves the right to make changes without further notice to the
  29:Generated_Source\PSoC6/CapSense_1_Control.c **** * materials described herein. Cypress does not assume any liability arising out
ARM GAS  C:\Users\enes_\AppData\Local\Temp\cctsluYK.s 			page 2


  30:Generated_Source\PSoC6/CapSense_1_Control.c **** * of the application or use of any product or circuit described herein. Cypress
  31:Generated_Source\PSoC6/CapSense_1_Control.c **** * does not authorize its products for use as critical components in life-support
  32:Generated_Source\PSoC6/CapSense_1_Control.c **** * systems where a malfunction or failure may reasonably be expected to result in
  33:Generated_Source\PSoC6/CapSense_1_Control.c **** * significant injury to the user. The inclusion of Cypress' product in a life-
  34:Generated_Source\PSoC6/CapSense_1_Control.c **** * support systems application implies that the manufacturer assumes all risk of
  35:Generated_Source\PSoC6/CapSense_1_Control.c **** * such use and in doing so indemnifies Cypress against all charges. Use may be
  36:Generated_Source\PSoC6/CapSense_1_Control.c **** * limited by and subject to the applicable Cypress software license agreement.
  37:Generated_Source\PSoC6/CapSense_1_Control.c **** *******************************************************************************/
  38:Generated_Source\PSoC6/CapSense_1_Control.c **** 
  39:Generated_Source\PSoC6/CapSense_1_Control.c **** #include <stddef.h>
  40:Generated_Source\PSoC6/CapSense_1_Control.c **** #include "syslib/cy_syslib.h"
  41:Generated_Source\PSoC6/CapSense_1_Control.c **** #include "syspm/cy_syspm.h"
  42:Generated_Source\PSoC6/CapSense_1_Control.c **** #include "cyfitter_sysint_cfg.h"
  43:Generated_Source\PSoC6/CapSense_1_Control.c **** #include "CapSense_1_Configuration.h"
  44:Generated_Source\PSoC6/CapSense_1_Control.c **** #include "CapSense_1_Structure.h"
  45:Generated_Source\PSoC6/CapSense_1_Control.c **** #include "CapSense_1_Control.h"
  46:Generated_Source\PSoC6/CapSense_1_Control.c **** #include "CapSense_1_Processing.h"
  47:Generated_Source\PSoC6/CapSense_1_Control.c **** #include "CapSense_1_Filter.h"
  48:Generated_Source\PSoC6/CapSense_1_Control.c **** #include "CapSense_1_Sensing.h"
  49:Generated_Source\PSoC6/CapSense_1_Control.c **** #include "CapSense_1_Tuner.h"
  50:Generated_Source\PSoC6/CapSense_1_Control.c **** 
  51:Generated_Source\PSoC6/CapSense_1_Control.c **** #if (CapSense_1_ENABLE == CapSense_1_SELF_TEST_EN)
  52:Generated_Source\PSoC6/CapSense_1_Control.c ****     #include "CapSense_1_SelfTest.h"
  53:Generated_Source\PSoC6/CapSense_1_Control.c **** #endif
  54:Generated_Source\PSoC6/CapSense_1_Control.c **** 
  55:Generated_Source\PSoC6/CapSense_1_Control.c **** #if (0u != CapSense_1_ADC_EN)
  56:Generated_Source\PSoC6/CapSense_1_Control.c ****     #include "CapSense_1_Adc.h"
  57:Generated_Source\PSoC6/CapSense_1_Control.c **** #endif /* (0u != CapSense_1_ADC_EN) */
  58:Generated_Source\PSoC6/CapSense_1_Control.c **** 
  59:Generated_Source\PSoC6/CapSense_1_Control.c **** #if ((CapSense_1_ENABLE == CapSense_1_GES_GLOBAL_EN) ||\
  60:Generated_Source\PSoC6/CapSense_1_Control.c ****      (CapSense_1_ENABLE == CapSense_1_BALLISTIC_MULTIPLIER_EN))
  61:Generated_Source\PSoC6/CapSense_1_Control.c ****     #include "CapSense_1_Gesture.h"
  62:Generated_Source\PSoC6/CapSense_1_Control.c **** #endif /* (CapSense_1_ENABLE == CapSense_1_GES_GLOBAL_EN) */
  63:Generated_Source\PSoC6/CapSense_1_Control.c **** 
  64:Generated_Source\PSoC6/CapSense_1_Control.c **** /**************************************************************************************************
  65:Generated_Source\PSoC6/CapSense_1_Control.c **** * Local definition
  66:Generated_Source\PSoC6/CapSense_1_Control.c **** ***************************************************************************************************
  67:Generated_Source\PSoC6/CapSense_1_Control.c **** #define CapSense_1_INIT_DONE   (1u)
  68:Generated_Source\PSoC6/CapSense_1_Control.c **** #define CapSense_1_INIT_NEEDED (0u)
  69:Generated_Source\PSoC6/CapSense_1_Control.c **** 
  70:Generated_Source\PSoC6/CapSense_1_Control.c **** /**************************************************************************************************
  71:Generated_Source\PSoC6/CapSense_1_Control.c **** * Local variables
  72:Generated_Source\PSoC6/CapSense_1_Control.c **** ***************************************************************************************************
  73:Generated_Source\PSoC6/CapSense_1_Control.c **** static uint8 CapSense_1_InitVar = CapSense_1_INIT_NEEDED;
  74:Generated_Source\PSoC6/CapSense_1_Control.c **** 
  75:Generated_Source\PSoC6/CapSense_1_Control.c **** /**************************************************************************************************
  76:Generated_Source\PSoC6/CapSense_1_Control.c **** * Local function
  77:Generated_Source\PSoC6/CapSense_1_Control.c **** ***************************************************************************************************
  78:Generated_Source\PSoC6/CapSense_1_Control.c **** #if (CY_SYSPM_DRV_VERSION_MAJOR < 4u)
  79:Generated_Source\PSoC6/CapSense_1_Control.c ****     static cy_en_syspm_status_t CapSense_1_SwitchPowerModeCallback(cy_stc_syspm_callback_params_t *
  80:Generated_Source\PSoC6/CapSense_1_Control.c **** #endif
  81:Generated_Source\PSoC6/CapSense_1_Control.c **** 
  82:Generated_Source\PSoC6/CapSense_1_Control.c **** /*******************************************************************************
  83:Generated_Source\PSoC6/CapSense_1_Control.c **** * Function Name: CapSense_1_Start
  84:Generated_Source\PSoC6/CapSense_1_Control.c **** ****************************************************************************//**
  85:Generated_Source\PSoC6/CapSense_1_Control.c **** *
  86:Generated_Source\PSoC6/CapSense_1_Control.c **** * \brief
ARM GAS  C:\Users\enes_\AppData\Local\Temp\cctsluYK.s 			page 3


  87:Generated_Source\PSoC6/CapSense_1_Control.c **** *  Initializes the Component hardware and firmware modules. This function is
  88:Generated_Source\PSoC6/CapSense_1_Control.c **** *  called by the application program prior to calling any other function of the
  89:Generated_Source\PSoC6/CapSense_1_Control.c **** *  Component.
  90:Generated_Source\PSoC6/CapSense_1_Control.c **** *
  91:Generated_Source\PSoC6/CapSense_1_Control.c **** * \details
  92:Generated_Source\PSoC6/CapSense_1_Control.c **** *  This function initializes the Component hardware and firmware modules and
  93:Generated_Source\PSoC6/CapSense_1_Control.c **** *  is called by the application program prior to calling any other API
  94:Generated_Source\PSoC6/CapSense_1_Control.c **** *  of the Component. When this function is called, the following tasks are
  95:Generated_Source\PSoC6/CapSense_1_Control.c **** *  executed as part of the initialization process:
  96:Generated_Source\PSoC6/CapSense_1_Control.c **** *    1. Initialize the registers of the \ref group_structures variable
  97:Generated_Source\PSoC6/CapSense_1_Control.c **** *       CapSense_1_dsRam based on the user selection in the Component
  98:Generated_Source\PSoC6/CapSense_1_Control.c **** *       configuration wizard.
  99:Generated_Source\PSoC6/CapSense_1_Control.c **** *    2. Configure the hardware to perform capacitive sensing.
 100:Generated_Source\PSoC6/CapSense_1_Control.c **** *    3. If SmartSense Auto-tuning is selected for the CSD Tuning mode in the
 101:Generated_Source\PSoC6/CapSense_1_Control.c **** *       Basic tab, the auto-tuning algorithm is executed to set the optimal
 102:Generated_Source\PSoC6/CapSense_1_Control.c **** *       values for the hardware parameters of the widgets/sensors.
 103:Generated_Source\PSoC6/CapSense_1_Control.c **** *    4. Calibrate the sensors and find the optimal values for IDACs of each
 104:Generated_Source\PSoC6/CapSense_1_Control.c **** *       widget / sensor, if the Enable IDAC auto-calibration is enabled in the
 105:Generated_Source\PSoC6/CapSense_1_Control.c **** *       CSD Setting or CSX Setting tabs.
 106:Generated_Source\PSoC6/CapSense_1_Control.c **** *    5. Perform scanning for all the sensors and initialize the baseline history.
 107:Generated_Source\PSoC6/CapSense_1_Control.c **** *    6. If the firmware filters are enabled in the Advanced General tab, the
 108:Generated_Source\PSoC6/CapSense_1_Control.c **** *       filter histories are also initialized.
 109:Generated_Source\PSoC6/CapSense_1_Control.c **** 
 110:Generated_Source\PSoC6/CapSense_1_Control.c **** *  Any next call of this API repeats an initialization process except for
 111:Generated_Source\PSoC6/CapSense_1_Control.c **** *  data structure initialization. Therefore, it is possible to change the
 112:Generated_Source\PSoC6/CapSense_1_Control.c **** *  Component configuration from the application program by writing registers to the
 113:Generated_Source\PSoC6/CapSense_1_Control.c **** *  data structure and calling this function again. This is also
 114:Generated_Source\PSoC6/CapSense_1_Control.c **** *  done inside the CapSense_1_RunTuner() function when a restart command
 115:Generated_Source\PSoC6/CapSense_1_Control.c **** *  is received.
 116:Generated_Source\PSoC6/CapSense_1_Control.c **** *
 117:Generated_Source\PSoC6/CapSense_1_Control.c **** *  When the Component operation is stopped by the CapSense_1_Stop()
 118:Generated_Source\PSoC6/CapSense_1_Control.c **** *  function, the CapSense_1_Start() function repeats an initialization
 119:Generated_Source\PSoC6/CapSense_1_Control.c **** *  process including data structure initialization.
 120:Generated_Source\PSoC6/CapSense_1_Control.c **** *
 121:Generated_Source\PSoC6/CapSense_1_Control.c **** * \return
 122:Generated_Source\PSoC6/CapSense_1_Control.c **** *  Returns the status of the initialization process. If CY_RET_SUCCESS is not
 123:Generated_Source\PSoC6/CapSense_1_Control.c **** *  received, some of the initialization fails and the Component may not operate
 124:Generated_Source\PSoC6/CapSense_1_Control.c **** *  as expected.
 125:Generated_Source\PSoC6/CapSense_1_Control.c **** *
 126:Generated_Source\PSoC6/CapSense_1_Control.c **** *******************************************************************************/
 127:Generated_Source\PSoC6/CapSense_1_Control.c **** cy_status CapSense_1_Start(void)
 128:Generated_Source\PSoC6/CapSense_1_Control.c **** {
 129:Generated_Source\PSoC6/CapSense_1_Control.c ****     cy_status result;
 130:Generated_Source\PSoC6/CapSense_1_Control.c **** 
 131:Generated_Source\PSoC6/CapSense_1_Control.c ****     /* Initialize CapSense_1 modules */
 132:Generated_Source\PSoC6/CapSense_1_Control.c ****     result = CapSense_1_Initialize();
 133:Generated_Source\PSoC6/CapSense_1_Control.c **** 
 134:Generated_Source\PSoC6/CapSense_1_Control.c ****     #if (CapSense_1_CSD_AUTOTUNE != CapSense_1_CSD_SS_DIS)
 135:Generated_Source\PSoC6/CapSense_1_Control.c ****         if (CY_RET_SUCCESS == result)
 136:Generated_Source\PSoC6/CapSense_1_Control.c ****         {
 137:Generated_Source\PSoC6/CapSense_1_Control.c ****             result = CapSense_1_SsAutoTune();
 138:Generated_Source\PSoC6/CapSense_1_Control.c ****         }
 139:Generated_Source\PSoC6/CapSense_1_Control.c ****     #endif /* #if (CapSense_1_CSD_AUTOTUNE != CapSense_1_CSD_SS_DIS) */
 140:Generated_Source\PSoC6/CapSense_1_Control.c **** 
 141:Generated_Source\PSoC6/CapSense_1_Control.c ****     #if ((0u != CapSense_1_CSX_IDAC_AUTOCAL_EN) || \
 142:Generated_Source\PSoC6/CapSense_1_Control.c ****         ((CapSense_1_CSD_AUTOTUNE == CapSense_1_CSD_SS_DIS) && (0u != CapSense_1_CSD_IDAC_AUTOCAL_E
 143:Generated_Source\PSoC6/CapSense_1_Control.c ****         if (CY_RET_SUCCESS == result)
ARM GAS  C:\Users\enes_\AppData\Local\Temp\cctsluYK.s 			page 4


 144:Generated_Source\PSoC6/CapSense_1_Control.c ****         {
 145:Generated_Source\PSoC6/CapSense_1_Control.c ****             result = CapSense_1_CalibrateAllWidgets();
 146:Generated_Source\PSoC6/CapSense_1_Control.c ****         }
 147:Generated_Source\PSoC6/CapSense_1_Control.c ****     #endif
 148:Generated_Source\PSoC6/CapSense_1_Control.c **** 
 149:Generated_Source\PSoC6/CapSense_1_Control.c ****     if (CY_RET_SUCCESS == result)
 150:Generated_Source\PSoC6/CapSense_1_Control.c ****     {
 151:Generated_Source\PSoC6/CapSense_1_Control.c ****         result = CapSense_1_ScanAllWidgets();
 152:Generated_Source\PSoC6/CapSense_1_Control.c ****     }
 153:Generated_Source\PSoC6/CapSense_1_Control.c **** 
 154:Generated_Source\PSoC6/CapSense_1_Control.c ****     while(CapSense_1_NOT_BUSY != CapSense_1_IsBusy()){}
 155:Generated_Source\PSoC6/CapSense_1_Control.c **** 
 156:Generated_Source\PSoC6/CapSense_1_Control.c ****     CapSense_1_FtInitialize();
 157:Generated_Source\PSoC6/CapSense_1_Control.c ****     CapSense_1_InitializeAllBaselines();
 158:Generated_Source\PSoC6/CapSense_1_Control.c **** 
 159:Generated_Source\PSoC6/CapSense_1_Control.c ****     #if(CapSense_1_ENABLE == CapSense_1_GES_GLOBAL_EN)
 160:Generated_Source\PSoC6/CapSense_1_Control.c ****         if (CY_RET_SUCCESS == result)
 161:Generated_Source\PSoC6/CapSense_1_Control.c ****         {
 162:Generated_Source\PSoC6/CapSense_1_Control.c ****             CapSense_1_InitializeGestures();
 163:Generated_Source\PSoC6/CapSense_1_Control.c ****         }
 164:Generated_Source\PSoC6/CapSense_1_Control.c ****     #endif /* (CapSense_1_ENABLE == CapSense_1_GES_GLOBAL_EN) */
 165:Generated_Source\PSoC6/CapSense_1_Control.c **** 
 166:Generated_Source\PSoC6/CapSense_1_Control.c ****     #if (0u != CapSense_1_BALLISTIC_MULTIPLIER_EN)
 167:Generated_Source\PSoC6/CapSense_1_Control.c ****         if (CY_RET_SUCCESS == result)
 168:Generated_Source\PSoC6/CapSense_1_Control.c ****         {
 169:Generated_Source\PSoC6/CapSense_1_Control.c ****             CapSense_1_InitializeBallisticMultiplier();
 170:Generated_Source\PSoC6/CapSense_1_Control.c ****         }
 171:Generated_Source\PSoC6/CapSense_1_Control.c ****     #endif /* (0u != CapSense_1_BALLISTIC_MULTIPLIER_EN) */
 172:Generated_Source\PSoC6/CapSense_1_Control.c **** 
 173:Generated_Source\PSoC6/CapSense_1_Control.c ****     #if (0u != CapSense_1_ADC_EN)
 174:Generated_Source\PSoC6/CapSense_1_Control.c ****         CapSense_1_AdcInitialize();
 175:Generated_Source\PSoC6/CapSense_1_Control.c ****     #endif /* (0u != CapSense_1_ADC_EN) */
 176:Generated_Source\PSoC6/CapSense_1_Control.c **** 
 177:Generated_Source\PSoC6/CapSense_1_Control.c ****     return result;
 178:Generated_Source\PSoC6/CapSense_1_Control.c **** }
 179:Generated_Source\PSoC6/CapSense_1_Control.c **** 
 180:Generated_Source\PSoC6/CapSense_1_Control.c **** /*******************************************************************************
 181:Generated_Source\PSoC6/CapSense_1_Control.c **** * Function Name: CapSense_1_Initialize
 182:Generated_Source\PSoC6/CapSense_1_Control.c **** ****************************************************************************//**
 183:Generated_Source\PSoC6/CapSense_1_Control.c **** *
 184:Generated_Source\PSoC6/CapSense_1_Control.c **** * \brief
 185:Generated_Source\PSoC6/CapSense_1_Control.c **** *  This function initializes the CapSense_1 Component.
 186:Generated_Source\PSoC6/CapSense_1_Control.c **** *
 187:Generated_Source\PSoC6/CapSense_1_Control.c **** * \details
 188:Generated_Source\PSoC6/CapSense_1_Control.c **** *  This API initializes all sub-modules of the CapSense_1 Component:
 189:Generated_Source\PSoC6/CapSense_1_Control.c **** *   - Data Structure - set the default Component parameters defined in the Customizer.
 190:Generated_Source\PSoC6/CapSense_1_Control.c **** *   - Data Processing - resets all widget statuses.
 191:Generated_Source\PSoC6/CapSense_1_Control.c **** *   - Tuner - resets tuning state.
 192:Generated_Source\PSoC6/CapSense_1_Control.c **** *   - Sensing - prepares CSD HW for operation.
 193:Generated_Source\PSoC6/CapSense_1_Control.c **** *
 194:Generated_Source\PSoC6/CapSense_1_Control.c **** *  Note that Data Structure module is initialized only once after the reset or
 195:Generated_Source\PSoC6/CapSense_1_Control.c **** *  CapSense_1_Stop() API is called. The repeated calls of Initialize API
 196:Generated_Source\PSoC6/CapSense_1_Control.c **** *  will not re-initialize Data Structure. This is done to preserve Component
 197:Generated_Source\PSoC6/CapSense_1_Control.c **** *  parameters that user may set in runtime.
 198:Generated_Source\PSoC6/CapSense_1_Control.c **** *
 199:Generated_Source\PSoC6/CapSense_1_Control.c **** * \return
 200:Generated_Source\PSoC6/CapSense_1_Control.c **** *  Return CY_RET_SUCCESS if the initialization was successful.
ARM GAS  C:\Users\enes_\AppData\Local\Temp\cctsluYK.s 			page 5


 201:Generated_Source\PSoC6/CapSense_1_Control.c **** *
 202:Generated_Source\PSoC6/CapSense_1_Control.c **** *******************************************************************************/
 203:Generated_Source\PSoC6/CapSense_1_Control.c **** cy_status CapSense_1_Initialize(void)
 204:Generated_Source\PSoC6/CapSense_1_Control.c **** {
  29              		.loc 1 204 0
  30              		.cfi_startproc
  31              		@ args = 0, pretend = 0, frame = 0
  32              		@ frame_needed = 0, uses_anonymous_args = 0
  33 0000 08B5     		push	{r3, lr}
  34              		.cfi_def_cfa_offset 8
  35              		.cfi_offset 3, -8
  36              		.cfi_offset 14, -4
 205:Generated_Source\PSoC6/CapSense_1_Control.c ****     cy_status result;
 206:Generated_Source\PSoC6/CapSense_1_Control.c **** 
 207:Generated_Source\PSoC6/CapSense_1_Control.c ****     /* The Data Structure and Tuner are initialized only once */
 208:Generated_Source\PSoC6/CapSense_1_Control.c ****     if (CapSense_1_INIT_NEEDED == CapSense_1_InitVar)
  37              		.loc 1 208 0
  38 0002 074B     		ldr	r3, .L4
  39 0004 1B78     		ldrb	r3, [r3]	@ zero_extendqisi2
  40 0006 33B9     		cbnz	r3, .L2
 209:Generated_Source\PSoC6/CapSense_1_Control.c ****     {
 210:Generated_Source\PSoC6/CapSense_1_Control.c ****         CapSense_1_DsInitialize();
  41              		.loc 1 210 0
  42 0008 FFF7FEFF 		bl	CapSense_1_DsInitialize
  43              	.LVL0:
 211:Generated_Source\PSoC6/CapSense_1_Control.c ****         CapSense_1_TuInitialize();
  44              		.loc 1 211 0
  45 000c FFF7FEFF 		bl	CapSense_1_TuInitialize
  46              	.LVL1:
 212:Generated_Source\PSoC6/CapSense_1_Control.c ****         CapSense_1_InitVar = CapSense_1_INIT_DONE;
  47              		.loc 1 212 0
  48 0010 0122     		movs	r2, #1
  49 0012 034B     		ldr	r3, .L4
  50 0014 1A70     		strb	r2, [r3]
  51              	.L2:
 213:Generated_Source\PSoC6/CapSense_1_Control.c ****     }
 214:Generated_Source\PSoC6/CapSense_1_Control.c **** 
 215:Generated_Source\PSoC6/CapSense_1_Control.c ****     CapSense_1_DpInitialize();
  52              		.loc 1 215 0
  53 0016 FFF7FEFF 		bl	CapSense_1_DpInitialize
  54              	.LVL2:
 216:Generated_Source\PSoC6/CapSense_1_Control.c **** 
 217:Generated_Source\PSoC6/CapSense_1_Control.c ****     result = CapSense_1_SsInitialize();
  55              		.loc 1 217 0
  56 001a FFF7FEFF 		bl	CapSense_1_SsInitialize
  57              	.LVL3:
 218:Generated_Source\PSoC6/CapSense_1_Control.c **** 
 219:Generated_Source\PSoC6/CapSense_1_Control.c ****     return result;
 220:Generated_Source\PSoC6/CapSense_1_Control.c **** }
  58              		.loc 1 220 0
  59 001e 08BD     		pop	{r3, pc}
  60              	.L5:
  61              		.align	2
  62              	.L4:
  63 0020 00000000 		.word	.LANCHOR0
  64              		.cfi_endproc
  65              	.LFE268:
ARM GAS  C:\Users\enes_\AppData\Local\Temp\cctsluYK.s 			page 6


  66              		.size	CapSense_1_Initialize, .-CapSense_1_Initialize
  67              		.section	.text.CapSense_1_Start,"ax",%progbits
  68              		.align	2
  69              		.global	CapSense_1_Start
  70              		.thumb
  71              		.thumb_func
  72              		.type	CapSense_1_Start, %function
  73              	CapSense_1_Start:
  74              	.LFB267:
 128:Generated_Source\PSoC6/CapSense_1_Control.c ****     cy_status result;
  75              		.loc 1 128 0
  76              		.cfi_startproc
  77              		@ args = 0, pretend = 0, frame = 0
  78              		@ frame_needed = 0, uses_anonymous_args = 0
  79 0000 10B5     		push	{r4, lr}
  80              		.cfi_def_cfa_offset 8
  81              		.cfi_offset 4, -8
  82              		.cfi_offset 14, -4
 132:Generated_Source\PSoC6/CapSense_1_Control.c **** 
  83              		.loc 1 132 0
  84 0002 FFF7FEFF 		bl	CapSense_1_Initialize
  85              	.LVL4:
 135:Generated_Source\PSoC6/CapSense_1_Control.c ****         {
  86              		.loc 1 135 0
  87 0006 0446     		mov	r4, r0
  88 0008 10B9     		cbnz	r0, .L7
 137:Generated_Source\PSoC6/CapSense_1_Control.c ****         }
  89              		.loc 1 137 0
  90 000a FFF7FEFF 		bl	CapSense_1_SsAutoTune
  91              	.LVL5:
  92 000e 0446     		mov	r4, r0
  93              	.LVL6:
  94              	.L7:
 143:Generated_Source\PSoC6/CapSense_1_Control.c ****         {
  95              		.loc 1 143 0
  96 0010 14B9     		cbnz	r4, .L8
 145:Generated_Source\PSoC6/CapSense_1_Control.c ****         }
  97              		.loc 1 145 0
  98 0012 FFF7FEFF 		bl	CapSense_1_CalibrateAllWidgets
  99              	.LVL7:
 100 0016 0446     		mov	r4, r0
 101              	.LVL8:
 102              	.L8:
 149:Generated_Source\PSoC6/CapSense_1_Control.c ****     {
 103              		.loc 1 149 0
 104 0018 14B9     		cbnz	r4, .L10
 151:Generated_Source\PSoC6/CapSense_1_Control.c ****     }
 105              		.loc 1 151 0
 106 001a FFF7FEFF 		bl	CapSense_1_ScanAllWidgets
 107              	.LVL9:
 108 001e 0446     		mov	r4, r0
 109              	.LVL10:
 110              	.L10:
 154:Generated_Source\PSoC6/CapSense_1_Control.c **** 
 111              		.loc 1 154 0 discriminator 1
 112 0020 FFF7FEFF 		bl	CapSense_1_IsBusy
 113              	.LVL11:
ARM GAS  C:\Users\enes_\AppData\Local\Temp\cctsluYK.s 			page 7


 114 0024 0028     		cmp	r0, #0
 115 0026 FBD1     		bne	.L10
 156:Generated_Source\PSoC6/CapSense_1_Control.c ****     CapSense_1_InitializeAllBaselines();
 116              		.loc 1 156 0
 117 0028 FFF7FEFF 		bl	CapSense_1_FtInitialize
 118              	.LVL12:
 157:Generated_Source\PSoC6/CapSense_1_Control.c **** 
 119              		.loc 1 157 0
 120 002c FFF7FEFF 		bl	CapSense_1_InitializeAllBaselines
 121              	.LVL13:
 178:Generated_Source\PSoC6/CapSense_1_Control.c **** 
 122              		.loc 1 178 0
 123 0030 2046     		mov	r0, r4
 124 0032 10BD     		pop	{r4, pc}
 125              		.cfi_endproc
 126              	.LFE267:
 127              		.size	CapSense_1_Start, .-CapSense_1_Start
 128              		.section	.text.CapSense_1_Stop,"ax",%progbits
 129              		.align	2
 130              		.global	CapSense_1_Stop
 131              		.thumb
 132              		.thumb_func
 133              		.type	CapSense_1_Stop, %function
 134              	CapSense_1_Stop:
 135              	.LFB269:
 221:Generated_Source\PSoC6/CapSense_1_Control.c **** 
 222:Generated_Source\PSoC6/CapSense_1_Control.c **** /*******************************************************************************
 223:Generated_Source\PSoC6/CapSense_1_Control.c **** * Function Name: CapSense_1_Stop
 224:Generated_Source\PSoC6/CapSense_1_Control.c **** ****************************************************************************//**
 225:Generated_Source\PSoC6/CapSense_1_Control.c **** *
 226:Generated_Source\PSoC6/CapSense_1_Control.c **** * \brief
 227:Generated_Source\PSoC6/CapSense_1_Control.c **** *  Stops the Component operation.
 228:Generated_Source\PSoC6/CapSense_1_Control.c **** *
 229:Generated_Source\PSoC6/CapSense_1_Control.c **** * \details
 230:Generated_Source\PSoC6/CapSense_1_Control.c **** *  This function stops the Component operation, no sensor scanning can be
 231:Generated_Source\PSoC6/CapSense_1_Control.c **** *  executed when the Component is stopped. Once stopped, the hardware block may
 232:Generated_Source\PSoC6/CapSense_1_Control.c **** *  be reconfigured by the application program for any other special usage. The
 233:Generated_Source\PSoC6/CapSense_1_Control.c **** *  Component operation can be resumed by calling the CapSense_1_Resume()
 234:Generated_Source\PSoC6/CapSense_1_Control.c **** *  function or the Component can be reset by calling the
 235:Generated_Source\PSoC6/CapSense_1_Control.c **** *  CapSense_1_Start() function.
 236:Generated_Source\PSoC6/CapSense_1_Control.c **** *
 237:Generated_Source\PSoC6/CapSense_1_Control.c **** *  This function is called when no scanning is in progress.
 238:Generated_Source\PSoC6/CapSense_1_Control.c **** *  I.e. CapSense_1_IsBusy() returns a non-busy status.
 239:Generated_Source\PSoC6/CapSense_1_Control.c **** *
 240:Generated_Source\PSoC6/CapSense_1_Control.c **** * \return
 241:Generated_Source\PSoC6/CapSense_1_Control.c **** *  Returns the status of the stop process. If CY_RET_SUCCESS is not received,
 242:Generated_Source\PSoC6/CapSense_1_Control.c **** *  the stop process fails and retries may be required.
 243:Generated_Source\PSoC6/CapSense_1_Control.c **** *
 244:Generated_Source\PSoC6/CapSense_1_Control.c **** *******************************************************************************/
 245:Generated_Source\PSoC6/CapSense_1_Control.c **** cy_status CapSense_1_Stop(void)
 246:Generated_Source\PSoC6/CapSense_1_Control.c **** {
 136              		.loc 1 246 0
 137              		.cfi_startproc
 138              		@ args = 0, pretend = 0, frame = 0
 139              		@ frame_needed = 0, uses_anonymous_args = 0
 140              		@ link register save eliminated.
 141              	.LVL14:
ARM GAS  C:\Users\enes_\AppData\Local\Temp\cctsluYK.s 			page 8


 247:Generated_Source\PSoC6/CapSense_1_Control.c ****     cy_status result = CY_RET_SUCCESS;
 248:Generated_Source\PSoC6/CapSense_1_Control.c **** 
 249:Generated_Source\PSoC6/CapSense_1_Control.c ****     #if (CapSense_1_ENABLE == CapSense_1_ADC_EN)
 250:Generated_Source\PSoC6/CapSense_1_Control.c ****         /* Release CSD resources */
 251:Generated_Source\PSoC6/CapSense_1_Control.c ****         result = CapSense_1_SsReleaseResources();
 252:Generated_Source\PSoC6/CapSense_1_Control.c **** 
 253:Generated_Source\PSoC6/CapSense_1_Control.c ****         /* Release ADC resources */
 254:Generated_Source\PSoC6/CapSense_1_Control.c ****         CapSense_1_AdcStop();
 255:Generated_Source\PSoC6/CapSense_1_Control.c ****     #endif /* (CapSense_1_ENABLE == CapSense_1_ADC_EN) */
 256:Generated_Source\PSoC6/CapSense_1_Control.c **** 
 257:Generated_Source\PSoC6/CapSense_1_Control.c ****     CapSense_1_InitVar = CapSense_1_INIT_NEEDED;
 142              		.loc 1 257 0
 143 0000 0020     		movs	r0, #0
 144 0002 014B     		ldr	r3, .L13
 145 0004 1870     		strb	r0, [r3]
 258:Generated_Source\PSoC6/CapSense_1_Control.c **** 
 259:Generated_Source\PSoC6/CapSense_1_Control.c ****     return result;
 260:Generated_Source\PSoC6/CapSense_1_Control.c **** }
 146              		.loc 1 260 0
 147 0006 7047     		bx	lr
 148              	.L14:
 149              		.align	2
 150              	.L13:
 151 0008 00000000 		.word	.LANCHOR0
 152              		.cfi_endproc
 153              	.LFE269:
 154              		.size	CapSense_1_Stop, .-CapSense_1_Stop
 155              		.section	.text.CapSense_1_Resume,"ax",%progbits
 156              		.align	2
 157              		.global	CapSense_1_Resume
 158              		.thumb
 159              		.thumb_func
 160              		.type	CapSense_1_Resume, %function
 161              	CapSense_1_Resume:
 162              	.LFB270:
 261:Generated_Source\PSoC6/CapSense_1_Control.c **** 
 262:Generated_Source\PSoC6/CapSense_1_Control.c **** /*******************************************************************************
 263:Generated_Source\PSoC6/CapSense_1_Control.c **** * Function Name: CapSense_1_Resume
 264:Generated_Source\PSoC6/CapSense_1_Control.c **** ****************************************************************************//**
 265:Generated_Source\PSoC6/CapSense_1_Control.c **** *
 266:Generated_Source\PSoC6/CapSense_1_Control.c **** * \brief
 267:Generated_Source\PSoC6/CapSense_1_Control.c **** *  Resumes the Component operation if the CapSense_1_Stop() function was
 268:Generated_Source\PSoC6/CapSense_1_Control.c **** *  called previously.
 269:Generated_Source\PSoC6/CapSense_1_Control.c **** *
 270:Generated_Source\PSoC6/CapSense_1_Control.c **** * \details
 271:Generated_Source\PSoC6/CapSense_1_Control.c **** *  This function resumes the Component operation if the operation is stopped
 272:Generated_Source\PSoC6/CapSense_1_Control.c **** *  previously by the CapSense_1_Stop() function. The following tasks are
 273:Generated_Source\PSoC6/CapSense_1_Control.c **** *  executed as part of the operation resume process:
 274:Generated_Source\PSoC6/CapSense_1_Control.c **** *    1. Reset all the Widgets/Sensors statuses.
 275:Generated_Source\PSoC6/CapSense_1_Control.c **** *    2. Configure the hardware to perform capacitive sensing.
 276:Generated_Source\PSoC6/CapSense_1_Control.c **** *
 277:Generated_Source\PSoC6/CapSense_1_Control.c **** * \return
 278:Generated_Source\PSoC6/CapSense_1_Control.c **** *  Returns the status of the resume process. If CY_RET_SUCCESS is not received,
 279:Generated_Source\PSoC6/CapSense_1_Control.c **** *  the resume process fails and retries may be required.
 280:Generated_Source\PSoC6/CapSense_1_Control.c **** *
 281:Generated_Source\PSoC6/CapSense_1_Control.c **** *******************************************************************************/
 282:Generated_Source\PSoC6/CapSense_1_Control.c **** cy_status CapSense_1_Resume(void)
ARM GAS  C:\Users\enes_\AppData\Local\Temp\cctsluYK.s 			page 9


 283:Generated_Source\PSoC6/CapSense_1_Control.c **** {
 163              		.loc 1 283 0
 164              		.cfi_startproc
 165              		@ args = 0, pretend = 0, frame = 0
 166              		@ frame_needed = 0, uses_anonymous_args = 0
 167 0000 08B5     		push	{r3, lr}
 168              		.cfi_def_cfa_offset 8
 169              		.cfi_offset 3, -8
 170              		.cfi_offset 14, -4
 284:Generated_Source\PSoC6/CapSense_1_Control.c ****     cy_status result;
 285:Generated_Source\PSoC6/CapSense_1_Control.c **** 
 286:Generated_Source\PSoC6/CapSense_1_Control.c ****     /* The Tuner are initialized only once in order not to break communication */
 287:Generated_Source\PSoC6/CapSense_1_Control.c ****     if (CapSense_1_INIT_NEEDED == CapSense_1_InitVar)
 171              		.loc 1 287 0
 172 0002 064B     		ldr	r3, .L18
 173 0004 1B78     		ldrb	r3, [r3]	@ zero_extendqisi2
 174 0006 23B9     		cbnz	r3, .L16
 288:Generated_Source\PSoC6/CapSense_1_Control.c ****     {
 289:Generated_Source\PSoC6/CapSense_1_Control.c ****         CapSense_1_TuInitialize();
 175              		.loc 1 289 0
 176 0008 FFF7FEFF 		bl	CapSense_1_TuInitialize
 177              	.LVL15:
 290:Generated_Source\PSoC6/CapSense_1_Control.c ****         CapSense_1_InitVar = CapSense_1_INIT_DONE;
 178              		.loc 1 290 0
 179 000c 0122     		movs	r2, #1
 180 000e 034B     		ldr	r3, .L18
 181 0010 1A70     		strb	r2, [r3]
 182              	.L16:
 291:Generated_Source\PSoC6/CapSense_1_Control.c ****     }
 292:Generated_Source\PSoC6/CapSense_1_Control.c ****     CapSense_1_DpInitialize();
 183              		.loc 1 292 0
 184 0012 FFF7FEFF 		bl	CapSense_1_DpInitialize
 185              	.LVL16:
 293:Generated_Source\PSoC6/CapSense_1_Control.c **** 
 294:Generated_Source\PSoC6/CapSense_1_Control.c ****     result = CapSense_1_SsInitialize();
 186              		.loc 1 294 0
 187 0016 FFF7FEFF 		bl	CapSense_1_SsInitialize
 188              	.LVL17:
 295:Generated_Source\PSoC6/CapSense_1_Control.c **** 
 296:Generated_Source\PSoC6/CapSense_1_Control.c ****     return result;
 297:Generated_Source\PSoC6/CapSense_1_Control.c **** }
 189              		.loc 1 297 0
 190 001a 08BD     		pop	{r3, pc}
 191              	.L19:
 192              		.align	2
 193              	.L18:
 194 001c 00000000 		.word	.LANCHOR0
 195              		.cfi_endproc
 196              	.LFE270:
 197              		.size	CapSense_1_Resume, .-CapSense_1_Resume
 198              		.section	.text.CapSense_1_ProcessAllWidgets,"ax",%progbits
 199              		.align	2
 200              		.global	CapSense_1_ProcessAllWidgets
 201              		.thumb
 202              		.thumb_func
 203              		.type	CapSense_1_ProcessAllWidgets, %function
 204              	CapSense_1_ProcessAllWidgets:
ARM GAS  C:\Users\enes_\AppData\Local\Temp\cctsluYK.s 			page 10


 205              	.LFB271:
 298:Generated_Source\PSoC6/CapSense_1_Control.c **** 
 299:Generated_Source\PSoC6/CapSense_1_Control.c **** /*******************************************************************************
 300:Generated_Source\PSoC6/CapSense_1_Control.c **** * Function Name: CapSense_1_ProcessAllWidgets
 301:Generated_Source\PSoC6/CapSense_1_Control.c **** ****************************************************************************//**
 302:Generated_Source\PSoC6/CapSense_1_Control.c **** *
 303:Generated_Source\PSoC6/CapSense_1_Control.c **** * \brief
 304:Generated_Source\PSoC6/CapSense_1_Control.c **** *  Performs full data processing of all enabled widgets.
 305:Generated_Source\PSoC6/CapSense_1_Control.c **** *
 306:Generated_Source\PSoC6/CapSense_1_Control.c **** * \details
 307:Generated_Source\PSoC6/CapSense_1_Control.c **** *  This function performs all data processes for all enabled widgets in the
 308:Generated_Source\PSoC6/CapSense_1_Control.c **** *  Component. The following tasks are executed as part of processing all the
 309:Generated_Source\PSoC6/CapSense_1_Control.c **** *  widgets:
 310:Generated_Source\PSoC6/CapSense_1_Control.c **** *    1. Apply raw count filters to the raw counts, if they are enabled in the
 311:Generated_Source\PSoC6/CapSense_1_Control.c **** *       customizer.
 312:Generated_Source\PSoC6/CapSense_1_Control.c **** *    2. Update the thresholds if the SmartSense Full Auto-Tuning is enabled in
 313:Generated_Source\PSoC6/CapSense_1_Control.c **** *       the customizer.
 314:Generated_Source\PSoC6/CapSense_1_Control.c **** *    3. Update the baselines and difference counts for all the sensors.
 315:Generated_Source\PSoC6/CapSense_1_Control.c **** *    4. Update the sensor and widget status (on/off), update the centroid for
 316:Generated_Source\PSoC6/CapSense_1_Control.c **** *       the sliders and the X/Y position for the touchpads.
 317:Generated_Source\PSoC6/CapSense_1_Control.c **** *
 318:Generated_Source\PSoC6/CapSense_1_Control.c **** *  This function is called by an application program only after all the enabled
 319:Generated_Source\PSoC6/CapSense_1_Control.c **** *  widgets (and sensors) in the Component is scanned. Calling this function
 320:Generated_Source\PSoC6/CapSense_1_Control.c **** *  multiple times without sensor scanning causes unexpected behavior.
 321:Generated_Source\PSoC6/CapSense_1_Control.c **** *
 322:Generated_Source\PSoC6/CapSense_1_Control.c **** *  The disabled widgets are not processed by this function. To disable/enable
 323:Generated_Source\PSoC6/CapSense_1_Control.c **** *  a widget, set the appropriate values in the
 324:Generated_Source\PSoC6/CapSense_1_Control.c **** *  CapSense_1_WDGT_ENABLE<RegisterNumber>_PARAM_ID register using the
 325:Generated_Source\PSoC6/CapSense_1_Control.c **** *  CapSense_1_SetParam() function.
 326:Generated_Source\PSoC6/CapSense_1_Control.c **** *
 327:Generated_Source\PSoC6/CapSense_1_Control.c **** *  If the Ballistic multiplier filter is enabled the Timestamp must be
 328:Generated_Source\PSoC6/CapSense_1_Control.c **** *  updated before calling this function using the
 329:Generated_Source\PSoC6/CapSense_1_Control.c **** *  CapSense_1_IncrementGestureTimestamp() function.
 330:Generated_Source\PSoC6/CapSense_1_Control.c **** *
 331:Generated_Source\PSoC6/CapSense_1_Control.c **** *  If the Self-test library is enabled, this function executes the baseline duplication
 332:Generated_Source\PSoC6/CapSense_1_Control.c **** *  test. Refer to CapSense_1_CheckBaselineDuplication() for details.
 333:Generated_Source\PSoC6/CapSense_1_Control.c **** *
 334:Generated_Source\PSoC6/CapSense_1_Control.c **** * \return
 335:Generated_Source\PSoC6/CapSense_1_Control.c **** *  Returns the status of the processing operation. If CY_RET_SUCCESS is not received,
 336:Generated_Source\PSoC6/CapSense_1_Control.c **** *  the processing fails and retries may be required.
 337:Generated_Source\PSoC6/CapSense_1_Control.c **** *
 338:Generated_Source\PSoC6/CapSense_1_Control.c **** *******************************************************************************/
 339:Generated_Source\PSoC6/CapSense_1_Control.c **** cy_status CapSense_1_ProcessAllWidgets(void)
 340:Generated_Source\PSoC6/CapSense_1_Control.c **** {
 206              		.loc 1 340 0
 207              		.cfi_startproc
 208              		@ args = 0, pretend = 0, frame = 0
 209              		@ frame_needed = 0, uses_anonymous_args = 0
 210 0000 70B5     		push	{r4, r5, r6, lr}
 211              		.cfi_def_cfa_offset 16
 212              		.cfi_offset 4, -16
 213              		.cfi_offset 5, -12
 214              		.cfi_offset 6, -8
 215              		.cfi_offset 14, -4
 216              	.LVL18:
 341:Generated_Source\PSoC6/CapSense_1_Control.c ****     uint32 wdgtId;
 342:Generated_Source\PSoC6/CapSense_1_Control.c ****     cy_status result = CY_RET_SUCCESS;
ARM GAS  C:\Users\enes_\AppData\Local\Temp\cctsluYK.s 			page 11


 343:Generated_Source\PSoC6/CapSense_1_Control.c ****     CapSense_1_FLASH_WD_STRUCT const *ptrFlashWdgt;
 344:Generated_Source\PSoC6/CapSense_1_Control.c **** 
 345:Generated_Source\PSoC6/CapSense_1_Control.c ****     ptrFlashWdgt = CapSense_1_dsFlash.wdgtArray;
 217              		.loc 1 345 0
 218 0002 194D     		ldr	r5, .L29
 342:Generated_Source\PSoC6/CapSense_1_Control.c ****     CapSense_1_FLASH_WD_STRUCT const *ptrFlashWdgt;
 219              		.loc 1 342 0
 220 0004 0026     		movs	r6, #0
 346:Generated_Source\PSoC6/CapSense_1_Control.c **** 
 347:Generated_Source\PSoC6/CapSense_1_Control.c ****     for (wdgtId = 0u; wdgtId < CapSense_1_TOTAL_WIDGETS; wdgtId++)
 221              		.loc 1 347 0
 222 0006 3446     		mov	r4, r6
 223 0008 29E0     		b	.L21
 224              	.LVL19:
 225              	.L26:
 348:Generated_Source\PSoC6/CapSense_1_Control.c ****     {
 349:Generated_Source\PSoC6/CapSense_1_Control.c ****         if (0uL != CapSense_1_GET_WIDGET_EN_STATUS(wdgtId))
 226              		.loc 1 349 0
 227 000a 6309     		lsrs	r3, r4, #5
 228 000c 0433     		adds	r3, r3, #4
 229 000e 174A     		ldr	r2, .L29+4
 230 0010 52F82330 		ldr	r3, [r2, r3, lsl #2]
 231 0014 04F01F02 		and	r2, r4, #31
 232 0018 D340     		lsrs	r3, r3, r2
 233 001a 13F0010F 		tst	r3, #1
 234 001e 1CD0     		beq	.L22
 350:Generated_Source\PSoC6/CapSense_1_Control.c ****         {
 351:Generated_Source\PSoC6/CapSense_1_Control.c ****             switch(CapSense_1_GET_SENSE_METHOD(ptrFlashWdgt))
 235              		.loc 1 351 0
 236 0020 EB7E     		ldrb	r3, [r5, #27]	@ zero_extendqisi2
 237 0022 012B     		cmp	r3, #1
 238 0024 02D0     		beq	.L24
 239 0026 022B     		cmp	r3, #2
 240 0028 09D0     		beq	.L25
 241 002a 11E0     		b	.L27
 242              	.L24:
 352:Generated_Source\PSoC6/CapSense_1_Control.c ****             {
 353:Generated_Source\PSoC6/CapSense_1_Control.c ****             #if (0u != CapSense_1_TOTAL_CSD_WIDGETS)
 354:Generated_Source\PSoC6/CapSense_1_Control.c ****                 case CapSense_1_SENSE_METHOD_CSD_E:
 355:Generated_Source\PSoC6/CapSense_1_Control.c ****                     result = CapSense_1_DpProcessCsdWidgetRawCounts(ptrFlashWdgt);
 243              		.loc 1 355 0
 244 002c 2846     		mov	r0, r5
 245 002e FFF7FEFF 		bl	CapSense_1_DpProcessCsdWidgetRawCounts
 246              	.LVL20:
 247 0032 0646     		mov	r6, r0
 248              	.LVL21:
 356:Generated_Source\PSoC6/CapSense_1_Control.c ****                     CapSense_1_DpProcessCsdWidgetStatus(wdgtId, ptrFlashWdgt);
 249              		.loc 1 356 0
 250 0034 2946     		mov	r1, r5
 251 0036 2046     		mov	r0, r4
 252              	.LVL22:
 253 0038 FFF7FEFF 		bl	CapSense_1_DpProcessCsdWidgetStatus
 254              	.LVL23:
 357:Generated_Source\PSoC6/CapSense_1_Control.c ****                     break;
 255              		.loc 1 357 0
 256 003c 0DE0     		b	.L22
 257              	.L25:
ARM GAS  C:\Users\enes_\AppData\Local\Temp\cctsluYK.s 			page 12


 358:Generated_Source\PSoC6/CapSense_1_Control.c ****             #endif /* #if (0u != CapSense_1_TOTAL_CSD_WIDGETS) */
 359:Generated_Source\PSoC6/CapSense_1_Control.c **** 
 360:Generated_Source\PSoC6/CapSense_1_Control.c ****             #if (0u != CapSense_1_TOTAL_CSX_WIDGETS)
 361:Generated_Source\PSoC6/CapSense_1_Control.c ****                 case CapSense_1_SENSE_METHOD_CSX_E:
 362:Generated_Source\PSoC6/CapSense_1_Control.c ****                     result = CapSense_1_DpProcessCsxWidgetRawCounts(ptrFlashWdgt);
 258              		.loc 1 362 0
 259 003e 2846     		mov	r0, r5
 260 0040 FFF7FEFF 		bl	CapSense_1_DpProcessCsxWidgetRawCounts
 261              	.LVL24:
 262 0044 0646     		mov	r6, r0
 263              	.LVL25:
 363:Generated_Source\PSoC6/CapSense_1_Control.c ****                     CapSense_1_DpProcessCsxWidgetStatus(wdgtId, ptrFlashWdgt);
 264              		.loc 1 363 0
 265 0046 2946     		mov	r1, r5
 266 0048 2046     		mov	r0, r4
 267              	.LVL26:
 268 004a FFF7FEFF 		bl	CapSense_1_DpProcessCsxWidgetStatus
 269              	.LVL27:
 364:Generated_Source\PSoC6/CapSense_1_Control.c ****                     break;
 270              		.loc 1 364 0
 271 004e 04E0     		b	.L22
 272              	.L27:
 365:Generated_Source\PSoC6/CapSense_1_Control.c ****             #endif /* #if (0u != CapSense_1_TOTAL_CSX_WIDGETS) */
 366:Generated_Source\PSoC6/CapSense_1_Control.c **** 
 367:Generated_Source\PSoC6/CapSense_1_Control.c ****             default:
 368:Generated_Source\PSoC6/CapSense_1_Control.c ****                 CY_ASSERT(0 != 0);
 273              		.loc 1 368 0 discriminator 1
 274 0050 4FF4B871 		mov	r1, #368
 275 0054 0648     		ldr	r0, .L29+8
 276 0056 FFF7FEFF 		bl	Cy_SysLib_AssertFailed
 277              	.LVL28:
 278              	.L22:
 369:Generated_Source\PSoC6/CapSense_1_Control.c ****                 break;
 370:Generated_Source\PSoC6/CapSense_1_Control.c ****             }
 371:Generated_Source\PSoC6/CapSense_1_Control.c **** 
 372:Generated_Source\PSoC6/CapSense_1_Control.c ****             #if (CapSense_1_ENABLE == CapSense_1_TST_BSLN_DUPLICATION_EN)
 373:Generated_Source\PSoC6/CapSense_1_Control.c ****                 if (CY_RET_SUCCESS != result)
 374:Generated_Source\PSoC6/CapSense_1_Control.c ****                 {
 375:Generated_Source\PSoC6/CapSense_1_Control.c ****                     CapSense_1_UpdateTestResultBaselineDuplication(wdgtId, result);
 376:Generated_Source\PSoC6/CapSense_1_Control.c ****                     result = CY_RET_BAD_DATA;
 377:Generated_Source\PSoC6/CapSense_1_Control.c ****                 }
 378:Generated_Source\PSoC6/CapSense_1_Control.c ****             #endif /* (CapSense_1_ENABLE == CapSense_1_TST_BSLN_DUPLICATION_EN) */
 379:Generated_Source\PSoC6/CapSense_1_Control.c **** 
 380:Generated_Source\PSoC6/CapSense_1_Control.c ****         }
 381:Generated_Source\PSoC6/CapSense_1_Control.c ****         ptrFlashWdgt++;
 279              		.loc 1 381 0 discriminator 2
 280 005a 2C35     		adds	r5, r5, #44
 281              	.LVL29:
 347:Generated_Source\PSoC6/CapSense_1_Control.c ****     {
 282              		.loc 1 347 0 discriminator 2
 283 005c 0134     		adds	r4, r4, #1
 284              	.LVL30:
 285              	.L21:
 347:Generated_Source\PSoC6/CapSense_1_Control.c ****     {
 286              		.loc 1 347 0 is_stmt 0 discriminator 1
 287 005e 022C     		cmp	r4, #2
 288 0060 D3D9     		bls	.L26
ARM GAS  C:\Users\enes_\AppData\Local\Temp\cctsluYK.s 			page 13


 382:Generated_Source\PSoC6/CapSense_1_Control.c ****     }
 383:Generated_Source\PSoC6/CapSense_1_Control.c ****     return result;
 384:Generated_Source\PSoC6/CapSense_1_Control.c **** }
 289              		.loc 1 384 0 is_stmt 1
 290 0062 3046     		mov	r0, r6
 291 0064 70BD     		pop	{r4, r5, r6, pc}
 292              	.LVL31:
 293              	.L30:
 294 0066 00BF     		.align	2
 295              	.L29:
 296 0068 00000000 		.word	CapSense_1_dsFlash
 297 006c 00000000 		.word	CapSense_1_dsRam
 298 0070 00000000 		.word	.LC0
 299              		.cfi_endproc
 300              	.LFE271:
 301              		.size	CapSense_1_ProcessAllWidgets, .-CapSense_1_ProcessAllWidgets
 302              		.section	.text.CapSense_1_ProcessWidget,"ax",%progbits
 303              		.align	2
 304              		.global	CapSense_1_ProcessWidget
 305              		.thumb
 306              		.thumb_func
 307              		.type	CapSense_1_ProcessWidget, %function
 308              	CapSense_1_ProcessWidget:
 309              	.LFB272:
 385:Generated_Source\PSoC6/CapSense_1_Control.c **** 
 386:Generated_Source\PSoC6/CapSense_1_Control.c **** /*******************************************************************************
 387:Generated_Source\PSoC6/CapSense_1_Control.c **** * Function Name: CapSense_1_ProcessWidget
 388:Generated_Source\PSoC6/CapSense_1_Control.c **** ****************************************************************************//**
 389:Generated_Source\PSoC6/CapSense_1_Control.c **** *
 390:Generated_Source\PSoC6/CapSense_1_Control.c **** * \brief
 391:Generated_Source\PSoC6/CapSense_1_Control.c **** *  Performs full data processing of the specified widget if it is enabled.
 392:Generated_Source\PSoC6/CapSense_1_Control.c **** *
 393:Generated_Source\PSoC6/CapSense_1_Control.c **** * \details
 394:Generated_Source\PSoC6/CapSense_1_Control.c **** *  This function performs exactly the same tasks as
 395:Generated_Source\PSoC6/CapSense_1_Control.c **** *  CapSense_1_ProcessAllWidgets(), but only for a specified widget. This
 396:Generated_Source\PSoC6/CapSense_1_Control.c **** *  function can be used along with the CapSense_1_SetupWidget() and
 397:Generated_Source\PSoC6/CapSense_1_Control.c **** *  CapSense_1_Scan() functions to scan and process data for a specific
 398:Generated_Source\PSoC6/CapSense_1_Control.c **** *  widget. This function is called only after all the sensors in the
 399:Generated_Source\PSoC6/CapSense_1_Control.c **** *  widgets are scanned. A disabled widget is not processed by this function.
 400:Generated_Source\PSoC6/CapSense_1_Control.c **** *
 401:Generated_Source\PSoC6/CapSense_1_Control.c **** *  A pipeline scan method (i.e. during scanning of a widget perform processing
 402:Generated_Source\PSoC6/CapSense_1_Control.c **** *  of the previously scanned widget) can be implemented using this function and
 403:Generated_Source\PSoC6/CapSense_1_Control.c **** *  it may reduce the total execution time, increase the refresh rate and
 404:Generated_Source\PSoC6/CapSense_1_Control.c **** *  decrease the average power consumption.
 405:Generated_Source\PSoC6/CapSense_1_Control.c **** *
 406:Generated_Source\PSoC6/CapSense_1_Control.c **** *  If the Ballistic multiplier filter is enabled the Timestamp must be
 407:Generated_Source\PSoC6/CapSense_1_Control.c **** *  updated before calling this function using the
 408:Generated_Source\PSoC6/CapSense_1_Control.c **** *  CapSense_1_IncrementGestureTimestamp() function.
 409:Generated_Source\PSoC6/CapSense_1_Control.c **** *
 410:Generated_Source\PSoC6/CapSense_1_Control.c **** *  If the Self-test library is enabled, this function executes the baseline duplication
 411:Generated_Source\PSoC6/CapSense_1_Control.c **** *  test. Refer to CapSense_1_CheckBaselineDuplication() for details.
 412:Generated_Source\PSoC6/CapSense_1_Control.c **** *
 413:Generated_Source\PSoC6/CapSense_1_Control.c **** * \param widgetId
 414:Generated_Source\PSoC6/CapSense_1_Control.c **** *  Specifies the ID number of the widget to be processed.
 415:Generated_Source\PSoC6/CapSense_1_Control.c **** *  A macro for the widget ID can be found in the
 416:Generated_Source\PSoC6/CapSense_1_Control.c **** *  CapSense_1 Configuration header file defined as
 417:Generated_Source\PSoC6/CapSense_1_Control.c **** *  CapSense_1_<WidgetName>_WDGT_ID
ARM GAS  C:\Users\enes_\AppData\Local\Temp\cctsluYK.s 			page 14


 418:Generated_Source\PSoC6/CapSense_1_Control.c **** *
 419:Generated_Source\PSoC6/CapSense_1_Control.c **** * \return
 420:Generated_Source\PSoC6/CapSense_1_Control.c **** *  Returns the status of the widget processing:
 421:Generated_Source\PSoC6/CapSense_1_Control.c **** *  - CY_RET_SUCCESS - The operation is successfully completed
 422:Generated_Source\PSoC6/CapSense_1_Control.c **** *  - CY_RET_BAD_PARAM - The input parameter is invalid
 423:Generated_Source\PSoC6/CapSense_1_Control.c **** *  - CY_RET_INVALID_STATE - The specified widget is disabled
 424:Generated_Source\PSoC6/CapSense_1_Control.c **** *  - CY_RET_BAD_DATA - The processing is failed
 425:Generated_Source\PSoC6/CapSense_1_Control.c **** *
 426:Generated_Source\PSoC6/CapSense_1_Control.c **** *******************************************************************************/
 427:Generated_Source\PSoC6/CapSense_1_Control.c **** cy_status CapSense_1_ProcessWidget(uint32 widgetId)
 428:Generated_Source\PSoC6/CapSense_1_Control.c **** {
 310              		.loc 1 428 0
 311              		.cfi_startproc
 312              		@ args = 0, pretend = 0, frame = 0
 313              		@ frame_needed = 0, uses_anonymous_args = 0
 314              	.LVL32:
 315 0000 70B5     		push	{r4, r5, r6, lr}
 316              		.cfi_def_cfa_offset 16
 317              		.cfi_offset 4, -16
 318              		.cfi_offset 5, -12
 319              		.cfi_offset 6, -8
 320              		.cfi_offset 14, -4
 321              	.LVL33:
 429:Generated_Source\PSoC6/CapSense_1_Control.c ****     cy_status result = CY_RET_SUCCESS;
 430:Generated_Source\PSoC6/CapSense_1_Control.c ****     CapSense_1_FLASH_WD_STRUCT const *ptrFlashWdgt;
 431:Generated_Source\PSoC6/CapSense_1_Control.c **** 
 432:Generated_Source\PSoC6/CapSense_1_Control.c ****     if (widgetId >= CapSense_1_TOTAL_WIDGETS)
 322              		.loc 1 432 0
 323 0002 0228     		cmp	r0, #2
 324 0004 01D8     		bhi	.L38
 429:Generated_Source\PSoC6/CapSense_1_Control.c ****     cy_status result = CY_RET_SUCCESS;
 325              		.loc 1 429 0
 326 0006 0025     		movs	r5, #0
 327 0008 00E0     		b	.L32
 328              	.L38:
 433:Generated_Source\PSoC6/CapSense_1_Control.c ****     {
 434:Generated_Source\PSoC6/CapSense_1_Control.c ****         result = CY_RET_BAD_PARAM;
 329              		.loc 1 434 0
 330 000a 0125     		movs	r5, #1
 331              	.L32:
 332              	.LVL34:
 435:Generated_Source\PSoC6/CapSense_1_Control.c ****     }
 436:Generated_Source\PSoC6/CapSense_1_Control.c **** 
 437:Generated_Source\PSoC6/CapSense_1_Control.c ****     if ((CY_RET_SUCCESS == result) && (0uL == CapSense_1_GET_WIDGET_EN_STATUS(widgetId)))
 333              		.loc 1 437 0
 334 000c 5DB9     		cbnz	r5, .L33
 335              		.loc 1 437 0 is_stmt 0 discriminator 1
 336 000e 4309     		lsrs	r3, r0, #5
 337 0010 0433     		adds	r3, r3, #4
 338 0012 174A     		ldr	r2, .L42
 339 0014 52F82330 		ldr	r3, [r2, r3, lsl #2]
 340 0018 00F01F02 		and	r2, r0, #31
 341 001c D340     		lsrs	r3, r3, r2
 342 001e 13F0010F 		tst	r3, #1
 343 0022 00D1     		bne	.L33
 438:Generated_Source\PSoC6/CapSense_1_Control.c ****     {
 439:Generated_Source\PSoC6/CapSense_1_Control.c ****         result = CY_RET_INVALID_STATE;
ARM GAS  C:\Users\enes_\AppData\Local\Temp\cctsluYK.s 			page 15


 344              		.loc 1 439 0 is_stmt 1
 345 0024 1125     		movs	r5, #17
 346              	.LVL35:
 347              	.L33:
 440:Generated_Source\PSoC6/CapSense_1_Control.c ****     }
 441:Generated_Source\PSoC6/CapSense_1_Control.c **** 
 442:Generated_Source\PSoC6/CapSense_1_Control.c ****     if (CY_RET_SUCCESS == result)
 348              		.loc 1 442 0
 349 0026 0DBB     		cbnz	r5, .L34
 350 0028 0446     		mov	r4, r0
 443:Generated_Source\PSoC6/CapSense_1_Control.c ****     {
 444:Generated_Source\PSoC6/CapSense_1_Control.c ****         ptrFlashWdgt = &CapSense_1_dsFlash.wdgtArray[widgetId];
 351              		.loc 1 444 0
 352 002a 124E     		ldr	r6, .L42+4
 353 002c 2C23     		movs	r3, #44
 354 002e 03FB0066 		mla	r6, r3, r0, r6
 355              	.LVL36:
 445:Generated_Source\PSoC6/CapSense_1_Control.c **** 
 446:Generated_Source\PSoC6/CapSense_1_Control.c ****         switch(CapSense_1_GET_SENSE_METHOD(ptrFlashWdgt))
 356              		.loc 1 446 0
 357 0032 F37E     		ldrb	r3, [r6, #27]	@ zero_extendqisi2
 358 0034 012B     		cmp	r3, #1
 359 0036 02D0     		beq	.L36
 360 0038 022B     		cmp	r3, #2
 361 003a 09D0     		beq	.L37
 362 003c 11E0     		b	.L40
 363              	.L36:
 447:Generated_Source\PSoC6/CapSense_1_Control.c ****         {
 448:Generated_Source\PSoC6/CapSense_1_Control.c ****         #if (0u != CapSense_1_TOTAL_CSD_WIDGETS)
 449:Generated_Source\PSoC6/CapSense_1_Control.c ****             case CapSense_1_SENSE_METHOD_CSD_E:
 450:Generated_Source\PSoC6/CapSense_1_Control.c ****                 result = CapSense_1_DpProcessCsdWidgetRawCounts(ptrFlashWdgt);
 364              		.loc 1 450 0
 365 003e 3046     		mov	r0, r6
 366              	.LVL37:
 367 0040 FFF7FEFF 		bl	CapSense_1_DpProcessCsdWidgetRawCounts
 368              	.LVL38:
 369 0044 0546     		mov	r5, r0
 370              	.LVL39:
 451:Generated_Source\PSoC6/CapSense_1_Control.c ****                 CapSense_1_DpProcessCsdWidgetStatus(widgetId, ptrFlashWdgt);
 371              		.loc 1 451 0
 372 0046 3146     		mov	r1, r6
 373 0048 2046     		mov	r0, r4
 374              	.LVL40:
 375 004a FFF7FEFF 		bl	CapSense_1_DpProcessCsdWidgetStatus
 376              	.LVL41:
 452:Generated_Source\PSoC6/CapSense_1_Control.c ****                 break;
 377              		.loc 1 452 0
 378 004e 0DE0     		b	.L34
 379              	.LVL42:
 380              	.L37:
 453:Generated_Source\PSoC6/CapSense_1_Control.c ****         #endif /* #if (0u != CapSense_1_TOTAL_CSD_WIDGETS) */
 454:Generated_Source\PSoC6/CapSense_1_Control.c **** 
 455:Generated_Source\PSoC6/CapSense_1_Control.c ****         #if (0u != CapSense_1_TOTAL_CSX_WIDGETS)
 456:Generated_Source\PSoC6/CapSense_1_Control.c ****             case CapSense_1_SENSE_METHOD_CSX_E:
 457:Generated_Source\PSoC6/CapSense_1_Control.c ****                 result = CapSense_1_DpProcessCsxWidgetRawCounts(ptrFlashWdgt);
 381              		.loc 1 457 0
 382 0050 3046     		mov	r0, r6
ARM GAS  C:\Users\enes_\AppData\Local\Temp\cctsluYK.s 			page 16


 383              	.LVL43:
 384 0052 FFF7FEFF 		bl	CapSense_1_DpProcessCsxWidgetRawCounts
 385              	.LVL44:
 386 0056 0546     		mov	r5, r0
 387              	.LVL45:
 458:Generated_Source\PSoC6/CapSense_1_Control.c ****                 CapSense_1_DpProcessCsxWidgetStatus(widgetId, ptrFlashWdgt);
 388              		.loc 1 458 0
 389 0058 3146     		mov	r1, r6
 390 005a 2046     		mov	r0, r4
 391              	.LVL46:
 392 005c FFF7FEFF 		bl	CapSense_1_DpProcessCsxWidgetStatus
 393              	.LVL47:
 459:Generated_Source\PSoC6/CapSense_1_Control.c ****                 break;
 394              		.loc 1 459 0
 395 0060 04E0     		b	.L34
 396              	.LVL48:
 397              	.L40:
 460:Generated_Source\PSoC6/CapSense_1_Control.c ****         #endif /* #if (0u != CapSense_1_TOTAL_CSX_WIDGETS) */
 461:Generated_Source\PSoC6/CapSense_1_Control.c **** 
 462:Generated_Source\PSoC6/CapSense_1_Control.c ****         default:
 463:Generated_Source\PSoC6/CapSense_1_Control.c ****             CY_ASSERT(0 != 0);
 398              		.loc 1 463 0 discriminator 1
 399 0062 40F2CF11 		movw	r1, #463
 400 0066 0448     		ldr	r0, .L42+8
 401              	.LVL49:
 402 0068 FFF7FEFF 		bl	Cy_SysLib_AssertFailed
 403              	.LVL50:
 404              	.L34:
 464:Generated_Source\PSoC6/CapSense_1_Control.c ****             break;
 465:Generated_Source\PSoC6/CapSense_1_Control.c ****         }
 466:Generated_Source\PSoC6/CapSense_1_Control.c **** 
 467:Generated_Source\PSoC6/CapSense_1_Control.c ****         #if (CapSense_1_ENABLE == CapSense_1_TST_BSLN_DUPLICATION_EN)
 468:Generated_Source\PSoC6/CapSense_1_Control.c ****             if (CY_RET_SUCCESS != result)
 469:Generated_Source\PSoC6/CapSense_1_Control.c ****             {
 470:Generated_Source\PSoC6/CapSense_1_Control.c ****                 CapSense_1_UpdateTestResultBaselineDuplication(widgetId, result);
 471:Generated_Source\PSoC6/CapSense_1_Control.c ****                 result = CY_RET_BAD_DATA;
 472:Generated_Source\PSoC6/CapSense_1_Control.c ****             }
 473:Generated_Source\PSoC6/CapSense_1_Control.c ****         #endif /* (CapSense_1_ENABLE == CapSense_1_TST_BSLN_DUPLICATION_EN) */
 474:Generated_Source\PSoC6/CapSense_1_Control.c ****     }
 475:Generated_Source\PSoC6/CapSense_1_Control.c ****     return result;
 476:Generated_Source\PSoC6/CapSense_1_Control.c **** }
 405              		.loc 1 476 0
 406 006c 2846     		mov	r0, r5
 407 006e 70BD     		pop	{r4, r5, r6, pc}
 408              	.LVL51:
 409              	.L43:
 410              		.align	2
 411              	.L42:
 412 0070 00000000 		.word	CapSense_1_dsRam
 413 0074 00000000 		.word	CapSense_1_dsFlash
 414 0078 00000000 		.word	.LC0
 415              		.cfi_endproc
 416              	.LFE272:
 417              		.size	CapSense_1_ProcessWidget, .-CapSense_1_ProcessWidget
 418              		.section	.text.CapSense_1_ProcessWidgetExt,"ax",%progbits
 419              		.align	2
 420              		.global	CapSense_1_ProcessWidgetExt
ARM GAS  C:\Users\enes_\AppData\Local\Temp\cctsluYK.s 			page 17


 421              		.thumb
 422              		.thumb_func
 423              		.type	CapSense_1_ProcessWidgetExt, %function
 424              	CapSense_1_ProcessWidgetExt:
 425              	.LFB273:
 477:Generated_Source\PSoC6/CapSense_1_Control.c **** 
 478:Generated_Source\PSoC6/CapSense_1_Control.c **** 
 479:Generated_Source\PSoC6/CapSense_1_Control.c **** /*******************************************************************************
 480:Generated_Source\PSoC6/CapSense_1_Control.c **** * Function Name: CapSense_1_ProcessWidgetExt
 481:Generated_Source\PSoC6/CapSense_1_Control.c **** ****************************************************************************//**
 482:Generated_Source\PSoC6/CapSense_1_Control.c **** *
 483:Generated_Source\PSoC6/CapSense_1_Control.c **** * \brief
 484:Generated_Source\PSoC6/CapSense_1_Control.c **** *  Performs customized data processing on the selected widget.
 485:Generated_Source\PSoC6/CapSense_1_Control.c **** *
 486:Generated_Source\PSoC6/CapSense_1_Control.c **** * \details
 487:Generated_Source\PSoC6/CapSense_1_Control.c **** *  This function performs data processes for the specified widget specified by
 488:Generated_Source\PSoC6/CapSense_1_Control.c **** *  the mode parameter. The execution order of the requested operations is from
 489:Generated_Source\PSoC6/CapSense_1_Control.c **** *  LSB to MSB of the mode parameter. For a different order, this API
 490:Generated_Source\PSoC6/CapSense_1_Control.c **** *  can be called multiple times with the required mode parameter.
 491:Generated_Source\PSoC6/CapSense_1_Control.c **** *
 492:Generated_Source\PSoC6/CapSense_1_Control.c **** *  This function can be used with any of the available scan functions. This
 493:Generated_Source\PSoC6/CapSense_1_Control.c **** *  function is called only after all the sensors in the specified widget are
 494:Generated_Source\PSoC6/CapSense_1_Control.c **** *  scanned. Calling this function multiple times with the same mode without
 495:Generated_Source\PSoC6/CapSense_1_Control.c **** *  sensor scanning causes unexpected behavior. This function ignores the value
 496:Generated_Source\PSoC6/CapSense_1_Control.c **** *  of the wdgtEnable register.
 497:Generated_Source\PSoC6/CapSense_1_Control.c **** *
 498:Generated_Source\PSoC6/CapSense_1_Control.c **** *  The CapSense_1_PROCESS_CALC_NOISE and
 499:Generated_Source\PSoC6/CapSense_1_Control.c **** *  CapSense_1_PROCESS_THRESHOLDS flags are supported by the CSD sensing
 500:Generated_Source\PSoC6/CapSense_1_Control.c **** *  method only when Auto-tuning mode is enabled.
 501:Generated_Source\PSoC6/CapSense_1_Control.c **** *
 502:Generated_Source\PSoC6/CapSense_1_Control.c **** *  The pipeline scan method (i.e. during scanning of a widget, processing
 503:Generated_Source\PSoC6/CapSense_1_Control.c **** *  of a previously scanned widget is performed) can be implemented using this
 504:Generated_Source\PSoC6/CapSense_1_Control.c **** *  function and it may reduce the total scan/process time, increase the refresh
 505:Generated_Source\PSoC6/CapSense_1_Control.c **** *  rate and decrease the power consumption.
 506:Generated_Source\PSoC6/CapSense_1_Control.c **** *
 507:Generated_Source\PSoC6/CapSense_1_Control.c **** *  If the Self-test library is enabled, this function executes the baseline duplication
 508:Generated_Source\PSoC6/CapSense_1_Control.c **** *  test. Refer to CapSense_1_CheckBaselineDuplication() for details.
 509:Generated_Source\PSoC6/CapSense_1_Control.c **** *
 510:Generated_Source\PSoC6/CapSense_1_Control.c **** *  If the Ballistic multiplier filter is enabled the Timestamp must be
 511:Generated_Source\PSoC6/CapSense_1_Control.c **** *  updated before calling this function using the
 512:Generated_Source\PSoC6/CapSense_1_Control.c **** *  CapSense_1_IncrementGestureTimestamp() function.
 513:Generated_Source\PSoC6/CapSense_1_Control.c **** *
 514:Generated_Source\PSoC6/CapSense_1_Control.c **** * \param widgetId
 515:Generated_Source\PSoC6/CapSense_1_Control.c **** *  Specifies the ID number of the widget to be processed.
 516:Generated_Source\PSoC6/CapSense_1_Control.c **** *  A macro for the widget ID can be found in the CapSense_1 Configuration header
 517:Generated_Source\PSoC6/CapSense_1_Control.c **** *  file defined as CapSense_1_<WidgetName>_WDGT_ID.
 518:Generated_Source\PSoC6/CapSense_1_Control.c **** 
 519:Generated_Source\PSoC6/CapSense_1_Control.c **** * \param mode
 520:Generated_Source\PSoC6/CapSense_1_Control.c **** *  Specifies the type of widget processing to be executed for the
 521:Generated_Source\PSoC6/CapSense_1_Control.c **** *  specified widget:
 522:Generated_Source\PSoC6/CapSense_1_Control.c **** *    1. Bits [31..6] - Reserved.
 523:Generated_Source\PSoC6/CapSense_1_Control.c **** *    2. Bits [5..0] - CapSense_1_PROCESS_ALL - Execute all the tasks.
 524:Generated_Source\PSoC6/CapSense_1_Control.c **** *    3. Bit [5] - CapSense_1_PROCESS_STATUS - Update the status (on/off,
 525:Generated_Source\PSoC6/CapSense_1_Control.c **** *       centroid position).
 526:Generated_Source\PSoC6/CapSense_1_Control.c **** *    4. Bit [4] - CapSense_1_PROCESS_THRESHOLDS - Update the thresholds
 527:Generated_Source\PSoC6/CapSense_1_Control.c **** *       (only in CSD auto-tuning mode).
 528:Generated_Source\PSoC6/CapSense_1_Control.c **** *    5. Bit [3] - CapSense_1_PROCESS_CALC_NOISE - Calculate the noise (only in
ARM GAS  C:\Users\enes_\AppData\Local\Temp\cctsluYK.s 			page 18


 529:Generated_Source\PSoC6/CapSense_1_Control.c **** *       CSD auto-tuning mode).
 530:Generated_Source\PSoC6/CapSense_1_Control.c **** *    6. Bit [2] - CapSense_1_PROCESS_DIFFCOUNTS - Update the difference counts.
 531:Generated_Source\PSoC6/CapSense_1_Control.c **** *    7. Bit [1] - CapSense_1_PROCESS_BASELINE - Update the baselines.
 532:Generated_Source\PSoC6/CapSense_1_Control.c **** *    8. Bit [0] - CapSense_1_PROCESS_FILTER - Run the firmware filters.
 533:Generated_Source\PSoC6/CapSense_1_Control.c **** *
 534:Generated_Source\PSoC6/CapSense_1_Control.c **** * \return
 535:Generated_Source\PSoC6/CapSense_1_Control.c **** *  Returns the status of the widget processing operation:
 536:Generated_Source\PSoC6/CapSense_1_Control.c **** *  - CY_RET_SUCCESS - The processing is successfully performed.
 537:Generated_Source\PSoC6/CapSense_1_Control.c **** *  - CY_RET_BAD_PARAM - The input parameter is invalid.
 538:Generated_Source\PSoC6/CapSense_1_Control.c **** *  - CY_RET_BAD_DATA - The processing failed.
 539:Generated_Source\PSoC6/CapSense_1_Control.c **** *
 540:Generated_Source\PSoC6/CapSense_1_Control.c **** *******************************************************************************/
 541:Generated_Source\PSoC6/CapSense_1_Control.c **** cy_status CapSense_1_ProcessWidgetExt(uint32 widgetId, uint32 mode)
 542:Generated_Source\PSoC6/CapSense_1_Control.c **** {
 426              		.loc 1 542 0
 427              		.cfi_startproc
 428              		@ args = 0, pretend = 0, frame = 0
 429              		@ frame_needed = 0, uses_anonymous_args = 0
 430              	.LVL52:
 431 0000 2DE9F047 		push	{r4, r5, r6, r7, r8, r9, r10, lr}
 432              		.cfi_def_cfa_offset 32
 433              		.cfi_offset 4, -32
 434              		.cfi_offset 5, -28
 435              		.cfi_offset 6, -24
 436              		.cfi_offset 7, -20
 437              		.cfi_offset 8, -16
 438              		.cfi_offset 9, -12
 439              		.cfi_offset 10, -8
 440              		.cfi_offset 14, -4
 441              	.LVL53:
 543:Generated_Source\PSoC6/CapSense_1_Control.c ****     uint32 snsCount;
 544:Generated_Source\PSoC6/CapSense_1_Control.c ****     cy_status result = CY_RET_BAD_PARAM;
 545:Generated_Source\PSoC6/CapSense_1_Control.c ****     CapSense_1_FLASH_WD_STRUCT const *ptrFlashWdgt;
 546:Generated_Source\PSoC6/CapSense_1_Control.c ****     CapSense_1_PTR_FILTER_VARIANT fltrHistV;
 547:Generated_Source\PSoC6/CapSense_1_Control.c ****     CapSense_1_RAM_SNS_STRUCT *ptrSnsTmp;
 548:Generated_Source\PSoC6/CapSense_1_Control.c **** 
 549:Generated_Source\PSoC6/CapSense_1_Control.c ****     #if (0u != CapSense_1_TOTAL_CSD_WIDGETS)
 550:Generated_Source\PSoC6/CapSense_1_Control.c ****         uint32 isProxWdgt;
 551:Generated_Source\PSoC6/CapSense_1_Control.c ****     #endif
 552:Generated_Source\PSoC6/CapSense_1_Control.c **** 
 553:Generated_Source\PSoC6/CapSense_1_Control.c ****     if (widgetId < CapSense_1_TOTAL_WIDGETS)
 442              		.loc 1 553 0
 443 0004 0228     		cmp	r0, #2
 444 0006 44D8     		bhi	.L51
 445 0008 0E46     		mov	r6, r1
 446 000a 8246     		mov	r10, r0
 554:Generated_Source\PSoC6/CapSense_1_Control.c ****     {
 555:Generated_Source\PSoC6/CapSense_1_Control.c ****         ptrFlashWdgt = &CapSense_1_dsFlash.wdgtArray[widgetId];
 447              		.loc 1 555 0
 448 000c 234B     		ldr	r3, .L56
 449 000e 2C25     		movs	r5, #44
 450 0010 05FB0035 		mla	r5, r5, r0, r3
 451              	.LVL54:
 556:Generated_Source\PSoC6/CapSense_1_Control.c ****         snsCount = CapSense_1_GET_SNS_CNT_BY_PTR(ptrFlashWdgt);
 452              		.loc 1 556 0
 453 0014 2B8B     		ldrh	r3, [r5, #24]
 454              	.LVL55:
ARM GAS  C:\Users\enes_\AppData\Local\Temp\cctsluYK.s 			page 19


 557:Generated_Source\PSoC6/CapSense_1_Control.c ****         ptrSnsTmp = ptrFlashWdgt->ptr2SnsRam;
 455              		.loc 1 557 0
 456 0016 AC68     		ldr	r4, [r5, #8]
 457              	.LVL56:
 558:Generated_Source\PSoC6/CapSense_1_Control.c ****         fltrHistV.ptr = ptrFlashWdgt->ptr2FltrHistory;
 458              		.loc 1 558 0
 459 0018 D5F80C80 		ldr	r8, [r5, #12]
 460              	.LVL57:
 559:Generated_Source\PSoC6/CapSense_1_Control.c **** 
 560:Generated_Source\PSoC6/CapSense_1_Control.c ****         switch(CapSense_1_GET_SENSE_METHOD(ptrFlashWdgt))
 461              		.loc 1 560 0
 462 001c EA7E     		ldrb	r2, [r5, #27]	@ zero_extendqisi2
 463 001e 012A     		cmp	r2, #1
 464 0020 0CD0     		beq	.L52
 465 0022 022A     		cmp	r2, #2
 466 0024 21D0     		beq	.L53
 467 0026 2DE0     		b	.L54
 468              	.LVL58:
 469              	.L49:
 561:Generated_Source\PSoC6/CapSense_1_Control.c ****         {
 562:Generated_Source\PSoC6/CapSense_1_Control.c ****         #if (0u != CapSense_1_TOTAL_CSD_WIDGETS)
 563:Generated_Source\PSoC6/CapSense_1_Control.c ****             case CapSense_1_SENSE_METHOD_CSD_E:
 564:Generated_Source\PSoC6/CapSense_1_Control.c ****             {
 565:Generated_Source\PSoC6/CapSense_1_Control.c ****                 /* Determine if widget is type of proximity.
 566:Generated_Source\PSoC6/CapSense_1_Control.c ****                  * The Proximity widgets use different filters and
 567:Generated_Source\PSoC6/CapSense_1_Control.c ****                  * therefore have different filter history object structure */
 568:Generated_Source\PSoC6/CapSense_1_Control.c ****                 isProxWdgt = (CapSense_1_GET_WIDGET_TYPE(ptrFlashWdgt) == CapSense_1_WD_PROXIMITY_E
 569:Generated_Source\PSoC6/CapSense_1_Control.c **** 
 570:Generated_Source\PSoC6/CapSense_1_Control.c ****                 /* Run the desired processing for the all CSD widget sensors */
 571:Generated_Source\PSoC6/CapSense_1_Control.c ****                 for (;snsCount-- > 0u;)
 572:Generated_Source\PSoC6/CapSense_1_Control.c ****                 {
 573:Generated_Source\PSoC6/CapSense_1_Control.c ****                     result = CapSense_1_DpProcessCsdSensorRawCountsExt(ptrFlashWdgt, ptrSnsTmp, flt
 470              		.loc 1 573 0
 471 0028 3346     		mov	r3, r6
 472 002a 4246     		mov	r2, r8
 473 002c 2146     		mov	r1, r4
 474 002e 2846     		mov	r0, r5
 475 0030 FFF7FEFF 		bl	CapSense_1_DpProcessCsdSensorRawCountsExt
 476              	.LVL59:
 477 0034 0746     		mov	r7, r0
 478              	.LVL60:
 574:Generated_Source\PSoC6/CapSense_1_Control.c **** 
 575:Generated_Source\PSoC6/CapSense_1_Control.c ****                     #if (CapSense_1_ENABLE == CapSense_1_TST_BSLN_DUPLICATION_EN)
 576:Generated_Source\PSoC6/CapSense_1_Control.c ****                         if (CY_RET_SUCCESS != result)
 577:Generated_Source\PSoC6/CapSense_1_Control.c ****                         {
 578:Generated_Source\PSoC6/CapSense_1_Control.c ****                             result = (result | CapSense_1_TST_LSBYTE) & snsCount;
 579:Generated_Source\PSoC6/CapSense_1_Control.c ****                         }
 580:Generated_Source\PSoC6/CapSense_1_Control.c ****                     #endif /* (CapSense_1_ENABLE == CapSense_1_TST_BSLN_DUPLICATION_EN) */
 581:Generated_Source\PSoC6/CapSense_1_Control.c **** 
 582:Generated_Source\PSoC6/CapSense_1_Control.c ****                     /* Move to the next sensor and filter history objects */
 583:Generated_Source\PSoC6/CapSense_1_Control.c ****                     ptrSnsTmp++;
 479              		.loc 1 583 0
 480 0036 0A34     		adds	r4, r4, #10
 481              	.LVL61:
 571:Generated_Source\PSoC6/CapSense_1_Control.c ****                 {
 482              		.loc 1 571 0
 483 0038 4B46     		mov	r3, r9
ARM GAS  C:\Users\enes_\AppData\Local\Temp\cctsluYK.s 			page 20


 484 003a 00E0     		b	.L47
 485              	.LVL62:
 486              	.L52:
 544:Generated_Source\PSoC6/CapSense_1_Control.c ****     CapSense_1_FLASH_WD_STRUCT const *ptrFlashWdgt;
 487              		.loc 1 544 0
 488 003c 0127     		movs	r7, #1
 489              	.LVL63:
 490              	.L47:
 571:Generated_Source\PSoC6/CapSense_1_Control.c ****                 {
 491              		.loc 1 571 0
 492 003e 03F1FF39 		add	r9, r3, #-1
 493              	.LVL64:
 494 0042 002B     		cmp	r3, #0
 495 0044 F0D1     		bne	.L49
 584:Generated_Source\PSoC6/CapSense_1_Control.c ****                     CapSense_1_INC_FLTR_OBJ_VARIANT(isProxWdgt, fltrHistV);
 585:Generated_Source\PSoC6/CapSense_1_Control.c ****                 }
 586:Generated_Source\PSoC6/CapSense_1_Control.c **** 
 587:Generated_Source\PSoC6/CapSense_1_Control.c ****                 if (0u != (mode & CapSense_1_PROCESS_STATUS))
 496              		.loc 1 587 0
 497 0046 16F0200F 		tst	r6, #32
 498 004a 23D0     		beq	.L45
 588:Generated_Source\PSoC6/CapSense_1_Control.c ****                 {
 589:Generated_Source\PSoC6/CapSense_1_Control.c ****                     CapSense_1_DpProcessCsdWidgetStatus(widgetId, ptrFlashWdgt);
 499              		.loc 1 589 0
 500 004c 2946     		mov	r1, r5
 501 004e 5046     		mov	r0, r10
 502 0050 FFF7FEFF 		bl	CapSense_1_DpProcessCsdWidgetStatus
 503              	.LVL65:
 504 0054 1EE0     		b	.L45
 505              	.L50:
 590:Generated_Source\PSoC6/CapSense_1_Control.c ****                 }
 591:Generated_Source\PSoC6/CapSense_1_Control.c ****                 break;
 592:Generated_Source\PSoC6/CapSense_1_Control.c ****             }
 593:Generated_Source\PSoC6/CapSense_1_Control.c ****         #endif /* #if (0u != CapSense_1_TOTAL_CSD_WIDGETS) */
 594:Generated_Source\PSoC6/CapSense_1_Control.c **** 
 595:Generated_Source\PSoC6/CapSense_1_Control.c ****         #if (0u != CapSense_1_TOTAL_CSX_WIDGETS)
 596:Generated_Source\PSoC6/CapSense_1_Control.c ****             case CapSense_1_SENSE_METHOD_CSX_E:
 597:Generated_Source\PSoC6/CapSense_1_Control.c **** 
 598:Generated_Source\PSoC6/CapSense_1_Control.c ****                 #if (0u != CapSense_1_CSX_MULTIPHASE_TX_EN)
 599:Generated_Source\PSoC6/CapSense_1_Control.c ****                     if ((0u != (mode & CapSense_1_PROCESS_DECONVOLUTION)) &&
 600:Generated_Source\PSoC6/CapSense_1_Control.c ****                         (0u != (ptrFlashWdgt->staticConfig & CapSense_1_MULTIPHASE_TX_MASK)))
 601:Generated_Source\PSoC6/CapSense_1_Control.c ****                     {
 602:Generated_Source\PSoC6/CapSense_1_Control.c ****                         CapSense_1_DpDeconvolution(ptrFlashWdgt);
 603:Generated_Source\PSoC6/CapSense_1_Control.c ****                     }
 604:Generated_Source\PSoC6/CapSense_1_Control.c ****                 #endif /* #if (0u != CapSense_1_CSX_MULTIPHASE_TX_EN) */
 605:Generated_Source\PSoC6/CapSense_1_Control.c **** 
 606:Generated_Source\PSoC6/CapSense_1_Control.c ****                 /* Run the desired processing for the all CSX widget sensors */
 607:Generated_Source\PSoC6/CapSense_1_Control.c ****                 for (;snsCount-- > 0u;)
 608:Generated_Source\PSoC6/CapSense_1_Control.c ****                 {
 609:Generated_Source\PSoC6/CapSense_1_Control.c ****                     result = CapSense_1_DpProcessCsxSensorRawCountsExt(ptrFlashWdgt, ptrSnsTmp, flt
 506              		.loc 1 609 0
 507 0056 3346     		mov	r3, r6
 508 0058 4246     		mov	r2, r8
 509 005a 2146     		mov	r1, r4
 510 005c 2846     		mov	r0, r5
 511 005e FFF7FEFF 		bl	CapSense_1_DpProcessCsxSensorRawCountsExt
 512              	.LVL66:
ARM GAS  C:\Users\enes_\AppData\Local\Temp\cctsluYK.s 			page 21


 513 0062 0746     		mov	r7, r0
 514              	.LVL67:
 610:Generated_Source\PSoC6/CapSense_1_Control.c **** 
 611:Generated_Source\PSoC6/CapSense_1_Control.c ****                     #if (CapSense_1_ENABLE == CapSense_1_TST_BSLN_DUPLICATION_EN)
 612:Generated_Source\PSoC6/CapSense_1_Control.c ****                         if (CY_RET_SUCCESS != result)
 613:Generated_Source\PSoC6/CapSense_1_Control.c ****                         {
 614:Generated_Source\PSoC6/CapSense_1_Control.c ****                             result = (result | CapSense_1_TST_LSBYTE) & snsCount;
 615:Generated_Source\PSoC6/CapSense_1_Control.c ****                         }
 616:Generated_Source\PSoC6/CapSense_1_Control.c ****                     #endif /* (CapSense_1_ENABLE == CapSense_1_TST_BSLN_DUPLICATION_EN) */
 617:Generated_Source\PSoC6/CapSense_1_Control.c **** 
 618:Generated_Source\PSoC6/CapSense_1_Control.c ****                     /* Move to the next sensor and filter history objects */
 619:Generated_Source\PSoC6/CapSense_1_Control.c ****                     ptrSnsTmp++;
 515              		.loc 1 619 0
 516 0064 0A34     		adds	r4, r4, #10
 517              	.LVL68:
 607:Generated_Source\PSoC6/CapSense_1_Control.c ****                 {
 518              		.loc 1 607 0
 519 0066 4B46     		mov	r3, r9
 520 0068 00E0     		b	.L48
 521              	.LVL69:
 522              	.L53:
 560:Generated_Source\PSoC6/CapSense_1_Control.c ****         {
 523              		.loc 1 560 0
 524 006a 0127     		movs	r7, #1
 525              	.LVL70:
 526              	.L48:
 607:Generated_Source\PSoC6/CapSense_1_Control.c ****                 {
 527              		.loc 1 607 0
 528 006c 03F1FF39 		add	r9, r3, #-1
 529              	.LVL71:
 530 0070 002B     		cmp	r3, #0
 531 0072 F0D1     		bne	.L50
 620:Generated_Source\PSoC6/CapSense_1_Control.c ****                     CapSense_1_INC_REG_FLTR_OBJ(fltrHistV);
 621:Generated_Source\PSoC6/CapSense_1_Control.c ****                 }
 622:Generated_Source\PSoC6/CapSense_1_Control.c **** 
 623:Generated_Source\PSoC6/CapSense_1_Control.c ****                 if (0u != (mode & CapSense_1_PROCESS_STATUS))
 532              		.loc 1 623 0
 533 0074 16F0200F 		tst	r6, #32
 534 0078 0CD0     		beq	.L45
 624:Generated_Source\PSoC6/CapSense_1_Control.c ****                 {
 625:Generated_Source\PSoC6/CapSense_1_Control.c ****                     CapSense_1_DpProcessCsxWidgetStatus(widgetId, ptrFlashWdgt);
 535              		.loc 1 625 0
 536 007a 2946     		mov	r1, r5
 537 007c 5046     		mov	r0, r10
 538 007e FFF7FEFF 		bl	CapSense_1_DpProcessCsxWidgetStatus
 539              	.LVL72:
 540 0082 07E0     		b	.L45
 541              	.LVL73:
 542              	.L54:
 626:Generated_Source\PSoC6/CapSense_1_Control.c ****                 }
 627:Generated_Source\PSoC6/CapSense_1_Control.c ****                 break;
 628:Generated_Source\PSoC6/CapSense_1_Control.c ****         #endif /* #if (0u != CapSense_1_TOTAL_CSX_WIDGETS) */
 629:Generated_Source\PSoC6/CapSense_1_Control.c **** 
 630:Generated_Source\PSoC6/CapSense_1_Control.c ****         default:
 631:Generated_Source\PSoC6/CapSense_1_Control.c ****             CY_ASSERT(0 != 0);
 543              		.loc 1 631 0 discriminator 1
 544 0084 40F27721 		movw	r1, #631
ARM GAS  C:\Users\enes_\AppData\Local\Temp\cctsluYK.s 			page 22


 545              	.LVL74:
 546 0088 0548     		ldr	r0, .L56+4
 547              	.LVL75:
 548 008a FFF7FEFF 		bl	Cy_SysLib_AssertFailed
 549              	.LVL76:
 544:Generated_Source\PSoC6/CapSense_1_Control.c ****     CapSense_1_FLASH_WD_STRUCT const *ptrFlashWdgt;
 550              		.loc 1 544 0 discriminator 1
 551 008e 0127     		movs	r7, #1
 632:Generated_Source\PSoC6/CapSense_1_Control.c ****             break;
 552              		.loc 1 632 0 discriminator 1
 553 0090 00E0     		b	.L45
 554              	.LVL77:
 555              	.L51:
 544:Generated_Source\PSoC6/CapSense_1_Control.c ****     CapSense_1_FLASH_WD_STRUCT const *ptrFlashWdgt;
 556              		.loc 1 544 0
 557 0092 0127     		movs	r7, #1
 558              	.LVL78:
 559              	.L45:
 633:Generated_Source\PSoC6/CapSense_1_Control.c ****         }
 634:Generated_Source\PSoC6/CapSense_1_Control.c **** 
 635:Generated_Source\PSoC6/CapSense_1_Control.c ****         #if (CapSense_1_ENABLE == CapSense_1_TST_BSLN_DUPLICATION_EN)
 636:Generated_Source\PSoC6/CapSense_1_Control.c ****             if (CY_RET_SUCCESS != result)
 637:Generated_Source\PSoC6/CapSense_1_Control.c ****             {
 638:Generated_Source\PSoC6/CapSense_1_Control.c ****                 CapSense_1_UpdateTestResultBaselineDuplication(widgetId, snsCount);
 639:Generated_Source\PSoC6/CapSense_1_Control.c ****                 result = CY_RET_BAD_DATA;
 640:Generated_Source\PSoC6/CapSense_1_Control.c ****             }
 641:Generated_Source\PSoC6/CapSense_1_Control.c ****         #endif /* (CapSense_1_ENABLE == CapSense_1_TST_BSLN_DUPLICATION_EN) */
 642:Generated_Source\PSoC6/CapSense_1_Control.c **** 
 643:Generated_Source\PSoC6/CapSense_1_Control.c ****     }
 644:Generated_Source\PSoC6/CapSense_1_Control.c ****     return result;
 645:Generated_Source\PSoC6/CapSense_1_Control.c **** }
 560              		.loc 1 645 0
 561 0094 3846     		mov	r0, r7
 562 0096 BDE8F087 		pop	{r4, r5, r6, r7, r8, r9, r10, pc}
 563              	.LVL79:
 564              	.L57:
 565 009a 00BF     		.align	2
 566              	.L56:
 567 009c 00000000 		.word	CapSense_1_dsFlash
 568 00a0 00000000 		.word	.LC0
 569              		.cfi_endproc
 570              	.LFE273:
 571              		.size	CapSense_1_ProcessWidgetExt, .-CapSense_1_ProcessWidgetExt
 572              		.section	.text.CapSense_1_ProcessSensorExt,"ax",%progbits
 573              		.align	2
 574              		.global	CapSense_1_ProcessSensorExt
 575              		.thumb
 576              		.thumb_func
 577              		.type	CapSense_1_ProcessSensorExt, %function
 578              	CapSense_1_ProcessSensorExt:
 579              	.LFB274:
 646:Generated_Source\PSoC6/CapSense_1_Control.c **** 
 647:Generated_Source\PSoC6/CapSense_1_Control.c **** /*******************************************************************************
 648:Generated_Source\PSoC6/CapSense_1_Control.c **** * Function Name: CapSense_1_ProcessSensorExt
 649:Generated_Source\PSoC6/CapSense_1_Control.c **** ****************************************************************************//**
 650:Generated_Source\PSoC6/CapSense_1_Control.c **** *
 651:Generated_Source\PSoC6/CapSense_1_Control.c **** * \brief
ARM GAS  C:\Users\enes_\AppData\Local\Temp\cctsluYK.s 			page 23


 652:Generated_Source\PSoC6/CapSense_1_Control.c **** *  Performs customized data processing on the selected widget's sensor.
 653:Generated_Source\PSoC6/CapSense_1_Control.c **** *
 654:Generated_Source\PSoC6/CapSense_1_Control.c **** * \details
 655:Generated_Source\PSoC6/CapSense_1_Control.c **** *  This function performs data processes for the specified sensor specified by
 656:Generated_Source\PSoC6/CapSense_1_Control.c **** *  the mode parameter. The execution order of the requested operations is from
 657:Generated_Source\PSoC6/CapSense_1_Control.c **** *  LSB to MSB of the mode parameter. For a different order, this
 658:Generated_Source\PSoC6/CapSense_1_Control.c **** *  function can be called multiple times with the required mode parameter.
 659:Generated_Source\PSoC6/CapSense_1_Control.c **** *
 660:Generated_Source\PSoC6/CapSense_1_Control.c **** *  This function can be used with any of the available scan functions. This
 661:Generated_Source\PSoC6/CapSense_1_Control.c **** *  function is called only after a specified sensor in the widget is
 662:Generated_Source\PSoC6/CapSense_1_Control.c **** *  scanned. Calling this function multiple times with the same mode without
 663:Generated_Source\PSoC6/CapSense_1_Control.c **** *  sensor scanning causes unexpected behavior. This function ignores the value
 664:Generated_Source\PSoC6/CapSense_1_Control.c **** *  of the wdgtEnable register.
 665:Generated_Source\PSoC6/CapSense_1_Control.c **** *
 666:Generated_Source\PSoC6/CapSense_1_Control.c **** *  The CapSense_1_PROCESS_CALC_NOISE and
 667:Generated_Source\PSoC6/CapSense_1_Control.c **** *  CapSense_1_PROCESS_THRESHOLDS flags are supported by the CSD sensing
 668:Generated_Source\PSoC6/CapSense_1_Control.c **** *  method only when Auto-tuning mode is enabled.
 669:Generated_Source\PSoC6/CapSense_1_Control.c **** *
 670:Generated_Source\PSoC6/CapSense_1_Control.c **** *  The pipeline scan method (i.e. during scanning of a sensor, processing
 671:Generated_Source\PSoC6/CapSense_1_Control.c **** *  of a previously scanned sensor is performed) can be implemented using this
 672:Generated_Source\PSoC6/CapSense_1_Control.c **** *  function and it may reduce the total scan/process time, increase the refresh
 673:Generated_Source\PSoC6/CapSense_1_Control.c **** *  rate and decrease the power consumption.
 674:Generated_Source\PSoC6/CapSense_1_Control.c **** *
 675:Generated_Source\PSoC6/CapSense_1_Control.c **** *  If the Self-test library is enabled, this function executes the baseline duplication
 676:Generated_Source\PSoC6/CapSense_1_Control.c **** *  test. Refer to CapSense_1_CheckBaselineDuplication() for details.
 677:Generated_Source\PSoC6/CapSense_1_Control.c **** *
 678:Generated_Source\PSoC6/CapSense_1_Control.c **** * \param widgetId
 679:Generated_Source\PSoC6/CapSense_1_Control.c **** *  Specifies the ID number of the widget to process one of its sensors.
 680:Generated_Source\PSoC6/CapSense_1_Control.c **** *  A macro for the widget ID can be found in the
 681:Generated_Source\PSoC6/CapSense_1_Control.c **** *  CapSense_1 Configuration header file defined as
 682:Generated_Source\PSoC6/CapSense_1_Control.c **** *  CapSense_1_<WidgetName>_WDGT_ID.
 683:Generated_Source\PSoC6/CapSense_1_Control.c **** *
 684:Generated_Source\PSoC6/CapSense_1_Control.c **** * \param sensorId
 685:Generated_Source\PSoC6/CapSense_1_Control.c **** *  Specifies the ID number of the sensor within the widget to process it.
 686:Generated_Source\PSoC6/CapSense_1_Control.c **** *  A macro for the sensor ID within a specified widget can be found in the
 687:Generated_Source\PSoC6/CapSense_1_Control.c **** *  CapSense_1 Configuration header file defined as
 688:Generated_Source\PSoC6/CapSense_1_Control.c **** *  CapSense_1_<WidgetName>_SNS<SensorNumber>_ID.
 689:Generated_Source\PSoC6/CapSense_1_Control.c **** *
 690:Generated_Source\PSoC6/CapSense_1_Control.c **** * \param mode
 691:Generated_Source\PSoC6/CapSense_1_Control.c **** *  Specifies the type of the sensor processing that needs to be executed for the
 692:Generated_Source\PSoC6/CapSense_1_Control.c **** *  specified sensor:
 693:Generated_Source\PSoC6/CapSense_1_Control.c **** *    1. Bits [31..5] - Reserved
 694:Generated_Source\PSoC6/CapSense_1_Control.c **** *    2. Bits [4..0] - CapSense_1_PROCESS_ALL - Executes all the tasks
 695:Generated_Source\PSoC6/CapSense_1_Control.c **** *    3. Bit [4] - CapSense_1_PROCESS_THRESHOLDS - Updates the thresholds (only
 696:Generated_Source\PSoC6/CapSense_1_Control.c **** *       in auto-tuning mode)
 697:Generated_Source\PSoC6/CapSense_1_Control.c **** *    4. Bit [3] - CapSense_1_PROCESS_CALC_NOISE - Calculates the noise (only
 698:Generated_Source\PSoC6/CapSense_1_Control.c **** *       in auto-tuning mode)
 699:Generated_Source\PSoC6/CapSense_1_Control.c **** *    5. Bit [2] - CapSense_1_PROCESS_DIFFCOUNTS - Updates the difference count
 700:Generated_Source\PSoC6/CapSense_1_Control.c **** *    6. Bit [1] - CapSense_1_PROCESS_BASELINE - Updates the baseline
 701:Generated_Source\PSoC6/CapSense_1_Control.c **** *    7. Bit [0] - CapSense_1_PROCESS_FILTER - Runs the firmware filters
 702:Generated_Source\PSoC6/CapSense_1_Control.c **** *
 703:Generated_Source\PSoC6/CapSense_1_Control.c **** * \return
 704:Generated_Source\PSoC6/CapSense_1_Control.c **** *  Returns the status of the sensor process operation:
 705:Generated_Source\PSoC6/CapSense_1_Control.c **** *  - CY_RET_SUCCESS - The processing is successfully performed.
 706:Generated_Source\PSoC6/CapSense_1_Control.c **** *  - CY_RET_BAD_PARAM - The input parameter is invalid.
 707:Generated_Source\PSoC6/CapSense_1_Control.c **** *  - CY_RET_BAD_DATA - The processing failed.
 708:Generated_Source\PSoC6/CapSense_1_Control.c **** *
ARM GAS  C:\Users\enes_\AppData\Local\Temp\cctsluYK.s 			page 24


 709:Generated_Source\PSoC6/CapSense_1_Control.c **** *******************************************************************************/
 710:Generated_Source\PSoC6/CapSense_1_Control.c **** cy_status CapSense_1_ProcessSensorExt(uint32 widgetId, uint32 sensorId, uint32 mode)
 711:Generated_Source\PSoC6/CapSense_1_Control.c **** {
 580              		.loc 1 711 0
 581              		.cfi_startproc
 582              		@ args = 0, pretend = 0, frame = 0
 583              		@ frame_needed = 0, uses_anonymous_args = 0
 584              	.LVL80:
 712:Generated_Source\PSoC6/CapSense_1_Control.c ****     cy_status result = CY_RET_BAD_PARAM;
 713:Generated_Source\PSoC6/CapSense_1_Control.c ****     CapSense_1_FLASH_WD_STRUCT const *ptrFlashWdgt;
 714:Generated_Source\PSoC6/CapSense_1_Control.c ****     CapSense_1_PTR_FILTER_VARIANT fltrHistV;
 715:Generated_Source\PSoC6/CapSense_1_Control.c ****     CapSense_1_RAM_SNS_STRUCT *ptrSnsTmp;
 716:Generated_Source\PSoC6/CapSense_1_Control.c **** 
 717:Generated_Source\PSoC6/CapSense_1_Control.c ****     if ((widgetId < CapSense_1_TOTAL_WIDGETS) && (sensorId < CapSense_1_GET_SENSOR_COUNT(widgetId))
 585              		.loc 1 717 0
 586 0000 0228     		cmp	r0, #2
 587 0002 25D8     		bhi	.L63
 711:Generated_Source\PSoC6/CapSense_1_Control.c ****     cy_status result = CY_RET_BAD_PARAM;
 588              		.loc 1 711 0 discriminator 1
 589 0004 38B5     		push	{r3, r4, r5, lr}
 590              		.cfi_def_cfa_offset 16
 591              		.cfi_offset 3, -16
 592              		.cfi_offset 4, -12
 593              		.cfi_offset 5, -8
 594              		.cfi_offset 14, -4
 595              		.loc 1 717 0 discriminator 1
 596 0006 2C24     		movs	r4, #44
 597 0008 134B     		ldr	r3, .L67
 598 000a 04FB0034 		mla	r4, r4, r0, r3
 599 000e 238B     		ldrh	r3, [r4, #24]
 600 0010 8B42     		cmp	r3, r1
 601 0012 1FD9     		bls	.L64
 602 0014 1346     		mov	r3, r2
 603              	.LVL81:
 718:Generated_Source\PSoC6/CapSense_1_Control.c ****     {
 719:Generated_Source\PSoC6/CapSense_1_Control.c ****         result = CY_RET_SUCCESS;
 720:Generated_Source\PSoC6/CapSense_1_Control.c **** 
 721:Generated_Source\PSoC6/CapSense_1_Control.c ****         ptrFlashWdgt = &CapSense_1_dsFlash.wdgtArray[widgetId];
 604              		.loc 1 721 0
 605 0016 104A     		ldr	r2, .L67
 606              	.LVL82:
 607 0018 2C24     		movs	r4, #44
 608 001a 04FB0020 		mla	r0, r4, r0, r2
 609              	.LVL83:
 722:Generated_Source\PSoC6/CapSense_1_Control.c ****         fltrHistV.ptr = ptrFlashWdgt->ptr2FltrHistory;
 610              		.loc 1 722 0
 611 001e C268     		ldr	r2, [r0, #12]
 612              	.LVL84:
 723:Generated_Source\PSoC6/CapSense_1_Control.c ****         ptrSnsTmp = ptrFlashWdgt->ptr2SnsRam;
 613              		.loc 1 723 0
 614 0020 8568     		ldr	r5, [r0, #8]
 615              	.LVL85:
 724:Generated_Source\PSoC6/CapSense_1_Control.c ****         ptrSnsTmp += sensorId;
 616              		.loc 1 724 0
 617 0022 01EB8104 		add	r4, r1, r1, lsl #2
 618 0026 6100     		lsls	r1, r4, #1
 619              	.LVL86:
ARM GAS  C:\Users\enes_\AppData\Local\Temp\cctsluYK.s 			page 25


 620 0028 2944     		add	r1, r1, r5
 621              	.LVL87:
 725:Generated_Source\PSoC6/CapSense_1_Control.c **** 
 726:Generated_Source\PSoC6/CapSense_1_Control.c ****         switch(CapSense_1_GET_SENSE_METHOD(ptrFlashWdgt))
 622              		.loc 1 726 0
 623 002a C47E     		ldrb	r4, [r0, #27]	@ zero_extendqisi2
 624 002c 012C     		cmp	r4, #1
 625 002e 02D0     		beq	.L61
 626 0030 022C     		cmp	r4, #2
 627 0032 03D0     		beq	.L62
 628 0034 05E0     		b	.L65
 629              	.L61:
 727:Generated_Source\PSoC6/CapSense_1_Control.c ****         {
 728:Generated_Source\PSoC6/CapSense_1_Control.c ****         #if (0u != CapSense_1_TOTAL_CSD_WIDGETS)
 729:Generated_Source\PSoC6/CapSense_1_Control.c ****             case CapSense_1_SENSE_METHOD_CSD_E:
 730:Generated_Source\PSoC6/CapSense_1_Control.c ****                 if (CapSense_1_WD_PROXIMITY_E == (CapSense_1_WD_TYPE_ENUM)ptrFlashWdgt->wdgtType)
 731:Generated_Source\PSoC6/CapSense_1_Control.c ****                 {
 732:Generated_Source\PSoC6/CapSense_1_Control.c ****                     #if (0u != CapSense_1_PROX_RC_ALP_FILTER_EN)
 733:Generated_Source\PSoC6/CapSense_1_Control.c ****                         fltrHistV.ptr = &fltrHistV.ptrAlp[sensorId];
 734:Generated_Source\PSoC6/CapSense_1_Control.c ****                     #elif (0u != CapSense_1_PROX_RC_FILTER_EN)
 735:Generated_Source\PSoC6/CapSense_1_Control.c ****                         fltrHistV.ptr = &fltrHistV.ptrProx[sensorId];
 736:Generated_Source\PSoC6/CapSense_1_Control.c ****                     #endif
 737:Generated_Source\PSoC6/CapSense_1_Control.c ****                 }
 738:Generated_Source\PSoC6/CapSense_1_Control.c ****                 else
 739:Generated_Source\PSoC6/CapSense_1_Control.c ****                 {
 740:Generated_Source\PSoC6/CapSense_1_Control.c ****                     #if (0u != CapSense_1_REGULAR_RC_ALP_FILTER_EN)
 741:Generated_Source\PSoC6/CapSense_1_Control.c ****                         fltrHistV.ptr = &fltrHistV.ptrAlp[sensorId];
 742:Generated_Source\PSoC6/CapSense_1_Control.c ****                     #elif (0u != CapSense_1_REGULAR_RC_FILTER_EN)
 743:Generated_Source\PSoC6/CapSense_1_Control.c ****                         fltrHistV.ptr = &fltrHistV.ptrRegular[sensorId];
 744:Generated_Source\PSoC6/CapSense_1_Control.c ****                     #endif
 745:Generated_Source\PSoC6/CapSense_1_Control.c ****                 }
 746:Generated_Source\PSoC6/CapSense_1_Control.c **** 
 747:Generated_Source\PSoC6/CapSense_1_Control.c ****                 result = CapSense_1_DpProcessCsdSensorRawCountsExt(ptrFlashWdgt, ptrSnsTmp, fltrHis
 630              		.loc 1 747 0
 631 0036 FFF7FEFF 		bl	CapSense_1_DpProcessCsdSensorRawCountsExt
 632              	.LVL88:
 748:Generated_Source\PSoC6/CapSense_1_Control.c ****                 break;
 633              		.loc 1 748 0
 634 003a 38BD     		pop	{r3, r4, r5, pc}
 635              	.LVL89:
 636              	.L62:
 749:Generated_Source\PSoC6/CapSense_1_Control.c ****         #endif /* #if (0u != CapSense_1_TOTAL_CSD_WIDGETS) */
 750:Generated_Source\PSoC6/CapSense_1_Control.c **** 
 751:Generated_Source\PSoC6/CapSense_1_Control.c ****         #if (0u != CapSense_1_TOTAL_CSX_WIDGETS)
 752:Generated_Source\PSoC6/CapSense_1_Control.c ****             case CapSense_1_SENSE_METHOD_CSX_E:
 753:Generated_Source\PSoC6/CapSense_1_Control.c ****                 #if (0u != CapSense_1_REGULAR_RC_ALP_FILTER_EN)
 754:Generated_Source\PSoC6/CapSense_1_Control.c ****                     fltrHistV.ptr = &fltrHistV.ptrAlp[sensorId];
 755:Generated_Source\PSoC6/CapSense_1_Control.c ****                 #elif (0u != CapSense_1_REGULAR_RC_FILTER_EN)
 756:Generated_Source\PSoC6/CapSense_1_Control.c ****                     fltrHistV.ptr = &fltrHistV.ptrRegular[sensorId];
 757:Generated_Source\PSoC6/CapSense_1_Control.c ****                 #endif
 758:Generated_Source\PSoC6/CapSense_1_Control.c **** 
 759:Generated_Source\PSoC6/CapSense_1_Control.c ****                 result = CapSense_1_DpProcessCsxSensorRawCountsExt(ptrFlashWdgt, ptrSnsTmp, fltrHis
 637              		.loc 1 759 0
 638 003c FFF7FEFF 		bl	CapSense_1_DpProcessCsxSensorRawCountsExt
 639              	.LVL90:
 760:Generated_Source\PSoC6/CapSense_1_Control.c ****                 break;
 640              		.loc 1 760 0
ARM GAS  C:\Users\enes_\AppData\Local\Temp\cctsluYK.s 			page 26


 641 0040 38BD     		pop	{r3, r4, r5, pc}
 642              	.LVL91:
 643              	.L65:
 761:Generated_Source\PSoC6/CapSense_1_Control.c ****         #endif /* #if (0u != CapSense_1_TOTAL_CSX_WIDGETS) */
 762:Generated_Source\PSoC6/CapSense_1_Control.c **** 
 763:Generated_Source\PSoC6/CapSense_1_Control.c ****         default:
 764:Generated_Source\PSoC6/CapSense_1_Control.c ****             CY_ASSERT(0 != 0);
 644              		.loc 1 764 0 discriminator 1
 645 0042 4FF43F71 		mov	r1, #764
 646              	.LVL92:
 647 0046 0548     		ldr	r0, .L67+4
 648              	.LVL93:
 649 0048 FFF7FEFF 		bl	Cy_SysLib_AssertFailed
 650              	.LVL94:
 719:Generated_Source\PSoC6/CapSense_1_Control.c **** 
 651              		.loc 1 719 0 discriminator 1
 652 004c 0020     		movs	r0, #0
 765:Generated_Source\PSoC6/CapSense_1_Control.c ****             break;
 653              		.loc 1 765 0 discriminator 1
 654 004e 38BD     		pop	{r3, r4, r5, pc}
 655              	.LVL95:
 656              	.L63:
 657              		.cfi_def_cfa_offset 0
 658              		.cfi_restore 3
 659              		.cfi_restore 4
 660              		.cfi_restore 5
 661              		.cfi_restore 14
 712:Generated_Source\PSoC6/CapSense_1_Control.c ****     CapSense_1_FLASH_WD_STRUCT const *ptrFlashWdgt;
 662              		.loc 1 712 0
 663 0050 0120     		movs	r0, #1
 664              	.LVL96:
 766:Generated_Source\PSoC6/CapSense_1_Control.c ****         }
 767:Generated_Source\PSoC6/CapSense_1_Control.c **** 
 768:Generated_Source\PSoC6/CapSense_1_Control.c ****         #if (CapSense_1_ENABLE == CapSense_1_TST_BSLN_DUPLICATION_EN)
 769:Generated_Source\PSoC6/CapSense_1_Control.c ****             if (CY_RET_SUCCESS != result)
 770:Generated_Source\PSoC6/CapSense_1_Control.c ****             {
 771:Generated_Source\PSoC6/CapSense_1_Control.c ****                 CapSense_1_UpdateTestResultBaselineDuplication(widgetId, sensorId);
 772:Generated_Source\PSoC6/CapSense_1_Control.c ****                 result = CY_RET_BAD_DATA;
 773:Generated_Source\PSoC6/CapSense_1_Control.c ****             }
 774:Generated_Source\PSoC6/CapSense_1_Control.c ****         #endif /* (CapSense_1_ENABLE == CapSense_1_TST_BSLN_DUPLICATION_EN) */
 775:Generated_Source\PSoC6/CapSense_1_Control.c **** 
 776:Generated_Source\PSoC6/CapSense_1_Control.c ****     }
 777:Generated_Source\PSoC6/CapSense_1_Control.c ****     return result;
 778:Generated_Source\PSoC6/CapSense_1_Control.c **** }
 665              		.loc 1 778 0
 666 0052 7047     		bx	lr
 667              	.LVL97:
 668              	.L64:
 669              		.cfi_def_cfa_offset 16
 670              		.cfi_offset 3, -16
 671              		.cfi_offset 4, -12
 672              		.cfi_offset 5, -8
 673              		.cfi_offset 14, -4
 712:Generated_Source\PSoC6/CapSense_1_Control.c ****     CapSense_1_FLASH_WD_STRUCT const *ptrFlashWdgt;
 674              		.loc 1 712 0
 675 0054 0120     		movs	r0, #1
 676              	.LVL98:
ARM GAS  C:\Users\enes_\AppData\Local\Temp\cctsluYK.s 			page 27


 677              		.loc 1 778 0
 678 0056 38BD     		pop	{r3, r4, r5, pc}
 679              	.L68:
 680              		.align	2
 681              	.L67:
 682 0058 00000000 		.word	CapSense_1_dsFlash
 683 005c 00000000 		.word	.LC0
 684              		.cfi_endproc
 685              	.LFE274:
 686              		.size	CapSense_1_ProcessSensorExt, .-CapSense_1_ProcessSensorExt
 687              		.section	.text.CapSense_1_Sleep,"ax",%progbits
 688              		.align	2
 689              		.global	CapSense_1_Sleep
 690              		.thumb
 691              		.thumb_func
 692              		.type	CapSense_1_Sleep, %function
 693              	CapSense_1_Sleep:
 694              	.LFB275:
 779:Generated_Source\PSoC6/CapSense_1_Control.c **** 
 780:Generated_Source\PSoC6/CapSense_1_Control.c **** /*******************************************************************************
 781:Generated_Source\PSoC6/CapSense_1_Control.c **** * Function Name: CapSense_1_Sleep
 782:Generated_Source\PSoC6/CapSense_1_Control.c **** ****************************************************************************//**
 783:Generated_Source\PSoC6/CapSense_1_Control.c **** *
 784:Generated_Source\PSoC6/CapSense_1_Control.c **** * \brief
 785:Generated_Source\PSoC6/CapSense_1_Control.c **** *  Prepares the Component for deep sleep.
 786:Generated_Source\PSoC6/CapSense_1_Control.c **** *
 787:Generated_Source\PSoC6/CapSense_1_Control.c **** * \details
 788:Generated_Source\PSoC6/CapSense_1_Control.c **** *  Currently this function is empty and exists as a place for future updates,
 789:Generated_Source\PSoC6/CapSense_1_Control.c **** *  this function will be used to prepare the Component to enter deep sleep.
 790:Generated_Source\PSoC6/CapSense_1_Control.c **** *
 791:Generated_Source\PSoC6/CapSense_1_Control.c **** *******************************************************************************/
 792:Generated_Source\PSoC6/CapSense_1_Control.c **** void CapSense_1_Sleep(void)
 793:Generated_Source\PSoC6/CapSense_1_Control.c **** {
 695              		.loc 1 793 0
 696              		.cfi_startproc
 697              		@ args = 0, pretend = 0, frame = 0
 698              		@ frame_needed = 0, uses_anonymous_args = 0
 699              		@ link register save eliminated.
 700 0000 7047     		bx	lr
 701              		.cfi_endproc
 702              	.LFE275:
 703              		.size	CapSense_1_Sleep, .-CapSense_1_Sleep
 704 0002 00BF     		.section	.text.CapSense_1_Wakeup,"ax",%progbits
 705              		.align	2
 706              		.global	CapSense_1_Wakeup
 707              		.thumb
 708              		.thumb_func
 709              		.type	CapSense_1_Wakeup, %function
 710              	CapSense_1_Wakeup:
 711              	.LFB276:
 794:Generated_Source\PSoC6/CapSense_1_Control.c **** }
 795:Generated_Source\PSoC6/CapSense_1_Control.c **** 
 796:Generated_Source\PSoC6/CapSense_1_Control.c **** 
 797:Generated_Source\PSoC6/CapSense_1_Control.c **** /*******************************************************************************
 798:Generated_Source\PSoC6/CapSense_1_Control.c **** * Function Name: CapSense_1_Wakeup
 799:Generated_Source\PSoC6/CapSense_1_Control.c **** ****************************************************************************//**
 800:Generated_Source\PSoC6/CapSense_1_Control.c **** *
ARM GAS  C:\Users\enes_\AppData\Local\Temp\cctsluYK.s 			page 28


 801:Generated_Source\PSoC6/CapSense_1_Control.c **** * \brief
 802:Generated_Source\PSoC6/CapSense_1_Control.c **** *  Resumes the Component after sleep.
 803:Generated_Source\PSoC6/CapSense_1_Control.c **** *
 804:Generated_Source\PSoC6/CapSense_1_Control.c **** * \details
 805:Generated_Source\PSoC6/CapSense_1_Control.c **** *  Resumes the Component after sleep. This function shall be used to resume
 806:Generated_Source\PSoC6/CapSense_1_Control.c **** *  the Component after exiting deep sleep.
 807:Generated_Source\PSoC6/CapSense_1_Control.c **** *
 808:Generated_Source\PSoC6/CapSense_1_Control.c **** *******************************************************************************/
 809:Generated_Source\PSoC6/CapSense_1_Control.c **** void CapSense_1_Wakeup(void)
 810:Generated_Source\PSoC6/CapSense_1_Control.c **** {
 712              		.loc 1 810 0
 713              		.cfi_startproc
 714              		@ args = 0, pretend = 0, frame = 0
 715              		@ frame_needed = 0, uses_anonymous_args = 0
 716              		@ link register save eliminated.
 717 0000 7047     		bx	lr
 718              		.cfi_endproc
 719              	.LFE276:
 720              		.size	CapSense_1_Wakeup, .-CapSense_1_Wakeup
 721 0002 00BF     		.section	.text.CapSense_1_DeepSleepCallback,"ax",%progbits
 722              		.align	2
 723              		.global	CapSense_1_DeepSleepCallback
 724              		.thumb
 725              		.thumb_func
 726              		.type	CapSense_1_DeepSleepCallback, %function
 727              	CapSense_1_DeepSleepCallback:
 728              	.LFB277:
 811:Generated_Source\PSoC6/CapSense_1_Control.c ****     #if(CapSense_1_BLOCK_ANALOG_WAKEUP_DELAY_US > 0uL)
 812:Generated_Source\PSoC6/CapSense_1_Control.c ****         Cy_SysLib_DelayUs(CapSense_1_BLOCK_ANALOG_WAKEUP_DELAY_US);
 813:Generated_Source\PSoC6/CapSense_1_Control.c ****     #endif /* (CapSense_1_BLOCK_ANALOG_WAKEUP_DELAY_US > 0uL) */
 814:Generated_Source\PSoC6/CapSense_1_Control.c **** }
 815:Generated_Source\PSoC6/CapSense_1_Control.c **** 
 816:Generated_Source\PSoC6/CapSense_1_Control.c **** 
 817:Generated_Source\PSoC6/CapSense_1_Control.c **** #if (CY_SYSPM_DRV_VERSION_MAJOR < 4u)
 818:Generated_Source\PSoC6/CapSense_1_Control.c ****     /*******************************************************************************
 819:Generated_Source\PSoC6/CapSense_1_Control.c ****     * Function Name: CapSense_1_DeepSleepCallback
 820:Generated_Source\PSoC6/CapSense_1_Control.c ****     ****************************************************************************//**
 821:Generated_Source\PSoC6/CapSense_1_Control.c ****     *
 822:Generated_Source\PSoC6/CapSense_1_Control.c ****     * \brief
 823:Generated_Source\PSoC6/CapSense_1_Control.c ****     *  Handles Active to DeepSleep power mode transition for the CapSense_1
 824:Generated_Source\PSoC6/CapSense_1_Control.c ****     *  Component. This function is used when the major version of the SysPm driver
 825:Generated_Source\PSoC6/CapSense_1_Control.c ****     *  is less than 4.
 826:Generated_Source\PSoC6/CapSense_1_Control.c ****     *
 827:Generated_Source\PSoC6/CapSense_1_Control.c ****     * \details
 828:Generated_Source\PSoC6/CapSense_1_Control.c ****     *  This function handles Active to DeepSleep power mode transition
 829:Generated_Source\PSoC6/CapSense_1_Control.c ****     *  for the CapSense_1 Component.
 830:Generated_Source\PSoC6/CapSense_1_Control.c ****     *  Calling this function directly by application layer is not recommended.
 831:Generated_Source\PSoC6/CapSense_1_Control.c ****     *  Instead, Cy_SysPm_DeepSleep() should be used for the Active to DeepSleep
 832:Generated_Source\PSoC6/CapSense_1_Control.c ****     *  power mode transition of the device.
 833:Generated_Source\PSoC6/CapSense_1_Control.c ****     *
 834:Generated_Source\PSoC6/CapSense_1_Control.c ****     *  For proper operation of the CapSense_1 Component during the Active to
 835:Generated_Source\PSoC6/CapSense_1_Control.c ****     *  DeepSleep mode transition, a callback to this API should be registered
 836:Generated_Source\PSoC6/CapSense_1_Control.c ****     *  using the Cy_SysPm_RegisterCallback() function with CY_SYSPM_DEEPSLEEP
 837:Generated_Source\PSoC6/CapSense_1_Control.c ****     *  type. Once the callback is registered, this function is called by the
 838:Generated_Source\PSoC6/CapSense_1_Control.c ****     *  Cy_SysPm_DeepSleep() function to prepare the Component to the device
 839:Generated_Source\PSoC6/CapSense_1_Control.c ****     *  power mode transition.
 840:Generated_Source\PSoC6/CapSense_1_Control.c ****     *
ARM GAS  C:\Users\enes_\AppData\Local\Temp\cctsluYK.s 			page 29


 841:Generated_Source\PSoC6/CapSense_1_Control.c ****     *  When this function is called with CY_SYSPM_CHECK_READY as input, this
 842:Generated_Source\PSoC6/CapSense_1_Control.c ****     *  function returns CY_SYSPM_SUCCESS if no scanning is in progress, otherwise
 843:Generated_Source\PSoC6/CapSense_1_Control.c ****     *  CY_SYSPM_FAIL is returned. If CY_SYSPM_FAIL status is returned, a device
 844:Generated_Source\PSoC6/CapSense_1_Control.c ****     *  cannot change the power mode without completing the current scan as
 845:Generated_Source\PSoC6/CapSense_1_Control.c ****     *  a transition to DeepSleep during the scan can disrupt the Component
 846:Generated_Source\PSoC6/CapSense_1_Control.c ****     *  operation.
 847:Generated_Source\PSoC6/CapSense_1_Control.c ****     *
 848:Generated_Source\PSoC6/CapSense_1_Control.c ****     * \param callbackParams
 849:Generated_Source\PSoC6/CapSense_1_Control.c ****     *  Refer to the description of the cy_stc_syspm_callback_params_t type in the
 850:Generated_Source\PSoC6/CapSense_1_Control.c ****     *  Peripheral Driver Library documentation.
 851:Generated_Source\PSoC6/CapSense_1_Control.c ****     *
 852:Generated_Source\PSoC6/CapSense_1_Control.c ****     * \return
 853:Generated_Source\PSoC6/CapSense_1_Control.c ****     *  Returns the status of the operation requested by the mode parameter:
 854:Generated_Source\PSoC6/CapSense_1_Control.c ****     *  - CY_SYSPM_SUCCESS  - DeepSleep power mode can be entered.
 855:Generated_Source\PSoC6/CapSense_1_Control.c ****     *  - CY_SYSPM_FAIL     - DeepSleep power mode cannot be entered.
 856:Generated_Source\PSoC6/CapSense_1_Control.c ****     *
 857:Generated_Source\PSoC6/CapSense_1_Control.c ****     *******************************************************************************/
 858:Generated_Source\PSoC6/CapSense_1_Control.c ****     cy_en_syspm_status_t CapSense_1_DeepSleepCallback(cy_stc_syspm_callback_params_t *callbackParam
 859:Generated_Source\PSoC6/CapSense_1_Control.c ****     {
 860:Generated_Source\PSoC6/CapSense_1_Control.c ****         return(CapSense_1_SwitchPowerModeCallback(callbackParams));
 861:Generated_Source\PSoC6/CapSense_1_Control.c ****     }
 862:Generated_Source\PSoC6/CapSense_1_Control.c **** 
 863:Generated_Source\PSoC6/CapSense_1_Control.c **** 
 864:Generated_Source\PSoC6/CapSense_1_Control.c ****     /*******************************************************************************
 865:Generated_Source\PSoC6/CapSense_1_Control.c ****     * Function Name: CapSense_1_EnterLowPowerCallback
 866:Generated_Source\PSoC6/CapSense_1_Control.c ****     ****************************************************************************//**
 867:Generated_Source\PSoC6/CapSense_1_Control.c ****     *
 868:Generated_Source\PSoC6/CapSense_1_Control.c ****     * \brief
 869:Generated_Source\PSoC6/CapSense_1_Control.c ****     *  Handles Active to Low Power Active (LPActive) power mode transition for
 870:Generated_Source\PSoC6/CapSense_1_Control.c ****     *  the CapSense_1 Component. This function is used when the major version
 871:Generated_Source\PSoC6/CapSense_1_Control.c ****     *  of the SysPm driver is less than 4.
 872:Generated_Source\PSoC6/CapSense_1_Control.c ****     *
 873:Generated_Source\PSoC6/CapSense_1_Control.c ****     * \details
 874:Generated_Source\PSoC6/CapSense_1_Control.c ****     *  This function handles the Active to LPActive power mode transition for
 875:Generated_Source\PSoC6/CapSense_1_Control.c ****     *  the CapSense_1 Component.
 876:Generated_Source\PSoC6/CapSense_1_Control.c ****     *  Calling this function directly by application layer is not recommended.
 877:Generated_Source\PSoC6/CapSense_1_Control.c ****     *  Instead, Cy_SysPm_EnterLpMode() should be used for the Active to LPActive
 878:Generated_Source\PSoC6/CapSense_1_Control.c ****     *  power mode transition of the device.
 879:Generated_Source\PSoC6/CapSense_1_Control.c ****     *
 880:Generated_Source\PSoC6/CapSense_1_Control.c ****     *  For proper operation of the CapSense_1 Component during the Active to
 881:Generated_Source\PSoC6/CapSense_1_Control.c ****     *  LPActive mode transition, a callback to this function should be registered
 882:Generated_Source\PSoC6/CapSense_1_Control.c ****     *  using the Cy_SysPm_RegisterCallback() function with CY_SYSPM_ENTER_LP_MODE
 883:Generated_Source\PSoC6/CapSense_1_Control.c ****     *  type. Once the callback is registered, this function is called by the
 884:Generated_Source\PSoC6/CapSense_1_Control.c ****     *  Cy_SysPm_EnterLpMode() function to prepare the Component to the device
 885:Generated_Source\PSoC6/CapSense_1_Control.c ****     *  power mode transition.
 886:Generated_Source\PSoC6/CapSense_1_Control.c ****     *
 887:Generated_Source\PSoC6/CapSense_1_Control.c ****     *  When this function is called with CY_SYSPM_CHECK_READY as input, this
 888:Generated_Source\PSoC6/CapSense_1_Control.c ****     *  function returns CY_SYSPM_SUCCESS if no scanning is in progress, otherwise
 889:Generated_Source\PSoC6/CapSense_1_Control.c ****     *  CY_SYSPM_FAIL is returned. If CY_SYSPM_FAIL status is returned, a device
 890:Generated_Source\PSoC6/CapSense_1_Control.c ****     *  cannot change the power mode without completing the current scan as
 891:Generated_Source\PSoC6/CapSense_1_Control.c ****     *  a transition to LPActive during the scan can disrupt the Component
 892:Generated_Source\PSoC6/CapSense_1_Control.c ****     *  operation.
 893:Generated_Source\PSoC6/CapSense_1_Control.c ****     *
 894:Generated_Source\PSoC6/CapSense_1_Control.c ****     * \param callbackParams
 895:Generated_Source\PSoC6/CapSense_1_Control.c ****     *  Refer to the description of the cy_stc_syspm_callback_params_t type in the
 896:Generated_Source\PSoC6/CapSense_1_Control.c ****     *  Peripheral Driver Library documentation.
 897:Generated_Source\PSoC6/CapSense_1_Control.c ****     *
ARM GAS  C:\Users\enes_\AppData\Local\Temp\cctsluYK.s 			page 30


 898:Generated_Source\PSoC6/CapSense_1_Control.c ****     * \return
 899:Generated_Source\PSoC6/CapSense_1_Control.c ****     *  Returns the status of the operation requested by the mode parameter:
 900:Generated_Source\PSoC6/CapSense_1_Control.c ****     *  - CY_SYSPM_SUCCESS  - LPActive power mode can be entered.
 901:Generated_Source\PSoC6/CapSense_1_Control.c ****     *  - CY_SYSPM_FAIL     - LPActive power mode cannot be entered.
 902:Generated_Source\PSoC6/CapSense_1_Control.c ****     *
 903:Generated_Source\PSoC6/CapSense_1_Control.c ****     *******************************************************************************/
 904:Generated_Source\PSoC6/CapSense_1_Control.c ****     cy_en_syspm_status_t CapSense_1_EnterLowPowerCallback(cy_stc_syspm_callback_params_t *callbackP
 905:Generated_Source\PSoC6/CapSense_1_Control.c ****     {
 906:Generated_Source\PSoC6/CapSense_1_Control.c ****         return(CapSense_1_SwitchPowerModeCallback(callbackParams));
 907:Generated_Source\PSoC6/CapSense_1_Control.c ****     }
 908:Generated_Source\PSoC6/CapSense_1_Control.c **** 
 909:Generated_Source\PSoC6/CapSense_1_Control.c **** 
 910:Generated_Source\PSoC6/CapSense_1_Control.c ****     /*******************************************************************************
 911:Generated_Source\PSoC6/CapSense_1_Control.c ****     * Function Name: CapSense_1_ExitLowPowerCallback
 912:Generated_Source\PSoC6/CapSense_1_Control.c ****     ****************************************************************************//**
 913:Generated_Source\PSoC6/CapSense_1_Control.c ****     *
 914:Generated_Source\PSoC6/CapSense_1_Control.c ****     * \brief
 915:Generated_Source\PSoC6/CapSense_1_Control.c ****     *  Handles Low Power Active (LPActive) to Active power mode transition for
 916:Generated_Source\PSoC6/CapSense_1_Control.c ****     *  the CapSense_1 Component. This function is used when the major version
 917:Generated_Source\PSoC6/CapSense_1_Control.c ****     *  of the SysPm driver is less than 4.
 918:Generated_Source\PSoC6/CapSense_1_Control.c ****     *
 919:Generated_Source\PSoC6/CapSense_1_Control.c ****     * \details
 920:Generated_Source\PSoC6/CapSense_1_Control.c ****     *  This function handles LPActive to Active power mode transition for
 921:Generated_Source\PSoC6/CapSense_1_Control.c ****     *  the CapSense_1 Component.
 922:Generated_Source\PSoC6/CapSense_1_Control.c ****     *  Calling this function directly by application layer is not recommended.
 923:Generated_Source\PSoC6/CapSense_1_Control.c ****     *  Instead, Cy_SysPm_ExitLpMode() should be used for the LPActive to Active
 924:Generated_Source\PSoC6/CapSense_1_Control.c ****     *  power mode transition of the device.
 925:Generated_Source\PSoC6/CapSense_1_Control.c ****     *
 926:Generated_Source\PSoC6/CapSense_1_Control.c ****     *  For proper operation of the CapSense_1 Component during the LPActive to
 927:Generated_Source\PSoC6/CapSense_1_Control.c ****     *  Active mode transition, a callback to this function should be registered
 928:Generated_Source\PSoC6/CapSense_1_Control.c ****     *  using Cy_SysPm_RegisterCallback() function with CY_SYSPM_EXIT_LP_MODE
 929:Generated_Source\PSoC6/CapSense_1_Control.c ****     *  type. Once the callback is registered, this function is called by the
 930:Generated_Source\PSoC6/CapSense_1_Control.c ****     *  Cy_SysPm_ExitLpMode() function to prepare the Component to the device
 931:Generated_Source\PSoC6/CapSense_1_Control.c ****     *  power mode transition.
 932:Generated_Source\PSoC6/CapSense_1_Control.c ****     *
 933:Generated_Source\PSoC6/CapSense_1_Control.c ****     *  When this function is called with CY_SYSPM_CHECK_READY as input, this
 934:Generated_Source\PSoC6/CapSense_1_Control.c ****     *  function returns CY_SYSPM_SUCCESS if no scanning is in progress, otherwise
 935:Generated_Source\PSoC6/CapSense_1_Control.c ****     *  CY_SYSPM_FAIL is returned. If CY_SYSPM_FAIL status is returned, a device
 936:Generated_Source\PSoC6/CapSense_1_Control.c ****     *  cannot change the power mode without completing the current scan as
 937:Generated_Source\PSoC6/CapSense_1_Control.c ****     *  a transition to Active during the scan can disrupt the Component
 938:Generated_Source\PSoC6/CapSense_1_Control.c ****     *  operation.
 939:Generated_Source\PSoC6/CapSense_1_Control.c **** 
 940:Generated_Source\PSoC6/CapSense_1_Control.c ****     * \param callbackParams
 941:Generated_Source\PSoC6/CapSense_1_Control.c ****     *  Refer to the description of the cy_stc_syspm_callback_params_t type in the
 942:Generated_Source\PSoC6/CapSense_1_Control.c ****     *  Peripheral Driver Library documentation.
 943:Generated_Source\PSoC6/CapSense_1_Control.c ****     *
 944:Generated_Source\PSoC6/CapSense_1_Control.c ****     * \return
 945:Generated_Source\PSoC6/CapSense_1_Control.c ****     *  Returns the status of the operation requested by the mode parameter:
 946:Generated_Source\PSoC6/CapSense_1_Control.c ****     *  - CY_SYSPM_SUCCESS  - Active power mode can be entered.
 947:Generated_Source\PSoC6/CapSense_1_Control.c ****     *  - CY_SYSPM_FAIL     - Active power mode cannot be entered.
 948:Generated_Source\PSoC6/CapSense_1_Control.c ****     *
 949:Generated_Source\PSoC6/CapSense_1_Control.c ****     *******************************************************************************/
 950:Generated_Source\PSoC6/CapSense_1_Control.c ****     cy_en_syspm_status_t CapSense_1_ExitLowPowerCallback(cy_stc_syspm_callback_params_t *callbackPa
 951:Generated_Source\PSoC6/CapSense_1_Control.c ****     {
 952:Generated_Source\PSoC6/CapSense_1_Control.c ****         return(CapSense_1_SwitchPowerModeCallback(callbackParams));
 953:Generated_Source\PSoC6/CapSense_1_Control.c ****     }
 954:Generated_Source\PSoC6/CapSense_1_Control.c **** 
ARM GAS  C:\Users\enes_\AppData\Local\Temp\cctsluYK.s 			page 31


 955:Generated_Source\PSoC6/CapSense_1_Control.c **** 
 956:Generated_Source\PSoC6/CapSense_1_Control.c ****     /*******************************************************************************
 957:Generated_Source\PSoC6/CapSense_1_Control.c ****     * Function Name: CapSense_1_SwitchPowerModeCallback
 958:Generated_Source\PSoC6/CapSense_1_Control.c ****     ****************************************************************************//**
 959:Generated_Source\PSoC6/CapSense_1_Control.c ****     *
 960:Generated_Source\PSoC6/CapSense_1_Control.c ****     * \brief
 961:Generated_Source\PSoC6/CapSense_1_Control.c ****     *  Handles the switching power mode for the CapSense_1 Component.
 962:Generated_Source\PSoC6/CapSense_1_Control.c ****     *
 963:Generated_Source\PSoC6/CapSense_1_Control.c ****     * \details
 964:Generated_Source\PSoC6/CapSense_1_Control.c ****     *  This function handles swithing of system power mode.
 965:Generated_Source\PSoC6/CapSense_1_Control.c ****     *  When this function is called with the mode parameter set to CY_SYSPM_CHECK_READY,
 966:Generated_Source\PSoC6/CapSense_1_Control.c ****     *  the function returns CY_SYSPM_SUCCESS if no scanning is in progress, otherwise
 967:Generated_Source\PSoC6/CapSense_1_Control.c ****     *  CY_SYSPM_FAIL is returned that means that the device cannot switch the power mode
 968:Generated_Source\PSoC6/CapSense_1_Control.c ****     *  without finishing the current scan that is in progress (switching power mode
 969:Generated_Source\PSoC6/CapSense_1_Control.c ****     *  during the scan can disrupt a sensor scan result and produce an unexpected
 970:Generated_Source\PSoC6/CapSense_1_Control.c ****     *  behavior).
 971:Generated_Source\PSoC6/CapSense_1_Control.c ****     *
 972:Generated_Source\PSoC6/CapSense_1_Control.c ****     * \param callbackParams
 973:Generated_Source\PSoC6/CapSense_1_Control.c ****     *  Refer to the description of the cy_stc_syspm_callback_params_t type.
 974:Generated_Source\PSoC6/CapSense_1_Control.c ****     *
 975:Generated_Source\PSoC6/CapSense_1_Control.c ****     * \return
 976:Generated_Source\PSoC6/CapSense_1_Control.c ****     *  Returns the status of the operation requeted by mode parameter:
 977:Generated_Source\PSoC6/CapSense_1_Control.c ****     *  - CY_SYSPM_SUCCESS  - Switching power mode can be done
 978:Generated_Source\PSoC6/CapSense_1_Control.c ****     *  - CY_SYSPM_FAIL     - Switching power mode cannot be done.
 979:Generated_Source\PSoC6/CapSense_1_Control.c ****     *
 980:Generated_Source\PSoC6/CapSense_1_Control.c ****     *******************************************************************************/
 981:Generated_Source\PSoC6/CapSense_1_Control.c ****     static cy_en_syspm_status_t CapSense_1_SwitchPowerModeCallback(cy_stc_syspm_callback_params_t *
 982:Generated_Source\PSoC6/CapSense_1_Control.c ****     {
 983:Generated_Source\PSoC6/CapSense_1_Control.c ****         cy_en_syspm_status_t retVal = CY_SYSPM_SUCCESS;
 984:Generated_Source\PSoC6/CapSense_1_Control.c **** 
 985:Generated_Source\PSoC6/CapSense_1_Control.c ****         #if (0u != CapSense_1_ADC_EN)
 986:Generated_Source\PSoC6/CapSense_1_Control.c ****             uint8 temp;
 987:Generated_Source\PSoC6/CapSense_1_Control.c ****         #endif /* (0u != CapSense_1_ADC_EN) */
 988:Generated_Source\PSoC6/CapSense_1_Control.c **** 
 989:Generated_Source\PSoC6/CapSense_1_Control.c ****         switch(callbackParams->mode)
 990:Generated_Source\PSoC6/CapSense_1_Control.c ****         {
 991:Generated_Source\PSoC6/CapSense_1_Control.c ****         case (CY_SYSPM_CHECK_READY):
 992:Generated_Source\PSoC6/CapSense_1_Control.c ****             if (CapSense_1_NOT_BUSY != CapSense_1_IsBusy())
 993:Generated_Source\PSoC6/CapSense_1_Control.c ****             {
 994:Generated_Source\PSoC6/CapSense_1_Control.c ****                 /* Scanning in progress */
 995:Generated_Source\PSoC6/CapSense_1_Control.c ****                 retVal = CY_SYSPM_FAIL;
 996:Generated_Source\PSoC6/CapSense_1_Control.c ****             }
 997:Generated_Source\PSoC6/CapSense_1_Control.c ****             #if (0u != CapSense_1_ADC_EN)
 998:Generated_Source\PSoC6/CapSense_1_Control.c ****                 temp = CapSense_1_AdcIsBusy();
 999:Generated_Source\PSoC6/CapSense_1_Control.c ****                 if ((CapSense_1_AdcSTATUS_IDLE != temp) &&
1000:Generated_Source\PSoC6/CapSense_1_Control.c ****                     (CapSense_1_AdcSTATUS_OVERFLOW != temp))
1001:Generated_Source\PSoC6/CapSense_1_Control.c ****                 {
1002:Generated_Source\PSoC6/CapSense_1_Control.c ****                     /* Scanning in progress */
1003:Generated_Source\PSoC6/CapSense_1_Control.c ****                     retVal = CY_SYSPM_FAIL;
1004:Generated_Source\PSoC6/CapSense_1_Control.c ****                 }
1005:Generated_Source\PSoC6/CapSense_1_Control.c ****             #endif /* (0u != CapSense_1_ADC_EN) */
1006:Generated_Source\PSoC6/CapSense_1_Control.c ****             break;
1007:Generated_Source\PSoC6/CapSense_1_Control.c **** 
1008:Generated_Source\PSoC6/CapSense_1_Control.c ****         default:
1009:Generated_Source\PSoC6/CapSense_1_Control.c ****             break;
1010:Generated_Source\PSoC6/CapSense_1_Control.c ****         }
1011:Generated_Source\PSoC6/CapSense_1_Control.c **** 
ARM GAS  C:\Users\enes_\AppData\Local\Temp\cctsluYK.s 			page 32


1012:Generated_Source\PSoC6/CapSense_1_Control.c ****         return(retVal);
1013:Generated_Source\PSoC6/CapSense_1_Control.c ****     }
1014:Generated_Source\PSoC6/CapSense_1_Control.c **** #else
1015:Generated_Source\PSoC6/CapSense_1_Control.c **** 
1016:Generated_Source\PSoC6/CapSense_1_Control.c **** 
1017:Generated_Source\PSoC6/CapSense_1_Control.c ****     /*******************************************************************************
1018:Generated_Source\PSoC6/CapSense_1_Control.c ****     * Function Name: CapSense_1_DeepSleepCallback
1019:Generated_Source\PSoC6/CapSense_1_Control.c ****     ****************************************************************************//**
1020:Generated_Source\PSoC6/CapSense_1_Control.c ****     *
1021:Generated_Source\PSoC6/CapSense_1_Control.c ****     * \brief
1022:Generated_Source\PSoC6/CapSense_1_Control.c ****     *  Handles Active to Deep Sleep power mode transition for the CapSense_1
1023:Generated_Source\PSoC6/CapSense_1_Control.c ****     *  Component. This function is used when the major version of the SysPm driver
1024:Generated_Source\PSoC6/CapSense_1_Control.c ****     *  is 4 or greater.
1025:Generated_Source\PSoC6/CapSense_1_Control.c ****     *
1026:Generated_Source\PSoC6/CapSense_1_Control.c ****     * \details
1027:Generated_Source\PSoC6/CapSense_1_Control.c ****     *  This function handles Active to Deep Sleep power mode transition for the
1028:Generated_Source\PSoC6/CapSense_1_Control.c ****     *  CapSense_1 Component.
1029:Generated_Source\PSoC6/CapSense_1_Control.c ****     *  Calling this function directly from the application layer is not recommended.
1030:Generated_Source\PSoC6/CapSense_1_Control.c ****     *  Instead, Cy_SysPm_CpuEnterDeepSleep() should be used for the Active to Deep Sleep
1031:Generated_Source\PSoC6/CapSense_1_Control.c ****     *  power mode transition of the device.
1032:Generated_Source\PSoC6/CapSense_1_Control.c ****     *
1033:Generated_Source\PSoC6/CapSense_1_Control.c ****     *  For proper operation of the CapSense_1 Component during the Active to
1034:Generated_Source\PSoC6/CapSense_1_Control.c ****     *  Deep Sleep mode transition, a callback to this function should be registered
1035:Generated_Source\PSoC6/CapSense_1_Control.c ****     *  using the Cy_SysPm_RegisterCallback() function with CY_SYSPM_DEEPSLEEP
1036:Generated_Source\PSoC6/CapSense_1_Control.c ****     *  type. After the callback is registered, this function is called by the
1037:Generated_Source\PSoC6/CapSense_1_Control.c ****     *  Cy_SysPm_CpuEnterDeepSleep() function to prepare the Component to the device
1038:Generated_Source\PSoC6/CapSense_1_Control.c ****     *  power mode transition.
1039:Generated_Source\PSoC6/CapSense_1_Control.c ****     *
1040:Generated_Source\PSoC6/CapSense_1_Control.c ****     *  When this function is called with CY_SYSPM_CHECK_READY as input, this
1041:Generated_Source\PSoC6/CapSense_1_Control.c ****     *  function returns CY_SYSPM_SUCCESS if no scanning is in progress. Otherwise
1042:Generated_Source\PSoC6/CapSense_1_Control.c ****     *  CY_SYSPM_FAIL is returned. If CY_SYSPM_FAIL status is returned, a device
1043:Generated_Source\PSoC6/CapSense_1_Control.c ****     *  cannot change the power mode without completing the current scan as
1044:Generated_Source\PSoC6/CapSense_1_Control.c ****     *  a transition to Deep Sleep during the scan can disrupt the Component
1045:Generated_Source\PSoC6/CapSense_1_Control.c ****     *  operation.
1046:Generated_Source\PSoC6/CapSense_1_Control.c ****     *
1047:Generated_Source\PSoC6/CapSense_1_Control.c ****     * \param callbackParams
1048:Generated_Source\PSoC6/CapSense_1_Control.c ****     *  Refer to the description of the cy_stc_syspm_callback_params_t type in the
1049:Generated_Source\PSoC6/CapSense_1_Control.c ****     *  Peripheral Driver Library documentation.
1050:Generated_Source\PSoC6/CapSense_1_Control.c ****     *
1051:Generated_Source\PSoC6/CapSense_1_Control.c ****     * \param mode
1052:Generated_Source\PSoC6/CapSense_1_Control.c ****     *  Specifies mode cy_en_syspm_callback_mode_t.
1053:Generated_Source\PSoC6/CapSense_1_Control.c ****     *
1054:Generated_Source\PSoC6/CapSense_1_Control.c ****     * \return
1055:Generated_Source\PSoC6/CapSense_1_Control.c ****     *  Returns the status cy_en_syspm_status_t of the operation requested
1056:Generated_Source\PSoC6/CapSense_1_Control.c ****     *  by the mode parameter:
1057:Generated_Source\PSoC6/CapSense_1_Control.c ****     *  - CY_SYSPM_SUCCESS  - Deep Sleep power mode can be entered.
1058:Generated_Source\PSoC6/CapSense_1_Control.c ****     *  - CY_SYSPM_FAIL     - Deep Sleep power mode cannot be entered.
1059:Generated_Source\PSoC6/CapSense_1_Control.c ****     *
1060:Generated_Source\PSoC6/CapSense_1_Control.c ****     *******************************************************************************/
1061:Generated_Source\PSoC6/CapSense_1_Control.c ****     cy_en_syspm_status_t CapSense_1_DeepSleepCallback(
1062:Generated_Source\PSoC6/CapSense_1_Control.c ****                          cy_stc_syspm_callback_params_t * callbackParams,
1063:Generated_Source\PSoC6/CapSense_1_Control.c ****                          cy_en_syspm_callback_mode_t mode)
1064:Generated_Source\PSoC6/CapSense_1_Control.c ****     {
 729              		.loc 1 1064 0
 730              		.cfi_startproc
 731              		@ args = 0, pretend = 0, frame = 0
 732              		@ frame_needed = 0, uses_anonymous_args = 0
ARM GAS  C:\Users\enes_\AppData\Local\Temp\cctsluYK.s 			page 33


 733              	.LVL99:
1065:Generated_Source\PSoC6/CapSense_1_Control.c ****         cy_en_syspm_status_t retVal = CY_SYSPM_SUCCESS;
1066:Generated_Source\PSoC6/CapSense_1_Control.c **** 
1067:Generated_Source\PSoC6/CapSense_1_Control.c ****         #if (0u != CapSense_1_ADC_EN)
1068:Generated_Source\PSoC6/CapSense_1_Control.c ****             uint8 temp;
1069:Generated_Source\PSoC6/CapSense_1_Control.c ****         #endif /* (0u != CapSense_1_ADC_EN) */
1070:Generated_Source\PSoC6/CapSense_1_Control.c **** 
1071:Generated_Source\PSoC6/CapSense_1_Control.c ****         (void)callbackParams;
1072:Generated_Source\PSoC6/CapSense_1_Control.c ****         switch(mode)
 734              		.loc 1 1072 0
 735 0000 0129     		cmp	r1, #1
 736 0002 04D1     		bne	.L76
1064:Generated_Source\PSoC6/CapSense_1_Control.c ****         cy_en_syspm_status_t retVal = CY_SYSPM_SUCCESS;
 737              		.loc 1 1064 0
 738 0004 08B5     		push	{r3, lr}
 739              		.cfi_def_cfa_offset 8
 740              		.cfi_offset 3, -8
 741              		.cfi_offset 14, -4
1073:Generated_Source\PSoC6/CapSense_1_Control.c ****         {
1074:Generated_Source\PSoC6/CapSense_1_Control.c ****         case (CY_SYSPM_CHECK_READY):
1075:Generated_Source\PSoC6/CapSense_1_Control.c ****             if (CapSense_1_NOT_BUSY != CapSense_1_IsBusy())
 742              		.loc 1 1075 0
 743 0006 FFF7FEFF 		bl	CapSense_1_IsBusy
 744              	.LVL100:
 745 000a 10B9     		cbnz	r0, .L75
 746 000c 08BD     		pop	{r3, pc}
 747              	.LVL101:
 748              	.L76:
 749              		.cfi_def_cfa_offset 0
 750              		.cfi_restore 3
 751              		.cfi_restore 14
1065:Generated_Source\PSoC6/CapSense_1_Control.c **** 
 752              		.loc 1 1065 0
 753 000e 0020     		movs	r0, #0
 754              	.LVL102:
1076:Generated_Source\PSoC6/CapSense_1_Control.c ****             {
1077:Generated_Source\PSoC6/CapSense_1_Control.c ****                 /* Scanning in progress */
1078:Generated_Source\PSoC6/CapSense_1_Control.c ****                 retVal = CY_SYSPM_FAIL;
1079:Generated_Source\PSoC6/CapSense_1_Control.c ****             }
1080:Generated_Source\PSoC6/CapSense_1_Control.c ****             #if (0u != CapSense_1_ADC_EN)
1081:Generated_Source\PSoC6/CapSense_1_Control.c ****                 temp = CapSense_1_AdcIsBusy();
1082:Generated_Source\PSoC6/CapSense_1_Control.c ****                 if ((CapSense_1_AdcSTATUS_IDLE != temp) &&
1083:Generated_Source\PSoC6/CapSense_1_Control.c ****                     (CapSense_1_AdcSTATUS_OVERFLOW != temp))
1084:Generated_Source\PSoC6/CapSense_1_Control.c ****                 {
1085:Generated_Source\PSoC6/CapSense_1_Control.c ****                     /* Scanning in progress */
1086:Generated_Source\PSoC6/CapSense_1_Control.c ****                     retVal = CY_SYSPM_FAIL;
1087:Generated_Source\PSoC6/CapSense_1_Control.c ****                 }
1088:Generated_Source\PSoC6/CapSense_1_Control.c ****             #endif /* (0u != CapSense_1_ADC_EN) */
1089:Generated_Source\PSoC6/CapSense_1_Control.c ****             break;
1090:Generated_Source\PSoC6/CapSense_1_Control.c **** 
1091:Generated_Source\PSoC6/CapSense_1_Control.c ****         default:
1092:Generated_Source\PSoC6/CapSense_1_Control.c ****             break;
1093:Generated_Source\PSoC6/CapSense_1_Control.c ****         }
1094:Generated_Source\PSoC6/CapSense_1_Control.c **** 
1095:Generated_Source\PSoC6/CapSense_1_Control.c ****         return(retVal);
1096:Generated_Source\PSoC6/CapSense_1_Control.c ****     }
 755              		.loc 1 1096 0
ARM GAS  C:\Users\enes_\AppData\Local\Temp\cctsluYK.s 			page 34


 756 0010 7047     		bx	lr
 757              	.LVL103:
 758              	.L75:
 759              		.cfi_def_cfa_offset 8
 760              		.cfi_offset 3, -8
 761              		.cfi_offset 14, -4
1078:Generated_Source\PSoC6/CapSense_1_Control.c ****             }
 762              		.loc 1 1078 0
 763 0012 0148     		ldr	r0, .L78
 764              	.LVL104:
 765              		.loc 1 1096 0
 766 0014 08BD     		pop	{r3, pc}
 767              	.L79:
 768 0016 00BF     		.align	2
 769              	.L78:
 770 0018 FF004200 		.word	4325631
 771              		.cfi_endproc
 772              	.LFE277:
 773              		.size	CapSense_1_DeepSleepCallback, .-CapSense_1_DeepSleepCallback
 774              		.section	.rodata.str1.4,"aMS",%progbits,1
 775              		.align	2
 776              	.LC0:
 777 0000 47656E65 		.ascii	"Generated_Source\\PSoC6\\CapSense_1_Control.c\000"
 777      72617465 
 777      645F536F 
 777      75726365 
 777      5C50536F 
 778              		.bss
 779              		.set	.LANCHOR0,. + 0
 780              		.type	CapSense_1_InitVar, %object
 781              		.size	CapSense_1_InitVar, 1
 782              	CapSense_1_InitVar:
 783 0000 00       		.space	1
 784              		.text
 785              	.Letext0:
 786              		.file 2 "c:\\program files (x86)\\cypress\\psoc creator\\4.4\\psoc creator\\import\\gnu\\arm\\5.4.
 787              		.file 3 "c:\\program files (x86)\\cypress\\psoc creator\\4.4\\psoc creator\\import\\gnu\\arm\\5.4.
 788              		.file 4 "Generated_Source\\PSoC6\\pdl\\drivers/peripheral/device/cy_device.h"
 789              		.file 5 "Generated_Source\\PSoC6\\pdl\\drivers/peripheral/syslib/cy_syslib.h"
 790              		.file 6 "Generated_Source\\PSoC6\\pdl\\drivers/peripheral/syspm/cy_syspm.h"
 791              		.file 7 "Generated_Source\\PSoC6\\CapSense_1_Configuration.h"
 792              		.file 8 "Generated_Source\\PSoC6\\CapSense_1_SmartSense_LL.h"
 793              		.file 9 "Generated_Source\\PSoC6\\CapSense_1_Structure.h"
 794              		.file 10 "Generated_Source\\PSoC6\\pdl\\cmsis/include/core_cm4.h"
 795              		.file 11 "Generated_Source\\PSoC6\\CapSense_1_Tuner.h"
 796              		.file 12 "Generated_Source\\PSoC6\\CapSense_1_Processing.h"
 797              		.file 13 "Generated_Source\\PSoC6\\CapSense_1_Sensing.h"
 798              		.file 14 "Generated_Source\\PSoC6\\CapSense_1_Filter.h"