ARM GAS  C:\Users\enes_\AppData\Local\Temp\ccwhqVnU.s 			page 1


   1              		.syntax unified
   2              		.cpu cortex-m4
   3              		.eabi_attribute 27, 1
   4              		.fpu fpv4-sp-d16
   5              		.eabi_attribute 20, 1
   6              		.eabi_attribute 21, 1
   7              		.eabi_attribute 23, 3
   8              		.eabi_attribute 24, 1
   9              		.eabi_attribute 25, 1
  10              		.eabi_attribute 26, 1
  11              		.eabi_attribute 30, 1
  12              		.eabi_attribute 34, 1
  13              		.eabi_attribute 18, 4
  14              		.thumb
  15              		.syntax unified
  16              		.file	"CapSense_1_Tuner.c"
  17              		.text
  18              	.Ltext0:
  19              		.cfi_sections	.debug_frame
  20              		.section	.text.CapSense_1_TuInitialize,"ax",%progbits
  21              		.align	2
  22              		.global	CapSense_1_TuInitialize
  23              		.thumb
  24              		.thumb_func
  25              		.type	CapSense_1_TuInitialize, %function
  26              	CapSense_1_TuInitialize:
  27              	.LFB166:
  28              		.file 1 "Generated_Source\\PSoC6\\CapSense_1_Tuner.c"
   1:Generated_Source\PSoC6/CapSense_1_Tuner.c **** /***************************************************************************//**
   2:Generated_Source\PSoC6/CapSense_1_Tuner.c **** * \file CapSense_1_Tuner.c
   3:Generated_Source\PSoC6/CapSense_1_Tuner.c **** * \version 3.0
   4:Generated_Source\PSoC6/CapSense_1_Tuner.c **** *
   5:Generated_Source\PSoC6/CapSense_1_Tuner.c **** * \brief
   6:Generated_Source\PSoC6/CapSense_1_Tuner.c **** *   This file provides the source code for the Tuner module API of the 
   7:Generated_Source\PSoC6/CapSense_1_Tuner.c **** *   Component.
   8:Generated_Source\PSoC6/CapSense_1_Tuner.c **** *
   9:Generated_Source\PSoC6/CapSense_1_Tuner.c **** * \see CapSense_1 v3.0 Datasheet
  10:Generated_Source\PSoC6/CapSense_1_Tuner.c **** *
  11:Generated_Source\PSoC6/CapSense_1_Tuner.c **** *//*****************************************************************************
  12:Generated_Source\PSoC6/CapSense_1_Tuner.c **** * Copyright (2016-2017), Cypress Semiconductor Corporation.
  13:Generated_Source\PSoC6/CapSense_1_Tuner.c **** ********************************************************************************
  14:Generated_Source\PSoC6/CapSense_1_Tuner.c **** * This software is owned by Cypress Semiconductor Corporation (Cypress) and is
  15:Generated_Source\PSoC6/CapSense_1_Tuner.c **** * protected by and subject to worldwide patent protection (United States and
  16:Generated_Source\PSoC6/CapSense_1_Tuner.c **** * foreign), United States copyright laws and international treaty provisions.
  17:Generated_Source\PSoC6/CapSense_1_Tuner.c **** * Cypress hereby grants to licensee a personal, non-exclusive, non-transferable
  18:Generated_Source\PSoC6/CapSense_1_Tuner.c **** * license to copy, use, modify, create derivative works of, and compile the
  19:Generated_Source\PSoC6/CapSense_1_Tuner.c **** * Cypress Source Code and derivative works for the sole purpose of creating
  20:Generated_Source\PSoC6/CapSense_1_Tuner.c **** * custom software in support of licensee product to be used only in conjunction
  21:Generated_Source\PSoC6/CapSense_1_Tuner.c **** * with a Cypress integrated circuit as specified in the applicable agreement.
  22:Generated_Source\PSoC6/CapSense_1_Tuner.c **** * Any reproduction, modification, translation, compilation, or representation of
  23:Generated_Source\PSoC6/CapSense_1_Tuner.c **** * this software except as specified above is prohibited without the express
  24:Generated_Source\PSoC6/CapSense_1_Tuner.c **** * written permission of Cypress.
  25:Generated_Source\PSoC6/CapSense_1_Tuner.c **** *
  26:Generated_Source\PSoC6/CapSense_1_Tuner.c **** * Disclaimer: CYPRESS MAKES NO WARRANTY OF ANY KIND, EXPRESS OR IMPLIED, WITH
  27:Generated_Source\PSoC6/CapSense_1_Tuner.c **** * REGARD TO THIS MATERIAL, INCLUDING, BUT NOT LIMITED TO, THE IMPLIED
  28:Generated_Source\PSoC6/CapSense_1_Tuner.c **** * WARRANTIES OF MERCHANTABILITY AND FITNESS FOR A PARTICULAR PURPOSE.
  29:Generated_Source\PSoC6/CapSense_1_Tuner.c **** * Cypress reserves the right to make changes without further notice to the
ARM GAS  C:\Users\enes_\AppData\Local\Temp\ccwhqVnU.s 			page 2


  30:Generated_Source\PSoC6/CapSense_1_Tuner.c **** * materials described herein. Cypress does not assume any liability arising out
  31:Generated_Source\PSoC6/CapSense_1_Tuner.c **** * of the application or use of any product or circuit described herein. Cypress
  32:Generated_Source\PSoC6/CapSense_1_Tuner.c **** * does not authorize its products for use as critical components in life-support
  33:Generated_Source\PSoC6/CapSense_1_Tuner.c **** * systems where a malfunction or failure may reasonably be expected to result in
  34:Generated_Source\PSoC6/CapSense_1_Tuner.c **** * significant injury to the user. The inclusion of Cypress' product in a life-
  35:Generated_Source\PSoC6/CapSense_1_Tuner.c **** * support systems application implies that the manufacturer assumes all risk of
  36:Generated_Source\PSoC6/CapSense_1_Tuner.c **** * such use and in doing so indemnifies Cypress against all charges. Use may be
  37:Generated_Source\PSoC6/CapSense_1_Tuner.c **** * limited by and subject to the applicable Cypress software license agreement.
  38:Generated_Source\PSoC6/CapSense_1_Tuner.c **** *******************************************************************************/
  39:Generated_Source\PSoC6/CapSense_1_Tuner.c **** 
  40:Generated_Source\PSoC6/CapSense_1_Tuner.c **** #include "syslib/cy_syslib.h"
  41:Generated_Source\PSoC6/CapSense_1_Tuner.c **** #include "CapSense_1_Structure.h"
  42:Generated_Source\PSoC6/CapSense_1_Tuner.c **** #include "CapSense_1_Tuner.h"
  43:Generated_Source\PSoC6/CapSense_1_Tuner.c **** #include "CapSense_1_Control.h"
  44:Generated_Source\PSoC6/CapSense_1_Tuner.c **** #include "CapSense_1_Configuration.h"
  45:Generated_Source\PSoC6/CapSense_1_Tuner.c **** 
  46:Generated_Source\PSoC6/CapSense_1_Tuner.c **** /* Tuner states definition */
  47:Generated_Source\PSoC6/CapSense_1_Tuner.c **** #define TU_FSM_RUNNING      (0u)
  48:Generated_Source\PSoC6/CapSense_1_Tuner.c **** #define TU_FSM_SUSPENDED    (1u)
  49:Generated_Source\PSoC6/CapSense_1_Tuner.c **** #define TU_FSM_SNR_TEST     (2u)
  50:Generated_Source\PSoC6/CapSense_1_Tuner.c **** #define TU_FSM_ONE_SCAN     (3u)
  51:Generated_Source\PSoC6/CapSense_1_Tuner.c **** 
  52:Generated_Source\PSoC6/CapSense_1_Tuner.c **** /* Tuner state variable */
  53:Generated_Source\PSoC6/CapSense_1_Tuner.c **** static uint32 tunerFsm = TU_FSM_RUNNING;
  54:Generated_Source\PSoC6/CapSense_1_Tuner.c **** 
  55:Generated_Source\PSoC6/CapSense_1_Tuner.c **** 
  56:Generated_Source\PSoC6/CapSense_1_Tuner.c **** /*******************************************************************************
  57:Generated_Source\PSoC6/CapSense_1_Tuner.c **** * Function Name: CapSense_1_TuInitialize
  58:Generated_Source\PSoC6/CapSense_1_Tuner.c **** ****************************************************************************//**
  59:Generated_Source\PSoC6/CapSense_1_Tuner.c **** *
  60:Generated_Source\PSoC6/CapSense_1_Tuner.c **** * \brief
  61:Generated_Source\PSoC6/CapSense_1_Tuner.c **** *   This function initializes the communication interface with the Tuner GUI.
  62:Generated_Source\PSoC6/CapSense_1_Tuner.c **** *
  63:Generated_Source\PSoC6/CapSense_1_Tuner.c **** * \details
  64:Generated_Source\PSoC6/CapSense_1_Tuner.c **** *   This API sets the tuner state machine to the default state. It is called by
  65:Generated_Source\PSoC6/CapSense_1_Tuner.c **** *   the CapSense_1_Start() API.
  66:Generated_Source\PSoC6/CapSense_1_Tuner.c **** *
  67:Generated_Source\PSoC6/CapSense_1_Tuner.c **** *******************************************************************************/
  68:Generated_Source\PSoC6/CapSense_1_Tuner.c **** void CapSense_1_TuInitialize(void)
  69:Generated_Source\PSoC6/CapSense_1_Tuner.c **** {
  29              		.loc 1 69 0
  30              		.cfi_startproc
  31              		@ args = 0, pretend = 0, frame = 0
  32              		@ frame_needed = 0, uses_anonymous_args = 0
  33              		@ link register save eliminated.
  34              	.LVL0:
  70:Generated_Source\PSoC6/CapSense_1_Tuner.c ****     volatile CapSense_1_RAM_STRUCT *ptrDsRam = &CapSense_1_dsRam;
  71:Generated_Source\PSoC6/CapSense_1_Tuner.c **** 
  72:Generated_Source\PSoC6/CapSense_1_Tuner.c ****     ptrDsRam->tunerCmd = (uint16)CapSense_1_TU_CMD_NONE_E;
  35              		.loc 1 72 0
  36 0000 0023     		movs	r3, #0
  37 0002 024A     		ldr	r2, .L2
  38 0004 D380     		strh	r3, [r2, #6]	@ movhi
  73:Generated_Source\PSoC6/CapSense_1_Tuner.c ****     tunerFsm = TU_FSM_RUNNING;
  39              		.loc 1 73 0
  40 0006 024A     		ldr	r2, .L2+4
  41 0008 1360     		str	r3, [r2]
ARM GAS  C:\Users\enes_\AppData\Local\Temp\ccwhqVnU.s 			page 3


  42 000a 7047     		bx	lr
  43              	.L3:
  44              		.align	2
  45              	.L2:
  46 000c 00000000 		.word	CapSense_1_dsRam
  47 0010 00000000 		.word	.LANCHOR0
  48              		.cfi_endproc
  49              	.LFE166:
  50              		.size	CapSense_1_TuInitialize, .-CapSense_1_TuInitialize
  51              		.section	.text.CapSense_1_RunTuner,"ax",%progbits
  52              		.align	2
  53              		.global	CapSense_1_RunTuner
  54              		.thumb
  55              		.thumb_func
  56              		.type	CapSense_1_RunTuner, %function
  57              	CapSense_1_RunTuner:
  58              	.LFB167:
  74:Generated_Source\PSoC6/CapSense_1_Tuner.c **** }
  75:Generated_Source\PSoC6/CapSense_1_Tuner.c **** 
  76:Generated_Source\PSoC6/CapSense_1_Tuner.c **** /*******************************************************************************
  77:Generated_Source\PSoC6/CapSense_1_Tuner.c **** * Function Name: CapSense_1_RunTuner
  78:Generated_Source\PSoC6/CapSense_1_Tuner.c **** ****************************************************************************//**
  79:Generated_Source\PSoC6/CapSense_1_Tuner.c **** *
  80:Generated_Source\PSoC6/CapSense_1_Tuner.c **** * \brief
  81:Generated_Source\PSoC6/CapSense_1_Tuner.c **** *  Establishes synchronized communication with the Tuner application.
  82:Generated_Source\PSoC6/CapSense_1_Tuner.c **** *
  83:Generated_Source\PSoC6/CapSense_1_Tuner.c **** * \details
  84:Generated_Source\PSoC6/CapSense_1_Tuner.c **** *  This function is used to establish synchronized communication between the
  85:Generated_Source\PSoC6/CapSense_1_Tuner.c **** *  CapSense_1 Component and Tuner application (or other host controllers).
  86:Generated_Source\PSoC6/CapSense_1_Tuner.c **** *  This function is called periodically in the application program loop
  87:Generated_Source\PSoC6/CapSense_1_Tuner.c **** *  to serve the Tuner application (or host controller) requests and commands.
  88:Generated_Source\PSoC6/CapSense_1_Tuner.c **** *  In most cases, the best place to call this function is after processing and
  89:Generated_Source\PSoC6/CapSense_1_Tuner.c **** *  before next scanning.
  90:Generated_Source\PSoC6/CapSense_1_Tuner.c **** *
  91:Generated_Source\PSoC6/CapSense_1_Tuner.c **** *  If this function is absent in the application program, then communication is
  92:Generated_Source\PSoC6/CapSense_1_Tuner.c **** *  asynchronous and the following disadvantages are applicable:
  93:Generated_Source\PSoC6/CapSense_1_Tuner.c **** *    - The raw counts displayed in the tuner may be filtered and/or unfiltered.
  94:Generated_Source\PSoC6/CapSense_1_Tuner.c **** *      As a result, noise and SNR measurements will not be accurate.
  95:Generated_Source\PSoC6/CapSense_1_Tuner.c **** *    - The Tuner tool may read the sensor data such as raw counts from a scan
  96:Generated_Source\PSoC6/CapSense_1_Tuner.c **** *      multiple times, as a result, noise and SNR measurement will not be
  97:Generated_Source\PSoC6/CapSense_1_Tuner.c **** *      accurate.
  98:Generated_Source\PSoC6/CapSense_1_Tuner.c **** *    - The Tuner tool and host controller should not change the Component parameters
  99:Generated_Source\PSoC6/CapSense_1_Tuner.c **** *      via the tuner interface. Changing the Component parameters via the tuner
 100:Generated_Source\PSoC6/CapSense_1_Tuner.c **** *      interface in the async mode will result in Component abnormal behavior.
 101:Generated_Source\PSoC6/CapSense_1_Tuner.c **** *
 102:Generated_Source\PSoC6/CapSense_1_Tuner.c **** *  Note that calling this function is not mandatory for the application, but
 103:Generated_Source\PSoC6/CapSense_1_Tuner.c **** *  required only to synchronize the communication with the host controller or
 104:Generated_Source\PSoC6/CapSense_1_Tuner.c **** *  tuner application.
 105:Generated_Source\PSoC6/CapSense_1_Tuner.c **** *
 106:Generated_Source\PSoC6/CapSense_1_Tuner.c **** * \return
 107:Generated_Source\PSoC6/CapSense_1_Tuner.c **** *  In some cases, the application program may need to know if the Component was
 108:Generated_Source\PSoC6/CapSense_1_Tuner.c **** *  re-initialized. The return indicates if a restart command was executed or not:
 109:Generated_Source\PSoC6/CapSense_1_Tuner.c **** *    - CapSense_1_STATUS_RESTART_DONE - Based on a received command, the
 110:Generated_Source\PSoC6/CapSense_1_Tuner.c **** *      Component was restarted.
 111:Generated_Source\PSoC6/CapSense_1_Tuner.c **** *    -  CapSense_1_STATUS_RESTART_NONE - No restart was executed by this
 112:Generated_Source\PSoC6/CapSense_1_Tuner.c **** *      function.
 113:Generated_Source\PSoC6/CapSense_1_Tuner.c **** *
ARM GAS  C:\Users\enes_\AppData\Local\Temp\ccwhqVnU.s 			page 4


 114:Generated_Source\PSoC6/CapSense_1_Tuner.c **** *******************************************************************************/
 115:Generated_Source\PSoC6/CapSense_1_Tuner.c **** uint32 CapSense_1_RunTuner(void)
 116:Generated_Source\PSoC6/CapSense_1_Tuner.c **** {
  59              		.loc 1 116 0
  60              		.cfi_startproc
  61              		@ args = 0, pretend = 0, frame = 0
  62              		@ frame_needed = 0, uses_anonymous_args = 0
  63 0000 70B5     		push	{r4, r5, r6, lr}
  64              		.cfi_def_cfa_offset 16
  65              		.cfi_offset 4, -16
  66              		.cfi_offset 5, -12
  67              		.cfi_offset 6, -8
  68              		.cfi_offset 14, -4
  69              	.LVL1:
 117:Generated_Source\PSoC6/CapSense_1_Tuner.c ****     uint32 interruptState;
 118:Generated_Source\PSoC6/CapSense_1_Tuner.c ****     uint32 widgetId;
 119:Generated_Source\PSoC6/CapSense_1_Tuner.c ****     uint32 sensorId;
 120:Generated_Source\PSoC6/CapSense_1_Tuner.c ****     uint32 updateFlag = 0Lu;
 121:Generated_Source\PSoC6/CapSense_1_Tuner.c ****     CapSense_1_TU_CMD_ENUM command;
 122:Generated_Source\PSoC6/CapSense_1_Tuner.c ****     uint32 tunerStatus = CapSense_1_STATUS_RESTART_NONE;
  70              		.loc 1 122 0
  71 0002 0026     		movs	r6, #0
 120:Generated_Source\PSoC6/CapSense_1_Tuner.c ****     CapSense_1_TU_CMD_ENUM command;
  72              		.loc 1 120 0
  73 0004 3546     		mov	r5, r6
  74              	.LVL2:
  75              	.L16:
 123:Generated_Source\PSoC6/CapSense_1_Tuner.c **** 
 124:Generated_Source\PSoC6/CapSense_1_Tuner.c ****     volatile CapSense_1_RAM_STRUCT *ptrDsRam;
 125:Generated_Source\PSoC6/CapSense_1_Tuner.c ****     volatile CapSense_1_RAM_SNS_STRUCT *ptrSnsTmp;
 126:Generated_Source\PSoC6/CapSense_1_Tuner.c **** 
 127:Generated_Source\PSoC6/CapSense_1_Tuner.c ****     ptrDsRam = &CapSense_1_dsRam;
 128:Generated_Source\PSoC6/CapSense_1_Tuner.c **** 
 129:Generated_Source\PSoC6/CapSense_1_Tuner.c ****     do
 130:Generated_Source\PSoC6/CapSense_1_Tuner.c ****     {
 131:Generated_Source\PSoC6/CapSense_1_Tuner.c ****         /* ONE_SCAN command could be interpreted as two commands:
 132:Generated_Source\PSoC6/CapSense_1_Tuner.c ****         * RESUME till next call of this function and then
 133:Generated_Source\PSoC6/CapSense_1_Tuner.c ****         * SUSPEND till next command receiving.
 134:Generated_Source\PSoC6/CapSense_1_Tuner.c ****         */
 135:Generated_Source\PSoC6/CapSense_1_Tuner.c ****         if (TU_FSM_ONE_SCAN == tunerFsm)
  76              		.loc 1 135 0
  77 0006 3E4B     		ldr	r3, .L19
  78 0008 1B68     		ldr	r3, [r3]
  79 000a 032B     		cmp	r3, #3
  80 000c 06D1     		bne	.L5
 136:Generated_Source\PSoC6/CapSense_1_Tuner.c ****         {
 137:Generated_Source\PSoC6/CapSense_1_Tuner.c ****             interruptState = Cy_SysLib_EnterCriticalSection();
  81              		.loc 1 137 0
  82 000e FFF7FEFF 		bl	Cy_SysLib_EnterCriticalSection
  83              	.LVL3:
 138:Generated_Source\PSoC6/CapSense_1_Tuner.c ****             ptrDsRam->tunerCmd = (uint16)CapSense_1_TU_CMD_SUSPEND_E;
  84              		.loc 1 138 0
  85 0012 0122     		movs	r2, #1
  86 0014 3B4B     		ldr	r3, .L19+4
  87 0016 DA80     		strh	r2, [r3, #6]	@ movhi
 139:Generated_Source\PSoC6/CapSense_1_Tuner.c ****             Cy_SysLib_ExitCriticalSection(interruptState);
  88              		.loc 1 139 0
ARM GAS  C:\Users\enes_\AppData\Local\Temp\ccwhqVnU.s 			page 5


  89 0018 FFF7FEFF 		bl	Cy_SysLib_ExitCriticalSection
  90              	.LVL4:
  91              	.L5:
 140:Generated_Source\PSoC6/CapSense_1_Tuner.c ****         }
 141:Generated_Source\PSoC6/CapSense_1_Tuner.c ****         command = (CapSense_1_TU_CMD_ENUM)ptrDsRam->tunerCmd;
  92              		.loc 1 141 0
  93 001c 394B     		ldr	r3, .L19+4
  94 001e DC88     		ldrh	r4, [r3, #6]
  95 0020 E4B2     		uxtb	r4, r4
  96              	.LVL5:
 142:Generated_Source\PSoC6/CapSense_1_Tuner.c **** 
 143:Generated_Source\PSoC6/CapSense_1_Tuner.c ****         /* Check command register */
 144:Generated_Source\PSoC6/CapSense_1_Tuner.c ****         switch (command)
  97              		.loc 1 144 0
  98 0022 631E     		subs	r3, r4, #1
  99 0024 052B     		cmp	r3, #5
 100 0026 23D8     		bhi	.L6
 101 0028 DFE803F0 		tbb	[pc, r3]
 102              	.L8:
 103 002c 03       		.byte	(.L7-.L8)/2
 104 002d 07       		.byte	(.L9-.L8)/2
 105 002e 0C       		.byte	(.L10-.L8)/2
 106 002f 14       		.byte	(.L11-.L8)/2
 107 0030 19       		.byte	(.L12-.L8)/2
 108 0031 1E       		.byte	(.L13-.L8)/2
 109              		.p2align 1
 110              	.L7:
 145:Generated_Source\PSoC6/CapSense_1_Tuner.c ****         {
 146:Generated_Source\PSoC6/CapSense_1_Tuner.c ****         case CapSense_1_TU_CMD_SUSPEND_E:
 147:Generated_Source\PSoC6/CapSense_1_Tuner.c ****             tunerFsm = TU_FSM_SUSPENDED;
 111              		.loc 1 147 0
 112 0032 0125     		movs	r5, #1
 113              	.LVL6:
 114 0034 324B     		ldr	r3, .L19
 115 0036 1D60     		str	r5, [r3]
 116              	.LVL7:
 148:Generated_Source\PSoC6/CapSense_1_Tuner.c ****             updateFlag = 1Lu;
 149:Generated_Source\PSoC6/CapSense_1_Tuner.c ****             break;
 117              		.loc 1 149 0
 118 0038 1AE0     		b	.L6
 119              	.LVL8:
 120              	.L9:
 150:Generated_Source\PSoC6/CapSense_1_Tuner.c **** 
 151:Generated_Source\PSoC6/CapSense_1_Tuner.c ****         case CapSense_1_TU_CMD_RESUME_E:
 152:Generated_Source\PSoC6/CapSense_1_Tuner.c ****             tunerFsm = TU_FSM_RUNNING;
 121              		.loc 1 152 0
 122 003a 0022     		movs	r2, #0
 123 003c 304B     		ldr	r3, .L19
 124 003e 1A60     		str	r2, [r3]
 125              	.LVL9:
 153:Generated_Source\PSoC6/CapSense_1_Tuner.c ****             updateFlag = 1Lu;
 126              		.loc 1 153 0
 127 0040 0125     		movs	r5, #1
 154:Generated_Source\PSoC6/CapSense_1_Tuner.c ****             break;
 128              		.loc 1 154 0
 129 0042 15E0     		b	.L6
 130              	.LVL10:
ARM GAS  C:\Users\enes_\AppData\Local\Temp\ccwhqVnU.s 			page 6


 131              	.L10:
 155:Generated_Source\PSoC6/CapSense_1_Tuner.c **** 
 156:Generated_Source\PSoC6/CapSense_1_Tuner.c ****         case CapSense_1_TU_CMD_RESTART_E:
 157:Generated_Source\PSoC6/CapSense_1_Tuner.c ****             (void)CapSense_1_Start();
 132              		.loc 1 157 0
 133 0044 FFF7FEFF 		bl	CapSense_1_Start
 134              	.LVL11:
 158:Generated_Source\PSoC6/CapSense_1_Tuner.c ****             tunerStatus = CapSense_1_STATUS_RESTART_DONE;
 159:Generated_Source\PSoC6/CapSense_1_Tuner.c ****             tunerFsm = TU_FSM_RUNNING;
 135              		.loc 1 159 0
 136 0048 0022     		movs	r2, #0
 137 004a 2D4B     		ldr	r3, .L19
 138 004c 1A60     		str	r2, [r3]
 139              	.LVL12:
 158:Generated_Source\PSoC6/CapSense_1_Tuner.c ****             tunerStatus = CapSense_1_STATUS_RESTART_DONE;
 140              		.loc 1 158 0
 141 004e 0126     		movs	r6, #1
 160:Generated_Source\PSoC6/CapSense_1_Tuner.c ****             updateFlag = 1Lu;
 142              		.loc 1 160 0
 143 0050 3546     		mov	r5, r6
 161:Generated_Source\PSoC6/CapSense_1_Tuner.c ****             break;
 144              		.loc 1 161 0
 145 0052 0DE0     		b	.L6
 146              	.LVL13:
 147              	.L11:
 162:Generated_Source\PSoC6/CapSense_1_Tuner.c **** 
 163:Generated_Source\PSoC6/CapSense_1_Tuner.c ****         case CapSense_1_TU_CMD_RUN_SNR_TEST_E:
 164:Generated_Source\PSoC6/CapSense_1_Tuner.c ****             tunerFsm = TU_FSM_SNR_TEST;
 148              		.loc 1 164 0
 149 0054 0222     		movs	r2, #2
 150 0056 2A4B     		ldr	r3, .L19
 151 0058 1A60     		str	r2, [r3]
 152              	.LVL14:
 165:Generated_Source\PSoC6/CapSense_1_Tuner.c ****             updateFlag = 1Lu;
 153              		.loc 1 165 0
 154 005a 0125     		movs	r5, #1
 166:Generated_Source\PSoC6/CapSense_1_Tuner.c ****             break;
 155              		.loc 1 166 0
 156 005c 08E0     		b	.L6
 157              	.LVL15:
 158              	.L12:
 167:Generated_Source\PSoC6/CapSense_1_Tuner.c **** 
 168:Generated_Source\PSoC6/CapSense_1_Tuner.c ****         case CapSense_1_TU_CMD_PING_E:
 169:Generated_Source\PSoC6/CapSense_1_Tuner.c ****             tunerFsm = TU_FSM_RUNNING;
 159              		.loc 1 169 0
 160 005e 0022     		movs	r2, #0
 161 0060 274B     		ldr	r3, .L19
 162 0062 1A60     		str	r2, [r3]
 163              	.LVL16:
 170:Generated_Source\PSoC6/CapSense_1_Tuner.c ****             updateFlag = 1Lu;
 164              		.loc 1 170 0
 165 0064 0125     		movs	r5, #1
 171:Generated_Source\PSoC6/CapSense_1_Tuner.c ****             break;
 166              		.loc 1 171 0
 167 0066 03E0     		b	.L6
 168              	.LVL17:
 169              	.L13:
ARM GAS  C:\Users\enes_\AppData\Local\Temp\ccwhqVnU.s 			page 7


 172:Generated_Source\PSoC6/CapSense_1_Tuner.c **** 
 173:Generated_Source\PSoC6/CapSense_1_Tuner.c ****         case CapSense_1_TU_CMD_ONE_SCAN_E:
 174:Generated_Source\PSoC6/CapSense_1_Tuner.c ****             tunerFsm = TU_FSM_ONE_SCAN;
 170              		.loc 1 174 0
 171 0068 0322     		movs	r2, #3
 172 006a 254B     		ldr	r3, .L19
 173 006c 1A60     		str	r2, [r3]
 174              	.LVL18:
 175:Generated_Source\PSoC6/CapSense_1_Tuner.c ****             updateFlag = 0Lu;
 175              		.loc 1 175 0
 176 006e 0025     		movs	r5, #0
 177              	.LVL19:
 178              	.L6:
 176:Generated_Source\PSoC6/CapSense_1_Tuner.c ****             break;
 177:Generated_Source\PSoC6/CapSense_1_Tuner.c **** 
 178:Generated_Source\PSoC6/CapSense_1_Tuner.c ****         default:
 179:Generated_Source\PSoC6/CapSense_1_Tuner.c ****             break;
 180:Generated_Source\PSoC6/CapSense_1_Tuner.c ****         }
 181:Generated_Source\PSoC6/CapSense_1_Tuner.c **** 
 182:Generated_Source\PSoC6/CapSense_1_Tuner.c ****         /* Set Complete flag in command register if needed */
 183:Generated_Source\PSoC6/CapSense_1_Tuner.c ****         if (0Lu != updateFlag)
 179              		.loc 1 183 0
 180 0070 8DB1     		cbz	r5, .L14
 184:Generated_Source\PSoC6/CapSense_1_Tuner.c ****         {
 185:Generated_Source\PSoC6/CapSense_1_Tuner.c ****             interruptState = Cy_SysLib_EnterCriticalSection();
 181              		.loc 1 185 0
 182 0072 FFF7FEFF 		bl	Cy_SysLib_EnterCriticalSection
 183              	.LVL20:
 186:Generated_Source\PSoC6/CapSense_1_Tuner.c **** 
 187:Generated_Source\PSoC6/CapSense_1_Tuner.c ****             /* Check if command wasn't overwritten with new command */
 188:Generated_Source\PSoC6/CapSense_1_Tuner.c ****             if (command == (CapSense_1_TU_CMD_ENUM)ptrDsRam->tunerCmd)
 184              		.loc 1 188 0
 185 0076 234B     		ldr	r3, .L19+4
 186 0078 DB88     		ldrh	r3, [r3, #6]
 187 007a DBB2     		uxtb	r3, r3
 188 007c 9C42     		cmp	r4, r3
 189 007e 07D1     		bne	.L15
 189:Generated_Source\PSoC6/CapSense_1_Tuner.c ****             {
 190:Generated_Source\PSoC6/CapSense_1_Tuner.c ****                 ptrDsRam->tunerCmd |= CapSense_1_TU_CMD_COMPLETE_BIT;
 190              		.loc 1 190 0
 191 0080 204A     		ldr	r2, .L19+4
 192 0082 D388     		ldrh	r3, [r2, #6]
 193 0084 6FEA4343 		mvn	r3, r3, lsl #17
 194 0088 6FEA5343 		mvn	r3, r3, lsr #17
 195 008c 9BB2     		uxth	r3, r3
 196 008e D380     		strh	r3, [r2, #6]	@ movhi
 197              	.L15:
 191:Generated_Source\PSoC6/CapSense_1_Tuner.c ****             }
 192:Generated_Source\PSoC6/CapSense_1_Tuner.c ****             Cy_SysLib_ExitCriticalSection(interruptState);
 198              		.loc 1 192 0
 199 0090 FFF7FEFF 		bl	Cy_SysLib_ExitCriticalSection
 200              	.LVL21:
 193:Generated_Source\PSoC6/CapSense_1_Tuner.c **** 
 194:Generated_Source\PSoC6/CapSense_1_Tuner.c ****             updateFlag = 0Lu;
 201              		.loc 1 194 0
 202 0094 0025     		movs	r5, #0
 203              	.LVL22:
ARM GAS  C:\Users\enes_\AppData\Local\Temp\ccwhqVnU.s 			page 8


 204              	.L14:
 195:Generated_Source\PSoC6/CapSense_1_Tuner.c ****         }
 196:Generated_Source\PSoC6/CapSense_1_Tuner.c ****     } while (TU_FSM_SUSPENDED == tunerFsm);
 205              		.loc 1 196 0
 206 0096 1A4B     		ldr	r3, .L19
 207 0098 1B68     		ldr	r3, [r3]
 208 009a 012B     		cmp	r3, #1
 209 009c B3D0     		beq	.L16
 197:Generated_Source\PSoC6/CapSense_1_Tuner.c **** 
 198:Generated_Source\PSoC6/CapSense_1_Tuner.c ****     /* Check for SNR Test mode and do appropriate actions */
 199:Generated_Source\PSoC6/CapSense_1_Tuner.c ****     if (TU_FSM_SNR_TEST == tunerFsm)
 210              		.loc 1 199 0
 211 009e 022B     		cmp	r3, #2
 212 00a0 2CD1     		bne	.L17
 200:Generated_Source\PSoC6/CapSense_1_Tuner.c ****     {
 201:Generated_Source\PSoC6/CapSense_1_Tuner.c ****         widgetId = ptrDsRam->snrTestWidgetId;
 213              		.loc 1 201 0
 214 00a2 184A     		ldr	r2, .L19+4
 215 00a4 92F89E30 		ldrb	r3, [r2, #158]	@ zero_extendqisi2
 216 00a8 DBB2     		uxtb	r3, r3
 217              	.LVL23:
 202:Generated_Source\PSoC6/CapSense_1_Tuner.c ****         sensorId = ptrDsRam->snrTestSensorId;
 218              		.loc 1 202 0
 219 00aa 92F89F20 		ldrb	r2, [r2, #159]	@ zero_extendqisi2
 220 00ae D2B2     		uxtb	r2, r2
 221              	.LVL24:
 203:Generated_Source\PSoC6/CapSense_1_Tuner.c **** 
 204:Generated_Source\PSoC6/CapSense_1_Tuner.c ****         /* Check if widgetId and sensorId are in range,
 205:Generated_Source\PSoC6/CapSense_1_Tuner.c ****          * and data was updated in RAM (scan counter changed)
 206:Generated_Source\PSoC6/CapSense_1_Tuner.c ****          */
 207:Generated_Source\PSoC6/CapSense_1_Tuner.c ****         if ((widgetId < CapSense_1_TOTAL_WIDGETS)              &&
 222              		.loc 1 207 0
 223 00b0 022B     		cmp	r3, #2
 224 00b2 23D8     		bhi	.L17
 208:Generated_Source\PSoC6/CapSense_1_Tuner.c ****             (sensorId < CapSense_1_GET_SENSOR_COUNT(widgetId)) &&
 225              		.loc 1 208 0 discriminator 1
 226 00b4 2C21     		movs	r1, #44
 227 00b6 1448     		ldr	r0, .L19+8
 228 00b8 01FB0301 		mla	r1, r1, r3, r0
 229 00bc 098B     		ldrh	r1, [r1, #24]
 207:Generated_Source\PSoC6/CapSense_1_Tuner.c ****             (sensorId < CapSense_1_GET_SENSOR_COUNT(widgetId)) &&
 230              		.loc 1 207 0 discriminator 1
 231 00be 8A42     		cmp	r2, r1
 232 00c0 1CD2     		bcs	.L17
 209:Generated_Source\PSoC6/CapSense_1_Tuner.c ****             (ptrDsRam->scanCounter != ptrDsRam->snrTestScanCounter))
 233              		.loc 1 209 0
 234 00c2 1049     		ldr	r1, .L19+4
 235 00c4 0889     		ldrh	r0, [r1, #8]
 236 00c6 80B2     		uxth	r0, r0
 237 00c8 B1F8A010 		ldrh	r1, [r1, #160]
 238 00cc 89B2     		uxth	r1, r1
 208:Generated_Source\PSoC6/CapSense_1_Tuner.c ****             (sensorId < CapSense_1_GET_SENSOR_COUNT(widgetId)) &&
 239              		.loc 1 208 0
 240 00ce 8842     		cmp	r0, r1
 241 00d0 14D0     		beq	.L17
 210:Generated_Source\PSoC6/CapSense_1_Tuner.c ****         {
 211:Generated_Source\PSoC6/CapSense_1_Tuner.c ****             /* Get access to the Sensor Object */
ARM GAS  C:\Users\enes_\AppData\Local\Temp\ccwhqVnU.s 			page 9


 212:Generated_Source\PSoC6/CapSense_1_Tuner.c ****             ptrSnsTmp = CapSense_1_dsFlash.wdgtArray[widgetId].ptr2SnsRam;
 242              		.loc 1 212 0
 243 00d2 2C20     		movs	r0, #44
 244 00d4 0C49     		ldr	r1, .L19+8
 245 00d6 00FB0313 		mla	r3, r0, r3, r1
 246              	.LVL25:
 247 00da 9D68     		ldr	r5, [r3, #8]
 248              	.LVL26:
 213:Generated_Source\PSoC6/CapSense_1_Tuner.c ****             ptrSnsTmp += sensorId;
 249              		.loc 1 213 0
 250 00dc 02EB8202 		add	r2, r2, r2, lsl #2
 251              	.LVL27:
 252 00e0 5400     		lsls	r4, r2, #1
 253              	.LVL28:
 214:Generated_Source\PSoC6/CapSense_1_Tuner.c **** 
 215:Generated_Source\PSoC6/CapSense_1_Tuner.c ****             /* Update data in SNR Test Object */
 216:Generated_Source\PSoC6/CapSense_1_Tuner.c ****             interruptState = Cy_SysLib_EnterCriticalSection();
 254              		.loc 1 216 0
 255 00e2 FFF7FEFF 		bl	Cy_SysLib_EnterCriticalSection
 256              	.LVL29:
 217:Generated_Source\PSoC6/CapSense_1_Tuner.c ****             ptrDsRam->snrTestScanCounter = ptrDsRam->scanCounter;
 257              		.loc 1 217 0
 258 00e6 074B     		ldr	r3, .L19+4
 259 00e8 1A89     		ldrh	r2, [r3, #8]
 260 00ea 92B2     		uxth	r2, r2
 261 00ec A3F8A020 		strh	r2, [r3, #160]	@ movhi
 218:Generated_Source\PSoC6/CapSense_1_Tuner.c ****             ptrDsRam->snrTestRawCount[0u] = ptrSnsTmp->raw[0u];
 262              		.loc 1 218 0
 263 00f0 2A5B     		ldrh	r2, [r5, r4]
 264 00f2 92B2     		uxth	r2, r2
 265 00f4 A3F8A220 		strh	r2, [r3, #162]	@ movhi
 219:Generated_Source\PSoC6/CapSense_1_Tuner.c **** 
 220:Generated_Source\PSoC6/CapSense_1_Tuner.c ****             #if (0u != CapSense_1_MULTI_FREQ_SCAN_EN)
 221:Generated_Source\PSoC6/CapSense_1_Tuner.c ****                 ptrDsRam->snrTestRawCount[1u] = ptrSnsTmp->raw[1u];
 222:Generated_Source\PSoC6/CapSense_1_Tuner.c ****                 ptrDsRam->snrTestRawCount[2u] = ptrSnsTmp->raw[2u];
 223:Generated_Source\PSoC6/CapSense_1_Tuner.c ****             #endif
 224:Generated_Source\PSoC6/CapSense_1_Tuner.c **** 
 225:Generated_Source\PSoC6/CapSense_1_Tuner.c ****             Cy_SysLib_ExitCriticalSection(interruptState);
 266              		.loc 1 225 0
 267 00f8 FFF7FEFF 		bl	Cy_SysLib_ExitCriticalSection
 268              	.LVL30:
 269              	.L17:
 226:Generated_Source\PSoC6/CapSense_1_Tuner.c ****         }
 227:Generated_Source\PSoC6/CapSense_1_Tuner.c ****     }
 228:Generated_Source\PSoC6/CapSense_1_Tuner.c ****     return tunerStatus;
 229:Generated_Source\PSoC6/CapSense_1_Tuner.c **** }
 270              		.loc 1 229 0
 271 00fc 3046     		mov	r0, r6
 272 00fe 70BD     		pop	{r4, r5, r6, pc}
 273              	.LVL31:
 274              	.L20:
 275              		.align	2
 276              	.L19:
 277 0100 00000000 		.word	.LANCHOR0
 278 0104 00000000 		.word	CapSense_1_dsRam
 279 0108 00000000 		.word	CapSense_1_dsFlash
 280              		.cfi_endproc
ARM GAS  C:\Users\enes_\AppData\Local\Temp\ccwhqVnU.s 			page 10


 281              	.LFE167:
 282              		.size	CapSense_1_RunTuner, .-CapSense_1_RunTuner
 283              		.bss
 284              		.align	2
 285              		.set	.LANCHOR0,. + 0
 286              		.type	tunerFsm, %object
 287              		.size	tunerFsm, 4
 288              	tunerFsm:
 289 0000 00000000 		.space	4
 290              		.text
 291              	.Letext0:
 292              		.file 2 "c:\\program files (x86)\\cypress\\psoc creator\\4.4\\psoc creator\\import\\gnu\\arm\\5.4.
 293              		.file 3 "c:\\program files (x86)\\cypress\\psoc creator\\4.4\\psoc creator\\import\\gnu\\arm\\5.4.
 294              		.file 4 "Generated_Source\\PSoC6\\pdl\\drivers/peripheral/device/cy_device.h"
 295              		.file 5 "Generated_Source\\PSoC6\\pdl\\drivers/peripheral/syslib/cy_syslib.h"
 296              		.file 6 "Generated_Source\\PSoC6\\CapSense_1_Configuration.h"
 297              		.file 7 "Generated_Source\\PSoC6\\CapSense_1_SmartSense_LL.h"
 298              		.file 8 "Generated_Source\\PSoC6\\CapSense_1_Structure.h"
 299              		.file 9 "Generated_Source\\PSoC6\\CapSense_1_Tuner.h"
 300              		.file 10 "Generated_Source\\PSoC6\\pdl\\cmsis/include/core_cm4.h"
 301              		.file 11 "Generated_Source\\PSoC6\\CapSense_1_Control.h"