ARM GAS  C:\Users\enes_\AppData\Local\Temp\ccsgh5TW.s 			page 1


   1              		.syntax unified
   2              		.cpu cortex-m4
   3              		.eabi_attribute 27, 1
   4              		.fpu fpv4-sp-d16
   5              		.eabi_attribute 20, 1
   6              		.eabi_attribute 21, 1
   7              		.eabi_attribute 23, 3
   8              		.eabi_attribute 24, 1
   9              		.eabi_attribute 25, 1
  10              		.eabi_attribute 26, 1
  11              		.eabi_attribute 30, 1
  12              		.eabi_attribute 34, 1
  13              		.eabi_attribute 18, 4
  14              		.thumb
  15              		.syntax unified
  16              		.file	"CapSense_1_SensingCSD_LL.c"
  17              		.text
  18              	.Ltext0:
  19              		.cfi_sections	.debug_frame
  20              		.section	.text.CapSense_1_SsCSDSetModeSnsClockDivider,"ax",%progbits
  21              		.align	2
  22              		.thumb
  23              		.thumb_func
  24              		.type	CapSense_1_SsCSDSetModeSnsClockDivider, %function
  25              	CapSense_1_SsCSDSetModeSnsClockDivider:
  26              	.LFB273:
  27              		.file 1 "Generated_Source\\PSoC6\\CapSense_1_SensingCSD_LL.c"
   1:Generated_Source\PSoC6/CapSense_1_SensingCSD_LL.c **** /***************************************************************************//**
   2:Generated_Source\PSoC6/CapSense_1_SensingCSD_LL.c **** * \file CapSense_1_SensingCSD_LL.c
   3:Generated_Source\PSoC6/CapSense_1_SensingCSD_LL.c **** * \version 3.0
   4:Generated_Source\PSoC6/CapSense_1_SensingCSD_LL.c **** *
   5:Generated_Source\PSoC6/CapSense_1_SensingCSD_LL.c **** * \brief
   6:Generated_Source\PSoC6/CapSense_1_SensingCSD_LL.c **** *   This file defines the data structure global variables and provides
   7:Generated_Source\PSoC6/CapSense_1_SensingCSD_LL.c **** *   implementation for the low-level APIs of the CSD part of
   8:Generated_Source\PSoC6/CapSense_1_SensingCSD_LL.c **** *   the Sensing module. The file contains the APIs used for the CSD block
   9:Generated_Source\PSoC6/CapSense_1_SensingCSD_LL.c **** *   initialization, calibration, and scanning.
  10:Generated_Source\PSoC6/CapSense_1_SensingCSD_LL.c **** *
  11:Generated_Source\PSoC6/CapSense_1_SensingCSD_LL.c **** * \see CapSense_1 v3.0 Datasheet
  12:Generated_Source\PSoC6/CapSense_1_SensingCSD_LL.c **** *
  13:Generated_Source\PSoC6/CapSense_1_SensingCSD_LL.c **** *//*****************************************************************************
  14:Generated_Source\PSoC6/CapSense_1_SensingCSD_LL.c **** * Copyright (2016-2017), Cypress Semiconductor Corporation.
  15:Generated_Source\PSoC6/CapSense_1_SensingCSD_LL.c **** ********************************************************************************
  16:Generated_Source\PSoC6/CapSense_1_SensingCSD_LL.c **** * This software is owned by Cypress Semiconductor Corporation (Cypress) and is
  17:Generated_Source\PSoC6/CapSense_1_SensingCSD_LL.c **** * protected by and subject to worldwide patent protection (United States and
  18:Generated_Source\PSoC6/CapSense_1_SensingCSD_LL.c **** * foreign), United States copyright laws and international treaty provisions.
  19:Generated_Source\PSoC6/CapSense_1_SensingCSD_LL.c **** * Cypress hereby grants to licensee a personal, non-exclusive, non-transferable
  20:Generated_Source\PSoC6/CapSense_1_SensingCSD_LL.c **** * license to copy, use, modify, create derivative works of, and compile the
  21:Generated_Source\PSoC6/CapSense_1_SensingCSD_LL.c **** * Cypress Source Code and derivative works for the sole purpose of creating
  22:Generated_Source\PSoC6/CapSense_1_SensingCSD_LL.c **** * custom software in support of licensee product to be used only in conjunction
  23:Generated_Source\PSoC6/CapSense_1_SensingCSD_LL.c **** * with a Cypress integrated circuit as specified in the applicable agreement.
  24:Generated_Source\PSoC6/CapSense_1_SensingCSD_LL.c **** * Any reproduction, modification, translation, compilation, or representation of
  25:Generated_Source\PSoC6/CapSense_1_SensingCSD_LL.c **** * this software except as specified above is prohibited without the express
  26:Generated_Source\PSoC6/CapSense_1_SensingCSD_LL.c **** * written permission of Cypress.
  27:Generated_Source\PSoC6/CapSense_1_SensingCSD_LL.c **** *
  28:Generated_Source\PSoC6/CapSense_1_SensingCSD_LL.c **** * Disclaimer: CYPRESS MAKES NO WARRANTY OF ANY KIND, EXPRESS OR IMPLIED, WITH
  29:Generated_Source\PSoC6/CapSense_1_SensingCSD_LL.c **** * REGARD TO THIS MATERIAL, INCLUDING, BUT NOT LIMITED TO, THE IMPLIED
  30:Generated_Source\PSoC6/CapSense_1_SensingCSD_LL.c **** * WARRANTIES OF MERCHANTABILITY AND FITNESS FOR A PARTICULAR PURPOSE.
ARM GAS  C:\Users\enes_\AppData\Local\Temp\ccsgh5TW.s 			page 2


  31:Generated_Source\PSoC6/CapSense_1_SensingCSD_LL.c **** * Cypress reserves the right to make changes without further notice to the
  32:Generated_Source\PSoC6/CapSense_1_SensingCSD_LL.c **** * materials described herein. Cypress does not assume any liability arising out
  33:Generated_Source\PSoC6/CapSense_1_SensingCSD_LL.c **** * of the application or use of any product or circuit described herein. Cypress
  34:Generated_Source\PSoC6/CapSense_1_SensingCSD_LL.c **** * does not authorize its products for use as critical components in life-support
  35:Generated_Source\PSoC6/CapSense_1_SensingCSD_LL.c **** * systems where a malfunction or failure may reasonably be expected to result in
  36:Generated_Source\PSoC6/CapSense_1_SensingCSD_LL.c **** * significant injury to the user. The inclusion of Cypress' product in a life-
  37:Generated_Source\PSoC6/CapSense_1_SensingCSD_LL.c **** * support systems application implies that the manufacturer assumes all risk of
  38:Generated_Source\PSoC6/CapSense_1_SensingCSD_LL.c **** * such use and in doing so indemnifies Cypress against all charges. Use may be
  39:Generated_Source\PSoC6/CapSense_1_SensingCSD_LL.c **** * limited by and subject to the applicable Cypress software license agreement.
  40:Generated_Source\PSoC6/CapSense_1_SensingCSD_LL.c **** *******************************************************************************/
  41:Generated_Source\PSoC6/CapSense_1_SensingCSD_LL.c **** #include "cy_device_headers.h"
  42:Generated_Source\PSoC6/CapSense_1_SensingCSD_LL.c **** #include "gpio/cy_gpio.h"
  43:Generated_Source\PSoC6/CapSense_1_SensingCSD_LL.c **** #include "cyfitter_sysint_cfg.h"
  44:Generated_Source\PSoC6/CapSense_1_SensingCSD_LL.c **** 
  45:Generated_Source\PSoC6/CapSense_1_SensingCSD_LL.c **** #include "CapSense_1_ModClk.h"
  46:Generated_Source\PSoC6/CapSense_1_SensingCSD_LL.c **** #include "CapSense_1_Structure.h"
  47:Generated_Source\PSoC6/CapSense_1_SensingCSD_LL.c **** #include "CapSense_1_Configuration.h"
  48:Generated_Source\PSoC6/CapSense_1_SensingCSD_LL.c **** #include "CapSense_1_Sensing.h"
  49:Generated_Source\PSoC6/CapSense_1_SensingCSD_LL.c **** #include "CapSense_1_SensingCSD_LL.h"
  50:Generated_Source\PSoC6/CapSense_1_SensingCSD_LL.c **** #include "cyapicallbacks.h"
  51:Generated_Source\PSoC6/CapSense_1_SensingCSD_LL.c **** 
  52:Generated_Source\PSoC6/CapSense_1_SensingCSD_LL.c **** #if (CapSense_1_ENABLE == CapSense_1_CSD_EN)
  53:Generated_Source\PSoC6/CapSense_1_SensingCSD_LL.c **** 
  54:Generated_Source\PSoC6/CapSense_1_SensingCSD_LL.c **** /***************************************
  55:Generated_Source\PSoC6/CapSense_1_SensingCSD_LL.c **** * API Constants
  56:Generated_Source\PSoC6/CapSense_1_SensingCSD_LL.c **** ***************************************/
  57:Generated_Source\PSoC6/CapSense_1_SensingCSD_LL.c **** 
  58:Generated_Source\PSoC6/CapSense_1_SensingCSD_LL.c **** #define CapSense_1_COARSE_INIT_WATCHDOG_TIME              (3u)
  59:Generated_Source\PSoC6/CapSense_1_SensingCSD_LL.c **** #define CapSense_1_COARSE_INIT_WATCHDOG_CYCLES_CALC       (CapSense_1_COARSE_INIT_WATCHDOG_TIME * C
  60:Generated_Source\PSoC6/CapSense_1_SensingCSD_LL.c **** 
  61:Generated_Source\PSoC6/CapSense_1_SensingCSD_LL.c **** #if(CapSense_1_COARSE_INIT_WATCHDOG_CYCLES_CALC >= CapSense_1_DELAY_EXTRACYCLES_NUM)
  62:Generated_Source\PSoC6/CapSense_1_SensingCSD_LL.c ****     #define CapSense_1_COARSE_INIT_WATCHDOG_CYCLES        (CapSense_1_COARSE_INIT_WATCHDOG_CYCLES_C
  63:Generated_Source\PSoC6/CapSense_1_SensingCSD_LL.c ****                                                                  CapSense_1_DELAY_EXTRACYCLES_NUM)
  64:Generated_Source\PSoC6/CapSense_1_SensingCSD_LL.c **** #else
  65:Generated_Source\PSoC6/CapSense_1_SensingCSD_LL.c ****     #define CapSense_1_COARSE_INIT_WATCHDOG_CYCLES        (CapSense_1_COARSE_INIT_WATCHDOG_CYCLES_C
  66:Generated_Source\PSoC6/CapSense_1_SensingCSD_LL.c **** #endif /* (CapSense_1_COARSE_INIT_WATCHDOG_CYCLES_CALC >= CapSense_1_DELAY_EXTRACYCLES_NUM) */
  67:Generated_Source\PSoC6/CapSense_1_SensingCSD_LL.c **** 
  68:Generated_Source\PSoC6/CapSense_1_SensingCSD_LL.c **** #if (CapSense_1_ENABLE == CapSense_1_CSD_AUTO_ZERO_EN)
  69:Generated_Source\PSoC6/CapSense_1_SensingCSD_LL.c ****     #define CapSense_1_CSD_AZ_ENABLE_CFG                  (CapSense_1_CSD_HSCMP_AZ_EN_MSK)
  70:Generated_Source\PSoC6/CapSense_1_SensingCSD_LL.c **** #else
  71:Generated_Source\PSoC6/CapSense_1_SensingCSD_LL.c ****     #define CapSense_1_CSD_AZ_ENABLE_CFG                  (0uL)
  72:Generated_Source\PSoC6/CapSense_1_SensingCSD_LL.c **** #endif /* (CapSense_1_ENABLE == CapSense_1_CSD_AUTO_ZERO_EN) */
  73:Generated_Source\PSoC6/CapSense_1_SensingCSD_LL.c **** 
  74:Generated_Source\PSoC6/CapSense_1_SensingCSD_LL.c **** #if (CapSense_1_IDAC_SINKING == CapSense_1_CSD_IDAC_CONFIG)
  75:Generated_Source\PSoC6/CapSense_1_SensingCSD_LL.c ****     #define CapSense_1_HSCMP_SCAN_MASK                    (CapSense_1_CSD_HSCMP_HSCMP_EN_MSK | CapS
  76:Generated_Source\PSoC6/CapSense_1_SensingCSD_LL.c ****                                                                  CapSense_1_CSD_HSCMP_HSCMP_INVERT_
  77:Generated_Source\PSoC6/CapSense_1_SensingCSD_LL.c **** #else
  78:Generated_Source\PSoC6/CapSense_1_SensingCSD_LL.c ****     #define CapSense_1_HSCMP_SCAN_MASK                    (CapSense_1_CSD_HSCMP_HSCMP_EN_MSK | CapS
  79:Generated_Source\PSoC6/CapSense_1_SensingCSD_LL.c **** #endif /* (CapSense_1_IDAC_SINKING == CapSense_1_CSD_IDAC_CONFIG) */
  80:Generated_Source\PSoC6/CapSense_1_SensingCSD_LL.c **** 
  81:Generated_Source\PSoC6/CapSense_1_SensingCSD_LL.c **** #define CapSense_1_HSCMP_INIT_MASK                        (CapSense_1_CSD_HSCMP_HSCMP_EN_MSK | CapS
  82:Generated_Source\PSoC6/CapSense_1_SensingCSD_LL.c **** 
  83:Generated_Source\PSoC6/CapSense_1_SensingCSD_LL.c **** #define CapSense_1_DEFAULT_SW_SHIELD_SEL                  (0x00000000uL)
  84:Generated_Source\PSoC6/CapSense_1_SensingCSD_LL.c **** #define CapSense_1_DEFAULT_CSD_SW_DSI_SEL                 (0x00000000uL)
  85:Generated_Source\PSoC6/CapSense_1_SensingCSD_LL.c **** #define CapSense_1_DEFAULT_CSD_INTR_SET                   (0x00000000uL)
  86:Generated_Source\PSoC6/CapSense_1_SensingCSD_LL.c **** #define CapSense_1_DEFAULT_SW_HS_P_SEL                    (0x00000000uL)
  87:Generated_Source\PSoC6/CapSense_1_SensingCSD_LL.c **** #define CapSense_1_DEFAULT_SW_HS_N_SEL                    (0x00000000uL)
ARM GAS  C:\Users\enes_\AppData\Local\Temp\ccsgh5TW.s 			page 3


  88:Generated_Source\PSoC6/CapSense_1_SensingCSD_LL.c **** #define CapSense_1_DEFAULT_CSD_SW_FW_TANK_SEL             (0x00000000uL)
  89:Generated_Source\PSoC6/CapSense_1_SensingCSD_LL.c **** #define CapSense_1_DEFAULT_CSD_ADC_CTL                    (0x00000000uL)
  90:Generated_Source\PSoC6/CapSense_1_SensingCSD_LL.c **** #define CapSense_1_DEFAULT_HSCMP_CFG                      (0x00000000uL)
  91:Generated_Source\PSoC6/CapSense_1_SensingCSD_LL.c **** 
  92:Generated_Source\PSoC6/CapSense_1_SensingCSD_LL.c **** /* CY_ID285392 */
  93:Generated_Source\PSoC6/CapSense_1_SensingCSD_LL.c **** #define CapSense_1_FILTER_DELAY_MAX                   (CapSense_1_CSD_CONFIG_FILTER_DELAY_4_CYCLES)
  94:Generated_Source\PSoC6/CapSense_1_SensingCSD_LL.c **** #define CapSense_1_EXTRA_COUNTS_MAX                   (CapSense_1_FILTER_DELAY_MAX + 5u)
  95:Generated_Source\PSoC6/CapSense_1_SensingCSD_LL.c **** #define CapSense_1_16_BIT_RESOLUTION                  (16uL)
  96:Generated_Source\PSoC6/CapSense_1_SensingCSD_LL.c **** 
  97:Generated_Source\PSoC6/CapSense_1_SensingCSD_LL.c **** #if (CapSense_1_IDAC_SINKING == CapSense_1_CSD_IDAC_CONFIG)
  98:Generated_Source\PSoC6/CapSense_1_SensingCSD_LL.c ****     #if(CapSense_1_ENABLE == CapSense_1_CSD_SHIELD_EN)
  99:Generated_Source\PSoC6/CapSense_1_SensingCSD_LL.c ****         #define CapSense_1_DEFAULT_CSD_IO_SEL             (CapSense_1_CSD_TX_N_OUT_EN_PHI1 | CapSen
 100:Generated_Source\PSoC6/CapSense_1_SensingCSD_LL.c ****                                                                  CapSense_1_CSD_TX_OUT_EN_PHI1_DELA
 101:Generated_Source\PSoC6/CapSense_1_SensingCSD_LL.c ****                                                                  CapSense_1_CSD_TX_OUT_MSK | CapSen
 102:Generated_Source\PSoC6/CapSense_1_SensingCSD_LL.c ****     #else
 103:Generated_Source\PSoC6/CapSense_1_SensingCSD_LL.c ****         #define CapSense_1_DEFAULT_CSD_IO_SEL             (CapSense_1_CSD_TX_N_OUT_EN_PHI1 | CapSen
 104:Generated_Source\PSoC6/CapSense_1_SensingCSD_LL.c ****                                                                                                    
 105:Generated_Source\PSoC6/CapSense_1_SensingCSD_LL.c ****     #endif /* (CapSense_1_ENABLE == CapSense_1_CSD_SHIELD_EN) */
 106:Generated_Source\PSoC6/CapSense_1_SensingCSD_LL.c **** #else
 107:Generated_Source\PSoC6/CapSense_1_SensingCSD_LL.c ****     #if(CapSense_1_ENABLE == CapSense_1_CSD_SHIELD_EN)
 108:Generated_Source\PSoC6/CapSense_1_SensingCSD_LL.c ****         #define CapSense_1_DEFAULT_CSD_IO_SEL             (CapSense_1_CSD_TX_N_OUT_EN_PHI1 | CapSen
 109:Generated_Source\PSoC6/CapSense_1_SensingCSD_LL.c ****                                                                  CapSense_1_CSD_TX_OUT_EN_PHI1_DELA
 110:Generated_Source\PSoC6/CapSense_1_SensingCSD_LL.c ****     #else
 111:Generated_Source\PSoC6/CapSense_1_SensingCSD_LL.c ****         #define CapSense_1_DEFAULT_CSD_IO_SEL             (CapSense_1_CSD_TX_N_OUT_EN_PHI1 | CapSen
 112:Generated_Source\PSoC6/CapSense_1_SensingCSD_LL.c ****     #endif /* (CapSense_1_ENABLE == CapSense_1_CSD_SHIELD_EN) */
 113:Generated_Source\PSoC6/CapSense_1_SensingCSD_LL.c **** #endif /* (CapSense_1_IDAC_SINKING == CapSense_1_CSD_IDAC_CONFIG) */
 114:Generated_Source\PSoC6/CapSense_1_SensingCSD_LL.c **** 
 115:Generated_Source\PSoC6/CapSense_1_SensingCSD_LL.c **** /***************************************
 116:Generated_Source\PSoC6/CapSense_1_SensingCSD_LL.c **** * Variables
 117:Generated_Source\PSoC6/CapSense_1_SensingCSD_LL.c **** ***************************************/
 118:Generated_Source\PSoC6/CapSense_1_SensingCSD_LL.c **** uint32 CapSense_1_configCsd = CapSense_1_DEFAULT_CSD_CONFIG;
 119:Generated_Source\PSoC6/CapSense_1_SensingCSD_LL.c **** /* Flag to indicate electrodes that were connected previously */
 120:Generated_Source\PSoC6/CapSense_1_SensingCSD_LL.c **** static uint8 CapSense_1_eleCsdDisconnectFlag = 0u;
 121:Generated_Source\PSoC6/CapSense_1_SensingCSD_LL.c **** #if (CapSense_1_ENABLE == CapSense_1_CSD_NOISE_METRIC_EN)
 122:Generated_Source\PSoC6/CapSense_1_SensingCSD_LL.c ****     /* Number of re-samplings when the bad conversion occurs */
 123:Generated_Source\PSoC6/CapSense_1_SensingCSD_LL.c ****     uint8 CapSense_1_badConversionsNum = CapSense_1_BAD_CONVERSIONS_NUM;
 124:Generated_Source\PSoC6/CapSense_1_SensingCSD_LL.c **** #endif /* (CapSense_1_ENABLE == CapSense_1_CSD_NOISE_METRIC_EN) */
 125:Generated_Source\PSoC6/CapSense_1_SensingCSD_LL.c **** 
 126:Generated_Source\PSoC6/CapSense_1_SensingCSD_LL.c **** #if (CapSense_1_CSD_SS_DIS != CapSense_1_CSD_AUTOTUNE)
 127:Generated_Source\PSoC6/CapSense_1_SensingCSD_LL.c ****     /* Stores IDAC and raw count that corresponds to a sensor with maximum Cp within a widget */
 128:Generated_Source\PSoC6/CapSense_1_SensingCSD_LL.c ****     uint8 CapSense_1_calibratedIdac = 1u;
 129:Generated_Source\PSoC6/CapSense_1_SensingCSD_LL.c ****     uint16 CapSense_1_calibratedRawcount = 1u;
 130:Generated_Source\PSoC6/CapSense_1_SensingCSD_LL.c ****     #if (CapSense_1_CSD_MATRIX_WIDGET_EN || CapSense_1_CSD_TOUCHPAD_WIDGET_EN)
 131:Generated_Source\PSoC6/CapSense_1_SensingCSD_LL.c ****         uint8 CapSense_1_calibratedIdacRow = 1u;
 132:Generated_Source\PSoC6/CapSense_1_SensingCSD_LL.c ****         uint16 CapSense_1_calibratedRawcountRow = 1u;
 133:Generated_Source\PSoC6/CapSense_1_SensingCSD_LL.c ****     #endif /*(CapSense_1_CSD_MATRIX_WIDGET_EN || CapSense_1_CSD_TOUCHPAD_WIDGET_EN) */
 134:Generated_Source\PSoC6/CapSense_1_SensingCSD_LL.c **** #endif /* (CapSense_1_CSD_SS_DIS != CapSense_1_CSD_AUTOTUNE) */
 135:Generated_Source\PSoC6/CapSense_1_SensingCSD_LL.c **** 
 136:Generated_Source\PSoC6/CapSense_1_SensingCSD_LL.c **** 
 137:Generated_Source\PSoC6/CapSense_1_SensingCSD_LL.c **** /*******************************************************************************
 138:Generated_Source\PSoC6/CapSense_1_SensingCSD_LL.c **** * Static Function Prototypes
 139:Generated_Source\PSoC6/CapSense_1_SensingCSD_LL.c **** *******************************************************************************/
 140:Generated_Source\PSoC6/CapSense_1_SensingCSD_LL.c **** /**
 141:Generated_Source\PSoC6/CapSense_1_SensingCSD_LL.c **** * \cond SECTION_CYSENSE_INTERNAL
 142:Generated_Source\PSoC6/CapSense_1_SensingCSD_LL.c **** * \addtogroup group_cysense_internal
 143:Generated_Source\PSoC6/CapSense_1_SensingCSD_LL.c **** * \{
 144:Generated_Source\PSoC6/CapSense_1_SensingCSD_LL.c **** */
ARM GAS  C:\Users\enes_\AppData\Local\Temp\ccsgh5TW.s 			page 4


 145:Generated_Source\PSoC6/CapSense_1_SensingCSD_LL.c **** 
 146:Generated_Source\PSoC6/CapSense_1_SensingCSD_LL.c **** #if (CapSense_1_ENABLE == CapSense_1_CSD_SHIELD_EN)
 147:Generated_Source\PSoC6/CapSense_1_SensingCSD_LL.c ****     static void CapSense_1_SsSetShieldDelay(uint32 delay);
 148:Generated_Source\PSoC6/CapSense_1_SensingCSD_LL.c **** 
 149:Generated_Source\PSoC6/CapSense_1_SensingCSD_LL.c ****     #if (CapSense_1_ENABLE == CapSense_1_CSD_SHIELD_TANK_EN)
 150:Generated_Source\PSoC6/CapSense_1_SensingCSD_LL.c ****         static void CapSense_1_SsCSDEnableShieldTank(void);
 151:Generated_Source\PSoC6/CapSense_1_SensingCSD_LL.c ****     #endif /* (CapSense_1_ENABLE == CapSense_1_CSD_SHIELD_TANK_EN) */
 152:Generated_Source\PSoC6/CapSense_1_SensingCSD_LL.c **** 
 153:Generated_Source\PSoC6/CapSense_1_SensingCSD_LL.c ****     #if (0u != CapSense_1_CSD_TOTAL_SHIELD_COUNT)
 154:Generated_Source\PSoC6/CapSense_1_SensingCSD_LL.c ****         static void CapSense_1_SsCSDEnableShieldElectrodes(void);
 155:Generated_Source\PSoC6/CapSense_1_SensingCSD_LL.c ****     #endif /* (0u != CapSense_1_CSD_TOTAL_SHIELD_COUNT) */
 156:Generated_Source\PSoC6/CapSense_1_SensingCSD_LL.c **** 
 157:Generated_Source\PSoC6/CapSense_1_SensingCSD_LL.c **** #endif /* (CapSense_1_ENABLE == CapSense_1_CSD_SHIELD_EN) */
 158:Generated_Source\PSoC6/CapSense_1_SensingCSD_LL.c **** 
 159:Generated_Source\PSoC6/CapSense_1_SensingCSD_LL.c **** #if ((CapSense_1_CSD_SS_DIS != CapSense_1_CSD_AUTOTUNE) || \
 160:Generated_Source\PSoC6/CapSense_1_SensingCSD_LL.c ****      (CapSense_1_ENABLE == CapSense_1_CSD_IDAC_AUTOCAL_EN))
 161:Generated_Source\PSoC6/CapSense_1_SensingCSD_LL.c **** 
 162:Generated_Source\PSoC6/CapSense_1_SensingCSD_LL.c ****     static cy_status CapSense_1_SsCSDCalibrateCheck(CapSense_1_RAM_WD_BASE_STRUCT const *ptrWdgt, u
 163:Generated_Source\PSoC6/CapSense_1_SensingCSD_LL.c **** 
 164:Generated_Source\PSoC6/CapSense_1_SensingCSD_LL.c ****     #if (CapSense_1_ENABLE == CapSense_1_CSD_IDAC_COMP_EN)
 165:Generated_Source\PSoC6/CapSense_1_SensingCSD_LL.c ****         static void CapSense_1_SsCSDSetSingleIdacMode(void);
 166:Generated_Source\PSoC6/CapSense_1_SensingCSD_LL.c ****         static void CapSense_1_SsCSDRestoreIdacMode(void);
 167:Generated_Source\PSoC6/CapSense_1_SensingCSD_LL.c ****     #endif /* (CapSense_1_ENABLE == CapSense_1_CSD_IDAC_COMP_EN) */
 168:Generated_Source\PSoC6/CapSense_1_SensingCSD_LL.c ****     static cy_status CapSense_1_SsCSDCalibrateOneSensor(uint32 rawLevel,
 169:Generated_Source\PSoC6/CapSense_1_SensingCSD_LL.c ****                                                              uint8 *ptrIdac,
 170:Generated_Source\PSoC6/CapSense_1_SensingCSD_LL.c ****                                                              uint8 *iDAC8Max);
 171:Generated_Source\PSoC6/CapSense_1_SensingCSD_LL.c **** #endif /* ((CapSense_1_CSD_SS_DIS != CapSense_1_CSD_AUTOTUNE) || \
 172:Generated_Source\PSoC6/CapSense_1_SensingCSD_LL.c ****            (CapSense_1_ENABLE == CapSense_1_CSD_IDAC_AUTOCAL_EN)) */
 173:Generated_Source\PSoC6/CapSense_1_SensingCSD_LL.c **** 
 174:Generated_Source\PSoC6/CapSense_1_SensingCSD_LL.c **** static void CapSense_1_SsCSDSetFilterDelay(void);
 175:Generated_Source\PSoC6/CapSense_1_SensingCSD_LL.c **** static void CapSense_1_SsCSDCmodPrecharge(void);
 176:Generated_Source\PSoC6/CapSense_1_SensingCSD_LL.c **** static void CapSense_1_SsCSDTriggerScan(void);
 177:Generated_Source\PSoC6/CapSense_1_SensingCSD_LL.c **** static void CapSense_1_SsCSDConfigIDACs(void);
 178:Generated_Source\PSoC6/CapSense_1_SensingCSD_LL.c **** 
 179:Generated_Source\PSoC6/CapSense_1_SensingCSD_LL.c **** static void CapSense_1_SsCSDSetModeSnsClockDivider(uint32 snsClkSource, uint32 snsClkDivider);
 180:Generated_Source\PSoC6/CapSense_1_SensingCSD_LL.c **** 
 181:Generated_Source\PSoC6/CapSense_1_SensingCSD_LL.c **** /** \}
 182:Generated_Source\PSoC6/CapSense_1_SensingCSD_LL.c **** * \endcond */
 183:Generated_Source\PSoC6/CapSense_1_SensingCSD_LL.c **** 
 184:Generated_Source\PSoC6/CapSense_1_SensingCSD_LL.c **** 
 185:Generated_Source\PSoC6/CapSense_1_SensingCSD_LL.c **** #if (CapSense_1_ENABLE == CapSense_1_CSD_SHIELD_EN)
 186:Generated_Source\PSoC6/CapSense_1_SensingCSD_LL.c ****     /*******************************************************************************
 187:Generated_Source\PSoC6/CapSense_1_SensingCSD_LL.c ****     * Function Name: CapSense_1_SsSetShieldDelay
 188:Generated_Source\PSoC6/CapSense_1_SensingCSD_LL.c ****     ****************************************************************************//**
 189:Generated_Source\PSoC6/CapSense_1_SensingCSD_LL.c ****     *
 190:Generated_Source\PSoC6/CapSense_1_SensingCSD_LL.c ****     * \brief
 191:Generated_Source\PSoC6/CapSense_1_SensingCSD_LL.c ****     *   This is an internal function that sets a shield delay.
 192:Generated_Source\PSoC6/CapSense_1_SensingCSD_LL.c ****     *
 193:Generated_Source\PSoC6/CapSense_1_SensingCSD_LL.c ****     * \details
 194:Generated_Source\PSoC6/CapSense_1_SensingCSD_LL.c ****     *   The function updates the CSD configuration register bits that define the shield
 195:Generated_Source\PSoC6/CapSense_1_SensingCSD_LL.c ****     *   signal delay relatively to the sense signal.
 196:Generated_Source\PSoC6/CapSense_1_SensingCSD_LL.c ****     *
 197:Generated_Source\PSoC6/CapSense_1_SensingCSD_LL.c ****     * \param delay
 198:Generated_Source\PSoC6/CapSense_1_SensingCSD_LL.c ****     *   Specifies the shield delay value:
 199:Generated_Source\PSoC6/CapSense_1_SensingCSD_LL.c ****     *                               0 - no delay
 200:Generated_Source\PSoC6/CapSense_1_SensingCSD_LL.c ****     *                               1 - 5ns delay
 201:Generated_Source\PSoC6/CapSense_1_SensingCSD_LL.c ****     *                               2 - 10ns delay
ARM GAS  C:\Users\enes_\AppData\Local\Temp\ccsgh5TW.s 			page 5


 202:Generated_Source\PSoC6/CapSense_1_SensingCSD_LL.c ****     *                               3 - 20ns delay
 203:Generated_Source\PSoC6/CapSense_1_SensingCSD_LL.c ****     *
 204:Generated_Source\PSoC6/CapSense_1_SensingCSD_LL.c ****     *******************************************************************************/
 205:Generated_Source\PSoC6/CapSense_1_SensingCSD_LL.c ****     static void CapSense_1_SsSetShieldDelay(uint32 delay)
 206:Generated_Source\PSoC6/CapSense_1_SensingCSD_LL.c ****     {
 207:Generated_Source\PSoC6/CapSense_1_SensingCSD_LL.c ****         /* Update CSD config register shield delay bits with shield delay value */
 208:Generated_Source\PSoC6/CapSense_1_SensingCSD_LL.c ****         CapSense_1_configCsd &= (uint32)(~CapSense_1_CSD_CONFIG_SHIELD_DELAY_MSK);
 209:Generated_Source\PSoC6/CapSense_1_SensingCSD_LL.c ****         CapSense_1_configCsd |= (delay << CapSense_1_CSD_CONFIG_SHIELD_DELAY_POS);
 210:Generated_Source\PSoC6/CapSense_1_SensingCSD_LL.c ****     }
 211:Generated_Source\PSoC6/CapSense_1_SensingCSD_LL.c **** 
 212:Generated_Source\PSoC6/CapSense_1_SensingCSD_LL.c ****     #if (CapSense_1_ENABLE == CapSense_1_CSD_SHIELD_TANK_EN)
 213:Generated_Source\PSoC6/CapSense_1_SensingCSD_LL.c ****         /*******************************************************************************
 214:Generated_Source\PSoC6/CapSense_1_SensingCSD_LL.c ****         * Function Name: CapSense_1_SsCSDEnableShieldTank
 215:Generated_Source\PSoC6/CapSense_1_SensingCSD_LL.c ****         ****************************************************************************//**
 216:Generated_Source\PSoC6/CapSense_1_SensingCSD_LL.c ****         *
 217:Generated_Source\PSoC6/CapSense_1_SensingCSD_LL.c ****         * \brief
 218:Generated_Source\PSoC6/CapSense_1_SensingCSD_LL.c ****         *   This function configures Csh pin
 219:Generated_Source\PSoC6/CapSense_1_SensingCSD_LL.c ****         *
 220:Generated_Source\PSoC6/CapSense_1_SensingCSD_LL.c ****         * \details
 221:Generated_Source\PSoC6/CapSense_1_SensingCSD_LL.c ****         *   The function updates the CSH_HSIOM register to connect Csh to AMUXBUS-B.
 222:Generated_Source\PSoC6/CapSense_1_SensingCSD_LL.c ****         *   For CSD v1 IP HW block it additionally sets Strong drive mode for Csh
 223:Generated_Source\PSoC6/CapSense_1_SensingCSD_LL.c ****         *   and applies High level to Csh pin when precharge is set to IO buffer.
 224:Generated_Source\PSoC6/CapSense_1_SensingCSD_LL.c ****         *
 225:Generated_Source\PSoC6/CapSense_1_SensingCSD_LL.c ****         *******************************************************************************/
 226:Generated_Source\PSoC6/CapSense_1_SensingCSD_LL.c ****         static void CapSense_1_SsCSDEnableShieldTank(void)
 227:Generated_Source\PSoC6/CapSense_1_SensingCSD_LL.c ****         {
 228:Generated_Source\PSoC6/CapSense_1_SensingCSD_LL.c ****             Cy_GPIO_SetDrivemode((GPIO_PRT_Type*)CapSense_1_CSD_CTANK_PORT_PTR, CapSense_1_CSD_CTAN
 229:Generated_Source\PSoC6/CapSense_1_SensingCSD_LL.c ****             Cy_GPIO_SetHSIOM((GPIO_PRT_Type*)CapSense_1_CSD_CTANK_PORT_PTR, CapSense_1_CSD_CTANK_PI
 230:Generated_Source\PSoC6/CapSense_1_SensingCSD_LL.c ****                                                                        (en_hsiom_sel_t)CapSense_1_H
 231:Generated_Source\PSoC6/CapSense_1_SensingCSD_LL.c ****         }
 232:Generated_Source\PSoC6/CapSense_1_SensingCSD_LL.c ****     #endif /* (CapSense_1_ENABLE == CapSense_1_CSD_SHIELD_TANK_EN) */
 233:Generated_Source\PSoC6/CapSense_1_SensingCSD_LL.c **** 
 234:Generated_Source\PSoC6/CapSense_1_SensingCSD_LL.c ****     #if (0u != CapSense_1_CSD_TOTAL_SHIELD_COUNT)
 235:Generated_Source\PSoC6/CapSense_1_SensingCSD_LL.c ****         /*******************************************************************************
 236:Generated_Source\PSoC6/CapSense_1_SensingCSD_LL.c ****         * Function Name: CapSense_1_SsCSDEnableShieldElectrodes
 237:Generated_Source\PSoC6/CapSense_1_SensingCSD_LL.c ****         ****************************************************************************//**
 238:Generated_Source\PSoC6/CapSense_1_SensingCSD_LL.c ****         *
 239:Generated_Source\PSoC6/CapSense_1_SensingCSD_LL.c ****         * \brief
 240:Generated_Source\PSoC6/CapSense_1_SensingCSD_LL.c ****         *   This internal function initializes Shield Electrodes.
 241:Generated_Source\PSoC6/CapSense_1_SensingCSD_LL.c ****         *
 242:Generated_Source\PSoC6/CapSense_1_SensingCSD_LL.c ****         * \details
 243:Generated_Source\PSoC6/CapSense_1_SensingCSD_LL.c ****         *   The function sets the bit in the HSIOM register which enables the shield electrode
 244:Generated_Source\PSoC6/CapSense_1_SensingCSD_LL.c ****         *   functionality on the pin. The port and pin configurations are stored in
 245:Generated_Source\PSoC6/CapSense_1_SensingCSD_LL.c ****         *   the CapSense_1_shieldIoList structure.
 246:Generated_Source\PSoC6/CapSense_1_SensingCSD_LL.c ****         *
 247:Generated_Source\PSoC6/CapSense_1_SensingCSD_LL.c ****         *******************************************************************************/
 248:Generated_Source\PSoC6/CapSense_1_SensingCSD_LL.c ****         static void CapSense_1_SsCSDEnableShieldElectrodes(void)
 249:Generated_Source\PSoC6/CapSense_1_SensingCSD_LL.c ****         {
 250:Generated_Source\PSoC6/CapSense_1_SensingCSD_LL.c ****             uint32 shieldIndex;
 251:Generated_Source\PSoC6/CapSense_1_SensingCSD_LL.c ****             CapSense_1_FLASH_IO_STRUCT shieldIO;
 252:Generated_Source\PSoC6/CapSense_1_SensingCSD_LL.c **** 
 253:Generated_Source\PSoC6/CapSense_1_SensingCSD_LL.c ****             for (shieldIndex = 0u; shieldIndex < CapSense_1_CSD_TOTAL_SHIELD_COUNT; shieldIndex++)
 254:Generated_Source\PSoC6/CapSense_1_SensingCSD_LL.c ****             {
 255:Generated_Source\PSoC6/CapSense_1_SensingCSD_LL.c ****                 shieldIO = CapSense_1_shieldIoList[shieldIndex];
 256:Generated_Source\PSoC6/CapSense_1_SensingCSD_LL.c ****                 Cy_GPIO_SetDrivemode((GPIO_PRT_Type*)shieldIO.pcPtr, (uint32)shieldIO.pinNumber, Ca
 257:Generated_Source\PSoC6/CapSense_1_SensingCSD_LL.c ****                 Cy_GPIO_SetHSIOM((GPIO_PRT_Type*)shieldIO.pcPtr, (uint32)shieldIO.pinNumber, (en_hs
 258:Generated_Source\PSoC6/CapSense_1_SensingCSD_LL.c ****             }
ARM GAS  C:\Users\enes_\AppData\Local\Temp\ccsgh5TW.s 			page 6


 259:Generated_Source\PSoC6/CapSense_1_SensingCSD_LL.c ****         }
 260:Generated_Source\PSoC6/CapSense_1_SensingCSD_LL.c **** 
 261:Generated_Source\PSoC6/CapSense_1_SensingCSD_LL.c **** 
 262:Generated_Source\PSoC6/CapSense_1_SensingCSD_LL.c ****         /*******************************************************************************
 263:Generated_Source\PSoC6/CapSense_1_SensingCSD_LL.c ****         * Function Name: CapSense_1_SsCSDDisableShieldElectrodes
 264:Generated_Source\PSoC6/CapSense_1_SensingCSD_LL.c ****         ****************************************************************************//**
 265:Generated_Source\PSoC6/CapSense_1_SensingCSD_LL.c ****         *
 266:Generated_Source\PSoC6/CapSense_1_SensingCSD_LL.c ****         * \brief
 267:Generated_Source\PSoC6/CapSense_1_SensingCSD_LL.c ****         *   This internal function disables Shield Electrodes.
 268:Generated_Source\PSoC6/CapSense_1_SensingCSD_LL.c ****         *
 269:Generated_Source\PSoC6/CapSense_1_SensingCSD_LL.c ****         * \details
 270:Generated_Source\PSoC6/CapSense_1_SensingCSD_LL.c ****         *   The function resets the bit in the HSIOM register which disables the shield
 271:Generated_Source\PSoC6/CapSense_1_SensingCSD_LL.c ****         *   electrode functionality on the pin. The port and pin configurations are
 272:Generated_Source\PSoC6/CapSense_1_SensingCSD_LL.c ****         *   stored in  the CapSense_1_shieldIoList structure.
 273:Generated_Source\PSoC6/CapSense_1_SensingCSD_LL.c ****         *
 274:Generated_Source\PSoC6/CapSense_1_SensingCSD_LL.c ****         *******************************************************************************/
 275:Generated_Source\PSoC6/CapSense_1_SensingCSD_LL.c ****         void CapSense_1_SsCSDDisableShieldElectrodes(void)
 276:Generated_Source\PSoC6/CapSense_1_SensingCSD_LL.c ****         {
 277:Generated_Source\PSoC6/CapSense_1_SensingCSD_LL.c ****             uint32 shieldIndex;
 278:Generated_Source\PSoC6/CapSense_1_SensingCSD_LL.c ****             CapSense_1_FLASH_IO_STRUCT shieldIO;
 279:Generated_Source\PSoC6/CapSense_1_SensingCSD_LL.c **** 
 280:Generated_Source\PSoC6/CapSense_1_SensingCSD_LL.c ****             for (shieldIndex = 0u; shieldIndex < CapSense_1_CSD_TOTAL_SHIELD_COUNT; shieldIndex++)
 281:Generated_Source\PSoC6/CapSense_1_SensingCSD_LL.c ****             {
 282:Generated_Source\PSoC6/CapSense_1_SensingCSD_LL.c ****                 shieldIO = CapSense_1_shieldIoList[shieldIndex];
 283:Generated_Source\PSoC6/CapSense_1_SensingCSD_LL.c **** 
 284:Generated_Source\PSoC6/CapSense_1_SensingCSD_LL.c ****                 Cy_GPIO_SetHSIOM((GPIO_PRT_Type*)shieldIO.pcPtr, (uint32)shieldIO.pinNumber, (en_hs
 285:Generated_Source\PSoC6/CapSense_1_SensingCSD_LL.c ****                 Cy_GPIO_SetDrivemode((GPIO_PRT_Type*)shieldIO.pcPtr, (uint32)shieldIO.pinNumber, CY
 286:Generated_Source\PSoC6/CapSense_1_SensingCSD_LL.c ****                 Cy_GPIO_Clr((GPIO_PRT_Type*)shieldIO.pcPtr, (uint32)shieldIO.pinNumber);
 287:Generated_Source\PSoC6/CapSense_1_SensingCSD_LL.c ****             }
 288:Generated_Source\PSoC6/CapSense_1_SensingCSD_LL.c ****         }
 289:Generated_Source\PSoC6/CapSense_1_SensingCSD_LL.c ****     #endif /* (0u != CapSense_1_CSD_TOTAL_SHIELD_COUNT) */
 290:Generated_Source\PSoC6/CapSense_1_SensingCSD_LL.c **** #endif /* (CapSense_1_ENABLE == CapSense_1_CSD_SHIELD_EN) */
 291:Generated_Source\PSoC6/CapSense_1_SensingCSD_LL.c **** 
 292:Generated_Source\PSoC6/CapSense_1_SensingCSD_LL.c **** 
 293:Generated_Source\PSoC6/CapSense_1_SensingCSD_LL.c **** /*******************************************************************************
 294:Generated_Source\PSoC6/CapSense_1_SensingCSD_LL.c **** * Function Name: CapSense_1_SsCSDSetModeSnsClockDivider
 295:Generated_Source\PSoC6/CapSense_1_SensingCSD_LL.c **** ****************************************************************************//**
 296:Generated_Source\PSoC6/CapSense_1_SensingCSD_LL.c **** *
 297:Generated_Source\PSoC6/CapSense_1_SensingCSD_LL.c **** * \brief
 298:Generated_Source\PSoC6/CapSense_1_SensingCSD_LL.c **** *  Sets sense source and Sense Clock Divider
 299:Generated_Source\PSoC6/CapSense_1_SensingCSD_LL.c **** *
 300:Generated_Source\PSoC6/CapSense_1_SensingCSD_LL.c **** * \details
 301:Generated_Source\PSoC6/CapSense_1_SensingCSD_LL.c **** *  Updates CapSense_1_SENSE_PERIOD register with
 302:Generated_Source\PSoC6/CapSense_1_SensingCSD_LL.c **** *  sense source and Sense Clock Divider.
 303:Generated_Source\PSoC6/CapSense_1_SensingCSD_LL.c **** *
 304:Generated_Source\PSoC6/CapSense_1_SensingCSD_LL.c **** * \param snsClkSource
 305:Generated_Source\PSoC6/CapSense_1_SensingCSD_LL.c **** *  The sense source for the sense clock.
 306:Generated_Source\PSoC6/CapSense_1_SensingCSD_LL.c **** *
 307:Generated_Source\PSoC6/CapSense_1_SensingCSD_LL.c **** * \param snsClkDivider
 308:Generated_Source\PSoC6/CapSense_1_SensingCSD_LL.c **** *  The divider value for the sense clock.
 309:Generated_Source\PSoC6/CapSense_1_SensingCSD_LL.c **** *
 310:Generated_Source\PSoC6/CapSense_1_SensingCSD_LL.c **** *******************************************************************************/
 311:Generated_Source\PSoC6/CapSense_1_SensingCSD_LL.c **** static void CapSense_1_SsCSDSetModeSnsClockDivider(uint32 snsClkSource, uint32 snsClkDivider)
 312:Generated_Source\PSoC6/CapSense_1_SensingCSD_LL.c **** {
  28              		.loc 1 312 0
  29              		.cfi_startproc
  30              		@ args = 0, pretend = 0, frame = 0
ARM GAS  C:\Users\enes_\AppData\Local\Temp\ccsgh5TW.s 			page 7


  31              		@ frame_needed = 0, uses_anonymous_args = 0
  32              		@ link register save eliminated.
  33              	.LVL0:
 313:Generated_Source\PSoC6/CapSense_1_SensingCSD_LL.c ****     /* Update reg value with divider and configuration */
 314:Generated_Source\PSoC6/CapSense_1_SensingCSD_LL.c ****     CY_SET_REG32(CapSense_1_CSD_SENSE_PERIOD_PTR, snsClkSource | (snsClkDivider - 1u));
  34              		.loc 1 314 0
  35 0000 0139     		subs	r1, r1, #1
  36              	.LVL1:
  37 0002 0843     		orrs	r0, r0, r1
  38              	.LVL2:
  39 0004 014B     		ldr	r3, .L2
  40 0006 1860     		str	r0, [r3]
  41 0008 7047     		bx	lr
  42              	.L3:
  43 000a 00BF     		.align	2
  44              	.L2:
  45 000c 00023640 		.word	1077281280
  46              		.cfi_endproc
  47              	.LFE273:
  48              		.size	CapSense_1_SsCSDSetModeSnsClockDivider, .-CapSense_1_SsCSDSetModeSnsClockDivider
  49              		.section	.text.CapSense_1_SsCSDSetFilterDelay,"ax",%progbits
  50              		.align	2
  51              		.thumb
  52              		.thumb_func
  53              		.type	CapSense_1_SsCSDSetFilterDelay, %function
  54              	CapSense_1_SsCSDSetFilterDelay:
  55              	.LFB274:
 315:Generated_Source\PSoC6/CapSense_1_SensingCSD_LL.c **** }
 316:Generated_Source\PSoC6/CapSense_1_SensingCSD_LL.c **** 
 317:Generated_Source\PSoC6/CapSense_1_SensingCSD_LL.c **** 
 318:Generated_Source\PSoC6/CapSense_1_SensingCSD_LL.c **** /*******************************************************************************
 319:Generated_Source\PSoC6/CapSense_1_SensingCSD_LL.c **** * Function Name: CapSense_1_SsCSDSetFilterDelay
 320:Generated_Source\PSoC6/CapSense_1_SensingCSD_LL.c **** ****************************************************************************//**
 321:Generated_Source\PSoC6/CapSense_1_SensingCSD_LL.c **** *
 322:Generated_Source\PSoC6/CapSense_1_SensingCSD_LL.c **** * \brief
 323:Generated_Source\PSoC6/CapSense_1_SensingCSD_LL.c **** *   Sets the filter delay for HW IP block.
 324:Generated_Source\PSoC6/CapSense_1_SensingCSD_LL.c **** *
 325:Generated_Source\PSoC6/CapSense_1_SensingCSD_LL.c **** * \details
 326:Generated_Source\PSoC6/CapSense_1_SensingCSD_LL.c **** *   This function updates HW configuration variable CapSense_1_configCsd
 327:Generated_Source\PSoC6/CapSense_1_SensingCSD_LL.c **** *   with the filter delay which depends on the sample clock frequency.
 328:Generated_Source\PSoC6/CapSense_1_SensingCSD_LL.c **** *   This variable is written into CONFIG register during enabling
 329:Generated_Source\PSoC6/CapSense_1_SensingCSD_LL.c **** *   to HW IP block.
 330:Generated_Source\PSoC6/CapSense_1_SensingCSD_LL.c **** *
 331:Generated_Source\PSoC6/CapSense_1_SensingCSD_LL.c **** *******************************************************************************/
 332:Generated_Source\PSoC6/CapSense_1_SensingCSD_LL.c **** static void CapSense_1_SsCSDSetFilterDelay(void)
 333:Generated_Source\PSoC6/CapSense_1_SensingCSD_LL.c **** {
  56              		.loc 1 333 0
  57              		.cfi_startproc
  58              		@ args = 0, pretend = 0, frame = 0
  59              		@ frame_needed = 0, uses_anonymous_args = 0
  60              		@ link register save eliminated.
 334:Generated_Source\PSoC6/CapSense_1_SensingCSD_LL.c ****     #if (CapSense_1_MOD_CSD_CLK_12MHZ < CYDEV_CLK_PERICLK__HZ)
 335:Generated_Source\PSoC6/CapSense_1_SensingCSD_LL.c ****         uint32 sampleClkFreqHz;
 336:Generated_Source\PSoC6/CapSense_1_SensingCSD_LL.c ****     #endif /* (CapSense_1_MOD_CSD_CLK_12MHZ < CYDEV_CLK_PERICLK__HZ) */
 337:Generated_Source\PSoC6/CapSense_1_SensingCSD_LL.c **** 
 338:Generated_Source\PSoC6/CapSense_1_SensingCSD_LL.c ****     CapSense_1_configCsd &= ~CapSense_1_CSD_CONFIG_FILTER_DELAY_MSK;
  61              		.loc 1 338 0
ARM GAS  C:\Users\enes_\AppData\Local\Temp\ccsgh5TW.s 			page 8


  62 0000 0E4B     		ldr	r3, .L8
  63 0002 1B68     		ldr	r3, [r3]
  64 0004 23F4F873 		bic	r3, r3, #496
 339:Generated_Source\PSoC6/CapSense_1_SensingCSD_LL.c **** 
 340:Generated_Source\PSoC6/CapSense_1_SensingCSD_LL.c ****     #if (CapSense_1_MOD_CSD_CLK_12MHZ < CYDEV_CLK_PERICLK__HZ)
 341:Generated_Source\PSoC6/CapSense_1_SensingCSD_LL.c ****         sampleClkFreqHz = CYDEV_CLK_PERICLK__HZ / (uint32)CapSense_1_dsRam.modCsdClk;
  65              		.loc 1 341 0
  66 0008 0D4A     		ldr	r2, .L8+4
  67 000a 917F     		ldrb	r1, [r2, #30]	@ zero_extendqisi2
  68 000c 0D4A     		ldr	r2, .L8+8
  69 000e B2FBF1F2 		udiv	r2, r2, r1
  70              	.LVL3:
 342:Generated_Source\PSoC6/CapSense_1_SensingCSD_LL.c ****         if(sampleClkFreqHz <= CapSense_1_MOD_CSD_CLK_12MHZ)
  71              		.loc 1 342 0
  72 0012 0D49     		ldr	r1, .L8+12
  73 0014 8A42     		cmp	r2, r1
  74 0016 04D8     		bhi	.L5
 343:Generated_Source\PSoC6/CapSense_1_SensingCSD_LL.c ****         {
 344:Generated_Source\PSoC6/CapSense_1_SensingCSD_LL.c ****             CapSense_1_configCsd |= CapSense_1_CSD_CONFIG_FILTER_DELAY_12MHZ;
  75              		.loc 1 344 0
  76 0018 43F02003 		orr	r3, r3, #32
  77 001c 074A     		ldr	r2, .L8
  78              	.LVL4:
  79 001e 1360     		str	r3, [r2]
  80 0020 7047     		bx	lr
  81              	.LVL5:
  82              	.L5:
 345:Generated_Source\PSoC6/CapSense_1_SensingCSD_LL.c ****         }
 346:Generated_Source\PSoC6/CapSense_1_SensingCSD_LL.c ****         else if(sampleClkFreqHz <= CapSense_1_MOD_CSD_CLK_24MHZ)
  83              		.loc 1 346 0
  84 0022 0A49     		ldr	r1, .L8+16
  85 0024 8A42     		cmp	r2, r1
  86 0026 04D8     		bhi	.L7
 347:Generated_Source\PSoC6/CapSense_1_SensingCSD_LL.c ****         {
 348:Generated_Source\PSoC6/CapSense_1_SensingCSD_LL.c ****             CapSense_1_configCsd |= CapSense_1_CSD_CONFIG_FILTER_DELAY_24MHZ;
  87              		.loc 1 348 0
  88 0028 43F03003 		orr	r3, r3, #48
  89 002c 034A     		ldr	r2, .L8
  90              	.LVL6:
  91 002e 1360     		str	r3, [r2]
  92 0030 7047     		bx	lr
  93              	.LVL7:
  94              	.L7:
 349:Generated_Source\PSoC6/CapSense_1_SensingCSD_LL.c ****         }
 350:Generated_Source\PSoC6/CapSense_1_SensingCSD_LL.c ****         else
 351:Generated_Source\PSoC6/CapSense_1_SensingCSD_LL.c ****         {
 352:Generated_Source\PSoC6/CapSense_1_SensingCSD_LL.c ****             CapSense_1_configCsd |= CapSense_1_CSD_CONFIG_FILTER_DELAY_48MHZ;
  95              		.loc 1 352 0
  96 0032 43F04003 		orr	r3, r3, #64
  97 0036 014A     		ldr	r2, .L8
  98              	.LVL8:
  99 0038 1360     		str	r3, [r2]
 100 003a 7047     		bx	lr
 101              	.L9:
 102              		.align	2
 103              	.L8:
 104 003c 00000000 		.word	.LANCHOR0
ARM GAS  C:\Users\enes_\AppData\Local\Temp\ccsgh5TW.s 			page 9


 105 0040 00000000 		.word	CapSense_1_dsRam
 106 0044 80F0FA02 		.word	50000000
 107 0048 001BB700 		.word	12000000
 108 004c 00366E01 		.word	24000000
 109              		.cfi_endproc
 110              	.LFE274:
 111              		.size	CapSense_1_SsCSDSetFilterDelay, .-CapSense_1_SsCSDSetFilterDelay
 112              		.section	.text.CapSense_1_SsCSDConfigIDACs,"ax",%progbits
 113              		.align	2
 114              		.thumb
 115              		.thumb_func
 116              		.type	CapSense_1_SsCSDConfigIDACs, %function
 117              	CapSense_1_SsCSDConfigIDACs:
 118              	.LFB275:
 353:Generated_Source\PSoC6/CapSense_1_SensingCSD_LL.c ****         }
 354:Generated_Source\PSoC6/CapSense_1_SensingCSD_LL.c ****     #else
 355:Generated_Source\PSoC6/CapSense_1_SensingCSD_LL.c ****         CapSense_1_configCsd |= CapSense_1_CSD_CONFIG_FILTER_DELAY_12MHZ;
 356:Generated_Source\PSoC6/CapSense_1_SensingCSD_LL.c ****     #endif /* (CapSense_1_MOD_CSD_CLK_12MHZ < CYDEV_CLK_PERICLK__HZ) */
 357:Generated_Source\PSoC6/CapSense_1_SensingCSD_LL.c **** }
 358:Generated_Source\PSoC6/CapSense_1_SensingCSD_LL.c **** 
 359:Generated_Source\PSoC6/CapSense_1_SensingCSD_LL.c **** 
 360:Generated_Source\PSoC6/CapSense_1_SensingCSD_LL.c **** /*******************************************************************************
 361:Generated_Source\PSoC6/CapSense_1_SensingCSD_LL.c **** * Function Name: CapSense_1_SsCSDConfigIDACs
 362:Generated_Source\PSoC6/CapSense_1_SensingCSD_LL.c **** ****************************************************************************//**
 363:Generated_Source\PSoC6/CapSense_1_SensingCSD_LL.c **** *
 364:Generated_Source\PSoC6/CapSense_1_SensingCSD_LL.c **** * \brief
 365:Generated_Source\PSoC6/CapSense_1_SensingCSD_LL.c **** *   Configures the mode for IDAC registers
 366:Generated_Source\PSoC6/CapSense_1_SensingCSD_LL.c **** *
 367:Generated_Source\PSoC6/CapSense_1_SensingCSD_LL.c **** * \details
 368:Generated_Source\PSoC6/CapSense_1_SensingCSD_LL.c **** *   This function configures the IDAC modes depend on Compensation IDAC
 369:Generated_Source\PSoC6/CapSense_1_SensingCSD_LL.c **** *   enabled or disabled.
 370:Generated_Source\PSoC6/CapSense_1_SensingCSD_LL.c **** *
 371:Generated_Source\PSoC6/CapSense_1_SensingCSD_LL.c **** *******************************************************************************/
 372:Generated_Source\PSoC6/CapSense_1_SensingCSD_LL.c **** static void CapSense_1_SsCSDConfigIDACs(void)
 373:Generated_Source\PSoC6/CapSense_1_SensingCSD_LL.c **** {
 119              		.loc 1 373 0
 120              		.cfi_startproc
 121              		@ args = 0, pretend = 0, frame = 0
 122              		@ frame_needed = 0, uses_anonymous_args = 0
 123              		@ link register save eliminated.
 374:Generated_Source\PSoC6/CapSense_1_SensingCSD_LL.c ****     CY_SET_REG32(CapSense_1_CSD_IDACA_PTR, CapSense_1_IDAC_MOD_DEFAULT_CFG);
 124              		.loc 1 374 0
 125 0000 044A     		ldr	r2, .L11
 126 0002 054B     		ldr	r3, .L11+4
 127 0004 1A60     		str	r2, [r3]
 375:Generated_Source\PSoC6/CapSense_1_SensingCSD_LL.c ****     #if ((CapSense_1_ENABLE == CapSense_1_CSD_IDAC_COMP_EN) && \
 376:Generated_Source\PSoC6/CapSense_1_SensingCSD_LL.c ****          (CapSense_1_ENABLE == CapSense_1_CSD_DEDICATED_IDAC_COMP_EN))
 377:Generated_Source\PSoC6/CapSense_1_SensingCSD_LL.c ****         CY_SET_REG32(CapSense_1_CSD_IDACB_PTR, CapSense_1_IDAC_COMP_DEFAULT_CFG);
 128              		.loc 1 377 0
 129 0006 4FF0C172 		mov	r2, #25296896
 130 000a 03F58073 		add	r3, r3, #256
 131 000e 1A60     		str	r2, [r3]
 132 0010 7047     		bx	lr
 133              	.L12:
 134 0012 00BF     		.align	2
 135              	.L11:
 136 0014 00008301 		.word	25362432
ARM GAS  C:\Users\enes_\AppData\Local\Temp\ccsgh5TW.s 			page 10


 137 0018 00043640 		.word	1077281792
 138              		.cfi_endproc
 139              	.LFE275:
 140              		.size	CapSense_1_SsCSDConfigIDACs, .-CapSense_1_SsCSDConfigIDACs
 141              		.section	.text.CapSense_1_SsCSDSetSingleIdacMode,"ax",%progbits
 142              		.align	2
 143              		.thumb
 144              		.thumb_func
 145              		.type	CapSense_1_SsCSDSetSingleIdacMode, %function
 146              	CapSense_1_SsCSDSetSingleIdacMode:
 147              	.LFB291:
 378:Generated_Source\PSoC6/CapSense_1_SensingCSD_LL.c ****     #endif /* ((CapSense_1_ENABLE == CapSense_1_CSD_IDAC_COMP_EN) && \
 379:Generated_Source\PSoC6/CapSense_1_SensingCSD_LL.c ****                (CapSense_1_ENABLE == CapSense_1_CSD_DEDICATED_IDAC_COMP_EN)) */
 380:Generated_Source\PSoC6/CapSense_1_SensingCSD_LL.c **** }
 381:Generated_Source\PSoC6/CapSense_1_SensingCSD_LL.c **** 
 382:Generated_Source\PSoC6/CapSense_1_SensingCSD_LL.c **** 
 383:Generated_Source\PSoC6/CapSense_1_SensingCSD_LL.c **** /*******************************************************************************
 384:Generated_Source\PSoC6/CapSense_1_SensingCSD_LL.c **** * Function Name: CapSense_1_SsCSDInitialize
 385:Generated_Source\PSoC6/CapSense_1_SensingCSD_LL.c **** ****************************************************************************//**
 386:Generated_Source\PSoC6/CapSense_1_SensingCSD_LL.c **** *
 387:Generated_Source\PSoC6/CapSense_1_SensingCSD_LL.c **** * \brief
 388:Generated_Source\PSoC6/CapSense_1_SensingCSD_LL.c **** *   This API initializes the CSD module.
 389:Generated_Source\PSoC6/CapSense_1_SensingCSD_LL.c **** *
 390:Generated_Source\PSoC6/CapSense_1_SensingCSD_LL.c **** * \details
 391:Generated_Source\PSoC6/CapSense_1_SensingCSD_LL.c **** *   The function performs the following steps:
 392:Generated_Source\PSoC6/CapSense_1_SensingCSD_LL.c **** *   1) Sets GPIO output to "0" for all sensor pins;
 393:Generated_Source\PSoC6/CapSense_1_SensingCSD_LL.c **** *   2) Connects CMOD to AMUXBUS-A and to CSDBUS-A;
 394:Generated_Source\PSoC6/CapSense_1_SensingCSD_LL.c **** *   3) Connects CMOD to (sense path) to CSDCOMP;
 395:Generated_Source\PSoC6/CapSense_1_SensingCSD_LL.c **** *   4) Connects Csh_tank to AMUXBUS-B and to CSDBUS-B;
 396:Generated_Source\PSoC6/CapSense_1_SensingCSD_LL.c **** *   5) Connects VREF to REFGEN;
 397:Generated_Source\PSoC6/CapSense_1_SensingCSD_LL.c **** *   6) Configures REFGEN and sets the reference voltage;
 398:Generated_Source\PSoC6/CapSense_1_SensingCSD_LL.c **** *   7) Connects VREF to CSDCOMP and HSCOMP;
 399:Generated_Source\PSoC6/CapSense_1_SensingCSD_LL.c **** *   8) Configures IDAC and connect to CSDBUS-A (to drive CMOD);
 400:Generated_Source\PSoC6/CapSense_1_SensingCSD_LL.c **** *   9) Configures ModClk;
 401:Generated_Source\PSoC6/CapSense_1_SensingCSD_LL.c **** *   10) Configure SnsClk source;
 402:Generated_Source\PSoC6/CapSense_1_SensingCSD_LL.c **** *   11) Sets other CSD configurations (Csd Auto Zero time,
 403:Generated_Source\PSoC6/CapSense_1_SensingCSD_LL.c **** *       Sample Init period, interrupts,
 404:Generated_Source\PSoC6/CapSense_1_SensingCSD_LL.c **** *       CMOD and Csh_tank/shield initialization switch resistance).
 405:Generated_Source\PSoC6/CapSense_1_SensingCSD_LL.c **** *
 406:Generated_Source\PSoC6/CapSense_1_SensingCSD_LL.c **** *******************************************************************************/
 407:Generated_Source\PSoC6/CapSense_1_SensingCSD_LL.c **** void CapSense_1_SsCSDInitialize(void)
 408:Generated_Source\PSoC6/CapSense_1_SensingCSD_LL.c **** {
 409:Generated_Source\PSoC6/CapSense_1_SensingCSD_LL.c ****     uint32 newRegValue;
 410:Generated_Source\PSoC6/CapSense_1_SensingCSD_LL.c **** 
 411:Generated_Source\PSoC6/CapSense_1_SensingCSD_LL.c ****     /* Set all the sensors to inactive state */
 412:Generated_Source\PSoC6/CapSense_1_SensingCSD_LL.c ****     CapSense_1_SsClearCSDSensors();
 413:Generated_Source\PSoC6/CapSense_1_SensingCSD_LL.c ****     CapSense_1_BistDischargeExtCapacitors();
 414:Generated_Source\PSoC6/CapSense_1_SensingCSD_LL.c **** 
 415:Generated_Source\PSoC6/CapSense_1_SensingCSD_LL.c ****     #if (CapSense_1_ENABLE == CapSense_1_CSD_SHIELD_EN)
 416:Generated_Source\PSoC6/CapSense_1_SensingCSD_LL.c ****         /* Connect shields to AMUX-B bus (config HSIOM regs) */
 417:Generated_Source\PSoC6/CapSense_1_SensingCSD_LL.c ****         #if (0u != CapSense_1_CSD_TOTAL_SHIELD_COUNT)
 418:Generated_Source\PSoC6/CapSense_1_SensingCSD_LL.c ****             CapSense_1_SsCSDEnableShieldElectrodes();
 419:Generated_Source\PSoC6/CapSense_1_SensingCSD_LL.c ****         #endif /* (0u != CapSense_1_CSD_TOTAL_SHIELD_COUNT) */
 420:Generated_Source\PSoC6/CapSense_1_SensingCSD_LL.c **** 
 421:Generated_Source\PSoC6/CapSense_1_SensingCSD_LL.c ****         #if (CapSense_1_ENABLE == CapSense_1_CSD_SHIELD_TANK_EN)
 422:Generated_Source\PSoC6/CapSense_1_SensingCSD_LL.c ****             /* Configure Csh */
 423:Generated_Source\PSoC6/CapSense_1_SensingCSD_LL.c ****             CapSense_1_SsCSDEnableShieldTank();
ARM GAS  C:\Users\enes_\AppData\Local\Temp\ccsgh5TW.s 			page 11


 424:Generated_Source\PSoC6/CapSense_1_SensingCSD_LL.c ****         #endif /* (CapSense_1_ENABLE == CapSense_1_CSD_SHIELD_TANK_EN) */
 425:Generated_Source\PSoC6/CapSense_1_SensingCSD_LL.c ****     #endif /* (CapSense_1_ENABLE == CapSense_1_CSD_SHIELD_EN) */
 426:Generated_Source\PSoC6/CapSense_1_SensingCSD_LL.c **** 
 427:Generated_Source\PSoC6/CapSense_1_SensingCSD_LL.c ****     /* Initialize the unused CSD IP registers to defaut state */
 428:Generated_Source\PSoC6/CapSense_1_SensingCSD_LL.c ****     CY_SET_REG32(CapSense_1_CSD_SENSE_DUTY_PTR,       CapSense_1_DEFAULT_SENSE_DUTY_SEL);
 429:Generated_Source\PSoC6/CapSense_1_SensingCSD_LL.c **** 
 430:Generated_Source\PSoC6/CapSense_1_SensingCSD_LL.c ****     /* Configure VREF */
 431:Generated_Source\PSoC6/CapSense_1_SensingCSD_LL.c ****     newRegValue = CY_GET_REG32(CapSense_1_CSD_SW_REFGEN_SEL_PTR);
 432:Generated_Source\PSoC6/CapSense_1_SensingCSD_LL.c ****     newRegValue |= CapSense_1_DEFAULT_SW_REFGEN_SEL;
 433:Generated_Source\PSoC6/CapSense_1_SensingCSD_LL.c ****     CY_SET_REG32(CapSense_1_CSD_SW_REFGEN_SEL_PTR, newRegValue);
 434:Generated_Source\PSoC6/CapSense_1_SensingCSD_LL.c **** 
 435:Generated_Source\PSoC6/CapSense_1_SensingCSD_LL.c ****     CY_SET_REG32(CapSense_1_CSD_INTR_SET_PTR,         CapSense_1_DEFAULT_CSD_INTR_SET);
 436:Generated_Source\PSoC6/CapSense_1_SensingCSD_LL.c ****     CY_SET_REG32(CapSense_1_CSD_SW_FW_TANK_SEL_PTR,   CapSense_1_DEFAULT_CSD_SW_FW_TANK_SEL);
 437:Generated_Source\PSoC6/CapSense_1_SensingCSD_LL.c ****     CY_SET_REG32(CapSense_1_CSD_SW_DSI_SEL_PTR,       CapSense_1_DEFAULT_CSD_SW_DSI_SEL);
 438:Generated_Source\PSoC6/CapSense_1_SensingCSD_LL.c ****     CY_SET_REG32(CapSense_1_CSD_ADC_CTL_PTR,          CapSense_1_DEFAULT_CSD_ADC_CTL);
 439:Generated_Source\PSoC6/CapSense_1_SensingCSD_LL.c ****     CY_SET_REG32(CapSense_1_CSD_AMBUF_PTR,            CapSense_1_CSD_AMBUF_PWR_MODE_OFF);
 440:Generated_Source\PSoC6/CapSense_1_SensingCSD_LL.c ****     CY_SET_REG32(CapSense_1_CSD_SW_SHIELD_SEL_PTR,    CapSense_1_DEFAULT_SW_SHIELD_SEL);
 441:Generated_Source\PSoC6/CapSense_1_SensingCSD_LL.c ****     CY_SET_REG32(CapSense_1_CSD_SW_HS_P_SEL_PTR,      CapSense_1_DEFAULT_SW_HS_P_SEL);
 442:Generated_Source\PSoC6/CapSense_1_SensingCSD_LL.c ****     CY_SET_REG32(CapSense_1_CSD_SW_HS_N_SEL_PTR,      CapSense_1_DEFAULT_SW_HS_N_SEL);
 443:Generated_Source\PSoC6/CapSense_1_SensingCSD_LL.c ****     CY_SET_REG32(CapSense_1_CSD_HSCMP_PTR,            CapSense_1_DEFAULT_HSCMP_CFG);
 444:Generated_Source\PSoC6/CapSense_1_SensingCSD_LL.c ****     CY_SET_REG32(CapSense_1_CSD_IO_SEL_PTR,           CapSense_1_DEFAULT_CSD_IO_SEL);
 445:Generated_Source\PSoC6/CapSense_1_SensingCSD_LL.c **** 
 446:Generated_Source\PSoC6/CapSense_1_SensingCSD_LL.c ****     /* Connect CMOD to AMUXBUS-A */
 447:Generated_Source\PSoC6/CapSense_1_SensingCSD_LL.c ****     Cy_GPIO_SetDrivemode((GPIO_PRT_Type*)CapSense_1_CSD_CMOD_PORT_PTR, CapSense_1_CSD_CMOD_PIN, CY_
 448:Generated_Source\PSoC6/CapSense_1_SensingCSD_LL.c ****     Cy_GPIO_SetHSIOM((GPIO_PRT_Type*)CapSense_1_CSD_CMOD_PORT_PTR, CapSense_1_CSD_CMOD_PIN,
 449:Generated_Source\PSoC6/CapSense_1_SensingCSD_LL.c ****                                                                        (en_hsiom_sel_t)CapSense_1_C
 450:Generated_Source\PSoC6/CapSense_1_SensingCSD_LL.c **** 
 451:Generated_Source\PSoC6/CapSense_1_SensingCSD_LL.c ****     /* Connect AMUXBUS-A to CSDBUS-A */
 452:Generated_Source\PSoC6/CapSense_1_SensingCSD_LL.c ****     newRegValue = CY_GET_REG32(CapSense_1_CSD_SW_BYP_SEL_PTR);
 453:Generated_Source\PSoC6/CapSense_1_SensingCSD_LL.c ****     newRegValue |= CapSense_1_CSD_SW_BYP_SEL_SW_BYA_MSK;
 454:Generated_Source\PSoC6/CapSense_1_SensingCSD_LL.c ****     CY_SET_REG32(CapSense_1_CSD_SW_BYP_SEL_PTR, newRegValue);
 455:Generated_Source\PSoC6/CapSense_1_SensingCSD_LL.c **** 
 456:Generated_Source\PSoC6/CapSense_1_SensingCSD_LL.c ****     /* Connect CMOD to (sense path) to CSDCOMP */
 457:Generated_Source\PSoC6/CapSense_1_SensingCSD_LL.c ****     #if (CapSense_1_CSD__CMOD_PAD == CapSense_1_CMOD_CONNECTION)
 458:Generated_Source\PSoC6/CapSense_1_SensingCSD_LL.c ****         CY_SET_REG32(CapSense_1_CSD_SW_CMP_P_SEL_PTR, CapSense_1_CSD_SW_CMP_P_SEL_SW_SFPM_STATIC_CL
 459:Generated_Source\PSoC6/CapSense_1_SensingCSD_LL.c ****     #elif (CapSense_1_CSD__CSHIELD_PAD == CapSense_1_CMOD_CONNECTION)
 460:Generated_Source\PSoC6/CapSense_1_SensingCSD_LL.c ****         CY_SET_REG32(CapSense_1_CSD_SW_CMP_P_SEL_PTR, CapSense_1_CSD_SW_CMP_P_SEL_SW_SFPS_STATIC_CL
 461:Generated_Source\PSoC6/CapSense_1_SensingCSD_LL.c ****     #else
 462:Generated_Source\PSoC6/CapSense_1_SensingCSD_LL.c ****         CY_SET_REG32(CapSense_1_CSD_SW_CMP_P_SEL_PTR, CapSense_1_CSD_SW_CMP_P_SEL_SW_SFPT_STATIC_CL
 463:Generated_Source\PSoC6/CapSense_1_SensingCSD_LL.c ****     #endif /* (CapSense_1_CSD__CMOD_PAD == CapSense_1_CMOD_CONNECTION) */
 464:Generated_Source\PSoC6/CapSense_1_SensingCSD_LL.c **** 
 465:Generated_Source\PSoC6/CapSense_1_SensingCSD_LL.c ****     /* Configure shield driving path */
 466:Generated_Source\PSoC6/CapSense_1_SensingCSD_LL.c ****     #if (CapSense_1_ENABLE == CapSense_1_CSD_SHIELD_EN)
 467:Generated_Source\PSoC6/CapSense_1_SensingCSD_LL.c ****         /* Connect AMUXBUS-B to CSDBUS-B (and AMUXBUS-A to CSDBUS-A ) */
 468:Generated_Source\PSoC6/CapSense_1_SensingCSD_LL.c ****         CY_SET_REG32(CapSense_1_CSD_SW_BYP_SEL_PTR, CapSense_1_CSD_SW_BYP_SEL_SW_BYA_MSK | CapSense
 469:Generated_Source\PSoC6/CapSense_1_SensingCSD_LL.c **** 
 470:Generated_Source\PSoC6/CapSense_1_SensingCSD_LL.c ****         /* Connect AMUXBUS-B to HSCMP positive input */
 471:Generated_Source\PSoC6/CapSense_1_SensingCSD_LL.c ****         CY_SET_REG32(CapSense_1_CSD_SW_HS_P_SEL_PTR, 0x00000000uL);
 472:Generated_Source\PSoC6/CapSense_1_SensingCSD_LL.c ****     #endif /* (CapSense_1_ENABLE == CapSense_1_CSD_SHIELD_EN) */
 473:Generated_Source\PSoC6/CapSense_1_SensingCSD_LL.c **** 
 474:Generated_Source\PSoC6/CapSense_1_SensingCSD_LL.c ****     /* Configure VREF */
 475:Generated_Source\PSoC6/CapSense_1_SensingCSD_LL.c ****     #if (CapSense_1_ENABLE == CapSense_1_CSD_IDAC_COMP_EN) && (CapSense_1_ENABLE == CapSense_1_CSD_
 476:Generated_Source\PSoC6/CapSense_1_SensingCSD_LL.c ****         /* Connect VREF to REFGEN. Connect IDACB to CSDBUSA */
 477:Generated_Source\PSoC6/CapSense_1_SensingCSD_LL.c ****         newRegValue = CY_GET_REG32(CapSense_1_CSD_SW_REFGEN_SEL_PTR);
 478:Generated_Source\PSoC6/CapSense_1_SensingCSD_LL.c ****         newRegValue |= CapSense_1_CSD_SW_REFGEN_VREF_SRC | CapSense_1_CSD_SW_REFGEN_SEL_SW_IAIB_MSK
 479:Generated_Source\PSoC6/CapSense_1_SensingCSD_LL.c ****         CY_SET_REG32(CapSense_1_CSD_SW_REFGEN_SEL_PTR, newRegValue);
 480:Generated_Source\PSoC6/CapSense_1_SensingCSD_LL.c ****     #else
ARM GAS  C:\Users\enes_\AppData\Local\Temp\ccsgh5TW.s 			page 12


 481:Generated_Source\PSoC6/CapSense_1_SensingCSD_LL.c ****         /* Connect VREF to REFGEN (IAIB switch is open) */
 482:Generated_Source\PSoC6/CapSense_1_SensingCSD_LL.c ****         newRegValue = CY_GET_REG32(CapSense_1_CSD_SW_REFGEN_SEL_PTR);
 483:Generated_Source\PSoC6/CapSense_1_SensingCSD_LL.c ****         newRegValue |= CapSense_1_CSD_SW_REFGEN_VREF_SRC;
 484:Generated_Source\PSoC6/CapSense_1_SensingCSD_LL.c ****         CY_SET_REG32(CapSense_1_CSD_SW_REFGEN_SEL_PTR, newRegValue);
 485:Generated_Source\PSoC6/CapSense_1_SensingCSD_LL.c ****     #endif /* (CapSense_1_ENABLE == CapSense_1_CSD_IDAC_COMP_EN) && (CapSense_1_ENABLE == CapSense_
 486:Generated_Source\PSoC6/CapSense_1_SensingCSD_LL.c **** 
 487:Generated_Source\PSoC6/CapSense_1_SensingCSD_LL.c ****     #if (CapSense_1_2000_MV > CapSense_1_CYDEV_VDDA_MV)
 488:Generated_Source\PSoC6/CapSense_1_SensingCSD_LL.c **** 
 489:Generated_Source\PSoC6/CapSense_1_SensingCSD_LL.c ****         /* Connect VREFLOW (from AMBUF and RefGen is in bypass mode) to CSDCOMP when Vdda < 2 V */
 490:Generated_Source\PSoC6/CapSense_1_SensingCSD_LL.c ****         CY_SET_REG32(CapSense_1_CSD_SW_CMP_N_SEL_PTR, CapSense_1_CSD_SW_CMP_N_SEL_SW_SCRH_STATIC_CL
 491:Generated_Source\PSoC6/CapSense_1_SensingCSD_LL.c **** 
 492:Generated_Source\PSoC6/CapSense_1_SensingCSD_LL.c ****         /* Connect Vrefhi to AMUBUF positive input when Vdaa < 2V
 493:Generated_Source\PSoC6/CapSense_1_SensingCSD_LL.c ****          *  Connect AMUBUF to SCDCMP negative input when Vdaa < 2V
 494:Generated_Source\PSoC6/CapSense_1_SensingCSD_LL.c ****          */
 495:Generated_Source\PSoC6/CapSense_1_SensingCSD_LL.c ****         #if (CapSense_1_ENABLE == CapSense_1_CSD_SHIELD_EN)
 496:Generated_Source\PSoC6/CapSense_1_SensingCSD_LL.c ****             #if (CapSense_1_IDAC_SINKING == CapSense_1_CSD_IDAC_CONFIG)
 497:Generated_Source\PSoC6/CapSense_1_SensingCSD_LL.c ****                 CY_SET_REG32(CapSense_1_CSD_SW_AMUXBUF_SEL_PTR, CapSense_1_CSD_SW_AMUXBUF_SEL_SW_IR
 498:Generated_Source\PSoC6/CapSense_1_SensingCSD_LL.c ****                                                                       CapSense_1_CSD_SW_AMUXBUF_SEL
 499:Generated_Source\PSoC6/CapSense_1_SensingCSD_LL.c ****             #else
 500:Generated_Source\PSoC6/CapSense_1_SensingCSD_LL.c ****                 CY_SET_REG32(CapSense_1_CSD_SW_AMUXBUF_SEL_PTR, CapSense_1_CSD_SW_AMUXBUF_SEL_SW_DE
 501:Generated_Source\PSoC6/CapSense_1_SensingCSD_LL.c ****             #endif /* (CapSense_1_ENABLE == CapSense_1_CSD_SHIELD_EN) */
 502:Generated_Source\PSoC6/CapSense_1_SensingCSD_LL.c **** 
 503:Generated_Source\PSoC6/CapSense_1_SensingCSD_LL.c ****             CY_SET_REG32(CapSense_1_CSD_REFGEN_PTR, CapSense_1_CSD_REFGEN_WITH_SHIELD_CFG);
 504:Generated_Source\PSoC6/CapSense_1_SensingCSD_LL.c ****             CY_SET_REG32(CapSense_1_CSD_AMBUF_PTR, CapSense_1_CSD_AMBUF_PWR_MODE_NORM);
 505:Generated_Source\PSoC6/CapSense_1_SensingCSD_LL.c ****         #else
 506:Generated_Source\PSoC6/CapSense_1_SensingCSD_LL.c ****             CY_SET_REG32(CapSense_1_CSD_REFGEN_PTR, CapSense_1_CSD_REFGEN_NO_SHIELD_CFG);
 507:Generated_Source\PSoC6/CapSense_1_SensingCSD_LL.c ****             CY_SET_REG32(CapSense_1_CSD_AMBUF_PTR, CapSense_1_CSD_AMBUF_PWR_MODE_OFF);
 508:Generated_Source\PSoC6/CapSense_1_SensingCSD_LL.c ****         #endif /* (CapSense_1_ENABLE == CapSense_1_CSD_SHIELD_EN) */
 509:Generated_Source\PSoC6/CapSense_1_SensingCSD_LL.c **** 
 510:Generated_Source\PSoC6/CapSense_1_SensingCSD_LL.c ****         /* Connect VREFHI to HSCOMP */
 511:Generated_Source\PSoC6/CapSense_1_SensingCSD_LL.c ****         CY_SET_REG32(CapSense_1_CSD_SW_HS_N_SEL_PTR, CapSense_1_CSD_SW_HS_N_SEL_SW_HCRH_STATIC_CLOS
 512:Generated_Source\PSoC6/CapSense_1_SensingCSD_LL.c ****     #else
 513:Generated_Source\PSoC6/CapSense_1_SensingCSD_LL.c **** 
 514:Generated_Source\PSoC6/CapSense_1_SensingCSD_LL.c ****         /* Connect VREFHI (from RefGen) to CSDCOMP when Vdda >= 2 V */
 515:Generated_Source\PSoC6/CapSense_1_SensingCSD_LL.c ****         CY_SET_REG32(CapSense_1_CSD_SW_CMP_N_SEL_PTR, CapSense_1_CSD_SW_CMP_N_SEL_SW_SCRH_STATIC_CL
 516:Generated_Source\PSoC6/CapSense_1_SensingCSD_LL.c **** 
 517:Generated_Source\PSoC6/CapSense_1_SensingCSD_LL.c ****         #if (CapSense_1_ENABLE == CapSense_1_CSD_SHIELD_EN)
 518:Generated_Source\PSoC6/CapSense_1_SensingCSD_LL.c **** 
 519:Generated_Source\PSoC6/CapSense_1_SensingCSD_LL.c ****             /* Configure REFGEN. Set reference voltage when Vdda >= 2 V */
 520:Generated_Source\PSoC6/CapSense_1_SensingCSD_LL.c ****             CY_SET_REG32(CapSense_1_CSD_REFGEN_PTR, CapSense_1_CSD_REFGEN_WITH_SHIELD_CFG);
 521:Generated_Source\PSoC6/CapSense_1_SensingCSD_LL.c **** 
 522:Generated_Source\PSoC6/CapSense_1_SensingCSD_LL.c ****             /* Turn on CSD_AMBUF high power level when Vdaa >= 2V */
 523:Generated_Source\PSoC6/CapSense_1_SensingCSD_LL.c ****             CY_SET_REG32(CapSense_1_CSD_AMBUF_PTR, CapSense_1_CSD_AMBUF_PWR_MODE_HI);
 524:Generated_Source\PSoC6/CapSense_1_SensingCSD_LL.c **** 
 525:Generated_Source\PSoC6/CapSense_1_SensingCSD_LL.c ****             #if (CapSense_1_IDAC_SINKING != CapSense_1_CSD_IDAC_CONFIG)
 526:Generated_Source\PSoC6/CapSense_1_SensingCSD_LL.c ****                 CY_SET_REG32(CapSense_1_CSD_SW_AMUXBUF_SEL_PTR, CapSense_1_CSD_SW_AMUXBUF_SEL_SW_IR
 527:Generated_Source\PSoC6/CapSense_1_SensingCSD_LL.c ****                                                                       CapSense_1_CSD_SW_AMUXBUF_SEL
 528:Generated_Source\PSoC6/CapSense_1_SensingCSD_LL.c ****             #else
 529:Generated_Source\PSoC6/CapSense_1_SensingCSD_LL.c ****                 CY_SET_REG32(CapSense_1_CSD_SW_AMUXBUF_SEL_PTR, CapSense_1_CSD_SW_AMUXBUF_SEL_SW_DE
 530:Generated_Source\PSoC6/CapSense_1_SensingCSD_LL.c ****             #endif /* (CapSense_1_IDAC_SINKING == CapSense_1_CSD_IDAC_CONFIG) */
 531:Generated_Source\PSoC6/CapSense_1_SensingCSD_LL.c ****         #else
 532:Generated_Source\PSoC6/CapSense_1_SensingCSD_LL.c **** 
 533:Generated_Source\PSoC6/CapSense_1_SensingCSD_LL.c ****             /* Configure REFGEN. Set reference voltage when Vdda >= 2 V */
 534:Generated_Source\PSoC6/CapSense_1_SensingCSD_LL.c ****             CY_SET_REG32(CapSense_1_CSD_REFGEN_PTR, CapSense_1_CSD_REFGEN_NO_SHIELD_CFG);
 535:Generated_Source\PSoC6/CapSense_1_SensingCSD_LL.c ****             CY_SET_REG32(CapSense_1_CSD_SW_AMUXBUF_SEL_PTR, CapSense_1_CSD_SW_AMUXBUF_SEL_SW_DEFAUL
 536:Generated_Source\PSoC6/CapSense_1_SensingCSD_LL.c ****         #endif /* (CapSense_1_ENABLE == CapSense_1_CSD_SHIELD_EN) */
 537:Generated_Source\PSoC6/CapSense_1_SensingCSD_LL.c **** 
ARM GAS  C:\Users\enes_\AppData\Local\Temp\ccsgh5TW.s 			page 13


 538:Generated_Source\PSoC6/CapSense_1_SensingCSD_LL.c ****         /* Connect VREFHI to HSCOMP */
 539:Generated_Source\PSoC6/CapSense_1_SensingCSD_LL.c ****         CY_SET_REG32(CapSense_1_CSD_SW_HS_N_SEL_PTR, CapSense_1_CSD_SW_HS_N_SEL_SW_HCRH_STATIC_CLOS
 540:Generated_Source\PSoC6/CapSense_1_SensingCSD_LL.c **** 
 541:Generated_Source\PSoC6/CapSense_1_SensingCSD_LL.c ****     #endif /* (CapSense_1_2000_MV > CapSense_1_CYDEV_VDDA_MV) */
 542:Generated_Source\PSoC6/CapSense_1_SensingCSD_LL.c **** 
 543:Generated_Source\PSoC6/CapSense_1_SensingCSD_LL.c ****     /* Configure IDACs mode */
 544:Generated_Source\PSoC6/CapSense_1_SensingCSD_LL.c ****     CapSense_1_SsCSDConfigIDACs();
 545:Generated_Source\PSoC6/CapSense_1_SensingCSD_LL.c **** 
 546:Generated_Source\PSoC6/CapSense_1_SensingCSD_LL.c ****     /* Configure ModClk */
 547:Generated_Source\PSoC6/CapSense_1_SensingCSD_LL.c ****     CapSense_1_ModClk_SetDivider((uint32)CapSense_1_dsRam.modCsdClk - 1uL);
 548:Generated_Source\PSoC6/CapSense_1_SensingCSD_LL.c **** 
 549:Generated_Source\PSoC6/CapSense_1_SensingCSD_LL.c ****     /* Set other CSD configurations */
 550:Generated_Source\PSoC6/CapSense_1_SensingCSD_LL.c ****     #if (CapSense_1_ENABLE == CapSense_1_CSD_SHIELD_EN)
 551:Generated_Source\PSoC6/CapSense_1_SensingCSD_LL.c ****         CapSense_1_SsSetShieldDelay(CapSense_1_CSD_SHIELD_DELAY);
 552:Generated_Source\PSoC6/CapSense_1_SensingCSD_LL.c ****     #endif /* (CapSense_1_ENABLE == CapSense_1_CSD_SHIELD_EN) */
 553:Generated_Source\PSoC6/CapSense_1_SensingCSD_LL.c **** 
 554:Generated_Source\PSoC6/CapSense_1_SensingCSD_LL.c ****     /* Configure HW IP block filter delay */
 555:Generated_Source\PSoC6/CapSense_1_SensingCSD_LL.c ****     CapSense_1_SsCSDSetFilterDelay();
 556:Generated_Source\PSoC6/CapSense_1_SensingCSD_LL.c **** 
 557:Generated_Source\PSoC6/CapSense_1_SensingCSD_LL.c ****     #if (CapSense_1_DISABLE == CapSense_1_BLOCK_OFF_AFTER_SCAN_EN)
 558:Generated_Source\PSoC6/CapSense_1_SensingCSD_LL.c ****         /* Enable power to sub-blocks */
 559:Generated_Source\PSoC6/CapSense_1_SensingCSD_LL.c ****         CY_SET_REG32(CapSense_1_CSD_CONFIG_PTR, CapSense_1_configCsd |
 560:Generated_Source\PSoC6/CapSense_1_SensingCSD_LL.c ****                                                   CapSense_1_CSD_CONFIG_SENSE_EN_MSK |
 561:Generated_Source\PSoC6/CapSense_1_SensingCSD_LL.c ****                                                   CapSense_1_CSD_CONFIG_ENABLE_MSK);
 562:Generated_Source\PSoC6/CapSense_1_SensingCSD_LL.c ****     #endif /* (CapSense_1_ENABLE == CapSense_1_BLOCK_OFF_AFTER_SCAN_EN) */
 563:Generated_Source\PSoC6/CapSense_1_SensingCSD_LL.c **** 
 564:Generated_Source\PSoC6/CapSense_1_SensingCSD_LL.c ****     /* Set Csd Auto Zero time (set AZ_TIME bitmask) */
 565:Generated_Source\PSoC6/CapSense_1_SensingCSD_LL.c ****     CY_SET_REG32(CapSense_1_CSD_SEQ_TIME_PTR, CapSense_1_CSD_AUTO_ZERO_TIME);
 566:Generated_Source\PSoC6/CapSense_1_SensingCSD_LL.c **** 
 567:Generated_Source\PSoC6/CapSense_1_SensingCSD_LL.c ****     /* Select CMOD and Csh_tank/shield initialization switch resistance */
 568:Generated_Source\PSoC6/CapSense_1_SensingCSD_LL.c ****     CY_SET_REG32(CapSense_1_CSD_SW_RES_PTR, 0x00000000uL);
 569:Generated_Source\PSoC6/CapSense_1_SensingCSD_LL.c **** 
 570:Generated_Source\PSoC6/CapSense_1_SensingCSD_LL.c ****     /* Set the number of dummy fine initialization cycles */
 571:Generated_Source\PSoC6/CapSense_1_SensingCSD_LL.c ****     CY_SET_REG32(CapSense_1_CSD_SEQ_INIT_CNT_PTR, CapSense_1_CSD_FINE_INIT_TIME);
 572:Generated_Source\PSoC6/CapSense_1_SensingCSD_LL.c **** 
 573:Generated_Source\PSoC6/CapSense_1_SensingCSD_LL.c ****     #if ((CapSense_1_ENABLE == CapSense_1_CSD_COMMON_SNS_CLK_EN) &&\
 574:Generated_Source\PSoC6/CapSense_1_SensingCSD_LL.c ****          (CapSense_1_CLK_SOURCE_DIRECT == CapSense_1_CSD_SNS_CLK_SOURCE))
 575:Generated_Source\PSoC6/CapSense_1_SensingCSD_LL.c ****          /* Set clock dividers and clock source mode */
 576:Generated_Source\PSoC6/CapSense_1_SensingCSD_LL.c ****         CapSense_1_SsCSDConfigClock();
 577:Generated_Source\PSoC6/CapSense_1_SensingCSD_LL.c ****     #endif /* ((CapSense_1_ENABLE == CapSense_1_CSD_COMMON_SNS_CLK_EN) &&\
 578:Generated_Source\PSoC6/CapSense_1_SensingCSD_LL.c ****                (CapSense_1_CLK_SOURCE_DIRECT == CapSense_1_CSD_SNS_CLK_SOURCE)) */
 579:Generated_Source\PSoC6/CapSense_1_SensingCSD_LL.c **** }
 580:Generated_Source\PSoC6/CapSense_1_SensingCSD_LL.c **** 
 581:Generated_Source\PSoC6/CapSense_1_SensingCSD_LL.c **** 
 582:Generated_Source\PSoC6/CapSense_1_SensingCSD_LL.c **** /*******************************************************************************
 583:Generated_Source\PSoC6/CapSense_1_SensingCSD_LL.c **** * Function Name: CapSense_1_SsCSDElectrodeCheck
 584:Generated_Source\PSoC6/CapSense_1_SensingCSD_LL.c **** ****************************************************************************//**
 585:Generated_Source\PSoC6/CapSense_1_SensingCSD_LL.c **** *
 586:Generated_Source\PSoC6/CapSense_1_SensingCSD_LL.c **** * \brief
 587:Generated_Source\PSoC6/CapSense_1_SensingCSD_LL.c **** *   Checks if electrodes were previously connected using
 588:Generated_Source\PSoC6/CapSense_1_SensingCSD_LL.c ****  * CapSense_1_CSDSetupWidgetExt() API and if yes disconnects them.
 589:Generated_Source\PSoC6/CapSense_1_SensingCSD_LL.c **** *
 590:Generated_Source\PSoC6/CapSense_1_SensingCSD_LL.c **** * \details
 591:Generated_Source\PSoC6/CapSense_1_SensingCSD_LL.c **** *   This function checks if CapSense_1_eleCsdDisconnectFlag is set.
 592:Generated_Source\PSoC6/CapSense_1_SensingCSD_LL.c **** *   If it set, the function disconnects the previously connected electrode.
 593:Generated_Source\PSoC6/CapSense_1_SensingCSD_LL.c **** *   The previous IO is contained in CapSense_1_curSnsIOPtr and
 594:Generated_Source\PSoC6/CapSense_1_SensingCSD_LL.c **** *   CapSense_1_curFlashSnsPtr contains the previous data for Ganged
ARM GAS  C:\Users\enes_\AppData\Local\Temp\ccsgh5TW.s 			page 14


 595:Generated_Source\PSoC6/CapSense_1_SensingCSD_LL.c **** *   sensors.
 596:Generated_Source\PSoC6/CapSense_1_SensingCSD_LL.c **** *
 597:Generated_Source\PSoC6/CapSense_1_SensingCSD_LL.c **** *******************************************************************************/
 598:Generated_Source\PSoC6/CapSense_1_SensingCSD_LL.c **** void CapSense_1_SsCSDElectrodeCheck(void)
 599:Generated_Source\PSoC6/CapSense_1_SensingCSD_LL.c **** {
 600:Generated_Source\PSoC6/CapSense_1_SensingCSD_LL.c ****     #if (CapSense_1_ENABLE == CapSense_1_CSD_GANGED_SNS_EN)
 601:Generated_Source\PSoC6/CapSense_1_SensingCSD_LL.c ****         uint32 tempVal;
 602:Generated_Source\PSoC6/CapSense_1_SensingCSD_LL.c ****     #endif /* (CapSense_1_ENABLE == CapSense_1_CSD_GANGED_SNS_EN) */
 603:Generated_Source\PSoC6/CapSense_1_SensingCSD_LL.c **** 
 604:Generated_Source\PSoC6/CapSense_1_SensingCSD_LL.c ****     if (CapSense_1_ENABLE == CapSense_1_eleCsdDisconnectFlag)
 605:Generated_Source\PSoC6/CapSense_1_SensingCSD_LL.c ****     {
 606:Generated_Source\PSoC6/CapSense_1_SensingCSD_LL.c ****         /* Disconnect if electrodes were previous connected by CSDSetupWidgetExt() API */
 607:Generated_Source\PSoC6/CapSense_1_SensingCSD_LL.c ****         #if (CapSense_1_ENABLE == CapSense_1_CSD_GANGED_SNS_EN)
 608:Generated_Source\PSoC6/CapSense_1_SensingCSD_LL.c ****             /* Check ganged sns flag */
 609:Generated_Source\PSoC6/CapSense_1_SensingCSD_LL.c ****             if (CapSense_1_GANGED_SNS_MASK == (CapSense_1_curFlashWdgtPtr->staticConfig & CapSense_
 610:Generated_Source\PSoC6/CapSense_1_SensingCSD_LL.c ****             {
 611:Generated_Source\PSoC6/CapSense_1_SensingCSD_LL.c ****                 /* Get number of ganged pins */
 612:Generated_Source\PSoC6/CapSense_1_SensingCSD_LL.c ****                 tempVal = CapSense_1_curFlashSnsPtr->numPins;
 613:Generated_Source\PSoC6/CapSense_1_SensingCSD_LL.c **** 
 614:Generated_Source\PSoC6/CapSense_1_SensingCSD_LL.c ****                 /* Get IO pointer */
 615:Generated_Source\PSoC6/CapSense_1_SensingCSD_LL.c ****                 CapSense_1_curSnsIOPtr = &CapSense_1_ioList[CapSense_1_curFlashSnsPtr->firstPinId];
 616:Generated_Source\PSoC6/CapSense_1_SensingCSD_LL.c **** 
 617:Generated_Source\PSoC6/CapSense_1_SensingCSD_LL.c ****                 /* Disconnect all ganged sensors */
 618:Generated_Source\PSoC6/CapSense_1_SensingCSD_LL.c ****                 do
 619:Generated_Source\PSoC6/CapSense_1_SensingCSD_LL.c ****                 {
 620:Generated_Source\PSoC6/CapSense_1_SensingCSD_LL.c ****                     CapSense_1_CSDDisconnectSns(CapSense_1_curSnsIOPtr);
 621:Generated_Source\PSoC6/CapSense_1_SensingCSD_LL.c ****                     CapSense_1_curSnsIOPtr++;
 622:Generated_Source\PSoC6/CapSense_1_SensingCSD_LL.c ****                     tempVal--;
 623:Generated_Source\PSoC6/CapSense_1_SensingCSD_LL.c ****                 } while (0u != tempVal);
 624:Generated_Source\PSoC6/CapSense_1_SensingCSD_LL.c ****             }
 625:Generated_Source\PSoC6/CapSense_1_SensingCSD_LL.c ****             else
 626:Generated_Source\PSoC6/CapSense_1_SensingCSD_LL.c ****             {
 627:Generated_Source\PSoC6/CapSense_1_SensingCSD_LL.c ****                 /* Disconnect ganged sensor */
 628:Generated_Source\PSoC6/CapSense_1_SensingCSD_LL.c ****                 CapSense_1_CSDDisconnectSns(CapSense_1_curSnsIOPtr);
 629:Generated_Source\PSoC6/CapSense_1_SensingCSD_LL.c ****             }
 630:Generated_Source\PSoC6/CapSense_1_SensingCSD_LL.c ****         #else
 631:Generated_Source\PSoC6/CapSense_1_SensingCSD_LL.c ****             /* Disable sensor */
 632:Generated_Source\PSoC6/CapSense_1_SensingCSD_LL.c ****             CapSense_1_CSDDisconnectSns(CapSense_1_curSnsIOPtr);
 633:Generated_Source\PSoC6/CapSense_1_SensingCSD_LL.c ****         #endif /* (CapSense_1_ENABLE == CapSense_1_CSD_GANGED_SNS_EN) */
 634:Generated_Source\PSoC6/CapSense_1_SensingCSD_LL.c **** 
 635:Generated_Source\PSoC6/CapSense_1_SensingCSD_LL.c ****         CapSense_1_eleCsdDisconnectFlag = 0u;
 636:Generated_Source\PSoC6/CapSense_1_SensingCSD_LL.c ****     }
 637:Generated_Source\PSoC6/CapSense_1_SensingCSD_LL.c **** }
 638:Generated_Source\PSoC6/CapSense_1_SensingCSD_LL.c **** 
 639:Generated_Source\PSoC6/CapSense_1_SensingCSD_LL.c **** 
 640:Generated_Source\PSoC6/CapSense_1_SensingCSD_LL.c **** /*******************************************************************************
 641:Generated_Source\PSoC6/CapSense_1_SensingCSD_LL.c **** * Function Name: CapSense_1_SsCSDSetUpIdacs
 642:Generated_Source\PSoC6/CapSense_1_SensingCSD_LL.c **** ****************************************************************************//**
 643:Generated_Source\PSoC6/CapSense_1_SensingCSD_LL.c **** *
 644:Generated_Source\PSoC6/CapSense_1_SensingCSD_LL.c **** * \brief
 645:Generated_Source\PSoC6/CapSense_1_SensingCSD_LL.c **** *  This internal function changes the IDACs values.
 646:Generated_Source\PSoC6/CapSense_1_SensingCSD_LL.c **** *
 647:Generated_Source\PSoC6/CapSense_1_SensingCSD_LL.c **** * \details
 648:Generated_Source\PSoC6/CapSense_1_SensingCSD_LL.c **** *  If Compensation IDAC is enabled, it updates two IDACs.
 649:Generated_Source\PSoC6/CapSense_1_SensingCSD_LL.c **** *  The Modulator IDAC is common for all the sensors of the widget.
 650:Generated_Source\PSoC6/CapSense_1_SensingCSD_LL.c **** *  The Compensation IDAC is updated for the sensor of the widget which
 651:Generated_Source\PSoC6/CapSense_1_SensingCSD_LL.c **** *  is available in the RAM_SNS_STRUCT structure.
ARM GAS  C:\Users\enes_\AppData\Local\Temp\ccsgh5TW.s 			page 15


 652:Generated_Source\PSoC6/CapSense_1_SensingCSD_LL.c **** *  If the Compensation IDAC is disabled, the function updates the Modulator IDAC
 653:Generated_Source\PSoC6/CapSense_1_SensingCSD_LL.c **** *  value only in the RAM_WD_BASE_STRUCT structure.
 654:Generated_Source\PSoC6/CapSense_1_SensingCSD_LL.c **** *
 655:Generated_Source\PSoC6/CapSense_1_SensingCSD_LL.c **** * \param
 656:Generated_Source\PSoC6/CapSense_1_SensingCSD_LL.c **** *  ptrWdgt The pointer to the RAM_WD_BASE_STRUCT structure.
 657:Generated_Source\PSoC6/CapSense_1_SensingCSD_LL.c **** *
 658:Generated_Source\PSoC6/CapSense_1_SensingCSD_LL.c **** *******************************************************************************/
 659:Generated_Source\PSoC6/CapSense_1_SensingCSD_LL.c **** void CapSense_1_SsCSDSetUpIdacs(CapSense_1_RAM_WD_BASE_STRUCT const *ptrWdgt)
 660:Generated_Source\PSoC6/CapSense_1_SensingCSD_LL.c **** {
 661:Generated_Source\PSoC6/CapSense_1_SensingCSD_LL.c **** 
 662:Generated_Source\PSoC6/CapSense_1_SensingCSD_LL.c ****     uint32 interruptState;
 663:Generated_Source\PSoC6/CapSense_1_SensingCSD_LL.c **** 
 664:Generated_Source\PSoC6/CapSense_1_SensingCSD_LL.c ****     uint32 idacARegValue;
 665:Generated_Source\PSoC6/CapSense_1_SensingCSD_LL.c ****     #if ((CapSense_1_ENABLE == CapSense_1_CSD_IDAC_COMP_EN) && \
 666:Generated_Source\PSoC6/CapSense_1_SensingCSD_LL.c ****          (CapSense_1_ENABLE == CapSense_1_CSD_DEDICATED_IDAC_COMP_EN))
 667:Generated_Source\PSoC6/CapSense_1_SensingCSD_LL.c ****         uint32 idacBRegValue;
 668:Generated_Source\PSoC6/CapSense_1_SensingCSD_LL.c ****     #endif /* ((CapSense_1_ENABLE == CapSense_1_CSD_IDAC_COMP_EN) && \
 669:Generated_Source\PSoC6/CapSense_1_SensingCSD_LL.c ****                (CapSense_1_ENABLE == CapSense_1_CSD_DEDICATED_IDAC_COMP_EN)) */
 670:Generated_Source\PSoC6/CapSense_1_SensingCSD_LL.c **** 
 671:Generated_Source\PSoC6/CapSense_1_SensingCSD_LL.c ****     interruptState = Cy_SysLib_EnterCriticalSection();
 672:Generated_Source\PSoC6/CapSense_1_SensingCSD_LL.c **** 
 673:Generated_Source\PSoC6/CapSense_1_SensingCSD_LL.c ****     /* Get IDACA Value */
 674:Generated_Source\PSoC6/CapSense_1_SensingCSD_LL.c ****     idacARegValue = CY_GET_REG32(CapSense_1_CSD_IDACA_PTR);
 675:Generated_Source\PSoC6/CapSense_1_SensingCSD_LL.c **** 
 676:Generated_Source\PSoC6/CapSense_1_SensingCSD_LL.c ****     /* Set IDACA Value mask */
 677:Generated_Source\PSoC6/CapSense_1_SensingCSD_LL.c ****     idacARegValue &= ~(CapSense_1_CSD_IDACA_VAL_MSK);
 678:Generated_Source\PSoC6/CapSense_1_SensingCSD_LL.c **** 
 679:Generated_Source\PSoC6/CapSense_1_SensingCSD_LL.c ****     /* Set IDACA value */
 680:Generated_Source\PSoC6/CapSense_1_SensingCSD_LL.c ****     #if (CapSense_1_CSD_MATRIX_WIDGET_EN || CapSense_1_CSD_TOUCHPAD_WIDGET_EN)
 681:Generated_Source\PSoC6/CapSense_1_SensingCSD_LL.c ****         if (CapSense_1_dsFlash.wdgtArray[(CapSense_1_widgetIndex)].numCols <= CapSense_1_sensorInde
 682:Generated_Source\PSoC6/CapSense_1_SensingCSD_LL.c ****         {
 683:Generated_Source\PSoC6/CapSense_1_SensingCSD_LL.c ****             idacARegValue |= (uint32)ptrWdgt->rowIdacMod[CapSense_1_scanFreqIndex];
 684:Generated_Source\PSoC6/CapSense_1_SensingCSD_LL.c ****         }
 685:Generated_Source\PSoC6/CapSense_1_SensingCSD_LL.c ****         else
 686:Generated_Source\PSoC6/CapSense_1_SensingCSD_LL.c ****         {
 687:Generated_Source\PSoC6/CapSense_1_SensingCSD_LL.c ****             idacARegValue |= (uint32)ptrWdgt->idacMod[CapSense_1_scanFreqIndex];
 688:Generated_Source\PSoC6/CapSense_1_SensingCSD_LL.c ****         }
 689:Generated_Source\PSoC6/CapSense_1_SensingCSD_LL.c ****     #else
 690:Generated_Source\PSoC6/CapSense_1_SensingCSD_LL.c ****         idacARegValue |= (uint32)ptrWdgt->idacMod[CapSense_1_scanFreqIndex];
 691:Generated_Source\PSoC6/CapSense_1_SensingCSD_LL.c ****     #endif /* (CapSense_1_CSD_MATRIX_WIDGET_EN || CapSense_1_CSD_TOUCHPAD_WIDGET_EN) */
 692:Generated_Source\PSoC6/CapSense_1_SensingCSD_LL.c **** 
 693:Generated_Source\PSoC6/CapSense_1_SensingCSD_LL.c ****     /* Update IDACA register with new value */
 694:Generated_Source\PSoC6/CapSense_1_SensingCSD_LL.c ****     CY_SET_REG32(CapSense_1_CSD_IDACA_PTR, idacARegValue);
 695:Generated_Source\PSoC6/CapSense_1_SensingCSD_LL.c ****     Cy_SysLib_ExitCriticalSection(interruptState);
 696:Generated_Source\PSoC6/CapSense_1_SensingCSD_LL.c **** 
 697:Generated_Source\PSoC6/CapSense_1_SensingCSD_LL.c ****     #if ((CapSense_1_ENABLE == CapSense_1_CSD_IDAC_COMP_EN) && \
 698:Generated_Source\PSoC6/CapSense_1_SensingCSD_LL.c ****          (CapSense_1_ENABLE == CapSense_1_CSD_DEDICATED_IDAC_COMP_EN))
 699:Generated_Source\PSoC6/CapSense_1_SensingCSD_LL.c ****         interruptState = Cy_SysLib_EnterCriticalSection();
 700:Generated_Source\PSoC6/CapSense_1_SensingCSD_LL.c ****         /* Get IDACB Value */
 701:Generated_Source\PSoC6/CapSense_1_SensingCSD_LL.c ****         idacBRegValue = CY_GET_REG32(CapSense_1_CSD_IDACB_PTR);
 702:Generated_Source\PSoC6/CapSense_1_SensingCSD_LL.c **** 
 703:Generated_Source\PSoC6/CapSense_1_SensingCSD_LL.c ****         /* Set IDACB Value mask */
 704:Generated_Source\PSoC6/CapSense_1_SensingCSD_LL.c ****         idacBRegValue &= ~(CapSense_1_CSD_IDACB_VAL_MSK);
 705:Generated_Source\PSoC6/CapSense_1_SensingCSD_LL.c **** 
 706:Generated_Source\PSoC6/CapSense_1_SensingCSD_LL.c ****         /* Set IDACB value */
 707:Generated_Source\PSoC6/CapSense_1_SensingCSD_LL.c ****         idacBRegValue |= (uint32)CapSense_1_curRamSnsPtr->idacComp[CapSense_1_scanFreqIndex];
 708:Generated_Source\PSoC6/CapSense_1_SensingCSD_LL.c **** 
ARM GAS  C:\Users\enes_\AppData\Local\Temp\ccsgh5TW.s 			page 16


 709:Generated_Source\PSoC6/CapSense_1_SensingCSD_LL.c ****         /* Update IDACA register with new value */
 710:Generated_Source\PSoC6/CapSense_1_SensingCSD_LL.c ****         CY_SET_REG32(CapSense_1_CSD_IDACB_PTR, idacBRegValue);
 711:Generated_Source\PSoC6/CapSense_1_SensingCSD_LL.c ****         Cy_SysLib_ExitCriticalSection(interruptState);
 712:Generated_Source\PSoC6/CapSense_1_SensingCSD_LL.c ****     #endif /* ((CapSense_1_ENABLE == CapSense_1_CSD_IDAC_COMP_EN) && \
 713:Generated_Source\PSoC6/CapSense_1_SensingCSD_LL.c ****                (CapSense_1_ENABLE == CapSense_1_CSD_DEDICATED_IDAC_COMP_EN)) */
 714:Generated_Source\PSoC6/CapSense_1_SensingCSD_LL.c **** }
 715:Generated_Source\PSoC6/CapSense_1_SensingCSD_LL.c **** 
 716:Generated_Source\PSoC6/CapSense_1_SensingCSD_LL.c **** 
 717:Generated_Source\PSoC6/CapSense_1_SensingCSD_LL.c **** /*******************************************************************************
 718:Generated_Source\PSoC6/CapSense_1_SensingCSD_LL.c **** * Function Name: CapSense_1_SsCSDGetNumberOfConversions
 719:Generated_Source\PSoC6/CapSense_1_SensingCSD_LL.c **** ****************************************************************************//**
 720:Generated_Source\PSoC6/CapSense_1_SensingCSD_LL.c **** *
 721:Generated_Source\PSoC6/CapSense_1_SensingCSD_LL.c **** * \brief
 722:Generated_Source\PSoC6/CapSense_1_SensingCSD_LL.c **** *  This function gets Number of conversions.
 723:Generated_Source\PSoC6/CapSense_1_SensingCSD_LL.c **** *
 724:Generated_Source\PSoC6/CapSense_1_SensingCSD_LL.c **** * \details
 725:Generated_Source\PSoC6/CapSense_1_SensingCSD_LL.c **** *  This function gets Number of conversions using following equation:
 726:Generated_Source\PSoC6/CapSense_1_SensingCSD_LL.c **** *   conversionsNum = (2^resolution - 1) / snsClkDivider.
 727:Generated_Source\PSoC6/CapSense_1_SensingCSD_LL.c **** *
 728:Generated_Source\PSoC6/CapSense_1_SensingCSD_LL.c **** * \param
 729:Generated_Source\PSoC6/CapSense_1_SensingCSD_LL.c **** *  snsClkDivider The divider value for the sense clock.
 730:Generated_Source\PSoC6/CapSense_1_SensingCSD_LL.c **** *  resolution The widget resolution.
 731:Generated_Source\PSoC6/CapSense_1_SensingCSD_LL.c **** *  snsClkSrc The current Sense Clock Source.
 732:Generated_Source\PSoC6/CapSense_1_SensingCSD_LL.c **** *
 733:Generated_Source\PSoC6/CapSense_1_SensingCSD_LL.c **** * \return Returns the Number of conversions.
 734:Generated_Source\PSoC6/CapSense_1_SensingCSD_LL.c **** *
 735:Generated_Source\PSoC6/CapSense_1_SensingCSD_LL.c **** *******************************************************************************/
 736:Generated_Source\PSoC6/CapSense_1_SensingCSD_LL.c **** uint32 CapSense_1_SsCSDGetNumberOfConversions(uint32 snsClkDivider, uint32 resolution, uint32 snsCl
 737:Generated_Source\PSoC6/CapSense_1_SensingCSD_LL.c **** {
 738:Generated_Source\PSoC6/CapSense_1_SensingCSD_LL.c ****     uint32 divider;
 739:Generated_Source\PSoC6/CapSense_1_SensingCSD_LL.c ****     uint32 conversionsNum;
 740:Generated_Source\PSoC6/CapSense_1_SensingCSD_LL.c **** 
 741:Generated_Source\PSoC6/CapSense_1_SensingCSD_LL.c ****     (void)snsClkSrc;
 742:Generated_Source\PSoC6/CapSense_1_SensingCSD_LL.c **** 
 743:Generated_Source\PSoC6/CapSense_1_SensingCSD_LL.c ****     /* Calculate scanning resolution value in register */
 744:Generated_Source\PSoC6/CapSense_1_SensingCSD_LL.c ****     conversionsNum = (uint32)((1uL << resolution) - 1uL);
 745:Generated_Source\PSoC6/CapSense_1_SensingCSD_LL.c **** 
 746:Generated_Source\PSoC6/CapSense_1_SensingCSD_LL.c ****     #if(CapSense_1_SENSING_LOW_EMI == CapSense_1_CSD_SENSING_METHOD)
 747:Generated_Source\PSoC6/CapSense_1_SensingCSD_LL.c ****         divider = snsClkDivider - (snsClkDivider / 5uL) - 1uL;
 748:Generated_Source\PSoC6/CapSense_1_SensingCSD_LL.c ****     #else
 749:Generated_Source\PSoC6/CapSense_1_SensingCSD_LL.c ****         divider = snsClkDivider;
 750:Generated_Source\PSoC6/CapSense_1_SensingCSD_LL.c ****     #endif /* (CapSense_1_SENSING_LOW_EMI == CapSense_1_CSD_SENSING_METHOD) */
 751:Generated_Source\PSoC6/CapSense_1_SensingCSD_LL.c **** 
 752:Generated_Source\PSoC6/CapSense_1_SensingCSD_LL.c ****     /* CY_ID285392 */
 753:Generated_Source\PSoC6/CapSense_1_SensingCSD_LL.c ****     if (0u < divider)
 754:Generated_Source\PSoC6/CapSense_1_SensingCSD_LL.c ****     {
 755:Generated_Source\PSoC6/CapSense_1_SensingCSD_LL.c ****         if(resolution >= CapSense_1_16_BIT_RESOLUTION)
 756:Generated_Source\PSoC6/CapSense_1_SensingCSD_LL.c ****         {
 757:Generated_Source\PSoC6/CapSense_1_SensingCSD_LL.c ****             conversionsNum = (conversionsNum - CapSense_1_EXTRA_COUNTS_MAX) / divider;
 758:Generated_Source\PSoC6/CapSense_1_SensingCSD_LL.c ****         }
 759:Generated_Source\PSoC6/CapSense_1_SensingCSD_LL.c ****         else
 760:Generated_Source\PSoC6/CapSense_1_SensingCSD_LL.c ****         {
 761:Generated_Source\PSoC6/CapSense_1_SensingCSD_LL.c ****             conversionsNum /= divider;
 762:Generated_Source\PSoC6/CapSense_1_SensingCSD_LL.c ****         }
 763:Generated_Source\PSoC6/CapSense_1_SensingCSD_LL.c ****     }
 764:Generated_Source\PSoC6/CapSense_1_SensingCSD_LL.c **** 
 765:Generated_Source\PSoC6/CapSense_1_SensingCSD_LL.c ****     #if((CapSense_1_CLK_SOURCE_PRS8  == CapSense_1_CSD_SNS_CLK_SOURCE) ||\
ARM GAS  C:\Users\enes_\AppData\Local\Temp\ccsgh5TW.s 			page 17


 766:Generated_Source\PSoC6/CapSense_1_SensingCSD_LL.c ****         (CapSense_1_CLK_SOURCE_PRS12 == CapSense_1_CSD_SNS_CLK_SOURCE) ||\
 767:Generated_Source\PSoC6/CapSense_1_SensingCSD_LL.c ****         (CapSense_1_CLK_SOURCE_PRSAUTO == CapSense_1_CSD_SNS_CLK_SOURCE))
 768:Generated_Source\PSoC6/CapSense_1_SensingCSD_LL.c ****         switch (snsClkSrc)
 769:Generated_Source\PSoC6/CapSense_1_SensingCSD_LL.c ****         {
 770:Generated_Source\PSoC6/CapSense_1_SensingCSD_LL.c ****             case CapSense_1_CLK_SOURCE_PRS8:
 771:Generated_Source\PSoC6/CapSense_1_SensingCSD_LL.c ****             case CapSense_1_CLK_SOURCE_PRS12:
 772:Generated_Source\PSoC6/CapSense_1_SensingCSD_LL.c ****                 /* Divide by 2 for PRS8/PRS12 mode */
 773:Generated_Source\PSoC6/CapSense_1_SensingCSD_LL.c ****                 conversionsNum >>= 1u;
 774:Generated_Source\PSoC6/CapSense_1_SensingCSD_LL.c ****                 break;
 775:Generated_Source\PSoC6/CapSense_1_SensingCSD_LL.c **** 
 776:Generated_Source\PSoC6/CapSense_1_SensingCSD_LL.c ****             default:
 777:Generated_Source\PSoC6/CapSense_1_SensingCSD_LL.c ****                 break;
 778:Generated_Source\PSoC6/CapSense_1_SensingCSD_LL.c ****         }
 779:Generated_Source\PSoC6/CapSense_1_SensingCSD_LL.c ****     #endif /* ((CapSense_1_CLK_SOURCE_PRS8  == CapSense_1_CSD_SNS_CLK_SOURCE) ||\
 780:Generated_Source\PSoC6/CapSense_1_SensingCSD_LL.c ****                (CapSense_1_CLK_SOURCE_PRS12 == CapSense_1_CSD_SNS_CLK_SOURCE) ||\
 781:Generated_Source\PSoC6/CapSense_1_SensingCSD_LL.c ****                (CapSense_1_CLK_SOURCE_PRSAUTO == CapSense_1_CSD_SNS_CLK_SOURCE)) */
 782:Generated_Source\PSoC6/CapSense_1_SensingCSD_LL.c **** 
 783:Generated_Source\PSoC6/CapSense_1_SensingCSD_LL.c ****     return((conversionsNum > 0uL) ? (conversionsNum) : 1uL);
 784:Generated_Source\PSoC6/CapSense_1_SensingCSD_LL.c **** }
 785:Generated_Source\PSoC6/CapSense_1_SensingCSD_LL.c **** 
 786:Generated_Source\PSoC6/CapSense_1_SensingCSD_LL.c **** 
 787:Generated_Source\PSoC6/CapSense_1_SensingCSD_LL.c **** /*******************************************************************************
 788:Generated_Source\PSoC6/CapSense_1_SensingCSD_LL.c **** * Function Name: CapSense_1_SsCSDConfigClock
 789:Generated_Source\PSoC6/CapSense_1_SensingCSD_LL.c **** ****************************************************************************//**
 790:Generated_Source\PSoC6/CapSense_1_SensingCSD_LL.c **** *
 791:Generated_Source\PSoC6/CapSense_1_SensingCSD_LL.c **** * \brief
 792:Generated_Source\PSoC6/CapSense_1_SensingCSD_LL.c **** *  This function configure sense clock for different modes.
 793:Generated_Source\PSoC6/CapSense_1_SensingCSD_LL.c **** *
 794:Generated_Source\PSoC6/CapSense_1_SensingCSD_LL.c **** * \details
 795:Generated_Source\PSoC6/CapSense_1_SensingCSD_LL.c **** *  Function sets the clock divider and configures the mode based on configuration.
 796:Generated_Source\PSoC6/CapSense_1_SensingCSD_LL.c **** *
 797:Generated_Source\PSoC6/CapSense_1_SensingCSD_LL.c **** *******************************************************************************/
 798:Generated_Source\PSoC6/CapSense_1_SensingCSD_LL.c **** void CapSense_1_SsCSDConfigClock(void)
 799:Generated_Source\PSoC6/CapSense_1_SensingCSD_LL.c **** {
 800:Generated_Source\PSoC6/CapSense_1_SensingCSD_LL.c ****     uint32 snsClkDivider;
 801:Generated_Source\PSoC6/CapSense_1_SensingCSD_LL.c ****     uint32 snsClkSrc;
 802:Generated_Source\PSoC6/CapSense_1_SensingCSD_LL.c ****     uint32 newRegValue;
 803:Generated_Source\PSoC6/CapSense_1_SensingCSD_LL.c **** 
 804:Generated_Source\PSoC6/CapSense_1_SensingCSD_LL.c ****     CapSense_1_RAM_WD_BASE_STRUCT const *ptrWdgt = (CapSense_1_RAM_WD_BASE_STRUCT *)
 805:Generated_Source\PSoC6/CapSense_1_SensingCSD_LL.c ****              CapSense_1_dsFlash.wdgtArray[CapSense_1_widgetIndex].ptr2WdgtRam;
 806:Generated_Source\PSoC6/CapSense_1_SensingCSD_LL.c **** 
 807:Generated_Source\PSoC6/CapSense_1_SensingCSD_LL.c ****     /* Get sense divider based on configuration */
 808:Generated_Source\PSoC6/CapSense_1_SensingCSD_LL.c ****     #if (CapSense_1_ENABLE == CapSense_1_CSD_COMMON_SNS_CLK_EN)
 809:Generated_Source\PSoC6/CapSense_1_SensingCSD_LL.c ****         snsClkDivider = (uint32)CapSense_1_dsRam.snsCsdClk;
 810:Generated_Source\PSoC6/CapSense_1_SensingCSD_LL.c ****     #else
 811:Generated_Source\PSoC6/CapSense_1_SensingCSD_LL.c ****         #if (CapSense_1_CSD_MATRIX_WIDGET_EN || CapSense_1_CSD_TOUCHPAD_WIDGET_EN)
 812:Generated_Source\PSoC6/CapSense_1_SensingCSD_LL.c ****             /* Get SnsClck divider for rows or columns */
 813:Generated_Source\PSoC6/CapSense_1_SensingCSD_LL.c ****             if (CapSense_1_dsFlash.wdgtArray[CapSense_1_widgetIndex].numCols <= CapSense_1_sensorIn
 814:Generated_Source\PSoC6/CapSense_1_SensingCSD_LL.c ****             {
 815:Generated_Source\PSoC6/CapSense_1_SensingCSD_LL.c ****                 snsClkDivider = (uint32)(ptrWdgt->rowSnsClk);
 816:Generated_Source\PSoC6/CapSense_1_SensingCSD_LL.c ****             }
 817:Generated_Source\PSoC6/CapSense_1_SensingCSD_LL.c ****             else
 818:Generated_Source\PSoC6/CapSense_1_SensingCSD_LL.c ****             {
 819:Generated_Source\PSoC6/CapSense_1_SensingCSD_LL.c ****                 snsClkDivider = (uint32)(ptrWdgt->snsClk);
 820:Generated_Source\PSoC6/CapSense_1_SensingCSD_LL.c ****             }
 821:Generated_Source\PSoC6/CapSense_1_SensingCSD_LL.c ****         #else
 822:Generated_Source\PSoC6/CapSense_1_SensingCSD_LL.c ****             snsClkDivider = (uint32)(ptrWdgt->snsClk);
ARM GAS  C:\Users\enes_\AppData\Local\Temp\ccsgh5TW.s 			page 18


 823:Generated_Source\PSoC6/CapSense_1_SensingCSD_LL.c ****         #endif /* (CapSense_1_CSD_MATRIX_WIDGET_EN || CapSense_1_CSD_TOUCHPAD_WIDGET_EN) */
 824:Generated_Source\PSoC6/CapSense_1_SensingCSD_LL.c ****     #endif /* (CapSense_1_ENABLE == CapSense_1_CSD_COMMON_SNS_CLK_EN) */
 825:Generated_Source\PSoC6/CapSense_1_SensingCSD_LL.c **** 
 826:Generated_Source\PSoC6/CapSense_1_SensingCSD_LL.c ****     /* Get sense clk source calculated in CapSense_1_SsCSDInitialize() before */
 827:Generated_Source\PSoC6/CapSense_1_SensingCSD_LL.c ****     #if (CapSense_1_CSD_MATRIX_WIDGET_EN || CapSense_1_CSD_TOUCHPAD_WIDGET_EN)
 828:Generated_Source\PSoC6/CapSense_1_SensingCSD_LL.c ****         /* Get SnsClc Source for rows or columns */
 829:Generated_Source\PSoC6/CapSense_1_SensingCSD_LL.c ****         if (CapSense_1_dsFlash.wdgtArray[CapSense_1_widgetIndex].numCols <= CapSense_1_sensorIndex)
 830:Generated_Source\PSoC6/CapSense_1_SensingCSD_LL.c ****         {
 831:Generated_Source\PSoC6/CapSense_1_SensingCSD_LL.c ****             snsClkSrc = (uint32)ptrWdgt->rowSnsClkSource;
 832:Generated_Source\PSoC6/CapSense_1_SensingCSD_LL.c ****         }
 833:Generated_Source\PSoC6/CapSense_1_SensingCSD_LL.c ****         else
 834:Generated_Source\PSoC6/CapSense_1_SensingCSD_LL.c ****         {
 835:Generated_Source\PSoC6/CapSense_1_SensingCSD_LL.c ****             snsClkSrc = (uint32)ptrWdgt->snsClkSource;
 836:Generated_Source\PSoC6/CapSense_1_SensingCSD_LL.c ****         }
 837:Generated_Source\PSoC6/CapSense_1_SensingCSD_LL.c ****     #else
 838:Generated_Source\PSoC6/CapSense_1_SensingCSD_LL.c ****         snsClkSrc = (uint32)ptrWdgt->snsClkSource;
 839:Generated_Source\PSoC6/CapSense_1_SensingCSD_LL.c ****     #endif /* (CapSense_1_CSD_MATRIX_WIDGET_EN || CapSense_1_CSD_TOUCHPAD_WIDGET_EN) */
 840:Generated_Source\PSoC6/CapSense_1_SensingCSD_LL.c **** 
 841:Generated_Source\PSoC6/CapSense_1_SensingCSD_LL.c ****     newRegValue = (snsClkSrc << CapSense_1_CSD_SENSE_PERIOD_LFSR_SIZE_POS);
 842:Generated_Source\PSoC6/CapSense_1_SensingCSD_LL.c **** 
 843:Generated_Source\PSoC6/CapSense_1_SensingCSD_LL.c ****     /* Configuring PRS SEL_BIT */
 844:Generated_Source\PSoC6/CapSense_1_SensingCSD_LL.c ****     if ((CapSense_1_CLK_SOURCE_PRS8 == snsClkSrc) ||
 845:Generated_Source\PSoC6/CapSense_1_SensingCSD_LL.c ****         (CapSense_1_CLK_SOURCE_PRS12 == snsClkSrc))
 846:Generated_Source\PSoC6/CapSense_1_SensingCSD_LL.c ****     {
 847:Generated_Source\PSoC6/CapSense_1_SensingCSD_LL.c ****         newRegValue |= CapSense_1_CSD_SENSE_PERIOD_SEL_LFSR_MSB_MSK;
 848:Generated_Source\PSoC6/CapSense_1_SensingCSD_LL.c ****     }
 849:Generated_Source\PSoC6/CapSense_1_SensingCSD_LL.c **** 
 850:Generated_Source\PSoC6/CapSense_1_SensingCSD_LL.c ****     #if((CapSense_1_CLK_SOURCE_PRS8  == CapSense_1_CSD_SNS_CLK_SOURCE) ||\
 851:Generated_Source\PSoC6/CapSense_1_SensingCSD_LL.c ****         (CapSense_1_CLK_SOURCE_PRS12 == CapSense_1_CSD_SNS_CLK_SOURCE) ||\
 852:Generated_Source\PSoC6/CapSense_1_SensingCSD_LL.c ****         (CapSense_1_CLK_SOURCE_PRSAUTO == CapSense_1_CSD_SNS_CLK_SOURCE))
 853:Generated_Source\PSoC6/CapSense_1_SensingCSD_LL.c ****         switch (snsClkSrc)
 854:Generated_Source\PSoC6/CapSense_1_SensingCSD_LL.c ****         {
 855:Generated_Source\PSoC6/CapSense_1_SensingCSD_LL.c ****         case CapSense_1_CLK_SOURCE_PRS8:
 856:Generated_Source\PSoC6/CapSense_1_SensingCSD_LL.c ****         case CapSense_1_CLK_SOURCE_PRS12:
 857:Generated_Source\PSoC6/CapSense_1_SensingCSD_LL.c ****             /* Divide by 2 for PRS8/PRS12 mode */
 858:Generated_Source\PSoC6/CapSense_1_SensingCSD_LL.c ****             snsClkDivider >>= 1;
 859:Generated_Source\PSoC6/CapSense_1_SensingCSD_LL.c ****             if (snsClkDivider == 0u)
 860:Generated_Source\PSoC6/CapSense_1_SensingCSD_LL.c ****             {
 861:Generated_Source\PSoC6/CapSense_1_SensingCSD_LL.c ****                 snsClkDivider = 1u;
 862:Generated_Source\PSoC6/CapSense_1_SensingCSD_LL.c ****             }
 863:Generated_Source\PSoC6/CapSense_1_SensingCSD_LL.c ****             break;
 864:Generated_Source\PSoC6/CapSense_1_SensingCSD_LL.c **** 
 865:Generated_Source\PSoC6/CapSense_1_SensingCSD_LL.c ****         default:
 866:Generated_Source\PSoC6/CapSense_1_SensingCSD_LL.c ****             break;
 867:Generated_Source\PSoC6/CapSense_1_SensingCSD_LL.c ****         }
 868:Generated_Source\PSoC6/CapSense_1_SensingCSD_LL.c ****     #endif /* ((CapSense_1_CLK_SOURCE_PRS8  == CapSense_1_CSD_SNS_CLK_SOURCE) ||\
 869:Generated_Source\PSoC6/CapSense_1_SensingCSD_LL.c ****                (CapSense_1_CLK_SOURCE_PRS12 == CapSense_1_CSD_SNS_CLK_SOURCE) ||\
 870:Generated_Source\PSoC6/CapSense_1_SensingCSD_LL.c ****                (CapSense_1_CLK_SOURCE_PRSAUTO == CapSense_1_CSD_SNS_CLK_SOURCE)) */
 871:Generated_Source\PSoC6/CapSense_1_SensingCSD_LL.c **** 
 872:Generated_Source\PSoC6/CapSense_1_SensingCSD_LL.c ****     CapSense_1_SsCSDSetModeSnsClockDivider(newRegValue, snsClkDivider);
 873:Generated_Source\PSoC6/CapSense_1_SensingCSD_LL.c **** 
 874:Generated_Source\PSoC6/CapSense_1_SensingCSD_LL.c ****     #if(CapSense_1_SENSING_LOW_EMI == CapSense_1_CSD_SENSING_METHOD)
 875:Generated_Source\PSoC6/CapSense_1_SensingCSD_LL.c ****         /* Calculate duration of the  first phase of the sense clock to have 80:20 duty cycle. */
 876:Generated_Source\PSoC6/CapSense_1_SensingCSD_LL.c ****         newRegValue = snsClkDivider / 5uL;
 877:Generated_Source\PSoC6/CapSense_1_SensingCSD_LL.c ****         /* Ensure at least 1 clk_csd cycle duration of the first phase of the sense clock. */
 878:Generated_Source\PSoC6/CapSense_1_SensingCSD_LL.c ****         newRegValue = (newRegValue > 0uL) ? newRegValue : 1uL;
 879:Generated_Source\PSoC6/CapSense_1_SensingCSD_LL.c ****         CapSense_1_SsSetSnsFirstPhaseWidth(newRegValue);
ARM GAS  C:\Users\enes_\AppData\Local\Temp\ccsgh5TW.s 			page 19


 880:Generated_Source\PSoC6/CapSense_1_SensingCSD_LL.c ****     #endif /* (CapSense_1_SENSING_LOW_EMI == CapSense_1_CSD_SENSING_METHOD) */
 881:Generated_Source\PSoC6/CapSense_1_SensingCSD_LL.c **** }
 882:Generated_Source\PSoC6/CapSense_1_SensingCSD_LL.c **** 
 883:Generated_Source\PSoC6/CapSense_1_SensingCSD_LL.c **** 
 884:Generated_Source\PSoC6/CapSense_1_SensingCSD_LL.c **** /*******************************************************************************
 885:Generated_Source\PSoC6/CapSense_1_SensingCSD_LL.c **** * Function Name: CapSense_1_SsCSDCalculateScanDuration
 886:Generated_Source\PSoC6/CapSense_1_SensingCSD_LL.c **** ****************************************************************************//**
 887:Generated_Source\PSoC6/CapSense_1_SensingCSD_LL.c **** *
 888:Generated_Source\PSoC6/CapSense_1_SensingCSD_LL.c **** * \brief
 889:Generated_Source\PSoC6/CapSense_1_SensingCSD_LL.c **** *   Calculates Scan Duration which is defined by scan resolution
 890:Generated_Source\PSoC6/CapSense_1_SensingCSD_LL.c **** *
 891:Generated_Source\PSoC6/CapSense_1_SensingCSD_LL.c **** * \details
 892:Generated_Source\PSoC6/CapSense_1_SensingCSD_LL.c **** *   The function calculates the number of conversions and updates
 893:Generated_Source\PSoC6/CapSense_1_SensingCSD_LL.c **** *   SEQ_NORM_CNT register. The number of conversions depends on resolution and
 894:Generated_Source\PSoC6/CapSense_1_SensingCSD_LL.c **** *   snsClk divider.
 895:Generated_Source\PSoC6/CapSense_1_SensingCSD_LL.c **** *
 896:Generated_Source\PSoC6/CapSense_1_SensingCSD_LL.c **** * \param ptrWdgt
 897:Generated_Source\PSoC6/CapSense_1_SensingCSD_LL.c **** *  The pointer to the RAM_WD_BASE_STRUCT structure.
 898:Generated_Source\PSoC6/CapSense_1_SensingCSD_LL.c **** *
 899:Generated_Source\PSoC6/CapSense_1_SensingCSD_LL.c **** *******************************************************************************/
 900:Generated_Source\PSoC6/CapSense_1_SensingCSD_LL.c **** void CapSense_1_SsCSDCalculateScanDuration(CapSense_1_RAM_WD_BASE_STRUCT const *ptrWdgt)
 901:Generated_Source\PSoC6/CapSense_1_SensingCSD_LL.c **** {
 902:Generated_Source\PSoC6/CapSense_1_SensingCSD_LL.c ****     uint32 conversionsNum;
 903:Generated_Source\PSoC6/CapSense_1_SensingCSD_LL.c ****     uint32 snsClkDivider;
 904:Generated_Source\PSoC6/CapSense_1_SensingCSD_LL.c **** 
 905:Generated_Source\PSoC6/CapSense_1_SensingCSD_LL.c ****     /* Get Number Of Conversions */
 906:Generated_Source\PSoC6/CapSense_1_SensingCSD_LL.c ****     #if (CapSense_1_ENABLE == CapSense_1_CSD_COMMON_SNS_CLK_EN)
 907:Generated_Source\PSoC6/CapSense_1_SensingCSD_LL.c ****         snsClkDivider = CapSense_1_dsRam.snsCsdClk;
 908:Generated_Source\PSoC6/CapSense_1_SensingCSD_LL.c ****     #else
 909:Generated_Source\PSoC6/CapSense_1_SensingCSD_LL.c ****         #if (CapSense_1_CSD_MATRIX_WIDGET_EN || CapSense_1_CSD_TOUCHPAD_WIDGET_EN)
 910:Generated_Source\PSoC6/CapSense_1_SensingCSD_LL.c ****             /* Get SnsClck divider for rows or columns */
 911:Generated_Source\PSoC6/CapSense_1_SensingCSD_LL.c ****             if (CapSense_1_dsFlash.wdgtArray[CapSense_1_widgetIndex].numCols <= CapSense_1_sensorIn
 912:Generated_Source\PSoC6/CapSense_1_SensingCSD_LL.c ****             {
 913:Generated_Source\PSoC6/CapSense_1_SensingCSD_LL.c ****                 snsClkDivider = (uint32)(ptrWdgt->rowSnsClk);
 914:Generated_Source\PSoC6/CapSense_1_SensingCSD_LL.c ****             }
 915:Generated_Source\PSoC6/CapSense_1_SensingCSD_LL.c ****             else
 916:Generated_Source\PSoC6/CapSense_1_SensingCSD_LL.c ****             {
 917:Generated_Source\PSoC6/CapSense_1_SensingCSD_LL.c ****                 snsClkDivider = (uint32)(ptrWdgt->snsClk);
 918:Generated_Source\PSoC6/CapSense_1_SensingCSD_LL.c ****             }
 919:Generated_Source\PSoC6/CapSense_1_SensingCSD_LL.c ****         #else
 920:Generated_Source\PSoC6/CapSense_1_SensingCSD_LL.c ****             snsClkDivider = (uint32)(ptrWdgt->snsClk);
 921:Generated_Source\PSoC6/CapSense_1_SensingCSD_LL.c ****         #endif /* (CapSense_1_CSD_MATRIX_WIDGET_EN || CapSense_1_CSD_TOUCHPAD_WIDGET_EN) */
 922:Generated_Source\PSoC6/CapSense_1_SensingCSD_LL.c ****     #endif /* (CapSense_1_ENABLE == CapSense_1_CSD_COMMON_SNS_CLK_EN) */
 923:Generated_Source\PSoC6/CapSense_1_SensingCSD_LL.c **** 
 924:Generated_Source\PSoC6/CapSense_1_SensingCSD_LL.c ****     conversionsNum = CapSense_1_SsCSDGetNumberOfConversions(snsClkDivider, (uint32)ptrWdgt->resolut
 925:Generated_Source\PSoC6/CapSense_1_SensingCSD_LL.c **** 
 926:Generated_Source\PSoC6/CapSense_1_SensingCSD_LL.c ****     /* Set Number Of Conversions based on scanning resolution */
 927:Generated_Source\PSoC6/CapSense_1_SensingCSD_LL.c ****     CY_SET_REG32(CapSense_1_CSD_SEQ_NORM_CNT_PTR, (conversionsNum & CapSense_1_CSD_SEQ_NORM_CNT_CON
 928:Generated_Source\PSoC6/CapSense_1_SensingCSD_LL.c **** }
 929:Generated_Source\PSoC6/CapSense_1_SensingCSD_LL.c **** 
 930:Generated_Source\PSoC6/CapSense_1_SensingCSD_LL.c **** 
 931:Generated_Source\PSoC6/CapSense_1_SensingCSD_LL.c **** /*******************************************************************************
 932:Generated_Source\PSoC6/CapSense_1_SensingCSD_LL.c **** * Function Name: CapSense_1_CSDSetupWidget
 933:Generated_Source\PSoC6/CapSense_1_SensingCSD_LL.c **** ****************************************************************************//**
 934:Generated_Source\PSoC6/CapSense_1_SensingCSD_LL.c **** *
 935:Generated_Source\PSoC6/CapSense_1_SensingCSD_LL.c **** * \brief
 936:Generated_Source\PSoC6/CapSense_1_SensingCSD_LL.c **** *  Performs hardware and firmware initialization required for scanning sensors
ARM GAS  C:\Users\enes_\AppData\Local\Temp\ccsgh5TW.s 			page 20


 937:Generated_Source\PSoC6/CapSense_1_SensingCSD_LL.c **** *  in a specific widget using the CSD sensing method. This function requires using
 938:Generated_Source\PSoC6/CapSense_1_SensingCSD_LL.c **** *  the CapSense_1_CSDScan() function to start scanning.
 939:Generated_Source\PSoC6/CapSense_1_SensingCSD_LL.c **** *
 940:Generated_Source\PSoC6/CapSense_1_SensingCSD_LL.c **** * \details
 941:Generated_Source\PSoC6/CapSense_1_SensingCSD_LL.c **** *  This function initializes the specific widget common parameters to perform
 942:Generated_Source\PSoC6/CapSense_1_SensingCSD_LL.c **** *  the CSD scanning. The initialization includes setting up a Modulator and
 943:Generated_Source\PSoC6/CapSense_1_SensingCSD_LL.c **** *  Sense clock frequency and scanning resolution.
 944:Generated_Source\PSoC6/CapSense_1_SensingCSD_LL.c **** *
 945:Generated_Source\PSoC6/CapSense_1_SensingCSD_LL.c **** *  This function does not connect any specific sensors to the scanning hardware,
 946:Generated_Source\PSoC6/CapSense_1_SensingCSD_LL.c **** *  neither does it start a scanning process. The CapSense_1_CSDScan()
 947:Generated_Source\PSoC6/CapSense_1_SensingCSD_LL.c **** *  API must be called after initializing the widget to start scanning.
 948:Generated_Source\PSoC6/CapSense_1_SensingCSD_LL.c **** *
 949:Generated_Source\PSoC6/CapSense_1_SensingCSD_LL.c **** *  This function is called when no scanning is in progress. I.e.
 950:Generated_Source\PSoC6/CapSense_1_SensingCSD_LL.c **** *  CapSense_1_IsBusy() returns a non-busy status.
 951:Generated_Source\PSoC6/CapSense_1_SensingCSD_LL.c **** *
 952:Generated_Source\PSoC6/CapSense_1_SensingCSD_LL.c **** *  This function is called by the CapSense_1_SetupWidget() API if the
 953:Generated_Source\PSoC6/CapSense_1_SensingCSD_LL.c **** *  given widget uses the CSD sensing method.
 954:Generated_Source\PSoC6/CapSense_1_SensingCSD_LL.c **** *
 955:Generated_Source\PSoC6/CapSense_1_SensingCSD_LL.c **** *  Calling this function directly from the application layer is not
 956:Generated_Source\PSoC6/CapSense_1_SensingCSD_LL.c **** *  recommended. This function is used to implement only the user's specific
 957:Generated_Source\PSoC6/CapSense_1_SensingCSD_LL.c **** *  use cases (for faster execution time or pipeline scanning for example).
 958:Generated_Source\PSoC6/CapSense_1_SensingCSD_LL.c **** *
 959:Generated_Source\PSoC6/CapSense_1_SensingCSD_LL.c **** * \param  widgetId
 960:Generated_Source\PSoC6/CapSense_1_SensingCSD_LL.c **** *  Specifies the ID number of the widget to perform hardware and firmware
 961:Generated_Source\PSoC6/CapSense_1_SensingCSD_LL.c **** *  initialization required for scanning sensors in the specific widget.
 962:Generated_Source\PSoC6/CapSense_1_SensingCSD_LL.c **** *  A macro for the widget ID can be found in the CapSense_1 Configuration header
 963:Generated_Source\PSoC6/CapSense_1_SensingCSD_LL.c **** *  file defined as CapSense_1_<WidgetName>_WDGT_ID.
 964:Generated_Source\PSoC6/CapSense_1_SensingCSD_LL.c **** *
 965:Generated_Source\PSoC6/CapSense_1_SensingCSD_LL.c **** *******************************************************************************/
 966:Generated_Source\PSoC6/CapSense_1_SensingCSD_LL.c **** void CapSense_1_CSDSetupWidget(uint32 widgetId)
 967:Generated_Source\PSoC6/CapSense_1_SensingCSD_LL.c **** {
 968:Generated_Source\PSoC6/CapSense_1_SensingCSD_LL.c **** 
 969:Generated_Source\PSoC6/CapSense_1_SensingCSD_LL.c ****     CapSense_1_RAM_WD_BASE_STRUCT const *ptrWdgt = (CapSense_1_RAM_WD_BASE_STRUCT *)
 970:Generated_Source\PSoC6/CapSense_1_SensingCSD_LL.c ****                                                     CapSense_1_dsFlash.wdgtArray[widgetId].ptr2Wdgt
 971:Generated_Source\PSoC6/CapSense_1_SensingCSD_LL.c **** 
 972:Generated_Source\PSoC6/CapSense_1_SensingCSD_LL.c ****     /* Save widget Id to have assess to it after scanning  */
 973:Generated_Source\PSoC6/CapSense_1_SensingCSD_LL.c ****     CapSense_1_widgetIndex = (uint8)widgetId;
 974:Generated_Source\PSoC6/CapSense_1_SensingCSD_LL.c **** 
 975:Generated_Source\PSoC6/CapSense_1_SensingCSD_LL.c ****     #if ((CapSense_1_ENABLE == CapSense_1_CSD_CSX_EN) || \
 976:Generated_Source\PSoC6/CapSense_1_SensingCSD_LL.c ****         (CapSense_1_ENABLE == CapSense_1_SELF_TEST_EN) || \
 977:Generated_Source\PSoC6/CapSense_1_SensingCSD_LL.c ****         (CapSense_1_ENABLE == CapSense_1_ADC_EN))
 978:Generated_Source\PSoC6/CapSense_1_SensingCSD_LL.c ****          CapSense_1_SsSwitchSensingMode(CapSense_1_SENSE_METHOD_CSD_E);
 979:Generated_Source\PSoC6/CapSense_1_SensingCSD_LL.c ****     #endif /* ((CapSense_1_ENABLE == CapSense_1_CSD_CSX_EN) || \
 980:Generated_Source\PSoC6/CapSense_1_SensingCSD_LL.c ****                (CapSense_1_ENABLE == CapSense_1_SELF_TEST_EN) || \
 981:Generated_Source\PSoC6/CapSense_1_SensingCSD_LL.c ****                (CapSense_1_ENABLE == CapSense_1_ADC_EN)) */
 982:Generated_Source\PSoC6/CapSense_1_SensingCSD_LL.c **** 
 983:Generated_Source\PSoC6/CapSense_1_SensingCSD_LL.c ****     #if (CapSense_1_ENABLE == CapSense_1_MULTI_FREQ_SCAN_EN)
 984:Generated_Source\PSoC6/CapSense_1_SensingCSD_LL.c ****         /* Reset the frequency scan channel if enabled */
 985:Generated_Source\PSoC6/CapSense_1_SensingCSD_LL.c ****         CapSense_1_scanFreqIndex = CapSense_1_FREQ_CHANNEL_0;
 986:Generated_Source\PSoC6/CapSense_1_SensingCSD_LL.c ****     #endif /* (CapSense_1_ENABLE == CapSense_1_MULTI_FREQ_SCAN_EN) */
 987:Generated_Source\PSoC6/CapSense_1_SensingCSD_LL.c **** 
 988:Generated_Source\PSoC6/CapSense_1_SensingCSD_LL.c ****     /* Disconnect previous electrode if it has been connected */
 989:Generated_Source\PSoC6/CapSense_1_SensingCSD_LL.c ****     CapSense_1_SsCSDElectrodeCheck();
 990:Generated_Source\PSoC6/CapSense_1_SensingCSD_LL.c **** 
 991:Generated_Source\PSoC6/CapSense_1_SensingCSD_LL.c ****     /* Initialize IO Sns electrode structure pointer to current widget */
 992:Generated_Source\PSoC6/CapSense_1_SensingCSD_LL.c ****     CapSense_1_curSnsIOPtr = (CapSense_1_FLASH_IO_STRUCT const *)
 993:Generated_Source\PSoC6/CapSense_1_SensingCSD_LL.c ****                                     CapSense_1_dsFlash.wdgtArray[CapSense_1_widgetIndex].ptr2SnsFla
ARM GAS  C:\Users\enes_\AppData\Local\Temp\ccsgh5TW.s 			page 21


 994:Generated_Source\PSoC6/CapSense_1_SensingCSD_LL.c **** 
 995:Generated_Source\PSoC6/CapSense_1_SensingCSD_LL.c ****     /* Update status register in Data structure */
 996:Generated_Source\PSoC6/CapSense_1_SensingCSD_LL.c ****     CapSense_1_dsRam.status &= ~CapSense_1_STATUS_WDGT0_MASK;
 997:Generated_Source\PSoC6/CapSense_1_SensingCSD_LL.c ****     CapSense_1_dsRam.status |= CapSense_1_widgetIndex;
 998:Generated_Source\PSoC6/CapSense_1_SensingCSD_LL.c **** 
 999:Generated_Source\PSoC6/CapSense_1_SensingCSD_LL.c ****     /* Set up scanning resolution (Number of conversion) */
1000:Generated_Source\PSoC6/CapSense_1_SensingCSD_LL.c ****     CapSense_1_SsCSDCalculateScanDuration(ptrWdgt);
1001:Generated_Source\PSoC6/CapSense_1_SensingCSD_LL.c **** 
1002:Generated_Source\PSoC6/CapSense_1_SensingCSD_LL.c ****     #if (((CapSense_1_DISABLE == CapSense_1_CSD_COMMON_SNS_CLK_EN) || \
1003:Generated_Source\PSoC6/CapSense_1_SensingCSD_LL.c ****           (CapSense_1_CLK_SOURCE_DIRECT != CapSense_1_CSD_SNS_CLK_SOURCE)) && \
1004:Generated_Source\PSoC6/CapSense_1_SensingCSD_LL.c ****          ((!(CapSense_1_CSD_MATRIX_WIDGET_EN || CapSense_1_CSD_TOUCHPAD_WIDGET_EN)) || \
1005:Generated_Source\PSoC6/CapSense_1_SensingCSD_LL.c ****           (CapSense_1_ENABLE == CapSense_1_CSD_COMMON_SNS_CLK_EN)))
1006:Generated_Source\PSoC6/CapSense_1_SensingCSD_LL.c ****         CapSense_1_SsCSDConfigClock();
1007:Generated_Source\PSoC6/CapSense_1_SensingCSD_LL.c ****     #endif /* ((CapSense_1_DISABLE == CapSense_1_CSD_COMMON_SNS_CLK_EN) ||\
1008:Generated_Source\PSoC6/CapSense_1_SensingCSD_LL.c ****                (CapSense_1_CLK_SOURCE_DIRECT != CapSense_1_CSD_SNS_CLK_SOURCE)) */
1009:Generated_Source\PSoC6/CapSense_1_SensingCSD_LL.c **** }
1010:Generated_Source\PSoC6/CapSense_1_SensingCSD_LL.c **** 
1011:Generated_Source\PSoC6/CapSense_1_SensingCSD_LL.c **** 
1012:Generated_Source\PSoC6/CapSense_1_SensingCSD_LL.c **** /*******************************************************************************
1013:Generated_Source\PSoC6/CapSense_1_SensingCSD_LL.c **** * Function Name: CapSense_1_CSDSetupWidgetExt
1014:Generated_Source\PSoC6/CapSense_1_SensingCSD_LL.c **** ****************************************************************************//**
1015:Generated_Source\PSoC6/CapSense_1_SensingCSD_LL.c **** *
1016:Generated_Source\PSoC6/CapSense_1_SensingCSD_LL.c **** * \brief
1017:Generated_Source\PSoC6/CapSense_1_SensingCSD_LL.c **** *  Performs extended initialization for the CSD widget and also performs
1018:Generated_Source\PSoC6/CapSense_1_SensingCSD_LL.c **** *  initialization required for a specific sensor in the widget. This function
1019:Generated_Source\PSoC6/CapSense_1_SensingCSD_LL.c **** *  requires using the CapSense_1_CSDScanExt() function to initiate a scan.
1020:Generated_Source\PSoC6/CapSense_1_SensingCSD_LL.c **** *
1021:Generated_Source\PSoC6/CapSense_1_SensingCSD_LL.c **** * \details
1022:Generated_Source\PSoC6/CapSense_1_SensingCSD_LL.c **** *  This function does the same as CapSense_1_CSDSetupWidget() and also
1023:Generated_Source\PSoC6/CapSense_1_SensingCSD_LL.c **** *  does the following tasks:
1024:Generated_Source\PSoC6/CapSense_1_SensingCSD_LL.c **** *    1. Connects the first sensor of the widget.
1025:Generated_Source\PSoC6/CapSense_1_SensingCSD_LL.c **** *    2. Configures the IDAC value.
1026:Generated_Source\PSoC6/CapSense_1_SensingCSD_LL.c **** *    3. Initializes an interrupt callback function to initialize a scan of the
1027:Generated_Source\PSoC6/CapSense_1_SensingCSD_LL.c **** *  next sensors in a widget.
1028:Generated_Source\PSoC6/CapSense_1_SensingCSD_LL.c **** *
1029:Generated_Source\PSoC6/CapSense_1_SensingCSD_LL.c **** *  Once this function is called to initialize a widget and a sensor, the
1030:Generated_Source\PSoC6/CapSense_1_SensingCSD_LL.c **** *  CapSense_1_CSDScanExt() function is called to scan the sensor.
1031:Generated_Source\PSoC6/CapSense_1_SensingCSD_LL.c **** *
1032:Generated_Source\PSoC6/CapSense_1_SensingCSD_LL.c **** *  This function is called when no scanning is in progress. I.e.
1033:Generated_Source\PSoC6/CapSense_1_SensingCSD_LL.c **** *  CapSense_1_IsBusy() returns a non-busy status.
1034:Generated_Source\PSoC6/CapSense_1_SensingCSD_LL.c **** *
1035:Generated_Source\PSoC6/CapSense_1_SensingCSD_LL.c **** *  Calling this function directly from the application layer is not
1036:Generated_Source\PSoC6/CapSense_1_SensingCSD_LL.c **** *  recommended. This function is used to implement only the user's specific
1037:Generated_Source\PSoC6/CapSense_1_SensingCSD_LL.c **** *  use cases (for faster execution time or pipeline scanning for example).
1038:Generated_Source\PSoC6/CapSense_1_SensingCSD_LL.c **** *
1039:Generated_Source\PSoC6/CapSense_1_SensingCSD_LL.c **** * \param widgetId
1040:Generated_Source\PSoC6/CapSense_1_SensingCSD_LL.c **** *  Specifies the ID number of the widget to perform hardware and firmware
1041:Generated_Source\PSoC6/CapSense_1_SensingCSD_LL.c **** *  initialization required for scanning the specific sensor in the specific
1042:Generated_Source\PSoC6/CapSense_1_SensingCSD_LL.c **** *  widget.
1043:Generated_Source\PSoC6/CapSense_1_SensingCSD_LL.c **** *  A macro for the widget ID can be found in the CapSense_1 Configuration header
1044:Generated_Source\PSoC6/CapSense_1_SensingCSD_LL.c **** *  file defined as CapSense_1_<WidgetName>_WDGT_ID.
1045:Generated_Source\PSoC6/CapSense_1_SensingCSD_LL.c **** *
1046:Generated_Source\PSoC6/CapSense_1_SensingCSD_LL.c **** * \param sensorId
1047:Generated_Source\PSoC6/CapSense_1_SensingCSD_LL.c **** *  Specifies the ID number of the sensor within the widget to perform hardware
1048:Generated_Source\PSoC6/CapSense_1_SensingCSD_LL.c **** *  and firmware initialization required for scanning a specific sensor in a
1049:Generated_Source\PSoC6/CapSense_1_SensingCSD_LL.c **** *  specific widget.
1050:Generated_Source\PSoC6/CapSense_1_SensingCSD_LL.c **** *  A macro for the sensor ID within a specified widget can be found in the
ARM GAS  C:\Users\enes_\AppData\Local\Temp\ccsgh5TW.s 			page 22


1051:Generated_Source\PSoC6/CapSense_1_SensingCSD_LL.c **** *  CapSense_1 Configuration header file defined as
1052:Generated_Source\PSoC6/CapSense_1_SensingCSD_LL.c **** *  CapSense_1_<WidgetName>_SNS<SensorNumber>_ID
1053:Generated_Source\PSoC6/CapSense_1_SensingCSD_LL.c **** *
1054:Generated_Source\PSoC6/CapSense_1_SensingCSD_LL.c **** *******************************************************************************/
1055:Generated_Source\PSoC6/CapSense_1_SensingCSD_LL.c **** void CapSense_1_CSDSetupWidgetExt(uint32 widgetId, uint32 sensorId)
1056:Generated_Source\PSoC6/CapSense_1_SensingCSD_LL.c **** {
1057:Generated_Source\PSoC6/CapSense_1_SensingCSD_LL.c ****     CapSense_1_RAM_WD_BASE_STRUCT const *ptrWdgt = (CapSense_1_RAM_WD_BASE_STRUCT *)
1058:Generated_Source\PSoC6/CapSense_1_SensingCSD_LL.c ****                                                     CapSense_1_dsFlash.wdgtArray[widgetId].ptr2Wdgt
1059:Generated_Source\PSoC6/CapSense_1_SensingCSD_LL.c **** 
1060:Generated_Source\PSoC6/CapSense_1_SensingCSD_LL.c ****     /* Save widget and sensor Ids to have access to it after scanning */
1061:Generated_Source\PSoC6/CapSense_1_SensingCSD_LL.c ****     CapSense_1_sensorIndex = (uint8)sensorId;
1062:Generated_Source\PSoC6/CapSense_1_SensingCSD_LL.c **** 
1063:Generated_Source\PSoC6/CapSense_1_SensingCSD_LL.c ****     /* Update global pointer to CapSense_1_RAM_SNS_STRUCT to current sensor */
1064:Generated_Source\PSoC6/CapSense_1_SensingCSD_LL.c ****     CapSense_1_curRamSnsPtr = (CapSense_1_RAM_SNS_STRUCT *)
1065:Generated_Source\PSoC6/CapSense_1_SensingCSD_LL.c ****                                               CapSense_1_dsFlash.wdgtArray[widgetId].ptr2SnsRam
1066:Generated_Source\PSoC6/CapSense_1_SensingCSD_LL.c ****                                               + CapSense_1_sensorIndex;
1067:Generated_Source\PSoC6/CapSense_1_SensingCSD_LL.c **** 
1068:Generated_Source\PSoC6/CapSense_1_SensingCSD_LL.c ****     CapSense_1_CSDSetupWidget(widgetId);
1069:Generated_Source\PSoC6/CapSense_1_SensingCSD_LL.c **** 
1070:Generated_Source\PSoC6/CapSense_1_SensingCSD_LL.c ****      /* Setup Idac Value */
1071:Generated_Source\PSoC6/CapSense_1_SensingCSD_LL.c ****     CapSense_1_SsCSDSetUpIdacs(ptrWdgt);
1072:Generated_Source\PSoC6/CapSense_1_SensingCSD_LL.c **** 
1073:Generated_Source\PSoC6/CapSense_1_SensingCSD_LL.c ****     #if (CapSense_1_ENABLE == CapSense_1_CSD_GANGED_SNS_EN)
1074:Generated_Source\PSoC6/CapSense_1_SensingCSD_LL.c ****         /* initialize access pointers for current pointer to widget configuration in Flash */
1075:Generated_Source\PSoC6/CapSense_1_SensingCSD_LL.c ****         CapSense_1_curFlashWdgtPtr = &CapSense_1_dsFlash.wdgtArray[widgetId];
1076:Generated_Source\PSoC6/CapSense_1_SensingCSD_LL.c ****     #endif /* (CapSense_1_ENABLE == CapSense_1_CSD_GANGED_SNS_EN) */
1077:Generated_Source\PSoC6/CapSense_1_SensingCSD_LL.c **** 
1078:Generated_Source\PSoC6/CapSense_1_SensingCSD_LL.c ****     #if (CapSense_1_ENABLE == CapSense_1_CSD_GANGED_SNS_EN)
1079:Generated_Source\PSoC6/CapSense_1_SensingCSD_LL.c ****         CapSense_1_SsCSDConnectSensorExt(widgetId, sensorId);
1080:Generated_Source\PSoC6/CapSense_1_SensingCSD_LL.c ****     #else
1081:Generated_Source\PSoC6/CapSense_1_SensingCSD_LL.c ****         /* Enable sensor */
1082:Generated_Source\PSoC6/CapSense_1_SensingCSD_LL.c ****         CapSense_1_curSnsIOPtr += CapSense_1_sensorIndex;
1083:Generated_Source\PSoC6/CapSense_1_SensingCSD_LL.c ****         CapSense_1_CSDConnectSns(CapSense_1_curSnsIOPtr);
1084:Generated_Source\PSoC6/CapSense_1_SensingCSD_LL.c ****     #endif /* (CapSense_1_ENABLE == CapSense_1_CSD_GANGED_SNS_EN) */
1085:Generated_Source\PSoC6/CapSense_1_SensingCSD_LL.c **** 
1086:Generated_Source\PSoC6/CapSense_1_SensingCSD_LL.c ****     #if (CapSense_1_ENABLE == CapSense_1_CSD_GANGED_SNS_EN)
1087:Generated_Source\PSoC6/CapSense_1_SensingCSD_LL.c ****         /* Save sns pointer */
1088:Generated_Source\PSoC6/CapSense_1_SensingCSD_LL.c ****         CapSense_1_curFlashSnsPtr = (CapSense_1_FLASH_SNS_STRUCT const *)
1089:Generated_Source\PSoC6/CapSense_1_SensingCSD_LL.c ****                                            CapSense_1_dsFlash.wdgtArray[CapSense_1_widgetIndex].ptr
1090:Generated_Source\PSoC6/CapSense_1_SensingCSD_LL.c ****                                            CapSense_1_sensorIndex;
1091:Generated_Source\PSoC6/CapSense_1_SensingCSD_LL.c ****     #endif /* (CapSense_1_ENABLE == CapSense_1_CSD_GANGED_SNS_EN) */
1092:Generated_Source\PSoC6/CapSense_1_SensingCSD_LL.c **** 
1093:Generated_Source\PSoC6/CapSense_1_SensingCSD_LL.c ****     CapSense_1_eleCsdDisconnectFlag = CapSense_1_DISCONNECT_IO_FLAG;
1094:Generated_Source\PSoC6/CapSense_1_SensingCSD_LL.c **** 
1095:Generated_Source\PSoC6/CapSense_1_SensingCSD_LL.c ****     /* Setup ISR handler to single-sensor scan function */
1096:Generated_Source\PSoC6/CapSense_1_SensingCSD_LL.c ****     CapSense_1_SsIsrInitialize(&CapSense_1_CSDPostSingleScan);
1097:Generated_Source\PSoC6/CapSense_1_SensingCSD_LL.c **** }
1098:Generated_Source\PSoC6/CapSense_1_SensingCSD_LL.c **** 
1099:Generated_Source\PSoC6/CapSense_1_SensingCSD_LL.c **** 
1100:Generated_Source\PSoC6/CapSense_1_SensingCSD_LL.c **** /*******************************************************************************
1101:Generated_Source\PSoC6/CapSense_1_SensingCSD_LL.c **** * Function Name: CapSense_1_SsCSDStartSample
1102:Generated_Source\PSoC6/CapSense_1_SensingCSD_LL.c **** ****************************************************************************//**
1103:Generated_Source\PSoC6/CapSense_1_SensingCSD_LL.c **** *
1104:Generated_Source\PSoC6/CapSense_1_SensingCSD_LL.c **** * \brief
1105:Generated_Source\PSoC6/CapSense_1_SensingCSD_LL.c **** *   Starts the CSD conversion.
1106:Generated_Source\PSoC6/CapSense_1_SensingCSD_LL.c **** *
1107:Generated_Source\PSoC6/CapSense_1_SensingCSD_LL.c **** * \details
ARM GAS  C:\Users\enes_\AppData\Local\Temp\ccsgh5TW.s 			page 23


1108:Generated_Source\PSoC6/CapSense_1_SensingCSD_LL.c **** *   This function assumes that the CSD block is already set up using
1109:Generated_Source\PSoC6/CapSense_1_SensingCSD_LL.c **** *   the CapSense_1_CSDSetupWidget API and the sensor port-pin is connected to the CSD
1110:Generated_Source\PSoC6/CapSense_1_SensingCSD_LL.c **** *   block using CapSense_1_CSDConnectSns.
1111:Generated_Source\PSoC6/CapSense_1_SensingCSD_LL.c **** *
1112:Generated_Source\PSoC6/CapSense_1_SensingCSD_LL.c **** *******************************************************************************/
1113:Generated_Source\PSoC6/CapSense_1_SensingCSD_LL.c **** void CapSense_1_SsCSDStartSample(void)
1114:Generated_Source\PSoC6/CapSense_1_SensingCSD_LL.c **** {
1115:Generated_Source\PSoC6/CapSense_1_SensingCSD_LL.c ****     #ifdef CapSense_1_START_SAMPLE_CALLBACK
1116:Generated_Source\PSoC6/CapSense_1_SensingCSD_LL.c ****         CapSense_1_StartSampleCallback(CapSense_1_widgetIndex, CapSense_1_sensorIndex);
1117:Generated_Source\PSoC6/CapSense_1_SensingCSD_LL.c ****     #endif /* CapSense_1_START_SAMPLE_CALLBACK */
1118:Generated_Source\PSoC6/CapSense_1_SensingCSD_LL.c **** 
1119:Generated_Source\PSoC6/CapSense_1_SensingCSD_LL.c ****     /* Disable interrupt */
1120:Generated_Source\PSoC6/CapSense_1_SensingCSD_LL.c ****     #if defined(CapSense_1_ISR__INTC_ASSIGNED)
1121:Generated_Source\PSoC6/CapSense_1_SensingCSD_LL.c ****         NVIC_DisableIRQ(CapSense_1_ISR_cfg.intrSrc);
1122:Generated_Source\PSoC6/CapSense_1_SensingCSD_LL.c ****     #endif
1123:Generated_Source\PSoC6/CapSense_1_SensingCSD_LL.c **** 
1124:Generated_Source\PSoC6/CapSense_1_SensingCSD_LL.c ****     /* Enable power to sub-blocks */
1125:Generated_Source\PSoC6/CapSense_1_SensingCSD_LL.c ****     CY_SET_REG32(CapSense_1_CSD_HSCMP_PTR, CapSense_1_HSCMP_INIT_MASK);
1126:Generated_Source\PSoC6/CapSense_1_SensingCSD_LL.c **** 
1127:Generated_Source\PSoC6/CapSense_1_SensingCSD_LL.c ****     #if (CapSense_1_ENABLE == CapSense_1_BLOCK_OFF_AFTER_SCAN_EN)
1128:Generated_Source\PSoC6/CapSense_1_SensingCSD_LL.c ****         CY_SET_REG32(CapSense_1_CSD_CONFIG_PTR, CapSense_1_configCsd |
1129:Generated_Source\PSoC6/CapSense_1_SensingCSD_LL.c ****                                                   CapSense_1_CSD_CONFIG_SENSE_EN_MSK |
1130:Generated_Source\PSoC6/CapSense_1_SensingCSD_LL.c ****                                                   CapSense_1_CSD_CONFIG_ENABLE_MSK);
1131:Generated_Source\PSoC6/CapSense_1_SensingCSD_LL.c ****         #if(CapSense_1_CSD_ANALOG_STARTUP_DELAY_US > 0uL)
1132:Generated_Source\PSoC6/CapSense_1_SensingCSD_LL.c ****             Cy_SysLib_DelayUs(CapSense_1_CSD_ANALOG_STARTUP_DELAY_US);
1133:Generated_Source\PSoC6/CapSense_1_SensingCSD_LL.c ****         #endif /* (CapSense_1_CSD_ANALOG_STARTUP_DELAY_US > 0uL) */
1134:Generated_Source\PSoC6/CapSense_1_SensingCSD_LL.c ****     #endif /* (CapSense_1_ENABLE == CapSense_1_BLOCK_OFF_AFTER_SCAN_EN) */
1135:Generated_Source\PSoC6/CapSense_1_SensingCSD_LL.c **** 
1136:Generated_Source\PSoC6/CapSense_1_SensingCSD_LL.c ****     /* Precharging Cmod and Csh */
1137:Generated_Source\PSoC6/CapSense_1_SensingCSD_LL.c ****     CapSense_1_SsCSDCmodPrecharge();
1138:Generated_Source\PSoC6/CapSense_1_SensingCSD_LL.c **** 
1139:Generated_Source\PSoC6/CapSense_1_SensingCSD_LL.c ****     /* Trigger Scan */
1140:Generated_Source\PSoC6/CapSense_1_SensingCSD_LL.c ****     CapSense_1_SsCSDTriggerScan();
1141:Generated_Source\PSoC6/CapSense_1_SensingCSD_LL.c **** }
1142:Generated_Source\PSoC6/CapSense_1_SensingCSD_LL.c **** 
1143:Generated_Source\PSoC6/CapSense_1_SensingCSD_LL.c **** 
1144:Generated_Source\PSoC6/CapSense_1_SensingCSD_LL.c **** /*******************************************************************************
1145:Generated_Source\PSoC6/CapSense_1_SensingCSD_LL.c **** * Function Name: CapSense_1_CSDScanExt
1146:Generated_Source\PSoC6/CapSense_1_SensingCSD_LL.c **** ****************************************************************************//**
1147:Generated_Source\PSoC6/CapSense_1_SensingCSD_LL.c **** *
1148:Generated_Source\PSoC6/CapSense_1_SensingCSD_LL.c **** * \brief
1149:Generated_Source\PSoC6/CapSense_1_SensingCSD_LL.c **** *  Starts the CSD conversion on the preconfigured sensor. This function requires
1150:Generated_Source\PSoC6/CapSense_1_SensingCSD_LL.c **** *  using the CapSense_1_CSDSetupWidgetExt() function to set up the a
1151:Generated_Source\PSoC6/CapSense_1_SensingCSD_LL.c **** *  widget.
1152:Generated_Source\PSoC6/CapSense_1_SensingCSD_LL.c **** *
1153:Generated_Source\PSoC6/CapSense_1_SensingCSD_LL.c **** * \details
1154:Generated_Source\PSoC6/CapSense_1_SensingCSD_LL.c **** *  This function performs single scanning of one sensor in the widget configured
1155:Generated_Source\PSoC6/CapSense_1_SensingCSD_LL.c **** *  by the CapSense_1_CSDSetupWidgetExt() function. It does the following
1156:Generated_Source\PSoC6/CapSense_1_SensingCSD_LL.c **** *  tasks:
1157:Generated_Source\PSoC6/CapSense_1_SensingCSD_LL.c **** *    1. Sets the busy flag in the CapSense_1_dsRam structure.
1158:Generated_Source\PSoC6/CapSense_1_SensingCSD_LL.c **** *    2. Performs the clock-phase alignment of the sense and modulator clocks.
1159:Generated_Source\PSoC6/CapSense_1_SensingCSD_LL.c **** *    3. Performs the Cmod pre-charging.
1160:Generated_Source\PSoC6/CapSense_1_SensingCSD_LL.c **** *    4. Starts single scanning.
1161:Generated_Source\PSoC6/CapSense_1_SensingCSD_LL.c **** *
1162:Generated_Source\PSoC6/CapSense_1_SensingCSD_LL.c **** *  Calling this function directly from the application layer is not
1163:Generated_Source\PSoC6/CapSense_1_SensingCSD_LL.c **** *  recommended. This function is used to implement only the user's specific
1164:Generated_Source\PSoC6/CapSense_1_SensingCSD_LL.c **** *  use cases (for faster execution time or pipeline scanning for example).
ARM GAS  C:\Users\enes_\AppData\Local\Temp\ccsgh5TW.s 			page 24


1165:Generated_Source\PSoC6/CapSense_1_SensingCSD_LL.c **** *  This function is called when no scanning is in progress. I.e.
1166:Generated_Source\PSoC6/CapSense_1_SensingCSD_LL.c **** *  CapSense_1_IsBusy() returns a non-busy status.
1167:Generated_Source\PSoC6/CapSense_1_SensingCSD_LL.c **** *
1168:Generated_Source\PSoC6/CapSense_1_SensingCSD_LL.c **** *  The sensor must be preconfigured by using the
1169:Generated_Source\PSoC6/CapSense_1_SensingCSD_LL.c **** *  CapSense_1_CSDSetupWidgetExt() API prior to calling this function.
1170:Generated_Source\PSoC6/CapSense_1_SensingCSD_LL.c **** *  The sensor remains ready for a next scan if a previous scan was triggered
1171:Generated_Source\PSoC6/CapSense_1_SensingCSD_LL.c **** *  by using the CapSense_1_CSDScanExt() function. In this case, calling
1172:Generated_Source\PSoC6/CapSense_1_SensingCSD_LL.c **** *  CapSense_1_CSDSetupWidgetExt() is not required every time before the
1173:Generated_Source\PSoC6/CapSense_1_SensingCSD_LL.c **** *  CapSense_1_CSDScanExt() function. If a previous scan was triggered in
1174:Generated_Source\PSoC6/CapSense_1_SensingCSD_LL.c **** *  any other way - CapSense_1_Scan(), CapSense_1_ScanAllWidgets() or
1175:Generated_Source\PSoC6/CapSense_1_SensingCSD_LL.c **** *  CapSense_1_RunTuner() - (see the CapSense_1_RunTuner() function
1176:Generated_Source\PSoC6/CapSense_1_SensingCSD_LL.c **** *  description for more details), the sensor must be preconfigured again by
1177:Generated_Source\PSoC6/CapSense_1_SensingCSD_LL.c **** *  using the CapSense_1_CSDSetupWidgetExt() API prior to calling the
1178:Generated_Source\PSoC6/CapSense_1_SensingCSD_LL.c **** *  CapSense_1_CSDScanExt() function.
1179:Generated_Source\PSoC6/CapSense_1_SensingCSD_LL.c **** *
1180:Generated_Source\PSoC6/CapSense_1_SensingCSD_LL.c **** *  If disconnection of the sensors is required after calling
1181:Generated_Source\PSoC6/CapSense_1_SensingCSD_LL.c **** *  CapSense_1_CSDScanExt(), the CapSense_1_CSDDisconnectSns()
1182:Generated_Source\PSoC6/CapSense_1_SensingCSD_LL.c **** *  function can be used.
1183:Generated_Source\PSoC6/CapSense_1_SensingCSD_LL.c **** *
1184:Generated_Source\PSoC6/CapSense_1_SensingCSD_LL.c **** *******************************************************************************/
1185:Generated_Source\PSoC6/CapSense_1_SensingCSD_LL.c **** void CapSense_1_CSDScanExt(void)
1186:Generated_Source\PSoC6/CapSense_1_SensingCSD_LL.c **** {
1187:Generated_Source\PSoC6/CapSense_1_SensingCSD_LL.c ****     #if ((CapSense_1_DISABLE == CapSense_1_CSD_COMMON_SNS_CLK_EN) && \
1188:Generated_Source\PSoC6/CapSense_1_SensingCSD_LL.c ****          (CapSense_1_CSD_MATRIX_WIDGET_EN || CapSense_1_CSD_TOUCHPAD_WIDGET_EN))
1189:Generated_Source\PSoC6/CapSense_1_SensingCSD_LL.c ****         CapSense_1_RAM_WD_BASE_STRUCT const *ptrWdgt = (CapSense_1_RAM_WD_BASE_STRUCT *)
1190:Generated_Source\PSoC6/CapSense_1_SensingCSD_LL.c ****                                                         CapSense_1_dsFlash.wdgtArray[CapSense_1_wid
1191:Generated_Source\PSoC6/CapSense_1_SensingCSD_LL.c **** 
1192:Generated_Source\PSoC6/CapSense_1_SensingCSD_LL.c ****         CapSense_1_SsCSDCalculateScanDuration(ptrWdgt);
1193:Generated_Source\PSoC6/CapSense_1_SensingCSD_LL.c ****         CapSense_1_SsCSDConfigClock();
1194:Generated_Source\PSoC6/CapSense_1_SensingCSD_LL.c ****     #endif
1195:Generated_Source\PSoC6/CapSense_1_SensingCSD_LL.c **** 
1196:Generated_Source\PSoC6/CapSense_1_SensingCSD_LL.c ****     /* Set Start of sensor scan flag */
1197:Generated_Source\PSoC6/CapSense_1_SensingCSD_LL.c ****     CapSense_1_SetBusyFlags(CapSense_1_SW_STS_BUSY | CapSense_1_WDGT_SW_STS_BUSY);
1198:Generated_Source\PSoC6/CapSense_1_SensingCSD_LL.c **** 
1199:Generated_Source\PSoC6/CapSense_1_SensingCSD_LL.c ****     #if (CapSense_1_ENABLE == CapSense_1_MULTI_FREQ_SCAN_EN)
1200:Generated_Source\PSoC6/CapSense_1_SensingCSD_LL.c ****         /* Reset the frequency scan channel if enabled */
1201:Generated_Source\PSoC6/CapSense_1_SensingCSD_LL.c ****         CapSense_1_scanFreqIndex = CapSense_1_FREQ_CHANNEL_0;
1202:Generated_Source\PSoC6/CapSense_1_SensingCSD_LL.c ****     #endif /* (CapSense_1_ENABLE == CapSense_1_MULTI_FREQ_SCAN_EN) */
1203:Generated_Source\PSoC6/CapSense_1_SensingCSD_LL.c **** 
1204:Generated_Source\PSoC6/CapSense_1_SensingCSD_LL.c ****     #if (CapSense_1_ENABLE != CapSense_1_BLOCK_OFF_AFTER_SCAN_EN)
1205:Generated_Source\PSoC6/CapSense_1_SensingCSD_LL.c ****         #if(CapSense_1_CSD_ANALOG_STARTUP_DELAY_US > 0uL)
1206:Generated_Source\PSoC6/CapSense_1_SensingCSD_LL.c ****             Cy_SysLib_DelayUs(CapSense_1_CSD_ANALOG_STARTUP_DELAY_US);
1207:Generated_Source\PSoC6/CapSense_1_SensingCSD_LL.c ****         #endif /* (CapSense_1_CSD_ANALOG_STARTUP_DELAY_US > 0uL) */
1208:Generated_Source\PSoC6/CapSense_1_SensingCSD_LL.c ****     #endif /* (CapSense_1_ENABLE != CapSense_1_BLOCK_OFF_AFTER_SCAN_EN) */
1209:Generated_Source\PSoC6/CapSense_1_SensingCSD_LL.c **** 
1210:Generated_Source\PSoC6/CapSense_1_SensingCSD_LL.c ****     CapSense_1_SsCSDStartSample();
1211:Generated_Source\PSoC6/CapSense_1_SensingCSD_LL.c **** }
1212:Generated_Source\PSoC6/CapSense_1_SensingCSD_LL.c **** 
1213:Generated_Source\PSoC6/CapSense_1_SensingCSD_LL.c **** 
1214:Generated_Source\PSoC6/CapSense_1_SensingCSD_LL.c **** /*******************************************************************************
1215:Generated_Source\PSoC6/CapSense_1_SensingCSD_LL.c **** * Function Name: CapSense_1_CSDScan
1216:Generated_Source\PSoC6/CapSense_1_SensingCSD_LL.c **** ****************************************************************************//**
1217:Generated_Source\PSoC6/CapSense_1_SensingCSD_LL.c **** *
1218:Generated_Source\PSoC6/CapSense_1_SensingCSD_LL.c **** * \brief
1219:Generated_Source\PSoC6/CapSense_1_SensingCSD_LL.c **** *  This function initiates a scan for the sensors of the widget initialized by the
1220:Generated_Source\PSoC6/CapSense_1_SensingCSD_LL.c **** *  CapSense_1_CSDSetupWidget() function.
1221:Generated_Source\PSoC6/CapSense_1_SensingCSD_LL.c **** *
ARM GAS  C:\Users\enes_\AppData\Local\Temp\ccsgh5TW.s 			page 25


1222:Generated_Source\PSoC6/CapSense_1_SensingCSD_LL.c **** * \details
1223:Generated_Source\PSoC6/CapSense_1_SensingCSD_LL.c **** *  This function performs scanning of all the sensors in the widget configured by
1224:Generated_Source\PSoC6/CapSense_1_SensingCSD_LL.c **** *  the CapSense_1_CSDSetupWidget() function. It does the following tasks:
1225:Generated_Source\PSoC6/CapSense_1_SensingCSD_LL.c **** *    1. Connects the first sensor of the widget.
1226:Generated_Source\PSoC6/CapSense_1_SensingCSD_LL.c **** *    2. Configures the IDAC value.
1227:Generated_Source\PSoC6/CapSense_1_SensingCSD_LL.c **** *    3. Initializes the interrupt callback function to initialize a scan of
1228:Generated_Source\PSoC6/CapSense_1_SensingCSD_LL.c **** *       the next sensors in a widget.
1229:Generated_Source\PSoC6/CapSense_1_SensingCSD_LL.c **** *    4. Starts scanning for the first sensor in the widget.
1230:Generated_Source\PSoC6/CapSense_1_SensingCSD_LL.c **** *
1231:Generated_Source\PSoC6/CapSense_1_SensingCSD_LL.c **** *  This function is called by the CapSense_1_Scan() API if the given
1232:Generated_Source\PSoC6/CapSense_1_SensingCSD_LL.c **** *  widget uses the CSD sensing method.
1233:Generated_Source\PSoC6/CapSense_1_SensingCSD_LL.c **** *
1234:Generated_Source\PSoC6/CapSense_1_SensingCSD_LL.c **** *  Calling this function directly from the application layer is not
1235:Generated_Source\PSoC6/CapSense_1_SensingCSD_LL.c **** *  recommended. This function is used to implement only the user's specific
1236:Generated_Source\PSoC6/CapSense_1_SensingCSD_LL.c **** *  use cases (for faster execution time or pipeline scanning for example).
1237:Generated_Source\PSoC6/CapSense_1_SensingCSD_LL.c **** *
1238:Generated_Source\PSoC6/CapSense_1_SensingCSD_LL.c **** *  This function is called when no scanning is in progress. I.e.
1239:Generated_Source\PSoC6/CapSense_1_SensingCSD_LL.c **** *  CapSense_1_IsBusy() returns a non-busy status. The widget must be
1240:Generated_Source\PSoC6/CapSense_1_SensingCSD_LL.c **** *  preconfigured by the CapSense_1_CSDSetupWidget() function if any other
1241:Generated_Source\PSoC6/CapSense_1_SensingCSD_LL.c **** *  widget was previously scanned or any other type of the scan functions was used.
1242:Generated_Source\PSoC6/CapSense_1_SensingCSD_LL.c **** *
1243:Generated_Source\PSoC6/CapSense_1_SensingCSD_LL.c **** *******************************************************************************/
1244:Generated_Source\PSoC6/CapSense_1_SensingCSD_LL.c **** void CapSense_1_CSDScan(void)
1245:Generated_Source\PSoC6/CapSense_1_SensingCSD_LL.c **** {
1246:Generated_Source\PSoC6/CapSense_1_SensingCSD_LL.c ****     CapSense_1_RAM_WD_BASE_STRUCT const *ptrWdgt = (CapSense_1_RAM_WD_BASE_STRUCT *)
1247:Generated_Source\PSoC6/CapSense_1_SensingCSD_LL.c ****                                                     CapSense_1_dsFlash.wdgtArray[CapSense_1_widgetI
1248:Generated_Source\PSoC6/CapSense_1_SensingCSD_LL.c **** 
1249:Generated_Source\PSoC6/CapSense_1_SensingCSD_LL.c ****      /*
1250:Generated_Source\PSoC6/CapSense_1_SensingCSD_LL.c ****       * Update CapSense_1_sensorIndex with the first sensor in
1251:Generated_Source\PSoC6/CapSense_1_SensingCSD_LL.c ****       * widget to use it in ISR handler to configure the next sensor
1252:Generated_Source\PSoC6/CapSense_1_SensingCSD_LL.c ****       */
1253:Generated_Source\PSoC6/CapSense_1_SensingCSD_LL.c ****     CapSense_1_sensorIndex = 0u;
1254:Generated_Source\PSoC6/CapSense_1_SensingCSD_LL.c **** 
1255:Generated_Source\PSoC6/CapSense_1_SensingCSD_LL.c ****     /* Update global pointer to CapSense_1_RAM_SNS_STRUCT to current sensor */
1256:Generated_Source\PSoC6/CapSense_1_SensingCSD_LL.c ****     CapSense_1_curRamSnsPtr = (CapSense_1_RAM_SNS_STRUCT *)
1257:Generated_Source\PSoC6/CapSense_1_SensingCSD_LL.c ****                                               CapSense_1_dsFlash.wdgtArray[CapSense_1_widgetIndex].
1258:Generated_Source\PSoC6/CapSense_1_SensingCSD_LL.c ****                                               + CapSense_1_sensorIndex;
1259:Generated_Source\PSoC6/CapSense_1_SensingCSD_LL.c **** 
1260:Generated_Source\PSoC6/CapSense_1_SensingCSD_LL.c ****     #if (CapSense_1_ENABLE == CapSense_1_MULTI_FREQ_SCAN_EN)
1261:Generated_Source\PSoC6/CapSense_1_SensingCSD_LL.c ****         /* Reset the frequency scan channel if enabled */
1262:Generated_Source\PSoC6/CapSense_1_SensingCSD_LL.c ****         CapSense_1_scanFreqIndex = CapSense_1_FREQ_CHANNEL_0;
1263:Generated_Source\PSoC6/CapSense_1_SensingCSD_LL.c ****     #endif /* (CapSense_1_ENABLE == CapSense_1_MULTI_FREQ_SCAN_EN) */
1264:Generated_Source\PSoC6/CapSense_1_SensingCSD_LL.c **** 
1265:Generated_Source\PSoC6/CapSense_1_SensingCSD_LL.c ****     /* Setup Idac Value */
1266:Generated_Source\PSoC6/CapSense_1_SensingCSD_LL.c ****    CapSense_1_SsCSDSetUpIdacs(ptrWdgt);
1267:Generated_Source\PSoC6/CapSense_1_SensingCSD_LL.c **** 
1268:Generated_Source\PSoC6/CapSense_1_SensingCSD_LL.c ****     #if (CapSense_1_ENABLE == CapSense_1_CSD_GANGED_SNS_EN)
1269:Generated_Source\PSoC6/CapSense_1_SensingCSD_LL.c ****         /* Check ganged sns flag */
1270:Generated_Source\PSoC6/CapSense_1_SensingCSD_LL.c ****         if (CapSense_1_GANGED_SNS_MASK == (CapSense_1_dsFlash.wdgtArray[CapSense_1_widgetIndex].sta
1271:Generated_Source\PSoC6/CapSense_1_SensingCSD_LL.c ****             CapSense_1_GANGED_SNS_MASK))
1272:Generated_Source\PSoC6/CapSense_1_SensingCSD_LL.c ****         {
1273:Generated_Source\PSoC6/CapSense_1_SensingCSD_LL.c ****             /* Setup ISR handler to multiple-sensor scan function with ganged sensors */
1274:Generated_Source\PSoC6/CapSense_1_SensingCSD_LL.c ****             CapSense_1_SsIsrInitialize(&CapSense_1_CSDPostMultiScanGanged);
1275:Generated_Source\PSoC6/CapSense_1_SensingCSD_LL.c ****         }
1276:Generated_Source\PSoC6/CapSense_1_SensingCSD_LL.c ****         else
1277:Generated_Source\PSoC6/CapSense_1_SensingCSD_LL.c ****         {
1278:Generated_Source\PSoC6/CapSense_1_SensingCSD_LL.c ****             /* Set up ISR handler to multiple-sensor scan function without ganged sensors */
ARM GAS  C:\Users\enes_\AppData\Local\Temp\ccsgh5TW.s 			page 26


1279:Generated_Source\PSoC6/CapSense_1_SensingCSD_LL.c ****             CapSense_1_SsIsrInitialize(&CapSense_1_CSDPostMultiScan);
1280:Generated_Source\PSoC6/CapSense_1_SensingCSD_LL.c ****         }
1281:Generated_Source\PSoC6/CapSense_1_SensingCSD_LL.c **** 
1282:Generated_Source\PSoC6/CapSense_1_SensingCSD_LL.c ****         CapSense_1_SsCSDConnectSensorExt((uint32)CapSense_1_widgetIndex, (uint32)CapSense_1_sensorI
1283:Generated_Source\PSoC6/CapSense_1_SensingCSD_LL.c ****     #else
1284:Generated_Source\PSoC6/CapSense_1_SensingCSD_LL.c ****         /* initialize ptr to sensor IO structure to appropriate address */
1285:Generated_Source\PSoC6/CapSense_1_SensingCSD_LL.c ****         CapSense_1_curSnsIOPtr = (CapSense_1_FLASH_IO_STRUCT const *)
1286:Generated_Source\PSoC6/CapSense_1_SensingCSD_LL.c ****                                         CapSense_1_dsFlash.wdgtArray[CapSense_1_widgetIndex].ptr2Sn
1287:Generated_Source\PSoC6/CapSense_1_SensingCSD_LL.c ****                                         + CapSense_1_sensorIndex;
1288:Generated_Source\PSoC6/CapSense_1_SensingCSD_LL.c **** 
1289:Generated_Source\PSoC6/CapSense_1_SensingCSD_LL.c ****         /* Enable sensor */
1290:Generated_Source\PSoC6/CapSense_1_SensingCSD_LL.c ****         CapSense_1_CSDConnectSns(CapSense_1_curSnsIOPtr);
1291:Generated_Source\PSoC6/CapSense_1_SensingCSD_LL.c **** 
1292:Generated_Source\PSoC6/CapSense_1_SensingCSD_LL.c ****         /* Set-up ISR handler to multiple-sensor scan function without ganged sensors */
1293:Generated_Source\PSoC6/CapSense_1_SensingCSD_LL.c ****         CapSense_1_SsIsrInitialize(&CapSense_1_CSDPostMultiScan);
1294:Generated_Source\PSoC6/CapSense_1_SensingCSD_LL.c ****     #endif /* (CapSense_1_ENABLE == CapSense_1_CSD_GANGED_SNS_EN) */
1295:Generated_Source\PSoC6/CapSense_1_SensingCSD_LL.c **** 
1296:Generated_Source\PSoC6/CapSense_1_SensingCSD_LL.c ****     /* Start scanning */
1297:Generated_Source\PSoC6/CapSense_1_SensingCSD_LL.c ****     CapSense_1_CSDScanExt();
1298:Generated_Source\PSoC6/CapSense_1_SensingCSD_LL.c **** }
1299:Generated_Source\PSoC6/CapSense_1_SensingCSD_LL.c **** 
1300:Generated_Source\PSoC6/CapSense_1_SensingCSD_LL.c **** 
1301:Generated_Source\PSoC6/CapSense_1_SensingCSD_LL.c **** /*******************************************************************************
1302:Generated_Source\PSoC6/CapSense_1_SensingCSD_LL.c **** * Function Name: CapSense_1_SsCSDConnectSensorExt
1303:Generated_Source\PSoC6/CapSense_1_SensingCSD_LL.c **** ****************************************************************************//**
1304:Generated_Source\PSoC6/CapSense_1_SensingCSD_LL.c **** *
1305:Generated_Source\PSoC6/CapSense_1_SensingCSD_LL.c **** * \brief
1306:Generated_Source\PSoC6/CapSense_1_SensingCSD_LL.c **** *  Connects a ganged sensor port-pin to the sensing HW block via the AMUX bus.
1307:Generated_Source\PSoC6/CapSense_1_SensingCSD_LL.c **** *
1308:Generated_Source\PSoC6/CapSense_1_SensingCSD_LL.c **** * \details
1309:Generated_Source\PSoC6/CapSense_1_SensingCSD_LL.c **** *   The function gets the IO configuration registers addresses, their shifts and
1310:Generated_Source\PSoC6/CapSense_1_SensingCSD_LL.c **** *   masks from the FLASH_IO_STRUCT object. Basing on this data, it updates the HSIOM and
1311:Generated_Source\PSoC6/CapSense_1_SensingCSD_LL.c **** *   PC registers.
1312:Generated_Source\PSoC6/CapSense_1_SensingCSD_LL.c **** *
1313:Generated_Source\PSoC6/CapSense_1_SensingCSD_LL.c **** * \param widgetId
1314:Generated_Source\PSoC6/CapSense_1_SensingCSD_LL.c **** *  Specifies ID of the widget.
1315:Generated_Source\PSoC6/CapSense_1_SensingCSD_LL.c **** *
1316:Generated_Source\PSoC6/CapSense_1_SensingCSD_LL.c **** * \param sensorId
1317:Generated_Source\PSoC6/CapSense_1_SensingCSD_LL.c **** *  Specifies ID of the sensor in the widget.
1318:Generated_Source\PSoC6/CapSense_1_SensingCSD_LL.c **** *
1319:Generated_Source\PSoC6/CapSense_1_SensingCSD_LL.c **** *******************************************************************************/
1320:Generated_Source\PSoC6/CapSense_1_SensingCSD_LL.c **** void CapSense_1_SsCSDConnectSensorExt(uint32 widgetId, uint32 sensorId)
1321:Generated_Source\PSoC6/CapSense_1_SensingCSD_LL.c **** {
1322:Generated_Source\PSoC6/CapSense_1_SensingCSD_LL.c ****     #if (CapSense_1_ENABLE == CapSense_1_CSD_GANGED_SNS_EN)
1323:Generated_Source\PSoC6/CapSense_1_SensingCSD_LL.c ****         uint32 tempVal;
1324:Generated_Source\PSoC6/CapSense_1_SensingCSD_LL.c ****     #endif /* (CapSense_1_ENABLE == CapSense_1_CSD_GANGED_SNS_EN) */
1325:Generated_Source\PSoC6/CapSense_1_SensingCSD_LL.c **** 
1326:Generated_Source\PSoC6/CapSense_1_SensingCSD_LL.c ****     /* initialize ptr to sensor IO structure to appropriate address */
1327:Generated_Source\PSoC6/CapSense_1_SensingCSD_LL.c ****     CapSense_1_curSnsIOPtr = (CapSense_1_FLASH_IO_STRUCT const *)
1328:Generated_Source\PSoC6/CapSense_1_SensingCSD_LL.c ****                                                       CapSense_1_dsFlash.wdgtArray[widgetId].ptr2Sn
1329:Generated_Source\PSoC6/CapSense_1_SensingCSD_LL.c ****                                                       + sensorId;
1330:Generated_Source\PSoC6/CapSense_1_SensingCSD_LL.c **** 
1331:Generated_Source\PSoC6/CapSense_1_SensingCSD_LL.c ****     #if (CapSense_1_ENABLE == CapSense_1_CSD_GANGED_SNS_EN)
1332:Generated_Source\PSoC6/CapSense_1_SensingCSD_LL.c ****         /* Check ganged sns flag */
1333:Generated_Source\PSoC6/CapSense_1_SensingCSD_LL.c ****         if (CapSense_1_GANGED_SNS_MASK ==
1334:Generated_Source\PSoC6/CapSense_1_SensingCSD_LL.c ****            (CapSense_1_dsFlash.wdgtArray[widgetId].staticConfig &
1335:Generated_Source\PSoC6/CapSense_1_SensingCSD_LL.c ****             CapSense_1_GANGED_SNS_MASK))
ARM GAS  C:\Users\enes_\AppData\Local\Temp\ccsgh5TW.s 			page 27


1336:Generated_Source\PSoC6/CapSense_1_SensingCSD_LL.c ****         {
1337:Generated_Source\PSoC6/CapSense_1_SensingCSD_LL.c ****             /* Get sns pointer */
1338:Generated_Source\PSoC6/CapSense_1_SensingCSD_LL.c ****             CapSense_1_curFlashSnsPtr = (CapSense_1_FLASH_SNS_STRUCT const *)
1339:Generated_Source\PSoC6/CapSense_1_SensingCSD_LL.c ****                                                CapSense_1_dsFlash.wdgtArray[widgetId].ptr2SnsFlash 
1340:Generated_Source\PSoC6/CapSense_1_SensingCSD_LL.c ****                                                sensorId;
1341:Generated_Source\PSoC6/CapSense_1_SensingCSD_LL.c **** 
1342:Generated_Source\PSoC6/CapSense_1_SensingCSD_LL.c ****             /* Get number of ganged pins */
1343:Generated_Source\PSoC6/CapSense_1_SensingCSD_LL.c ****             tempVal = CapSense_1_curFlashSnsPtr->numPins;
1344:Generated_Source\PSoC6/CapSense_1_SensingCSD_LL.c **** 
1345:Generated_Source\PSoC6/CapSense_1_SensingCSD_LL.c ****             /* Get IO pointer */
1346:Generated_Source\PSoC6/CapSense_1_SensingCSD_LL.c ****             CapSense_1_curSnsIOPtr = &CapSense_1_ioList[CapSense_1_curFlashSnsPtr->firstPinId];
1347:Generated_Source\PSoC6/CapSense_1_SensingCSD_LL.c **** 
1348:Generated_Source\PSoC6/CapSense_1_SensingCSD_LL.c ****             /* Connect all ganged sensors */
1349:Generated_Source\PSoC6/CapSense_1_SensingCSD_LL.c ****             do
1350:Generated_Source\PSoC6/CapSense_1_SensingCSD_LL.c ****             {
1351:Generated_Source\PSoC6/CapSense_1_SensingCSD_LL.c ****                 CapSense_1_CSDConnectSns(CapSense_1_curSnsIOPtr);
1352:Generated_Source\PSoC6/CapSense_1_SensingCSD_LL.c ****                 CapSense_1_curSnsIOPtr++;
1353:Generated_Source\PSoC6/CapSense_1_SensingCSD_LL.c ****                 tempVal--;
1354:Generated_Source\PSoC6/CapSense_1_SensingCSD_LL.c ****             } while (0u != tempVal);
1355:Generated_Source\PSoC6/CapSense_1_SensingCSD_LL.c ****         }
1356:Generated_Source\PSoC6/CapSense_1_SensingCSD_LL.c ****         else
1357:Generated_Source\PSoC6/CapSense_1_SensingCSD_LL.c ****         {
1358:Generated_Source\PSoC6/CapSense_1_SensingCSD_LL.c ****             /* Connect sensor */
1359:Generated_Source\PSoC6/CapSense_1_SensingCSD_LL.c ****             CapSense_1_CSDConnectSns(CapSense_1_curSnsIOPtr);
1360:Generated_Source\PSoC6/CapSense_1_SensingCSD_LL.c ****         }
1361:Generated_Source\PSoC6/CapSense_1_SensingCSD_LL.c ****     #else
1362:Generated_Source\PSoC6/CapSense_1_SensingCSD_LL.c ****         /* Connect sensor */
1363:Generated_Source\PSoC6/CapSense_1_SensingCSD_LL.c ****         CapSense_1_CSDConnectSns(CapSense_1_curSnsIOPtr);
1364:Generated_Source\PSoC6/CapSense_1_SensingCSD_LL.c ****     #endif /* (CapSense_1_ENABLE == CapSense_1_CSD_GANGED_SNS_EN) */
1365:Generated_Source\PSoC6/CapSense_1_SensingCSD_LL.c **** }
1366:Generated_Source\PSoC6/CapSense_1_SensingCSD_LL.c **** 
1367:Generated_Source\PSoC6/CapSense_1_SensingCSD_LL.c **** 
1368:Generated_Source\PSoC6/CapSense_1_SensingCSD_LL.c **** /*******************************************************************************
1369:Generated_Source\PSoC6/CapSense_1_SensingCSD_LL.c **** * Function Name: CapSense_1_SsCSDDisconnectSnsExt
1370:Generated_Source\PSoC6/CapSense_1_SensingCSD_LL.c **** ****************************************************************************//**
1371:Generated_Source\PSoC6/CapSense_1_SensingCSD_LL.c **** *
1372:Generated_Source\PSoC6/CapSense_1_SensingCSD_LL.c **** * \brief
1373:Generated_Source\PSoC6/CapSense_1_SensingCSD_LL.c **** *  Disconnects a ganged sensor port-pin from the sensing HW block and AMUX bus.
1374:Generated_Source\PSoC6/CapSense_1_SensingCSD_LL.c **** *  Sets the default state of the un-scanned sensor.
1375:Generated_Source\PSoC6/CapSense_1_SensingCSD_LL.c **** *
1376:Generated_Source\PSoC6/CapSense_1_SensingCSD_LL.c **** * \details
1377:Generated_Source\PSoC6/CapSense_1_SensingCSD_LL.c **** *   The function gets the IO configuration registers addresses, their shifts and
1378:Generated_Source\PSoC6/CapSense_1_SensingCSD_LL.c **** *   masks from the FLASH_IO_STRUCT object. Basing on this data and Inactive sensor
1379:Generated_Source\PSoC6/CapSense_1_SensingCSD_LL.c **** *   connection parameter, it updates the HSIOM, PC and DR registers.
1380:Generated_Source\PSoC6/CapSense_1_SensingCSD_LL.c **** *   The HSIOM register is updated only when the Inactive sensor connection parameter
1381:Generated_Source\PSoC6/CapSense_1_SensingCSD_LL.c **** *   is set to Shield.
1382:Generated_Source\PSoC6/CapSense_1_SensingCSD_LL.c **** *
1383:Generated_Source\PSoC6/CapSense_1_SensingCSD_LL.c **** * \param widgetId
1384:Generated_Source\PSoC6/CapSense_1_SensingCSD_LL.c **** *  Specifies ID of the widget.
1385:Generated_Source\PSoC6/CapSense_1_SensingCSD_LL.c **** *
1386:Generated_Source\PSoC6/CapSense_1_SensingCSD_LL.c **** * \param sensorId
1387:Generated_Source\PSoC6/CapSense_1_SensingCSD_LL.c **** *  Specifies ID of the sensor in the widget.
1388:Generated_Source\PSoC6/CapSense_1_SensingCSD_LL.c **** *
1389:Generated_Source\PSoC6/CapSense_1_SensingCSD_LL.c **** *******************************************************************************/
1390:Generated_Source\PSoC6/CapSense_1_SensingCSD_LL.c **** void CapSense_1_SsCSDDisconnectSnsExt(uint32 widgetId, uint32 sensorId)
1391:Generated_Source\PSoC6/CapSense_1_SensingCSD_LL.c **** {
1392:Generated_Source\PSoC6/CapSense_1_SensingCSD_LL.c ****     #if (CapSense_1_ENABLE == CapSense_1_CSD_GANGED_SNS_EN)
ARM GAS  C:\Users\enes_\AppData\Local\Temp\ccsgh5TW.s 			page 28


1393:Generated_Source\PSoC6/CapSense_1_SensingCSD_LL.c ****         uint32 tempVal;
1394:Generated_Source\PSoC6/CapSense_1_SensingCSD_LL.c ****     #endif /* (CapSense_1_ENABLE == CapSense_1_CSD_GANGED_SNS_EN) */
1395:Generated_Source\PSoC6/CapSense_1_SensingCSD_LL.c **** 
1396:Generated_Source\PSoC6/CapSense_1_SensingCSD_LL.c ****     /* initialize ptr to sensor IO structure to appropriate address */
1397:Generated_Source\PSoC6/CapSense_1_SensingCSD_LL.c ****     CapSense_1_curSnsIOPtr = (CapSense_1_FLASH_IO_STRUCT const *)
1398:Generated_Source\PSoC6/CapSense_1_SensingCSD_LL.c ****                                                       CapSense_1_dsFlash.wdgtArray[widgetId].ptr2Sn
1399:Generated_Source\PSoC6/CapSense_1_SensingCSD_LL.c ****                                                       + sensorId;
1400:Generated_Source\PSoC6/CapSense_1_SensingCSD_LL.c **** 
1401:Generated_Source\PSoC6/CapSense_1_SensingCSD_LL.c ****     #if (CapSense_1_ENABLE == CapSense_1_CSD_GANGED_SNS_EN)
1402:Generated_Source\PSoC6/CapSense_1_SensingCSD_LL.c ****         /* Check ganged sns flag */
1403:Generated_Source\PSoC6/CapSense_1_SensingCSD_LL.c ****         if ((CapSense_1_dsFlash.wdgtArray[widgetId].staticConfig &
1404:Generated_Source\PSoC6/CapSense_1_SensingCSD_LL.c ****             CapSense_1_GANGED_SNS_MASK) == CapSense_1_GANGED_SNS_MASK)
1405:Generated_Source\PSoC6/CapSense_1_SensingCSD_LL.c ****         {
1406:Generated_Source\PSoC6/CapSense_1_SensingCSD_LL.c ****             /* Get sns pointer */
1407:Generated_Source\PSoC6/CapSense_1_SensingCSD_LL.c ****             CapSense_1_curFlashSnsPtr = (CapSense_1_FLASH_SNS_STRUCT const *)
1408:Generated_Source\PSoC6/CapSense_1_SensingCSD_LL.c ****                                                CapSense_1_dsFlash.wdgtArray[widgetId].ptr2SnsFlash 
1409:Generated_Source\PSoC6/CapSense_1_SensingCSD_LL.c ****                                                sensorId;
1410:Generated_Source\PSoC6/CapSense_1_SensingCSD_LL.c **** 
1411:Generated_Source\PSoC6/CapSense_1_SensingCSD_LL.c ****             /* Get number of ganged pins */
1412:Generated_Source\PSoC6/CapSense_1_SensingCSD_LL.c ****             tempVal = CapSense_1_curFlashSnsPtr->numPins;
1413:Generated_Source\PSoC6/CapSense_1_SensingCSD_LL.c **** 
1414:Generated_Source\PSoC6/CapSense_1_SensingCSD_LL.c ****             /* Get IO pointer */
1415:Generated_Source\PSoC6/CapSense_1_SensingCSD_LL.c ****             CapSense_1_curSnsIOPtr = &CapSense_1_ioList[CapSense_1_curFlashSnsPtr->firstPinId];
1416:Generated_Source\PSoC6/CapSense_1_SensingCSD_LL.c **** 
1417:Generated_Source\PSoC6/CapSense_1_SensingCSD_LL.c ****             /* Disconnect all ganged sensors */
1418:Generated_Source\PSoC6/CapSense_1_SensingCSD_LL.c ****             do
1419:Generated_Source\PSoC6/CapSense_1_SensingCSD_LL.c ****             {
1420:Generated_Source\PSoC6/CapSense_1_SensingCSD_LL.c ****                 CapSense_1_CSDDisconnectSns(CapSense_1_curSnsIOPtr);
1421:Generated_Source\PSoC6/CapSense_1_SensingCSD_LL.c ****                 CapSense_1_curSnsIOPtr++;
1422:Generated_Source\PSoC6/CapSense_1_SensingCSD_LL.c ****                 tempVal--;
1423:Generated_Source\PSoC6/CapSense_1_SensingCSD_LL.c ****             } while (0u != tempVal);
1424:Generated_Source\PSoC6/CapSense_1_SensingCSD_LL.c ****         }
1425:Generated_Source\PSoC6/CapSense_1_SensingCSD_LL.c ****         else
1426:Generated_Source\PSoC6/CapSense_1_SensingCSD_LL.c ****         {
1427:Generated_Source\PSoC6/CapSense_1_SensingCSD_LL.c ****             /* Disconnect ganged sensor */
1428:Generated_Source\PSoC6/CapSense_1_SensingCSD_LL.c ****             CapSense_1_CSDDisconnectSns(CapSense_1_curSnsIOPtr);
1429:Generated_Source\PSoC6/CapSense_1_SensingCSD_LL.c ****         }
1430:Generated_Source\PSoC6/CapSense_1_SensingCSD_LL.c ****     #else
1431:Generated_Source\PSoC6/CapSense_1_SensingCSD_LL.c ****         /* Disconnect ganged sensor */
1432:Generated_Source\PSoC6/CapSense_1_SensingCSD_LL.c ****         CapSense_1_CSDDisconnectSns(CapSense_1_curSnsIOPtr);
1433:Generated_Source\PSoC6/CapSense_1_SensingCSD_LL.c ****     #endif /* (CapSense_1_ENABLE == CapSense_1_CSD_GANGED_SNS_EN) */
1434:Generated_Source\PSoC6/CapSense_1_SensingCSD_LL.c **** }
1435:Generated_Source\PSoC6/CapSense_1_SensingCSD_LL.c **** 
1436:Generated_Source\PSoC6/CapSense_1_SensingCSD_LL.c **** 
1437:Generated_Source\PSoC6/CapSense_1_SensingCSD_LL.c **** /*******************************************************************************
1438:Generated_Source\PSoC6/CapSense_1_SensingCSD_LL.c **** * Function Name: CapSense_1_CSDConnectSns
1439:Generated_Source\PSoC6/CapSense_1_SensingCSD_LL.c **** ****************************************************************************//**
1440:Generated_Source\PSoC6/CapSense_1_SensingCSD_LL.c **** *
1441:Generated_Source\PSoC6/CapSense_1_SensingCSD_LL.c **** * \brief
1442:Generated_Source\PSoC6/CapSense_1_SensingCSD_LL.c **** *  Connects a port pin used by the sensor to the AMUX bus of the sensing HW block.
1443:Generated_Source\PSoC6/CapSense_1_SensingCSD_LL.c **** *
1444:Generated_Source\PSoC6/CapSense_1_SensingCSD_LL.c **** * \details
1445:Generated_Source\PSoC6/CapSense_1_SensingCSD_LL.c **** *  Connects a port pin used by the sensor to the AMUX bus of the sensing HW block
1446:Generated_Source\PSoC6/CapSense_1_SensingCSD_LL.c **** *  while a sensor is being scanned. The function ignores the fact if
1447:Generated_Source\PSoC6/CapSense_1_SensingCSD_LL.c **** *  the sensor is a ganged sensor and connects only a specified pin.
1448:Generated_Source\PSoC6/CapSense_1_SensingCSD_LL.c **** *
1449:Generated_Source\PSoC6/CapSense_1_SensingCSD_LL.c **** *  Scanning should be completed before calling this API.
ARM GAS  C:\Users\enes_\AppData\Local\Temp\ccsgh5TW.s 			page 29


1450:Generated_Source\PSoC6/CapSense_1_SensingCSD_LL.c **** *
1451:Generated_Source\PSoC6/CapSense_1_SensingCSD_LL.c **** *  Calling this function directly from the application layer is not
1452:Generated_Source\PSoC6/CapSense_1_SensingCSD_LL.c **** *  recommended. This function is used to implement only the user's specific
1453:Generated_Source\PSoC6/CapSense_1_SensingCSD_LL.c **** *  use cases. Functions that perform a setup and scan of a sensor/widget,
1454:Generated_Source\PSoC6/CapSense_1_SensingCSD_LL.c **** *  automatically set the required pin states and perform the sensor connection.
1455:Generated_Source\PSoC6/CapSense_1_SensingCSD_LL.c **** *  They do not take into account changes in the design made by the
1456:Generated_Source\PSoC6/CapSense_1_SensingCSD_LL.c **** *  CapSense_1_CSDConnectSns() function.
1457:Generated_Source\PSoC6/CapSense_1_SensingCSD_LL.c **** *
1458:Generated_Source\PSoC6/CapSense_1_SensingCSD_LL.c **** * \param  snsAddrPtr
1459:Generated_Source\PSoC6/CapSense_1_SensingCSD_LL.c **** *  Specifies the pointer to the FLASH_IO_STRUCT object belonging to a sensor
1460:Generated_Source\PSoC6/CapSense_1_SensingCSD_LL.c **** *  which to be connected to the sensing HW block.
1461:Generated_Source\PSoC6/CapSense_1_SensingCSD_LL.c **** *
1462:Generated_Source\PSoC6/CapSense_1_SensingCSD_LL.c **** *******************************************************************************/
1463:Generated_Source\PSoC6/CapSense_1_SensingCSD_LL.c **** void CapSense_1_CSDConnectSns(CapSense_1_FLASH_IO_STRUCT const *snsAddrPtr)
1464:Generated_Source\PSoC6/CapSense_1_SensingCSD_LL.c **** {
1465:Generated_Source\PSoC6/CapSense_1_SensingCSD_LL.c ****     uint32  interruptState;
1466:Generated_Source\PSoC6/CapSense_1_SensingCSD_LL.c **** 
1467:Generated_Source\PSoC6/CapSense_1_SensingCSD_LL.c ****     interruptState = Cy_SysLib_EnterCriticalSection();
1468:Generated_Source\PSoC6/CapSense_1_SensingCSD_LL.c ****     Cy_GPIO_SetDrivemode((GPIO_PRT_Type*)snsAddrPtr->pcPtr, (uint32)snsAddrPtr->pinNumber, CY_GPIO_
1469:Generated_Source\PSoC6/CapSense_1_SensingCSD_LL.c ****     Cy_GPIO_SetHSIOM((GPIO_PRT_Type*)snsAddrPtr->pcPtr, (uint32)snsAddrPtr->pinNumber, (en_hsiom_se
1470:Generated_Source\PSoC6/CapSense_1_SensingCSD_LL.c ****     Cy_SysLib_ExitCriticalSection(interruptState);
1471:Generated_Source\PSoC6/CapSense_1_SensingCSD_LL.c **** }
1472:Generated_Source\PSoC6/CapSense_1_SensingCSD_LL.c **** 
1473:Generated_Source\PSoC6/CapSense_1_SensingCSD_LL.c **** 
1474:Generated_Source\PSoC6/CapSense_1_SensingCSD_LL.c **** /*******************************************************************************
1475:Generated_Source\PSoC6/CapSense_1_SensingCSD_LL.c **** * Function Name: CapSense_1_CSDDisconnectSns
1476:Generated_Source\PSoC6/CapSense_1_SensingCSD_LL.c **** ****************************************************************************//**
1477:Generated_Source\PSoC6/CapSense_1_SensingCSD_LL.c **** *
1478:Generated_Source\PSoC6/CapSense_1_SensingCSD_LL.c **** * \brief
1479:Generated_Source\PSoC6/CapSense_1_SensingCSD_LL.c **** *  Disconnects a sensor port pin from the sensing HW block and the AMUX bus. Sets
1480:Generated_Source\PSoC6/CapSense_1_SensingCSD_LL.c **** *  the default state of the un-scanned sensor.
1481:Generated_Source\PSoC6/CapSense_1_SensingCSD_LL.c **** *
1482:Generated_Source\PSoC6/CapSense_1_SensingCSD_LL.c **** * \details
1483:Generated_Source\PSoC6/CapSense_1_SensingCSD_LL.c **** *  This function works identically to CapSense_1_CSDConnectSns() except
1484:Generated_Source\PSoC6/CapSense_1_SensingCSD_LL.c **** *  it disconnects the specified port-pin used by the sensor.
1485:Generated_Source\PSoC6/CapSense_1_SensingCSD_LL.c **** *
1486:Generated_Source\PSoC6/CapSense_1_SensingCSD_LL.c **** *  Calling this function directly from the application layer is not
1487:Generated_Source\PSoC6/CapSense_1_SensingCSD_LL.c **** *  recommended. This function is used to implement only the user's specific
1488:Generated_Source\PSoC6/CapSense_1_SensingCSD_LL.c **** *  use cases. Functions that perform a setup and scan of sensor/widget
1489:Generated_Source\PSoC6/CapSense_1_SensingCSD_LL.c **** *  automatically set the required pin states and perform the sensor connection.
1490:Generated_Source\PSoC6/CapSense_1_SensingCSD_LL.c **** *  They ignore changes in the design made by the
1491:Generated_Source\PSoC6/CapSense_1_SensingCSD_LL.c **** *  CapSense_1_CSDDisconnectSns() function.
1492:Generated_Source\PSoC6/CapSense_1_SensingCSD_LL.c **** *
1493:Generated_Source\PSoC6/CapSense_1_SensingCSD_LL.c **** * \param  snsAddrPtr
1494:Generated_Source\PSoC6/CapSense_1_SensingCSD_LL.c **** *  Specifies the pointer to the FLASH_IO_STRUCT object belonging to a sensor
1495:Generated_Source\PSoC6/CapSense_1_SensingCSD_LL.c **** *  which should be disconnected from the sensing HW block.
1496:Generated_Source\PSoC6/CapSense_1_SensingCSD_LL.c **** *
1497:Generated_Source\PSoC6/CapSense_1_SensingCSD_LL.c **** *******************************************************************************/
1498:Generated_Source\PSoC6/CapSense_1_SensingCSD_LL.c **** void CapSense_1_CSDDisconnectSns(CapSense_1_FLASH_IO_STRUCT const *snsAddrPtr)
1499:Generated_Source\PSoC6/CapSense_1_SensingCSD_LL.c **** {
1500:Generated_Source\PSoC6/CapSense_1_SensingCSD_LL.c ****     uint32  interruptState;
1501:Generated_Source\PSoC6/CapSense_1_SensingCSD_LL.c **** 
1502:Generated_Source\PSoC6/CapSense_1_SensingCSD_LL.c ****     #if ((CapSense_1_DISABLE == CapSense_1_CSD_SHIELD_EN) ||  \
1503:Generated_Source\PSoC6/CapSense_1_SensingCSD_LL.c ****         (CapSense_1_SNS_CONNECTION_SHIELD != CapSense_1_CSD_INACTIVE_SNS_CONNECTION))
1504:Generated_Source\PSoC6/CapSense_1_SensingCSD_LL.c ****         interruptState = Cy_SysLib_EnterCriticalSection();
1505:Generated_Source\PSoC6/CapSense_1_SensingCSD_LL.c ****         Cy_GPIO_SetHSIOM((GPIO_PRT_Type*)snsAddrPtr->pcPtr, (uint32)snsAddrPtr->pinNumber, (en_hsio
1506:Generated_Source\PSoC6/CapSense_1_SensingCSD_LL.c ****         Cy_GPIO_SetDrivemode((GPIO_PRT_Type*)snsAddrPtr->pcPtr, (uint32)snsAddrPtr->pinNumber, CapS
ARM GAS  C:\Users\enes_\AppData\Local\Temp\ccsgh5TW.s 			page 30


1507:Generated_Source\PSoC6/CapSense_1_SensingCSD_LL.c ****         Cy_GPIO_Clr((GPIO_PRT_Type*)snsAddrPtr->pcPtr, (uint32)snsAddrPtr->pinNumber);
1508:Generated_Source\PSoC6/CapSense_1_SensingCSD_LL.c ****         Cy_SysLib_ExitCriticalSection(interruptState);
1509:Generated_Source\PSoC6/CapSense_1_SensingCSD_LL.c ****     #else
1510:Generated_Source\PSoC6/CapSense_1_SensingCSD_LL.c ****         interruptState = Cy_SysLib_EnterCriticalSection();
1511:Generated_Source\PSoC6/CapSense_1_SensingCSD_LL.c ****         Cy_GPIO_SetDrivemode((GPIO_PRT_Type*)snsAddrPtr->pcPtr, (uint32)snsAddrPtr->pinNumber, CapS
1512:Generated_Source\PSoC6/CapSense_1_SensingCSD_LL.c ****         Cy_GPIO_SetHSIOM((GPIO_PRT_Type*)snsAddrPtr->pcPtr, (uint32)snsAddrPtr->pinNumber, CapSense
1513:Generated_Source\PSoC6/CapSense_1_SensingCSD_LL.c ****         Cy_GPIO_Clr((GPIO_PRT_Type*)snsAddrPtr->pcPtr, (uint32)snsAddrPtr->pinNumber);
1514:Generated_Source\PSoC6/CapSense_1_SensingCSD_LL.c ****         Cy_SysLib_ExitCriticalSection(interruptState);
1515:Generated_Source\PSoC6/CapSense_1_SensingCSD_LL.c ****     #endif /* ((CapSense_1_DISABLE == CapSense_1_CSD_SHIELD_EN) && \
1516:Generated_Source\PSoC6/CapSense_1_SensingCSD_LL.c ****                 (CapSense_1_SNS_CONNECTION_SHIELD != CapSense_1_CSD_INACTIVE_SNS_CONNECTION)) */
1517:Generated_Source\PSoC6/CapSense_1_SensingCSD_LL.c **** }
1518:Generated_Source\PSoC6/CapSense_1_SensingCSD_LL.c **** 
1519:Generated_Source\PSoC6/CapSense_1_SensingCSD_LL.c **** #if ((CapSense_1_CSD_SS_DIS != CapSense_1_CSD_AUTOTUNE) || \
1520:Generated_Source\PSoC6/CapSense_1_SensingCSD_LL.c ****      (CapSense_1_ENABLE == CapSense_1_CSD_IDAC_AUTOCAL_EN))
1521:Generated_Source\PSoC6/CapSense_1_SensingCSD_LL.c ****     #if (CapSense_1_ENABLE == CapSense_1_CSD_IDAC_COMP_EN)
1522:Generated_Source\PSoC6/CapSense_1_SensingCSD_LL.c ****         /*******************************************************************************
1523:Generated_Source\PSoC6/CapSense_1_SensingCSD_LL.c ****         * Function Name: CapSense_1_SsCSDSetSingleIdacMode
1524:Generated_Source\PSoC6/CapSense_1_SensingCSD_LL.c ****         ****************************************************************************//**
1525:Generated_Source\PSoC6/CapSense_1_SensingCSD_LL.c ****         *
1526:Generated_Source\PSoC6/CapSense_1_SensingCSD_LL.c ****         * \brief
1527:Generated_Source\PSoC6/CapSense_1_SensingCSD_LL.c ****         *  This function set single IDAC mode.
1528:Generated_Source\PSoC6/CapSense_1_SensingCSD_LL.c ****         *
1529:Generated_Source\PSoC6/CapSense_1_SensingCSD_LL.c ****         * \details
1530:Generated_Source\PSoC6/CapSense_1_SensingCSD_LL.c ****         *  The function enables IDACA LEG1 in CSD mode, IDACA LEG2 in GP mode.
1531:Generated_Source\PSoC6/CapSense_1_SensingCSD_LL.c ****         *
1532:Generated_Source\PSoC6/CapSense_1_SensingCSD_LL.c ****         *******************************************************************************/
1533:Generated_Source\PSoC6/CapSense_1_SensingCSD_LL.c ****         static void CapSense_1_SsCSDSetSingleIdacMode(void)
1534:Generated_Source\PSoC6/CapSense_1_SensingCSD_LL.c ****         {
 148              		.loc 1 1534 0
 149              		.cfi_startproc
 150              		@ args = 0, pretend = 0, frame = 0
 151              		@ frame_needed = 0, uses_anonymous_args = 0
 152              		@ link register save eliminated.
1535:Generated_Source\PSoC6/CapSense_1_SensingCSD_LL.c ****             uint32 newRegValue;
1536:Generated_Source\PSoC6/CapSense_1_SensingCSD_LL.c **** 
1537:Generated_Source\PSoC6/CapSense_1_SensingCSD_LL.c ****             /* Enable IDACA LEG1 in CSD mode, IDACA LEG2 in GP mode */
1538:Generated_Source\PSoC6/CapSense_1_SensingCSD_LL.c ****             newRegValue = CY_GET_REG32(CapSense_1_CSD_IDACA_PTR) &
 153              		.loc 1 1538 0
 154 0000 084A     		ldr	r2, .L14
 155 0002 1368     		ldr	r3, [r2]
 156 0004 03F07F03 		and	r3, r3, #127
 157              	.LVL9:
1539:Generated_Source\PSoC6/CapSense_1_SensingCSD_LL.c ****                           CapSense_1_CSD_IDACA_VAL_MSK;
1540:Generated_Source\PSoC6/CapSense_1_SensingCSD_LL.c ****             newRegValue |= CapSense_1_IDAC_MOD_CALIBRATION_CFG;
 158              		.loc 1 1540 0
 159 0008 43F0C173 		orr	r3, r3, #25296896
 160              	.LVL10:
 161 000c 43F48033 		orr	r3, r3, #65536
 162              	.LVL11:
1541:Generated_Source\PSoC6/CapSense_1_SensingCSD_LL.c ****             CY_SET_REG32(CapSense_1_CSD_IDACA_PTR, newRegValue);
 163              		.loc 1 1541 0
 164 0010 1360     		str	r3, [r2]
1542:Generated_Source\PSoC6/CapSense_1_SensingCSD_LL.c ****             #if (CapSense_1_ENABLE == CapSense_1_CSD_IDAC_COMP_EN) && \
1543:Generated_Source\PSoC6/CapSense_1_SensingCSD_LL.c ****                 (CapSense_1_ENABLE == CapSense_1_CSD_DEDICATED_IDAC_COMP_EN)
1544:Generated_Source\PSoC6/CapSense_1_SensingCSD_LL.c ****                 newRegValue = CY_GET_REG32(CapSense_1_CSD_IDACB_PTR) & CapSense_1_CSD_IDACB_VAL_MSK
 165              		.loc 1 1544 0
 166 0012 02F58072 		add	r2, r2, #256
ARM GAS  C:\Users\enes_\AppData\Local\Temp\ccsgh5TW.s 			page 31


 167 0016 1368     		ldr	r3, [r2]
 168              	.LVL12:
 169 0018 03F07F03 		and	r3, r3, #127
 170              	.LVL13:
1545:Generated_Source\PSoC6/CapSense_1_SensingCSD_LL.c ****                 newRegValue |= CapSense_1_IDAC_COMP_CALIBRATION_CFG;
 171              		.loc 1 1545 0
 172 001c 43F40003 		orr	r3, r3, #8388608
 173              	.LVL14:
1546:Generated_Source\PSoC6/CapSense_1_SensingCSD_LL.c ****                 CY_SET_REG32(CapSense_1_CSD_IDACB_PTR, newRegValue);
 174              		.loc 1 1546 0
 175 0020 1360     		str	r3, [r2]
 176 0022 7047     		bx	lr
 177              	.L15:
 178              		.align	2
 179              	.L14:
 180 0024 00043640 		.word	1077281792
 181              		.cfi_endproc
 182              	.LFE291:
 183              		.size	CapSense_1_SsCSDSetSingleIdacMode, .-CapSense_1_SsCSDSetSingleIdacMode
 184              		.section	.text.CapSense_1_SsCSDRestoreIdacMode,"ax",%progbits
 185              		.align	2
 186              		.thumb
 187              		.thumb_func
 188              		.type	CapSense_1_SsCSDRestoreIdacMode, %function
 189              	CapSense_1_SsCSDRestoreIdacMode:
 190              	.LFB292:
1547:Generated_Source\PSoC6/CapSense_1_SensingCSD_LL.c ****             #endif /* (CapSense_1_ENABLE == CapSense_1_CSD_IDAC_COMP_EN) && \
1548:Generated_Source\PSoC6/CapSense_1_SensingCSD_LL.c ****                       (CapSense_1_ENABLE == CapSense_1_CSD_DEDICATED_IDAC_COMP_EN */
1549:Generated_Source\PSoC6/CapSense_1_SensingCSD_LL.c ****         }
1550:Generated_Source\PSoC6/CapSense_1_SensingCSD_LL.c ****     #endif /* (CapSense_1_ENABLE == CapSense_1_CSD_IDAC_COMP_EN) */
1551:Generated_Source\PSoC6/CapSense_1_SensingCSD_LL.c **** #endif /* ((CapSense_1_CSD_SS_DIS != CapSense_1_CSD_AUTOTUNE) || \
1552:Generated_Source\PSoC6/CapSense_1_SensingCSD_LL.c ****            (CapSense_1_ENABLE == CapSense_1_CSD_IDAC_AUTOCAL_EN)) */
1553:Generated_Source\PSoC6/CapSense_1_SensingCSD_LL.c **** 
1554:Generated_Source\PSoC6/CapSense_1_SensingCSD_LL.c **** #if ((CapSense_1_CSD_SS_DIS != CapSense_1_CSD_AUTOTUNE) || \
1555:Generated_Source\PSoC6/CapSense_1_SensingCSD_LL.c ****      (CapSense_1_ENABLE == CapSense_1_CSD_IDAC_AUTOCAL_EN))
1556:Generated_Source\PSoC6/CapSense_1_SensingCSD_LL.c ****     #if (CapSense_1_ENABLE == CapSense_1_CSD_IDAC_COMP_EN)
1557:Generated_Source\PSoC6/CapSense_1_SensingCSD_LL.c ****         /*******************************************************************************
1558:Generated_Source\PSoC6/CapSense_1_SensingCSD_LL.c ****         * Function Name: CapSense_1_SsCSDRestoreIdacMode
1559:Generated_Source\PSoC6/CapSense_1_SensingCSD_LL.c ****         ****************************************************************************//**
1560:Generated_Source\PSoC6/CapSense_1_SensingCSD_LL.c ****         *
1561:Generated_Source\PSoC6/CapSense_1_SensingCSD_LL.c ****         * \brief
1562:Generated_Source\PSoC6/CapSense_1_SensingCSD_LL.c ****         *  This function restores IDAC configuration.
1563:Generated_Source\PSoC6/CapSense_1_SensingCSD_LL.c ****         *
1564:Generated_Source\PSoC6/CapSense_1_SensingCSD_LL.c ****         * \details
1565:Generated_Source\PSoC6/CapSense_1_SensingCSD_LL.c ****         *   The function restores Compensation IDAC if it is enabled.
1566:Generated_Source\PSoC6/CapSense_1_SensingCSD_LL.c ****         *
1567:Generated_Source\PSoC6/CapSense_1_SensingCSD_LL.c ****         *******************************************************************************/
1568:Generated_Source\PSoC6/CapSense_1_SensingCSD_LL.c ****         static void CapSense_1_SsCSDRestoreIdacMode(void)
1569:Generated_Source\PSoC6/CapSense_1_SensingCSD_LL.c ****         {
 191              		.loc 1 1569 0
 192              		.cfi_startproc
 193              		@ args = 0, pretend = 0, frame = 0
 194              		@ frame_needed = 0, uses_anonymous_args = 0
 195              		@ link register save eliminated.
1570:Generated_Source\PSoC6/CapSense_1_SensingCSD_LL.c ****             /* Restore IDAC configuration */
1571:Generated_Source\PSoC6/CapSense_1_SensingCSD_LL.c ****             uint32 newRegValue;
1572:Generated_Source\PSoC6/CapSense_1_SensingCSD_LL.c **** 
ARM GAS  C:\Users\enes_\AppData\Local\Temp\ccsgh5TW.s 			page 32


1573:Generated_Source\PSoC6/CapSense_1_SensingCSD_LL.c ****             newRegValue = CY_GET_REG32(CapSense_1_CSD_SW_REFGEN_SEL_PTR);
 196              		.loc 1 1573 0
 197 0000 074A     		ldr	r2, .L17
 198 0002 1368     		ldr	r3, [r2]
 199              	.LVL15:
1574:Generated_Source\PSoC6/CapSense_1_SensingCSD_LL.c ****             newRegValue |= CapSense_1_DEFAULT_SW_REFGEN_SEL;
 200              		.loc 1 1574 0
 201 0004 43F08053 		orr	r3, r3, #268435456
 202              	.LVL16:
 203 0008 43F00103 		orr	r3, r3, #1
 204              	.LVL17:
1575:Generated_Source\PSoC6/CapSense_1_SensingCSD_LL.c ****             CY_SET_REG32(CapSense_1_CSD_SW_REFGEN_SEL_PTR, newRegValue);
 205              		.loc 1 1575 0
 206 000c 1360     		str	r3, [r2]
1576:Generated_Source\PSoC6/CapSense_1_SensingCSD_LL.c ****             CY_SET_REG32(CapSense_1_CSD_IDACA_PTR, CapSense_1_IDAC_MOD_DEFAULT_CFG);
 207              		.loc 1 1576 0
 208 000e 054A     		ldr	r2, .L17+4
 209 0010 054B     		ldr	r3, .L17+8
 210              	.LVL18:
 211 0012 1A60     		str	r2, [r3]
 212              	.LVL19:
1577:Generated_Source\PSoC6/CapSense_1_SensingCSD_LL.c ****             #if (CapSense_1_ENABLE == CapSense_1_CSD_IDAC_COMP_EN) && \
1578:Generated_Source\PSoC6/CapSense_1_SensingCSD_LL.c ****                 (CapSense_1_ENABLE == CapSense_1_CSD_DEDICATED_IDAC_COMP_EN)
1579:Generated_Source\PSoC6/CapSense_1_SensingCSD_LL.c ****                 CY_SET_REG32(CapSense_1_CSD_IDACB_PTR, CapSense_1_IDAC_COMP_DEFAULT_CFG);
 213              		.loc 1 1579 0
 214 0014 4FF0C172 		mov	r2, #25296896
 215 0018 03F58073 		add	r3, r3, #256
 216 001c 1A60     		str	r2, [r3]
 217 001e 7047     		bx	lr
 218              	.L18:
 219              		.align	2
 220              	.L17:
 221 0020 A8023640 		.word	1077281448
 222 0024 00008301 		.word	25362432
 223 0028 00043640 		.word	1077281792
 224              		.cfi_endproc
 225              	.LFE292:
 226              		.size	CapSense_1_SsCSDRestoreIdacMode, .-CapSense_1_SsCSDRestoreIdacMode
 227              		.section	.text.CapSense_1_SsCSDCalibrateCheck,"ax",%progbits
 228              		.align	2
 229              		.thumb
 230              		.thumb_func
 231              		.type	CapSense_1_SsCSDCalibrateCheck, %function
 232              	CapSense_1_SsCSDCalibrateCheck:
 233              	.LFB293:
1580:Generated_Source\PSoC6/CapSense_1_SensingCSD_LL.c ****             #endif /* (CapSense_1_ENABLE == CapSense_1_CSD_IDAC_COMP_EN) && \
1581:Generated_Source\PSoC6/CapSense_1_SensingCSD_LL.c ****                       (CapSense_1_ENABLE == CapSense_1_CSD_DEDICATED_IDAC_COMP_EN */
1582:Generated_Source\PSoC6/CapSense_1_SensingCSD_LL.c ****         }
1583:Generated_Source\PSoC6/CapSense_1_SensingCSD_LL.c ****     #endif /* (CapSense_1_ENABLE == CapSense_1_CSD_IDAC_COMP_EN) */
1584:Generated_Source\PSoC6/CapSense_1_SensingCSD_LL.c **** 
1585:Generated_Source\PSoC6/CapSense_1_SensingCSD_LL.c ****     /*******************************************************************************
1586:Generated_Source\PSoC6/CapSense_1_SensingCSD_LL.c ****     * Function Name: CapSense_1_SsCSDCalibrateCheck
1587:Generated_Source\PSoC6/CapSense_1_SensingCSD_LL.c ****     ****************************************************************************//**
1588:Generated_Source\PSoC6/CapSense_1_SensingCSD_LL.c ****     *
1589:Generated_Source\PSoC6/CapSense_1_SensingCSD_LL.c ****     * \brief
1590:Generated_Source\PSoC6/CapSense_1_SensingCSD_LL.c ****     *  This internal function checks if the calibration is performed successfully.
1591:Generated_Source\PSoC6/CapSense_1_SensingCSD_LL.c ****     *
ARM GAS  C:\Users\enes_\AppData\Local\Temp\ccsgh5TW.s 			page 33


1592:Generated_Source\PSoC6/CapSense_1_SensingCSD_LL.c ****     * \details
1593:Generated_Source\PSoC6/CapSense_1_SensingCSD_LL.c ****     *   The function verifies calibration error based on maximum raw count level.
1594:Generated_Source\PSoC6/CapSense_1_SensingCSD_LL.c ****     *
1595:Generated_Source\PSoC6/CapSense_1_SensingCSD_LL.c ****     * \param rawLevel The raw data level which should be reached during the
1596:Generated_Source\PSoC6/CapSense_1_SensingCSD_LL.c ****     *   calibration procedure.
1597:Generated_Source\PSoC6/CapSense_1_SensingCSD_LL.c ****     * \param rawData  Calibrated raw counts.
1598:Generated_Source\PSoC6/CapSense_1_SensingCSD_LL.c ****     *
1599:Generated_Source\PSoC6/CapSense_1_SensingCSD_LL.c ****     * \return Returns the status of the operation:
1600:Generated_Source\PSoC6/CapSense_1_SensingCSD_LL.c ****     *   - Zero     - All the sensors in the widget are calibrated successfully.
1601:Generated_Source\PSoC6/CapSense_1_SensingCSD_LL.c ****     *   - Non-Zero - Calibration failed for any sensor in the widget.
1602:Generated_Source\PSoC6/CapSense_1_SensingCSD_LL.c ****     *
1603:Generated_Source\PSoC6/CapSense_1_SensingCSD_LL.c ****     *******************************************************************************/
1604:Generated_Source\PSoC6/CapSense_1_SensingCSD_LL.c ****     static cy_status CapSense_1_SsCSDCalibrateCheck(CapSense_1_RAM_WD_BASE_STRUCT const *ptrWdgt, u
1605:Generated_Source\PSoC6/CapSense_1_SensingCSD_LL.c ****     {
 234              		.loc 1 1605 0
 235              		.cfi_startproc
 236              		@ args = 0, pretend = 0, frame = 0
 237              		@ frame_needed = 0, uses_anonymous_args = 0
 238              		@ link register save eliminated.
 239              	.LVL20:
 240 0000 10B4     		push	{r4}
 241              		.cfi_def_cfa_offset 4
 242              		.cfi_offset 4, -4
 243              	.LVL21:
1606:Generated_Source\PSoC6/CapSense_1_SensingCSD_LL.c ****         cy_status calibrateStatus;
1607:Generated_Source\PSoC6/CapSense_1_SensingCSD_LL.c ****         uint32 rawCountsError;
1608:Generated_Source\PSoC6/CapSense_1_SensingCSD_LL.c ****         uint32 minRawLevel = 0u;
1609:Generated_Source\PSoC6/CapSense_1_SensingCSD_LL.c ****         uint32 maxRawLevel = (0x00000001Lu << ptrWdgt->resolution) - 1u;
 244              		.loc 1 1609 0
 245 0002 0488     		ldrh	r4, [r0]
 246 0004 0120     		movs	r0, #1
 247              	.LVL22:
 248 0006 00FA04F4 		lsl	r4, r0, r4
 249 000a 013C     		subs	r4, r4, #1
 250              	.LVL23:
1610:Generated_Source\PSoC6/CapSense_1_SensingCSD_LL.c **** 
1611:Generated_Source\PSoC6/CapSense_1_SensingCSD_LL.c ****         /* Calculate the error in rawcounts for given resolution (round to floor) */
1612:Generated_Source\PSoC6/CapSense_1_SensingCSD_LL.c ****         rawCountsError = ((maxRawLevel * CapSense_1_IDAC_MOD_MAX_CALIB_ERROR) /
 251              		.loc 1 1612 0
 252 000c 04EB8403 		add	r3, r4, r4, lsl #2
 253 0010 03FA00F0 		lsl	r0, r3, r0
 254 0014 0C4B     		ldr	r3, .L27
 255 0016 A3FB0003 		umull	r0, r3, r3, r0
 256 001a 5B09     		lsrs	r3, r3, #5
 257 001c 0133     		adds	r3, r3, #1
 258              	.LVL24:
1613:Generated_Source\PSoC6/CapSense_1_SensingCSD_LL.c ****                           CapSense_1_PERCENTAGE_100) + 1u;
1614:Generated_Source\PSoC6/CapSense_1_SensingCSD_LL.c **** 
1615:Generated_Source\PSoC6/CapSense_1_SensingCSD_LL.c ****         /* Get minimum and maximum range values */
1616:Generated_Source\PSoC6/CapSense_1_SensingCSD_LL.c ****         if ((rawLevel + rawCountsError) <= maxRawLevel)
 259              		.loc 1 1616 0
 260 001e 5818     		adds	r0, r3, r1
 261 0020 8442     		cmp	r4, r0
 262 0022 00D2     		bcs	.L20
1609:Generated_Source\PSoC6/CapSense_1_SensingCSD_LL.c **** 
 263              		.loc 1 1609 0
 264 0024 2046     		mov	r0, r4
ARM GAS  C:\Users\enes_\AppData\Local\Temp\ccsgh5TW.s 			page 34


 265              	.L20:
 266              	.LVL25:
1617:Generated_Source\PSoC6/CapSense_1_SensingCSD_LL.c ****         {
1618:Generated_Source\PSoC6/CapSense_1_SensingCSD_LL.c ****             maxRawLevel = rawLevel + rawCountsError;
1619:Generated_Source\PSoC6/CapSense_1_SensingCSD_LL.c ****         }
1620:Generated_Source\PSoC6/CapSense_1_SensingCSD_LL.c ****         if (rawLevel >= rawCountsError)
 267              		.loc 1 1620 0
 268 0026 8B42     		cmp	r3, r1
 269 0028 01D8     		bhi	.L23
1621:Generated_Source\PSoC6/CapSense_1_SensingCSD_LL.c ****         {
1622:Generated_Source\PSoC6/CapSense_1_SensingCSD_LL.c ****             minRawLevel = rawLevel - rawCountsError;
 270              		.loc 1 1622 0
 271 002a C91A     		subs	r1, r1, r3
 272              	.LVL26:
 273 002c 00E0     		b	.L21
 274              	.LVL27:
 275              	.L23:
1608:Generated_Source\PSoC6/CapSense_1_SensingCSD_LL.c ****         uint32 maxRawLevel = (0x00000001Lu << ptrWdgt->resolution) - 1u;
 276              		.loc 1 1608 0
 277 002e 0021     		movs	r1, #0
 278              	.LVL28:
 279              	.L21:
1623:Generated_Source\PSoC6/CapSense_1_SensingCSD_LL.c ****         }
1624:Generated_Source\PSoC6/CapSense_1_SensingCSD_LL.c **** 
1625:Generated_Source\PSoC6/CapSense_1_SensingCSD_LL.c ****         /* Check if calibration is in valid range */
1626:Generated_Source\PSoC6/CapSense_1_SensingCSD_LL.c ****         if ((rawData < minRawLevel) || (rawData > maxRawLevel))
 280              		.loc 1 1626 0
 281 0030 9142     		cmp	r1, r2
 282 0032 03D8     		bhi	.L24
 283              		.loc 1 1626 0 is_stmt 0 discriminator 1
 284 0034 9042     		cmp	r0, r2
 285 0036 03D2     		bcs	.L25
1627:Generated_Source\PSoC6/CapSense_1_SensingCSD_LL.c ****         {
1628:Generated_Source\PSoC6/CapSense_1_SensingCSD_LL.c ****             calibrateStatus = CY_RET_BAD_DATA;
 286              		.loc 1 1628 0 is_stmt 1
 287 0038 0620     		movs	r0, #6
 288              	.LVL29:
 289 003a 02E0     		b	.L22
 290              	.LVL30:
 291              	.L24:
 292 003c 0620     		movs	r0, #6
 293              	.LVL31:
 294 003e 00E0     		b	.L22
 295              	.LVL32:
 296              	.L25:
1629:Generated_Source\PSoC6/CapSense_1_SensingCSD_LL.c ****         }
1630:Generated_Source\PSoC6/CapSense_1_SensingCSD_LL.c ****         else
1631:Generated_Source\PSoC6/CapSense_1_SensingCSD_LL.c ****         {
1632:Generated_Source\PSoC6/CapSense_1_SensingCSD_LL.c ****             calibrateStatus = CY_RET_SUCCESS;
 297              		.loc 1 1632 0
 298 0040 0020     		movs	r0, #0
 299              	.LVL33:
 300              	.L22:
1633:Generated_Source\PSoC6/CapSense_1_SensingCSD_LL.c ****         }
1634:Generated_Source\PSoC6/CapSense_1_SensingCSD_LL.c **** 
1635:Generated_Source\PSoC6/CapSense_1_SensingCSD_LL.c ****         return (calibrateStatus);
1636:Generated_Source\PSoC6/CapSense_1_SensingCSD_LL.c ****     }
ARM GAS  C:\Users\enes_\AppData\Local\Temp\ccsgh5TW.s 			page 35


 301              		.loc 1 1636 0
 302 0042 5DF8044B 		ldr	r4, [sp], #4
 303              		.cfi_restore 4
 304              		.cfi_def_cfa_offset 0
 305 0046 7047     		bx	lr
 306              	.L28:
 307              		.align	2
 308              	.L27:
 309 0048 1F85EB51 		.word	1374389535
 310              		.cfi_endproc
 311              	.LFE293:
 312              		.size	CapSense_1_SsCSDCalibrateCheck, .-CapSense_1_SsCSDCalibrateCheck
 313              		.section	.text.CapSense_1_SsCSDCmodPrecharge,"ax",%progbits
 314              		.align	2
 315              		.thumb
 316              		.thumb_func
 317              		.type	CapSense_1_SsCSDCmodPrecharge, %function
 318              	CapSense_1_SsCSDCmodPrecharge:
 319              	.LFB296:
1637:Generated_Source\PSoC6/CapSense_1_SensingCSD_LL.c **** 
1638:Generated_Source\PSoC6/CapSense_1_SensingCSD_LL.c **** 
1639:Generated_Source\PSoC6/CapSense_1_SensingCSD_LL.c ****     /*******************************************************************************
1640:Generated_Source\PSoC6/CapSense_1_SensingCSD_LL.c ****     * Function Name: CapSense_1_SsCSDCalibrateOneSensor
1641:Generated_Source\PSoC6/CapSense_1_SensingCSD_LL.c ****     ****************************************************************************//**
1642:Generated_Source\PSoC6/CapSense_1_SensingCSD_LL.c ****     *
1643:Generated_Source\PSoC6/CapSense_1_SensingCSD_LL.c ****     * \brief
1644:Generated_Source\PSoC6/CapSense_1_SensingCSD_LL.c ****     *  Computes the Modulator IDAC value for one sensor that provides raw signal at
1645:Generated_Source\PSoC6/CapSense_1_SensingCSD_LL.c ****     *  the specified level.
1646:Generated_Source\PSoC6/CapSense_1_SensingCSD_LL.c ****     *
1647:Generated_Source\PSoC6/CapSense_1_SensingCSD_LL.c ****     * \details
1648:Generated_Source\PSoC6/CapSense_1_SensingCSD_LL.c ****     *   The function performs the following tasks:
1649:Generated_Source\PSoC6/CapSense_1_SensingCSD_LL.c ****     *   1. initializes The Compensation IDAC to zero
1650:Generated_Source\PSoC6/CapSense_1_SensingCSD_LL.c ****     *   2. Enables the calibrated sensor
1651:Generated_Source\PSoC6/CapSense_1_SensingCSD_LL.c ****     *   3. Performs eight iteration steps to get the target = rawLevel
1652:Generated_Source\PSoC6/CapSense_1_SensingCSD_LL.c ****     *      setting and resetting the IDAC value bits beginning from the
1653:Generated_Source\PSoC6/CapSense_1_SensingCSD_LL.c ****     *      MSB bit to an MSB bit.
1654:Generated_Source\PSoC6/CapSense_1_SensingCSD_LL.c ****     *   4. Disables the calibrated sensor
1655:Generated_Source\PSoC6/CapSense_1_SensingCSD_LL.c ****     *   5. Checks if the IDAC is in the correct range
1656:Generated_Source\PSoC6/CapSense_1_SensingCSD_LL.c ****     *   6. Updates the maximum IDAC value in the widget
1657:Generated_Source\PSoC6/CapSense_1_SensingCSD_LL.c ****     *   7. Stores the temporary ModIDAC8 value (in the single-IDAC mode).
1658:Generated_Source\PSoC6/CapSense_1_SensingCSD_LL.c ****     *
1659:Generated_Source\PSoC6/CapSense_1_SensingCSD_LL.c ****     *  The CSD block should be initialized with the CapSense_1_SsCSDInitialize()
1660:Generated_Source\PSoC6/CapSense_1_SensingCSD_LL.c ****     *  API before using this function.
1661:Generated_Source\PSoC6/CapSense_1_SensingCSD_LL.c ****     *
1662:Generated_Source\PSoC6/CapSense_1_SensingCSD_LL.c ****     * \param  rawLevel
1663:Generated_Source\PSoC6/CapSense_1_SensingCSD_LL.c ****     *   The raw data level which should be reached during the calibration procedure.
1664:Generated_Source\PSoC6/CapSense_1_SensingCSD_LL.c ****     * \param  ptrIdac  The pointer to IDAC.
1665:Generated_Source\PSoC6/CapSense_1_SensingCSD_LL.c ****     * \param  iDAC8Max The pointer to the maximum IDAC value in the widget.
1666:Generated_Source\PSoC6/CapSense_1_SensingCSD_LL.c ****     *
1667:Generated_Source\PSoC6/CapSense_1_SensingCSD_LL.c ****     * \return Returns the status of the operation:
1668:Generated_Source\PSoC6/CapSense_1_SensingCSD_LL.c ****     *  - Zero     - All the sensors in the widget are calibrated successfully.
1669:Generated_Source\PSoC6/CapSense_1_SensingCSD_LL.c ****     *  - Non-Zero - Calibration failed for any sensor in the widget.
1670:Generated_Source\PSoC6/CapSense_1_SensingCSD_LL.c ****     *
1671:Generated_Source\PSoC6/CapSense_1_SensingCSD_LL.c ****     *******************************************************************************/
1672:Generated_Source\PSoC6/CapSense_1_SensingCSD_LL.c ****     static cy_status CapSense_1_SsCSDCalibrateOneSensor(uint32 rawLevel,
1673:Generated_Source\PSoC6/CapSense_1_SensingCSD_LL.c ****                                                            uint8 *ptrIdac,
1674:Generated_Source\PSoC6/CapSense_1_SensingCSD_LL.c ****                                                            uint8 *iDAC8Max)
ARM GAS  C:\Users\enes_\AppData\Local\Temp\ccsgh5TW.s 			page 36


1675:Generated_Source\PSoC6/CapSense_1_SensingCSD_LL.c ****     {
1676:Generated_Source\PSoC6/CapSense_1_SensingCSD_LL.c ****         cy_status calibrateStatus;
1677:Generated_Source\PSoC6/CapSense_1_SensingCSD_LL.c ****         uint32 calMask = ((uint32)CapSense_1_CAL_MIDDLE_BIT << 1uL);
1678:Generated_Source\PSoC6/CapSense_1_SensingCSD_LL.c ****         uint32 watchdogCounter;
1679:Generated_Source\PSoC6/CapSense_1_SensingCSD_LL.c **** 
1680:Generated_Source\PSoC6/CapSense_1_SensingCSD_LL.c ****         uint16 rawData0 = 0u;
1681:Generated_Source\PSoC6/CapSense_1_SensingCSD_LL.c ****         #if (CapSense_1_ENABLE == CapSense_1_MULTI_FREQ_SCAN_EN)
1682:Generated_Source\PSoC6/CapSense_1_SensingCSD_LL.c ****             uint16 rawData1 = 0u;
1683:Generated_Source\PSoC6/CapSense_1_SensingCSD_LL.c ****             uint16 rawData2 = 0u;
1684:Generated_Source\PSoC6/CapSense_1_SensingCSD_LL.c ****         #endif /* (CapSense_1_ENABLE == CapSense_1_MULTI_FREQ_SCAN_EN) */
1685:Generated_Source\PSoC6/CapSense_1_SensingCSD_LL.c **** 
1686:Generated_Source\PSoC6/CapSense_1_SensingCSD_LL.c ****         /* Declare and initialize ptr to widget and sensor structures to appropriate address */
1687:Generated_Source\PSoC6/CapSense_1_SensingCSD_LL.c ****         CapSense_1_RAM_WD_BASE_STRUCT *ptrWdgt = (CapSense_1_RAM_WD_BASE_STRUCT *)
1688:Generated_Source\PSoC6/CapSense_1_SensingCSD_LL.c ****                                                         CapSense_1_dsFlash.wdgtArray[CapSense_1_wid
1689:Generated_Source\PSoC6/CapSense_1_SensingCSD_LL.c **** 
1690:Generated_Source\PSoC6/CapSense_1_SensingCSD_LL.c ****         ptrIdac[0u] = 0u;
1691:Generated_Source\PSoC6/CapSense_1_SensingCSD_LL.c ****         #if (CapSense_1_ENABLE == CapSense_1_MULTI_FREQ_SCAN_EN)
1692:Generated_Source\PSoC6/CapSense_1_SensingCSD_LL.c ****             ptrIdac[CapSense_1_FREQ_CHANNEL_1] = 0u;
1693:Generated_Source\PSoC6/CapSense_1_SensingCSD_LL.c ****             ptrIdac[CapSense_1_FREQ_CHANNEL_2] = 0u;
1694:Generated_Source\PSoC6/CapSense_1_SensingCSD_LL.c ****         #endif /* (CapSense_1_ENABLE == CapSense_1_MULTI_FREQ_SCAN_EN) */
1695:Generated_Source\PSoC6/CapSense_1_SensingCSD_LL.c **** 
1696:Generated_Source\PSoC6/CapSense_1_SensingCSD_LL.c ****         /* Setup the calibrated sensor of the widget (Set IDAC = calMask and connect the sensor) */
1697:Generated_Source\PSoC6/CapSense_1_SensingCSD_LL.c ****         CapSense_1_CSDSetupWidgetExt((uint32)CapSense_1_widgetIndex, (uint32)CapSense_1_sensorIndex
1698:Generated_Source\PSoC6/CapSense_1_SensingCSD_LL.c **** 
1699:Generated_Source\PSoC6/CapSense_1_SensingCSD_LL.c ****         #if (CapSense_1_ENABLE == CapSense_1_CSD_IDAC_COMP_EN)
1700:Generated_Source\PSoC6/CapSense_1_SensingCSD_LL.c ****             /* Set single IDAC mode */
1701:Generated_Source\PSoC6/CapSense_1_SensingCSD_LL.c ****             CapSense_1_SsCSDSetSingleIdacMode();
1702:Generated_Source\PSoC6/CapSense_1_SensingCSD_LL.c ****         #endif /* (CapSense_1_ENABLE == CapSense_1_CSD_IDAC_COMP_EN) */
1703:Generated_Source\PSoC6/CapSense_1_SensingCSD_LL.c **** 
1704:Generated_Source\PSoC6/CapSense_1_SensingCSD_LL.c ****         /*
1705:Generated_Source\PSoC6/CapSense_1_SensingCSD_LL.c ****          * Perform the iteration steps to get target = rawLevel.
1706:Generated_Source\PSoC6/CapSense_1_SensingCSD_LL.c ****          * The number of iteration steps is defined by calMask and depend on IDAC resolution.
1707:Generated_Source\PSoC6/CapSense_1_SensingCSD_LL.c ****          */
1708:Generated_Source\PSoC6/CapSense_1_SensingCSD_LL.c ****         do
1709:Generated_Source\PSoC6/CapSense_1_SensingCSD_LL.c ****         {
1710:Generated_Source\PSoC6/CapSense_1_SensingCSD_LL.c ****             /* Decrease IDAC until rawData reaches rawLevel */
1711:Generated_Source\PSoC6/CapSense_1_SensingCSD_LL.c ****             if (rawData0 < rawLevel)
1712:Generated_Source\PSoC6/CapSense_1_SensingCSD_LL.c ****             {
1713:Generated_Source\PSoC6/CapSense_1_SensingCSD_LL.c ****                 /* Reset bit for null channel (decrease IDAC -> will increase rawData) */
1714:Generated_Source\PSoC6/CapSense_1_SensingCSD_LL.c ****                 ptrIdac[0u] &= (uint8)(~calMask);
1715:Generated_Source\PSoC6/CapSense_1_SensingCSD_LL.c ****             }
1716:Generated_Source\PSoC6/CapSense_1_SensingCSD_LL.c ****             #if (CapSense_1_ENABLE == CapSense_1_MULTI_FREQ_SCAN_EN)
1717:Generated_Source\PSoC6/CapSense_1_SensingCSD_LL.c ****                 if (rawData1 < rawLevel)
1718:Generated_Source\PSoC6/CapSense_1_SensingCSD_LL.c ****                 {
1719:Generated_Source\PSoC6/CapSense_1_SensingCSD_LL.c ****                     ptrIdac[CapSense_1_FREQ_CHANNEL_1] &= (uint8)(~calMask);
1720:Generated_Source\PSoC6/CapSense_1_SensingCSD_LL.c ****                 }
1721:Generated_Source\PSoC6/CapSense_1_SensingCSD_LL.c ****                 if (rawData2 < rawLevel)
1722:Generated_Source\PSoC6/CapSense_1_SensingCSD_LL.c ****                 {
1723:Generated_Source\PSoC6/CapSense_1_SensingCSD_LL.c ****                     ptrIdac[CapSense_1_FREQ_CHANNEL_2] &= (uint8)(~calMask);
1724:Generated_Source\PSoC6/CapSense_1_SensingCSD_LL.c ****                 }
1725:Generated_Source\PSoC6/CapSense_1_SensingCSD_LL.c ****             #endif /* (CapSense_1_ENABLE == CapSense_1_MULTI_FREQ_SCAN_EN) */
1726:Generated_Source\PSoC6/CapSense_1_SensingCSD_LL.c **** 
1727:Generated_Source\PSoC6/CapSense_1_SensingCSD_LL.c ****             /*
1728:Generated_Source\PSoC6/CapSense_1_SensingCSD_LL.c ****             * Shift calMask to set or reset next bit.
1729:Generated_Source\PSoC6/CapSense_1_SensingCSD_LL.c ****             * Perform scan even if callibration mask is equal to zero.
1730:Generated_Source\PSoC6/CapSense_1_SensingCSD_LL.c ****             * It gives raw counts for the last changed IDAC.
1731:Generated_Source\PSoC6/CapSense_1_SensingCSD_LL.c ****             */
ARM GAS  C:\Users\enes_\AppData\Local\Temp\ccsgh5TW.s 			page 37


1732:Generated_Source\PSoC6/CapSense_1_SensingCSD_LL.c ****             calMask >>= 1u;
1733:Generated_Source\PSoC6/CapSense_1_SensingCSD_LL.c **** 
1734:Generated_Source\PSoC6/CapSense_1_SensingCSD_LL.c ****             /* Set bit for null channel */
1735:Generated_Source\PSoC6/CapSense_1_SensingCSD_LL.c ****             ptrIdac[0u] |= (uint8)calMask;
1736:Generated_Source\PSoC6/CapSense_1_SensingCSD_LL.c ****             #if (CapSense_1_ENABLE == CapSense_1_MULTI_FREQ_SCAN_EN)
1737:Generated_Source\PSoC6/CapSense_1_SensingCSD_LL.c ****                 ptrIdac[CapSense_1_FREQ_CHANNEL_1] |= (uint8)calMask;
1738:Generated_Source\PSoC6/CapSense_1_SensingCSD_LL.c ****                 ptrIdac[CapSense_1_FREQ_CHANNEL_2] |= (uint8)calMask;
1739:Generated_Source\PSoC6/CapSense_1_SensingCSD_LL.c ****             #endif /* (CapSense_1_ENABLE == CapSense_1_MULTI_FREQ_SCAN_EN) */
1740:Generated_Source\PSoC6/CapSense_1_SensingCSD_LL.c **** 
1741:Generated_Source\PSoC6/CapSense_1_SensingCSD_LL.c ****             /* Update IDAC */
1742:Generated_Source\PSoC6/CapSense_1_SensingCSD_LL.c ****             CapSense_1_SsCSDSetUpIdacs(ptrWdgt);
1743:Generated_Source\PSoC6/CapSense_1_SensingCSD_LL.c **** 
1744:Generated_Source\PSoC6/CapSense_1_SensingCSD_LL.c ****             /* Scan sensor */
1745:Generated_Source\PSoC6/CapSense_1_SensingCSD_LL.c ****             CapSense_1_CSDScanExt();
1746:Generated_Source\PSoC6/CapSense_1_SensingCSD_LL.c **** 
1747:Generated_Source\PSoC6/CapSense_1_SensingCSD_LL.c ****             /* Initialize Watchdog Counter with time interval which is enough to charge 100 nF capa
1748:Generated_Source\PSoC6/CapSense_1_SensingCSD_LL.c ****             watchdogCounter = CapSense_1_CALIBR_WATCHDOG_CYCLES_NUM;
1749:Generated_Source\PSoC6/CapSense_1_SensingCSD_LL.c ****             while (((CapSense_1_dsRam.status & CapSense_1_SW_STS_BUSY) != 0u) &&
1750:Generated_Source\PSoC6/CapSense_1_SensingCSD_LL.c ****                    (0u != watchdogCounter))
1751:Generated_Source\PSoC6/CapSense_1_SensingCSD_LL.c ****             {
1752:Generated_Source\PSoC6/CapSense_1_SensingCSD_LL.c ****                 /* Wait until scan complete and decrement Watchdog Counter to prevent unending loop
1753:Generated_Source\PSoC6/CapSense_1_SensingCSD_LL.c ****                 watchdogCounter--;
1754:Generated_Source\PSoC6/CapSense_1_SensingCSD_LL.c ****             }
1755:Generated_Source\PSoC6/CapSense_1_SensingCSD_LL.c **** 
1756:Generated_Source\PSoC6/CapSense_1_SensingCSD_LL.c ****             /* Read rawData */
1757:Generated_Source\PSoC6/CapSense_1_SensingCSD_LL.c ****             rawData0 = CapSense_1_curRamSnsPtr->raw[0u];
1758:Generated_Source\PSoC6/CapSense_1_SensingCSD_LL.c ****             #if(CapSense_1_ENABLE == CapSense_1_MULTI_FREQ_SCAN_EN)
1759:Generated_Source\PSoC6/CapSense_1_SensingCSD_LL.c ****                 rawData1 = CapSense_1_curRamSnsPtr->raw[CapSense_1_FREQ_CHANNEL_1];
1760:Generated_Source\PSoC6/CapSense_1_SensingCSD_LL.c ****                 rawData2 = CapSense_1_curRamSnsPtr->raw[CapSense_1_FREQ_CHANNEL_2];
1761:Generated_Source\PSoC6/CapSense_1_SensingCSD_LL.c ****             #endif /* (CapSense_1_ENABLE == CapSense_1_MULTI_FREQ_SCAN_EN) */
1762:Generated_Source\PSoC6/CapSense_1_SensingCSD_LL.c ****         }
1763:Generated_Source\PSoC6/CapSense_1_SensingCSD_LL.c ****         while (calMask > 0u);
1764:Generated_Source\PSoC6/CapSense_1_SensingCSD_LL.c **** 
1765:Generated_Source\PSoC6/CapSense_1_SensingCSD_LL.c ****         #if (CapSense_1_ENABLE == CapSense_1_CSD_GANGED_SNS_EN)
1766:Generated_Source\PSoC6/CapSense_1_SensingCSD_LL.c ****             CapSense_1_SsCSDDisconnectSnsExt((uint32)CapSense_1_widgetIndex, (uint32)CapSense_1_sen
1767:Generated_Source\PSoC6/CapSense_1_SensingCSD_LL.c ****         #else
1768:Generated_Source\PSoC6/CapSense_1_SensingCSD_LL.c ****             /* initialize pointer to sensor IO structure */
1769:Generated_Source\PSoC6/CapSense_1_SensingCSD_LL.c ****             CapSense_1_curSnsIOPtr = (CapSense_1_FLASH_IO_STRUCT const *)
1770:Generated_Source\PSoC6/CapSense_1_SensingCSD_LL.c ****                                             CapSense_1_dsFlash.wdgtArray[CapSense_1_widgetIndex].pt
1771:Generated_Source\PSoC6/CapSense_1_SensingCSD_LL.c ****                                             + CapSense_1_sensorIndex;
1772:Generated_Source\PSoC6/CapSense_1_SensingCSD_LL.c **** 
1773:Generated_Source\PSoC6/CapSense_1_SensingCSD_LL.c ****             /* Disable sensor */
1774:Generated_Source\PSoC6/CapSense_1_SensingCSD_LL.c ****             CapSense_1_CSDDisconnectSns(CapSense_1_curSnsIOPtr);
1775:Generated_Source\PSoC6/CapSense_1_SensingCSD_LL.c ****         #endif /* (CapSense_1_ENABLE == CapSense_1_CSD_GANGED_SNS_EN) */
1776:Generated_Source\PSoC6/CapSense_1_SensingCSD_LL.c **** 
1777:Generated_Source\PSoC6/CapSense_1_SensingCSD_LL.c ****         /* Set flag about disconnecting the electrode */
1778:Generated_Source\PSoC6/CapSense_1_SensingCSD_LL.c ****         CapSense_1_eleCsdDisconnectFlag = 0u;
1779:Generated_Source\PSoC6/CapSense_1_SensingCSD_LL.c **** 
1780:Generated_Source\PSoC6/CapSense_1_SensingCSD_LL.c ****         #if (CapSense_1_ENABLE == CapSense_1_CSD_IDAC_COMP_EN)
1781:Generated_Source\PSoC6/CapSense_1_SensingCSD_LL.c ****             /* Restore IDAC configuration to default state */
1782:Generated_Source\PSoC6/CapSense_1_SensingCSD_LL.c ****             CapSense_1_SsCSDRestoreIdacMode();
1783:Generated_Source\PSoC6/CapSense_1_SensingCSD_LL.c ****         #endif /* (CapSense_1_ENABLE == CapSense_1_CSD_IDAC_COMP_EN) */
1784:Generated_Source\PSoC6/CapSense_1_SensingCSD_LL.c **** 
1785:Generated_Source\PSoC6/CapSense_1_SensingCSD_LL.c ****         /* Check if IDAC is in correct range */
1786:Generated_Source\PSoC6/CapSense_1_SensingCSD_LL.c ****         calibrateStatus = CapSense_1_SsCSDCalibrateCheck(ptrWdgt, rawLevel, (uint32)rawData0);
1787:Generated_Source\PSoC6/CapSense_1_SensingCSD_LL.c ****         #if (CapSense_1_ENABLE == CapSense_1_MULTI_FREQ_SCAN_EN)
1788:Generated_Source\PSoC6/CapSense_1_SensingCSD_LL.c ****             calibrateStatus |= CapSense_1_SsCSDCalibrateCheck(ptrWdgt, rawLevel, (uint32)rawData1);
ARM GAS  C:\Users\enes_\AppData\Local\Temp\ccsgh5TW.s 			page 38


1789:Generated_Source\PSoC6/CapSense_1_SensingCSD_LL.c ****             calibrateStatus |= CapSense_1_SsCSDCalibrateCheck(ptrWdgt, rawLevel, (uint32)rawData2);
1790:Generated_Source\PSoC6/CapSense_1_SensingCSD_LL.c ****         #endif /* (CapSense_1_ENABLE == CapSense_1_MULTI_FREQ_SCAN_EN) */
1791:Generated_Source\PSoC6/CapSense_1_SensingCSD_LL.c **** 
1792:Generated_Source\PSoC6/CapSense_1_SensingCSD_LL.c ****         /*
1793:Generated_Source\PSoC6/CapSense_1_SensingCSD_LL.c ****          * Update maximum IDAC value in widget. iDAC8Max variable will contain
1794:Generated_Source\PSoC6/CapSense_1_SensingCSD_LL.c ****          * maximum IDAC value after all the sensors in a widget have been scanned.
1795:Generated_Source\PSoC6/CapSense_1_SensingCSD_LL.c ****          */
1796:Generated_Source\PSoC6/CapSense_1_SensingCSD_LL.c ****         if (*iDAC8Max < ptrIdac[0u])
1797:Generated_Source\PSoC6/CapSense_1_SensingCSD_LL.c ****         {
1798:Generated_Source\PSoC6/CapSense_1_SensingCSD_LL.c ****             *iDAC8Max = ptrIdac[0u];
1799:Generated_Source\PSoC6/CapSense_1_SensingCSD_LL.c ****             #if (CapSense_1_CSD_SS_DIS != CapSense_1_CSD_AUTOTUNE)
1800:Generated_Source\PSoC6/CapSense_1_SensingCSD_LL.c ****                 /* Stores IDAC and raw count that corresponds to a sensor with maximum Cp within a 
1801:Generated_Source\PSoC6/CapSense_1_SensingCSD_LL.c ****                 CapSense_1_calibratedIdac = *iDAC8Max;
1802:Generated_Source\PSoC6/CapSense_1_SensingCSD_LL.c ****                 CapSense_1_calibratedRawcount = rawData0;
1803:Generated_Source\PSoC6/CapSense_1_SensingCSD_LL.c ****             #endif /* (CapSense_1_CSD_SS_DIS != CapSense_1_CSD_AUTOTUNE) */
1804:Generated_Source\PSoC6/CapSense_1_SensingCSD_LL.c ****         }
1805:Generated_Source\PSoC6/CapSense_1_SensingCSD_LL.c ****         #if (CapSense_1_ENABLE == CapSense_1_MULTI_FREQ_SCAN_EN)
1806:Generated_Source\PSoC6/CapSense_1_SensingCSD_LL.c ****             if (iDAC8Max[CapSense_1_FREQ_CHANNEL_1] < ptrIdac[CapSense_1_FREQ_CHANNEL_1])
1807:Generated_Source\PSoC6/CapSense_1_SensingCSD_LL.c ****             {
1808:Generated_Source\PSoC6/CapSense_1_SensingCSD_LL.c ****                 iDAC8Max[CapSense_1_FREQ_CHANNEL_1] = ptrIdac[CapSense_1_FREQ_CHANNEL_1];
1809:Generated_Source\PSoC6/CapSense_1_SensingCSD_LL.c ****             }
1810:Generated_Source\PSoC6/CapSense_1_SensingCSD_LL.c ****             if (iDAC8Max[CapSense_1_FREQ_CHANNEL_2] < ptrIdac[CapSense_1_FREQ_CHANNEL_2])
1811:Generated_Source\PSoC6/CapSense_1_SensingCSD_LL.c ****             {
1812:Generated_Source\PSoC6/CapSense_1_SensingCSD_LL.c ****                 iDAC8Max[CapSense_1_FREQ_CHANNEL_2] = ptrIdac[CapSense_1_FREQ_CHANNEL_2];
1813:Generated_Source\PSoC6/CapSense_1_SensingCSD_LL.c ****             }
1814:Generated_Source\PSoC6/CapSense_1_SensingCSD_LL.c ****         #endif /* (CapSense_1_ENABLE == CapSense_1_MULTI_FREQ_SCAN_EN) */
1815:Generated_Source\PSoC6/CapSense_1_SensingCSD_LL.c **** 
1816:Generated_Source\PSoC6/CapSense_1_SensingCSD_LL.c ****         #if (CapSense_1_ENABLE == CapSense_1_CSD_IDAC_COMP_EN)
1817:Generated_Source\PSoC6/CapSense_1_SensingCSD_LL.c ****             /*
1818:Generated_Source\PSoC6/CapSense_1_SensingCSD_LL.c ****              * Store temporary ModIDAC8 value (in single-IDAC mode) in idacComp variable.
1819:Generated_Source\PSoC6/CapSense_1_SensingCSD_LL.c ****              * We need this value to calculate idacMod value the in the dual-IDAC mode.
1820:Generated_Source\PSoC6/CapSense_1_SensingCSD_LL.c ****              */
1821:Generated_Source\PSoC6/CapSense_1_SensingCSD_LL.c ****             CapSense_1_curRamSnsPtr->idacComp[0u] = ptrIdac[0u];
1822:Generated_Source\PSoC6/CapSense_1_SensingCSD_LL.c ****             #if (CapSense_1_ENABLE == CapSense_1_MULTI_FREQ_SCAN_EN)
1823:Generated_Source\PSoC6/CapSense_1_SensingCSD_LL.c ****                 CapSense_1_curRamSnsPtr->idacComp[CapSense_1_FREQ_CHANNEL_1] = ptrIdac[CapSense_1_F
1824:Generated_Source\PSoC6/CapSense_1_SensingCSD_LL.c ****                 CapSense_1_curRamSnsPtr->idacComp[CapSense_1_FREQ_CHANNEL_2] = ptrIdac[CapSense_1_F
1825:Generated_Source\PSoC6/CapSense_1_SensingCSD_LL.c ****             #endif /* (CapSense_1_ENABLE == CapSense_1_MULTI_FREQ_SCAN_EN) */
1826:Generated_Source\PSoC6/CapSense_1_SensingCSD_LL.c ****         #endif /* (CapSense_1_ENABLE == CapSense_1_CSD_IDAC_COMP_EN) */
1827:Generated_Source\PSoC6/CapSense_1_SensingCSD_LL.c **** 
1828:Generated_Source\PSoC6/CapSense_1_SensingCSD_LL.c ****         return (calibrateStatus);
1829:Generated_Source\PSoC6/CapSense_1_SensingCSD_LL.c ****     }
1830:Generated_Source\PSoC6/CapSense_1_SensingCSD_LL.c **** 
1831:Generated_Source\PSoC6/CapSense_1_SensingCSD_LL.c ****     /*******************************************************************************
1832:Generated_Source\PSoC6/CapSense_1_SensingCSD_LL.c ****     * Function Name: CapSense_1_CSDCalibrateWidget
1833:Generated_Source\PSoC6/CapSense_1_SensingCSD_LL.c ****     ****************************************************************************//**
1834:Generated_Source\PSoC6/CapSense_1_SensingCSD_LL.c ****     *
1835:Generated_Source\PSoC6/CapSense_1_SensingCSD_LL.c ****     * \brief
1836:Generated_Source\PSoC6/CapSense_1_SensingCSD_LL.c ****     *  Executes the IDAC calibration for all the sensors in the widget specified in
1837:Generated_Source\PSoC6/CapSense_1_SensingCSD_LL.c ****     *  the input.
1838:Generated_Source\PSoC6/CapSense_1_SensingCSD_LL.c ****     *
1839:Generated_Source\PSoC6/CapSense_1_SensingCSD_LL.c ****     * \details
1840:Generated_Source\PSoC6/CapSense_1_SensingCSD_LL.c ****     *  Performs a successive approximation search algorithm to find appropriate
1841:Generated_Source\PSoC6/CapSense_1_SensingCSD_LL.c ****     *  IDAC values for sensors in the specified widget that provides the raw
1842:Generated_Source\PSoC6/CapSense_1_SensingCSD_LL.c ****     *  count to the level specified by the target parameter.
1843:Generated_Source\PSoC6/CapSense_1_SensingCSD_LL.c ****     *
1844:Generated_Source\PSoC6/CapSense_1_SensingCSD_LL.c ****     *  Calibration is always performed in the single IDAC mode and if the dual
1845:Generated_Source\PSoC6/CapSense_1_SensingCSD_LL.c ****     *  IDAC mode (Enable compensation IDAC is enabled) is configured, the IDAC
ARM GAS  C:\Users\enes_\AppData\Local\Temp\ccsgh5TW.s 			page 39


1846:Generated_Source\PSoC6/CapSense_1_SensingCSD_LL.c ****     *  values are re-calculated to match the raw count target. If a widget
1847:Generated_Source\PSoC6/CapSense_1_SensingCSD_LL.c ****     *  consists of two or more elements (buttons, slider segments, etc.), then
1848:Generated_Source\PSoC6/CapSense_1_SensingCSD_LL.c ****     *  calibration is performed by the element with the highest sensor
1849:Generated_Source\PSoC6/CapSense_1_SensingCSD_LL.c ****     *  capacitance.
1850:Generated_Source\PSoC6/CapSense_1_SensingCSD_LL.c ****     *
1851:Generated_Source\PSoC6/CapSense_1_SensingCSD_LL.c ****     *  Calibration fails if the achieved raw count is outside of the +/-10%
1852:Generated_Source\PSoC6/CapSense_1_SensingCSD_LL.c ****     *  range of the target.
1853:Generated_Source\PSoC6/CapSense_1_SensingCSD_LL.c ****     *
1854:Generated_Source\PSoC6/CapSense_1_SensingCSD_LL.c ****     *  This function is available when the CSD Enable IDAC auto-calibration
1855:Generated_Source\PSoC6/CapSense_1_SensingCSD_LL.c ****     *  parameter is enabled or the  SmartSense auto-tuning mode is configured.
1856:Generated_Source\PSoC6/CapSense_1_SensingCSD_LL.c ****     *
1857:Generated_Source\PSoC6/CapSense_1_SensingCSD_LL.c ****     * \param widgetId
1858:Generated_Source\PSoC6/CapSense_1_SensingCSD_LL.c ****     *  Specifies the ID number of the CSD widget to calibrate its raw count.
1859:Generated_Source\PSoC6/CapSense_1_SensingCSD_LL.c ****     *  A macro for the widget ID can be found in the
1860:Generated_Source\PSoC6/CapSense_1_SensingCSD_LL.c ****     *  CapSense_1 Configuration header file defined as
1861:Generated_Source\PSoC6/CapSense_1_SensingCSD_LL.c ****     *  CapSense_1_<WidgetName>_WDGT_ID.
1862:Generated_Source\PSoC6/CapSense_1_SensingCSD_LL.c ****     *
1863:Generated_Source\PSoC6/CapSense_1_SensingCSD_LL.c ****     * \param target
1864:Generated_Source\PSoC6/CapSense_1_SensingCSD_LL.c ****     *  Specifies the calibration target in percentages of the maximum raw count.
1865:Generated_Source\PSoC6/CapSense_1_SensingCSD_LL.c ****     *
1866:Generated_Source\PSoC6/CapSense_1_SensingCSD_LL.c ****     * \return
1867:Generated_Source\PSoC6/CapSense_1_SensingCSD_LL.c ****     *  Returns the status of the specified widget calibration:
1868:Generated_Source\PSoC6/CapSense_1_SensingCSD_LL.c ****     *    - CY_RET_SUCCESS - The operation is successfully completed.
1869:Generated_Source\PSoC6/CapSense_1_SensingCSD_LL.c ****     *    - CY_RET_BAD_PARAM - The input parameter is invalid.
1870:Generated_Source\PSoC6/CapSense_1_SensingCSD_LL.c ****     *    - CY_RET_BAD_DATA - The calibration failed and the Component may not operate as expected.
1871:Generated_Source\PSoC6/CapSense_1_SensingCSD_LL.c ****     *
1872:Generated_Source\PSoC6/CapSense_1_SensingCSD_LL.c ****     *******************************************************************************/
1873:Generated_Source\PSoC6/CapSense_1_SensingCSD_LL.c ****     cy_status CapSense_1_CSDCalibrateWidget(uint32 widgetId, uint32 target)
1874:Generated_Source\PSoC6/CapSense_1_SensingCSD_LL.c ****     {
1875:Generated_Source\PSoC6/CapSense_1_SensingCSD_LL.c ****         uint32 rawLevel;
1876:Generated_Source\PSoC6/CapSense_1_SensingCSD_LL.c ****         cy_status calibrateStatus = CY_RET_SUCCESS;
1877:Generated_Source\PSoC6/CapSense_1_SensingCSD_LL.c **** 
1878:Generated_Source\PSoC6/CapSense_1_SensingCSD_LL.c ****         #if (CapSense_1_CSD_SS_DIS != CapSense_1_CSD_AUTOTUNE)
1879:Generated_Source\PSoC6/CapSense_1_SensingCSD_LL.c ****             #if (CapSense_1_CSD_MATRIX_WIDGET_EN || CapSense_1_CSD_TOUCHPAD_WIDGET_EN)
1880:Generated_Source\PSoC6/CapSense_1_SensingCSD_LL.c ****                 uint8 maxIdac = 1u;
1881:Generated_Source\PSoC6/CapSense_1_SensingCSD_LL.c ****                 uint16 maxRaw = 1u;
1882:Generated_Source\PSoC6/CapSense_1_SensingCSD_LL.c ****             #endif /*(CapSense_1_CSD_MATRIX_WIDGET_EN || CapSense_1_CSD_TOUCHPAD_WIDGET_EN) */
1883:Generated_Source\PSoC6/CapSense_1_SensingCSD_LL.c ****         #endif /* (CapSense_1_CSD_SS_DIS != CapSense_1_CSD_AUTOTUNE) */
1884:Generated_Source\PSoC6/CapSense_1_SensingCSD_LL.c **** 
1885:Generated_Source\PSoC6/CapSense_1_SensingCSD_LL.c ****         /* Declare and initialize ptr to widget and sensor structures to appropriate address */
1886:Generated_Source\PSoC6/CapSense_1_SensingCSD_LL.c ****         CapSense_1_RAM_WD_BASE_STRUCT *ptrWdgt = (CapSense_1_RAM_WD_BASE_STRUCT *)
1887:Generated_Source\PSoC6/CapSense_1_SensingCSD_LL.c ****                                               CapSense_1_dsFlash.wdgtArray[widgetId].ptr2WdgtRam;
1888:Generated_Source\PSoC6/CapSense_1_SensingCSD_LL.c **** 
1889:Generated_Source\PSoC6/CapSense_1_SensingCSD_LL.c ****         #if (1u == CapSense_1_NUM_SCAN_FREQS)
1890:Generated_Source\PSoC6/CapSense_1_SensingCSD_LL.c ****             uint8 iDAC8Max[CapSense_1_NUM_SCAN_FREQS] = {1u};
1891:Generated_Source\PSoC6/CapSense_1_SensingCSD_LL.c ****         #else
1892:Generated_Source\PSoC6/CapSense_1_SensingCSD_LL.c ****             uint8 iDAC8Max[CapSense_1_NUM_SCAN_FREQS] = {1u, 1u, 1u};
1893:Generated_Source\PSoC6/CapSense_1_SensingCSD_LL.c ****         #endif /* (1u == CapSense_1_NUM_SCAN_FREQS) */
1894:Generated_Source\PSoC6/CapSense_1_SensingCSD_LL.c **** 
1895:Generated_Source\PSoC6/CapSense_1_SensingCSD_LL.c ****         uint8 *ptrIdac;
1896:Generated_Source\PSoC6/CapSense_1_SensingCSD_LL.c **** 
1897:Generated_Source\PSoC6/CapSense_1_SensingCSD_LL.c ****         /* Calibrate maximum level for given resolution */
1898:Generated_Source\PSoC6/CapSense_1_SensingCSD_LL.c ****         rawLevel = (0x00000001Lu << ptrWdgt->resolution) - 1u;
1899:Generated_Source\PSoC6/CapSense_1_SensingCSD_LL.c **** 
1900:Generated_Source\PSoC6/CapSense_1_SensingCSD_LL.c ****         /* Calculate percentage of maximum value */
1901:Generated_Source\PSoC6/CapSense_1_SensingCSD_LL.c ****         rawLevel = (rawLevel * target) / CapSense_1_PERCENTAGE_100;
1902:Generated_Source\PSoC6/CapSense_1_SensingCSD_LL.c **** 
ARM GAS  C:\Users\enes_\AppData\Local\Temp\ccsgh5TW.s 			page 40


1903:Generated_Source\PSoC6/CapSense_1_SensingCSD_LL.c ****         /* Update CapSense_1_widgetIndex */
1904:Generated_Source\PSoC6/CapSense_1_SensingCSD_LL.c ****         CapSense_1_widgetIndex = (uint8)widgetId;
1905:Generated_Source\PSoC6/CapSense_1_SensingCSD_LL.c **** 
1906:Generated_Source\PSoC6/CapSense_1_SensingCSD_LL.c ****         /* Setup ISR handler to single-sensor scan function */
1907:Generated_Source\PSoC6/CapSense_1_SensingCSD_LL.c ****         CapSense_1_SsIsrInitialize(&CapSense_1_CSDPostSingleScan);
1908:Generated_Source\PSoC6/CapSense_1_SensingCSD_LL.c **** 
1909:Generated_Source\PSoC6/CapSense_1_SensingCSD_LL.c ****         /* Init pointer to Modulator IDAC */
1910:Generated_Source\PSoC6/CapSense_1_SensingCSD_LL.c ****         ptrIdac = &ptrWdgt->idacMod[0u];
1911:Generated_Source\PSoC6/CapSense_1_SensingCSD_LL.c **** 
1912:Generated_Source\PSoC6/CapSense_1_SensingCSD_LL.c ****         #if (CapSense_1_CSD_SS_DIS != CapSense_1_CSD_AUTOTUNE)
1913:Generated_Source\PSoC6/CapSense_1_SensingCSD_LL.c ****             CapSense_1_calibratedIdac = 1u;
1914:Generated_Source\PSoC6/CapSense_1_SensingCSD_LL.c ****             CapSense_1_calibratedRawcount = 1u;
1915:Generated_Source\PSoC6/CapSense_1_SensingCSD_LL.c ****         #endif /* (CapSense_1_CSD_SS_DIS != CapSense_1_CSD_AUTOTUNE) */
1916:Generated_Source\PSoC6/CapSense_1_SensingCSD_LL.c **** 
1917:Generated_Source\PSoC6/CapSense_1_SensingCSD_LL.c ****         /* Go through all the sensors (or columns of touchpad) of widget to calibrate them */
1918:Generated_Source\PSoC6/CapSense_1_SensingCSD_LL.c ****         for (CapSense_1_sensorIndex = 0u;
1919:Generated_Source\PSoC6/CapSense_1_SensingCSD_LL.c ****              CapSense_1_sensorIndex < CapSense_1_dsFlash.wdgtArray[widgetId].numCols;
1920:Generated_Source\PSoC6/CapSense_1_SensingCSD_LL.c ****              CapSense_1_sensorIndex++)
1921:Generated_Source\PSoC6/CapSense_1_SensingCSD_LL.c ****         {
1922:Generated_Source\PSoC6/CapSense_1_SensingCSD_LL.c ****             /* Calibrate current sensor in widget */
1923:Generated_Source\PSoC6/CapSense_1_SensingCSD_LL.c ****             calibrateStatus |= CapSense_1_SsCSDCalibrateOneSensor(rawLevel, ptrIdac, iDAC8Max);
1924:Generated_Source\PSoC6/CapSense_1_SensingCSD_LL.c ****         }
1925:Generated_Source\PSoC6/CapSense_1_SensingCSD_LL.c **** 
1926:Generated_Source\PSoC6/CapSense_1_SensingCSD_LL.c ****         /* Normalize idacMod and idacComp values */
1927:Generated_Source\PSoC6/CapSense_1_SensingCSD_LL.c ****         #if (CapSense_1_ENABLE == CapSense_1_CSD_IDAC_COMP_EN)
1928:Generated_Source\PSoC6/CapSense_1_SensingCSD_LL.c ****             /* Calculate Modulator value: idacMod = (iDAC8Max + 1)/2 */
1929:Generated_Source\PSoC6/CapSense_1_SensingCSD_LL.c ****             ptrIdac[0u] = (iDAC8Max[0u] + 1u) >> 1u;
1930:Generated_Source\PSoC6/CapSense_1_SensingCSD_LL.c ****             #if (CapSense_1_ENABLE == CapSense_1_MULTI_FREQ_SCAN_EN)
1931:Generated_Source\PSoC6/CapSense_1_SensingCSD_LL.c ****                 ptrIdac[CapSense_1_FREQ_CHANNEL_1] =  (iDAC8Max[CapSense_1_FREQ_CHANNEL_1] + 1u) >>
1932:Generated_Source\PSoC6/CapSense_1_SensingCSD_LL.c ****                 ptrIdac[CapSense_1_FREQ_CHANNEL_2] = (iDAC8Max[CapSense_1_FREQ_CHANNEL_2] + 1u) >> 
1933:Generated_Source\PSoC6/CapSense_1_SensingCSD_LL.c ****             #endif /* (CapSense_1_ENABLE == CapSense_1_MULTI_FREQ_SCAN_EN) */
1934:Generated_Source\PSoC6/CapSense_1_SensingCSD_LL.c **** 
1935:Generated_Source\PSoC6/CapSense_1_SensingCSD_LL.c ****             /* Go through all columns of touchpad (or all the sensors in button) to normalize them 
1936:Generated_Source\PSoC6/CapSense_1_SensingCSD_LL.c ****             for (CapSense_1_sensorIndex = 0u;
1937:Generated_Source\PSoC6/CapSense_1_SensingCSD_LL.c ****                  CapSense_1_sensorIndex < CapSense_1_dsFlash.wdgtArray[widgetId].numCols;
1938:Generated_Source\PSoC6/CapSense_1_SensingCSD_LL.c ****                  CapSense_1_sensorIndex++)
1939:Generated_Source\PSoC6/CapSense_1_SensingCSD_LL.c ****             {
1940:Generated_Source\PSoC6/CapSense_1_SensingCSD_LL.c ****                 CapSense_1_curRamSnsPtr = (CapSense_1_RAM_SNS_STRUCT *)
1941:Generated_Source\PSoC6/CapSense_1_SensingCSD_LL.c ****                          CapSense_1_dsFlash.wdgtArray[widgetId].ptr2SnsRam + CapSense_1_sensorIndex
1942:Generated_Source\PSoC6/CapSense_1_SensingCSD_LL.c ****                 /* Calculate Compensation IDAC value: idacComp(i) = (iDAC8(i) - idacMod) * Target *
1943:Generated_Source\PSoC6/CapSense_1_SensingCSD_LL.c ****                 if (CapSense_1_curRamSnsPtr->idacComp[0u] >= ptrIdac[0u])
1944:Generated_Source\PSoC6/CapSense_1_SensingCSD_LL.c ****                 {
1945:Generated_Source\PSoC6/CapSense_1_SensingCSD_LL.c ****                     CapSense_1_curRamSnsPtr->idacComp[0u] -= ptrIdac[0u];
1946:Generated_Source\PSoC6/CapSense_1_SensingCSD_LL.c ****                     #if (CapSense_1_ENABLE == CapSense_1_CSD_DEDICATED_IDAC_COMP_EN)
1947:Generated_Source\PSoC6/CapSense_1_SensingCSD_LL.c ****                         CapSense_1_curRamSnsPtr->idacComp[0u] =
1948:Generated_Source\PSoC6/CapSense_1_SensingCSD_LL.c ****                             (uint8)((((target * CapSense_1_curRamSnsPtr->idacComp[0u]) + CapSense_1
1949:Generated_Source\PSoC6/CapSense_1_SensingCSD_LL.c ****                             CapSense_1_PERCENTAGE_100);
1950:Generated_Source\PSoC6/CapSense_1_SensingCSD_LL.c ****                     #endif /* (CapSense_1_ENABLE == CapSense_1_CSD_DEDICATED_IDAC_COMP_EN) */
1951:Generated_Source\PSoC6/CapSense_1_SensingCSD_LL.c ****                 }
1952:Generated_Source\PSoC6/CapSense_1_SensingCSD_LL.c ****                 else
1953:Generated_Source\PSoC6/CapSense_1_SensingCSD_LL.c ****                 {
1954:Generated_Source\PSoC6/CapSense_1_SensingCSD_LL.c ****                     CapSense_1_curRamSnsPtr->idacComp[0u] = 0u;
1955:Generated_Source\PSoC6/CapSense_1_SensingCSD_LL.c ****                 }
1956:Generated_Source\PSoC6/CapSense_1_SensingCSD_LL.c ****                 #if (CapSense_1_ENABLE == CapSense_1_MULTI_FREQ_SCAN_EN)
1957:Generated_Source\PSoC6/CapSense_1_SensingCSD_LL.c ****                     /* Do same for first frequency channel */
1958:Generated_Source\PSoC6/CapSense_1_SensingCSD_LL.c ****                     if (CapSense_1_curRamSnsPtr->idacComp[CapSense_1_FREQ_CHANNEL_1] >= ptrIdac[Cap
1959:Generated_Source\PSoC6/CapSense_1_SensingCSD_LL.c ****                     {
ARM GAS  C:\Users\enes_\AppData\Local\Temp\ccsgh5TW.s 			page 41


1960:Generated_Source\PSoC6/CapSense_1_SensingCSD_LL.c ****                         CapSense_1_curRamSnsPtr->idacComp[CapSense_1_FREQ_CHANNEL_1] -= ptrIdac[Cap
1961:Generated_Source\PSoC6/CapSense_1_SensingCSD_LL.c ****                         #if (CapSense_1_ENABLE == CapSense_1_CSD_DEDICATED_IDAC_COMP_EN)
1962:Generated_Source\PSoC6/CapSense_1_SensingCSD_LL.c ****                             CapSense_1_curRamSnsPtr->idacComp[CapSense_1_FREQ_CHANNEL_1] =
1963:Generated_Source\PSoC6/CapSense_1_SensingCSD_LL.c ****                                 (uint8)((((target * CapSense_1_curRamSnsPtr->idacComp[CapSense_1_FR
1964:Generated_Source\PSoC6/CapSense_1_SensingCSD_LL.c ****                                 CapSense_1_PERCENTAGE_100) - 1u) / CapSense_1_PERCENTAGE_100);
1965:Generated_Source\PSoC6/CapSense_1_SensingCSD_LL.c ****                         #endif /* (CapSense_1_ENABLE == CapSense_1_CSD_DEDICATED_IDAC_COMP_EN) */
1966:Generated_Source\PSoC6/CapSense_1_SensingCSD_LL.c ****                     }
1967:Generated_Source\PSoC6/CapSense_1_SensingCSD_LL.c ****                     else
1968:Generated_Source\PSoC6/CapSense_1_SensingCSD_LL.c ****                     {
1969:Generated_Source\PSoC6/CapSense_1_SensingCSD_LL.c ****                        CapSense_1_curRamSnsPtr->idacComp[CapSense_1_FREQ_CHANNEL_1] = 0u;
1970:Generated_Source\PSoC6/CapSense_1_SensingCSD_LL.c ****                     }
1971:Generated_Source\PSoC6/CapSense_1_SensingCSD_LL.c ****                     /* Do same for second frequency channel */
1972:Generated_Source\PSoC6/CapSense_1_SensingCSD_LL.c ****                     if (CapSense_1_curRamSnsPtr->idacComp[CapSense_1_FREQ_CHANNEL_2] >= ptrIdac[Cap
1973:Generated_Source\PSoC6/CapSense_1_SensingCSD_LL.c ****                     {
1974:Generated_Source\PSoC6/CapSense_1_SensingCSD_LL.c ****                         CapSense_1_curRamSnsPtr->idacComp[CapSense_1_FREQ_CHANNEL_2] -= ptrIdac[Cap
1975:Generated_Source\PSoC6/CapSense_1_SensingCSD_LL.c ****                         #if (CapSense_1_ENABLE == CapSense_1_CSD_DEDICATED_IDAC_COMP_EN)
1976:Generated_Source\PSoC6/CapSense_1_SensingCSD_LL.c ****                             CapSense_1_curRamSnsPtr->idacComp[CapSense_1_FREQ_CHANNEL_2] =
1977:Generated_Source\PSoC6/CapSense_1_SensingCSD_LL.c ****                                 (uint8)((((target * CapSense_1_curRamSnsPtr->idacComp[CapSense_1_FR
1978:Generated_Source\PSoC6/CapSense_1_SensingCSD_LL.c ****                                 CapSense_1_PERCENTAGE_100) - 1u) / CapSense_1_PERCENTAGE_100);
1979:Generated_Source\PSoC6/CapSense_1_SensingCSD_LL.c ****                         #endif /* (CapSense_1_ENABLE == CapSense_1_CSD_DEDICATED_IDAC_COMP_EN) */
1980:Generated_Source\PSoC6/CapSense_1_SensingCSD_LL.c ****                     }
1981:Generated_Source\PSoC6/CapSense_1_SensingCSD_LL.c ****                     else
1982:Generated_Source\PSoC6/CapSense_1_SensingCSD_LL.c ****                     {
1983:Generated_Source\PSoC6/CapSense_1_SensingCSD_LL.c ****                         CapSense_1_curRamSnsPtr->idacComp[CapSense_1_FREQ_CHANNEL_2] = 0u;
1984:Generated_Source\PSoC6/CapSense_1_SensingCSD_LL.c ****                     }
1985:Generated_Source\PSoC6/CapSense_1_SensingCSD_LL.c ****                 #endif /* (CapSense_1_ENABLE == CapSense_1_MULTI_FREQ_SCAN_EN) */
1986:Generated_Source\PSoC6/CapSense_1_SensingCSD_LL.c ****             }
1987:Generated_Source\PSoC6/CapSense_1_SensingCSD_LL.c ****         #else
1988:Generated_Source\PSoC6/CapSense_1_SensingCSD_LL.c ****             /* Normalize widget for single-IDAC mode*/
1989:Generated_Source\PSoC6/CapSense_1_SensingCSD_LL.c ****             ptrIdac[0u] = iDAC8Max[0u];
1990:Generated_Source\PSoC6/CapSense_1_SensingCSD_LL.c ****             #if (CapSense_1_ENABLE == CapSense_1_MULTI_FREQ_SCAN_EN)
1991:Generated_Source\PSoC6/CapSense_1_SensingCSD_LL.c ****                 ptrIdac[CapSense_1_FREQ_CHANNEL_1] = iDAC8Max[CapSense_1_FREQ_CHANNEL_1];
1992:Generated_Source\PSoC6/CapSense_1_SensingCSD_LL.c ****                 ptrIdac[CapSense_1_FREQ_CHANNEL_2] = iDAC8Max[CapSense_1_FREQ_CHANNEL_2];
1993:Generated_Source\PSoC6/CapSense_1_SensingCSD_LL.c ****             #endif /* (CapSense_1_ENABLE == CapSense_1_MULTI_FREQ_SCAN_EN) */
1994:Generated_Source\PSoC6/CapSense_1_SensingCSD_LL.c ****         #endif /* (CapSense_1_ENABLE == CapSense_1_CSD_IDAC_COMP_EN) */
1995:Generated_Source\PSoC6/CapSense_1_SensingCSD_LL.c **** 
1996:Generated_Source\PSoC6/CapSense_1_SensingCSD_LL.c ****         #if (CapSense_1_CSD_MATRIX_WIDGET_EN || CapSense_1_CSD_TOUCHPAD_WIDGET_EN)
1997:Generated_Source\PSoC6/CapSense_1_SensingCSD_LL.c ****             if ((CapSense_1_WD_TOUCHPAD_E == (CapSense_1_WD_TYPE_ENUM)CapSense_1_dsFlash.wdgtArray[
1998:Generated_Source\PSoC6/CapSense_1_SensingCSD_LL.c ****                 (CapSense_1_WD_MATRIX_BUTTON_E == (CapSense_1_WD_TYPE_ENUM)CapSense_1_dsFlash.wdgtA
1999:Generated_Source\PSoC6/CapSense_1_SensingCSD_LL.c ****             {
2000:Generated_Source\PSoC6/CapSense_1_SensingCSD_LL.c ****                 /* Init pointer to Modulator IDAC for columns */
2001:Generated_Source\PSoC6/CapSense_1_SensingCSD_LL.c ****                 ptrIdac = &ptrWdgt->rowIdacMod[0u];
2002:Generated_Source\PSoC6/CapSense_1_SensingCSD_LL.c **** 
2003:Generated_Source\PSoC6/CapSense_1_SensingCSD_LL.c ****                 /* Reset the maximum value for columns */
2004:Generated_Source\PSoC6/CapSense_1_SensingCSD_LL.c ****                 iDAC8Max[0u] = 1u;
2005:Generated_Source\PSoC6/CapSense_1_SensingCSD_LL.c ****                 #if (CapSense_1_ENABLE == CapSense_1_MULTI_FREQ_SCAN_EN)
2006:Generated_Source\PSoC6/CapSense_1_SensingCSD_LL.c ****                     iDAC8Max[CapSense_1_FREQ_CHANNEL_1] = 1u;
2007:Generated_Source\PSoC6/CapSense_1_SensingCSD_LL.c ****                     iDAC8Max[CapSense_1_FREQ_CHANNEL_2] = 1u;
2008:Generated_Source\PSoC6/CapSense_1_SensingCSD_LL.c ****                 #endif /* (CapSense_1_ENABLE == CapSense_1_MULTI_FREQ_SCAN_EN) */
2009:Generated_Source\PSoC6/CapSense_1_SensingCSD_LL.c **** 
2010:Generated_Source\PSoC6/CapSense_1_SensingCSD_LL.c ****                 #if (CapSense_1_CSD_SS_DIS != CapSense_1_CSD_AUTOTUNE)
2011:Generated_Source\PSoC6/CapSense_1_SensingCSD_LL.c ****                     maxIdac = CapSense_1_calibratedIdac;
2012:Generated_Source\PSoC6/CapSense_1_SensingCSD_LL.c ****                     maxRaw = CapSense_1_calibratedRawcount;
2013:Generated_Source\PSoC6/CapSense_1_SensingCSD_LL.c ****                     CapSense_1_calibratedIdac = 1u;
2014:Generated_Source\PSoC6/CapSense_1_SensingCSD_LL.c ****                     CapSense_1_calibratedRawcount = 1u;
2015:Generated_Source\PSoC6/CapSense_1_SensingCSD_LL.c ****                 #endif /* (CapSense_1_CSD_SS_DIS != CapSense_1_CSD_AUTOTUNE) */
2016:Generated_Source\PSoC6/CapSense_1_SensingCSD_LL.c **** 
ARM GAS  C:\Users\enes_\AppData\Local\Temp\ccsgh5TW.s 			page 42


2017:Generated_Source\PSoC6/CapSense_1_SensingCSD_LL.c ****                 /* Go through all columns of touchpad to calibrate them */
2018:Generated_Source\PSoC6/CapSense_1_SensingCSD_LL.c ****                 for (CapSense_1_sensorIndex = CapSense_1_dsFlash.wdgtArray[widgetId].numCols;
2019:Generated_Source\PSoC6/CapSense_1_SensingCSD_LL.c ****                      CapSense_1_sensorIndex < (uint8)CapSense_1_dsFlash.wdgtArray[widgetId].totalNu
2020:Generated_Source\PSoC6/CapSense_1_SensingCSD_LL.c ****                      CapSense_1_sensorIndex++)
2021:Generated_Source\PSoC6/CapSense_1_SensingCSD_LL.c ****                 {
2022:Generated_Source\PSoC6/CapSense_1_SensingCSD_LL.c ****                     /* Calibrate current sensor in widget */
2023:Generated_Source\PSoC6/CapSense_1_SensingCSD_LL.c ****                     calibrateStatus |= CapSense_1_SsCSDCalibrateOneSensor(rawLevel, ptrIdac, iDAC8M
2024:Generated_Source\PSoC6/CapSense_1_SensingCSD_LL.c ****                 }
2025:Generated_Source\PSoC6/CapSense_1_SensingCSD_LL.c **** 
2026:Generated_Source\PSoC6/CapSense_1_SensingCSD_LL.c ****                 #if (CapSense_1_CSD_SS_DIS != CapSense_1_CSD_AUTOTUNE)
2027:Generated_Source\PSoC6/CapSense_1_SensingCSD_LL.c ****                     CapSense_1_calibratedIdacRow = CapSense_1_calibratedIdac;
2028:Generated_Source\PSoC6/CapSense_1_SensingCSD_LL.c ****                     CapSense_1_calibratedRawcountRow = CapSense_1_calibratedRawcount;
2029:Generated_Source\PSoC6/CapSense_1_SensingCSD_LL.c ****                     CapSense_1_calibratedIdac = maxIdac;
2030:Generated_Source\PSoC6/CapSense_1_SensingCSD_LL.c ****                     CapSense_1_calibratedRawcount = maxRaw;
2031:Generated_Source\PSoC6/CapSense_1_SensingCSD_LL.c ****                 #endif /* (CapSense_1_CSD_SS_DIS != CapSense_1_CSD_AUTOTUNE) */
2032:Generated_Source\PSoC6/CapSense_1_SensingCSD_LL.c **** 
2033:Generated_Source\PSoC6/CapSense_1_SensingCSD_LL.c ****                 /* Normalize idacMod and idacComp values */
2034:Generated_Source\PSoC6/CapSense_1_SensingCSD_LL.c ****                 #if (CapSense_1_ENABLE == CapSense_1_CSD_IDAC_COMP_EN)
2035:Generated_Source\PSoC6/CapSense_1_SensingCSD_LL.c ****                     /* Calculate Modulator value: idacMod = (iDAC8Max + 1)/2 */
2036:Generated_Source\PSoC6/CapSense_1_SensingCSD_LL.c ****                     ptrIdac[0u] = (iDAC8Max[0u] + 1u) >> 1u;
2037:Generated_Source\PSoC6/CapSense_1_SensingCSD_LL.c ****                     #if (CapSense_1_ENABLE == CapSense_1_MULTI_FREQ_SCAN_EN)
2038:Generated_Source\PSoC6/CapSense_1_SensingCSD_LL.c ****                         ptrIdac[CapSense_1_FREQ_CHANNEL_1] =  (iDAC8Max[CapSense_1_FREQ_CHANNEL_1] 
2039:Generated_Source\PSoC6/CapSense_1_SensingCSD_LL.c ****                         ptrIdac[CapSense_1_FREQ_CHANNEL_2] = (iDAC8Max[CapSense_1_FREQ_CHANNEL_2] +
2040:Generated_Source\PSoC6/CapSense_1_SensingCSD_LL.c ****                     #endif /* (CapSense_1_ENABLE == CapSense_1_MULTI_FREQ_SCAN_EN) */
2041:Generated_Source\PSoC6/CapSense_1_SensingCSD_LL.c **** 
2042:Generated_Source\PSoC6/CapSense_1_SensingCSD_LL.c ****                     /* Go through all columns of touchpad to normalize them */
2043:Generated_Source\PSoC6/CapSense_1_SensingCSD_LL.c ****                     for (CapSense_1_sensorIndex = CapSense_1_dsFlash.wdgtArray[widgetId].numCols;
2044:Generated_Source\PSoC6/CapSense_1_SensingCSD_LL.c ****                          CapSense_1_sensorIndex < (uint8)CapSense_1_dsFlash.wdgtArray[widgetId].tot
2045:Generated_Source\PSoC6/CapSense_1_SensingCSD_LL.c ****                          CapSense_1_sensorIndex++)
2046:Generated_Source\PSoC6/CapSense_1_SensingCSD_LL.c ****                     {
2047:Generated_Source\PSoC6/CapSense_1_SensingCSD_LL.c ****                         CapSense_1_curRamSnsPtr = (CapSense_1_RAM_SNS_STRUCT *)
2048:Generated_Source\PSoC6/CapSense_1_SensingCSD_LL.c ****                                  CapSense_1_dsFlash.wdgtArray[widgetId].ptr2SnsRam + CapSense_1_sen
2049:Generated_Source\PSoC6/CapSense_1_SensingCSD_LL.c **** 
2050:Generated_Source\PSoC6/CapSense_1_SensingCSD_LL.c ****                         /* Calculate Compensation IDAC value: idacComp(i) = (iDAC8(i) - idacMod) * 
2051:Generated_Source\PSoC6/CapSense_1_SensingCSD_LL.c ****                         if (CapSense_1_curRamSnsPtr->idacComp[0u] >= ptrIdac[0u])
2052:Generated_Source\PSoC6/CapSense_1_SensingCSD_LL.c ****                         {
2053:Generated_Source\PSoC6/CapSense_1_SensingCSD_LL.c ****                             CapSense_1_curRamSnsPtr->idacComp[0u] -= ptrIdac[0u];
2054:Generated_Source\PSoC6/CapSense_1_SensingCSD_LL.c ****                             #if (CapSense_1_ENABLE == CapSense_1_CSD_DEDICATED_IDAC_COMP_EN)
2055:Generated_Source\PSoC6/CapSense_1_SensingCSD_LL.c ****                                 CapSense_1_curRamSnsPtr->idacComp[0u] =
2056:Generated_Source\PSoC6/CapSense_1_SensingCSD_LL.c ****                                     (uint8)((((target * CapSense_1_curRamSnsPtr->idacComp[0u]) +
2057:Generated_Source\PSoC6/CapSense_1_SensingCSD_LL.c ****                                         CapSense_1_PERCENTAGE_100) - 1u) / CapSense_1_PERCENTAGE_10
2058:Generated_Source\PSoC6/CapSense_1_SensingCSD_LL.c ****                             #endif /* (CapSense_1_ENABLE == CapSense_1_CSD_DEDICATED_IDAC_COMP_EN) 
2059:Generated_Source\PSoC6/CapSense_1_SensingCSD_LL.c ****                         }
2060:Generated_Source\PSoC6/CapSense_1_SensingCSD_LL.c ****                         #if (CapSense_1_ENABLE == CapSense_1_MULTI_FREQ_SCAN_EN)
2061:Generated_Source\PSoC6/CapSense_1_SensingCSD_LL.c ****                             /* Do same for first frequency channel */
2062:Generated_Source\PSoC6/CapSense_1_SensingCSD_LL.c ****                             if (CapSense_1_curRamSnsPtr->idacComp[CapSense_1_FREQ_CHANNEL_1] >= ptr
2063:Generated_Source\PSoC6/CapSense_1_SensingCSD_LL.c ****                             {
2064:Generated_Source\PSoC6/CapSense_1_SensingCSD_LL.c ****                                 CapSense_1_curRamSnsPtr->idacComp[CapSense_1_FREQ_CHANNEL_1] -= ptr
2065:Generated_Source\PSoC6/CapSense_1_SensingCSD_LL.c ****                                 #if (CapSense_1_ENABLE == CapSense_1_CSD_DEDICATED_IDAC_COMP_EN)
2066:Generated_Source\PSoC6/CapSense_1_SensingCSD_LL.c ****                                     CapSense_1_curRamSnsPtr->idacComp[CapSense_1_FREQ_CHANNEL_1] =
2067:Generated_Source\PSoC6/CapSense_1_SensingCSD_LL.c ****                                         (uint8)((((target * CapSense_1_curRamSnsPtr->idacComp[CapSe
2068:Generated_Source\PSoC6/CapSense_1_SensingCSD_LL.c ****                                         CapSense_1_PERCENTAGE_100) - 1u) / CapSense_1_PERCENTAGE_10
2069:Generated_Source\PSoC6/CapSense_1_SensingCSD_LL.c ****                                 #endif /* (CapSense_1_ENABLE == CapSense_1_CSD_DEDICATED_IDAC_COMP_
2070:Generated_Source\PSoC6/CapSense_1_SensingCSD_LL.c ****                             }
2071:Generated_Source\PSoC6/CapSense_1_SensingCSD_LL.c ****                             /* Do same for second frequency channel */
2072:Generated_Source\PSoC6/CapSense_1_SensingCSD_LL.c ****                             if (CapSense_1_curRamSnsPtr->idacComp[CapSense_1_FREQ_CHANNEL_2] >= ptr
2073:Generated_Source\PSoC6/CapSense_1_SensingCSD_LL.c ****                             {
ARM GAS  C:\Users\enes_\AppData\Local\Temp\ccsgh5TW.s 			page 43


2074:Generated_Source\PSoC6/CapSense_1_SensingCSD_LL.c ****                                 CapSense_1_curRamSnsPtr->idacComp[CapSense_1_FREQ_CHANNEL_2] -= ptr
2075:Generated_Source\PSoC6/CapSense_1_SensingCSD_LL.c ****                                 #if (CapSense_1_ENABLE == CapSense_1_CSD_DEDICATED_IDAC_COMP_EN)
2076:Generated_Source\PSoC6/CapSense_1_SensingCSD_LL.c ****                                     CapSense_1_curRamSnsPtr->idacComp[CapSense_1_FREQ_CHANNEL_2] =
2077:Generated_Source\PSoC6/CapSense_1_SensingCSD_LL.c ****                                         (uint8)((((target * CapSense_1_curRamSnsPtr->idacComp[CapSe
2078:Generated_Source\PSoC6/CapSense_1_SensingCSD_LL.c ****                                         CapSense_1_PERCENTAGE_100) - 1u) / CapSense_1_PERCENTAGE_10
2079:Generated_Source\PSoC6/CapSense_1_SensingCSD_LL.c ****                                 #endif /* (CapSense_1_ENABLE == CapSense_1_CSD_DEDICATED_IDAC_COMP_
2080:Generated_Source\PSoC6/CapSense_1_SensingCSD_LL.c ****                             }
2081:Generated_Source\PSoC6/CapSense_1_SensingCSD_LL.c ****                         #endif /* (CapSense_1_ENABLE == CapSense_1_MULTI_FREQ_SCAN_EN) */
2082:Generated_Source\PSoC6/CapSense_1_SensingCSD_LL.c ****                     }
2083:Generated_Source\PSoC6/CapSense_1_SensingCSD_LL.c ****                 #else
2084:Generated_Source\PSoC6/CapSense_1_SensingCSD_LL.c ****                     /* Normalize widget for single-IDAC mode*/
2085:Generated_Source\PSoC6/CapSense_1_SensingCSD_LL.c ****                     ptrIdac[0u] = iDAC8Max[0u];
2086:Generated_Source\PSoC6/CapSense_1_SensingCSD_LL.c ****                     #if (CapSense_1_ENABLE == CapSense_1_MULTI_FREQ_SCAN_EN)
2087:Generated_Source\PSoC6/CapSense_1_SensingCSD_LL.c ****                         ptrIdac[CapSense_1_FREQ_CHANNEL_1] = iDAC8Max[CapSense_1_FREQ_CHANNEL_1];
2088:Generated_Source\PSoC6/CapSense_1_SensingCSD_LL.c ****                         ptrIdac[CapSense_1_FREQ_CHANNEL_2] = iDAC8Max[CapSense_1_FREQ_CHANNEL_2];
2089:Generated_Source\PSoC6/CapSense_1_SensingCSD_LL.c ****                     #endif /* (CapSense_1_ENABLE == CapSense_1_MULTI_FREQ_SCAN_EN) */
2090:Generated_Source\PSoC6/CapSense_1_SensingCSD_LL.c ****                 #endif /* (CapSense_1_ENABLE == CapSense_1_CSD_IDAC_COMP_EN) */
2091:Generated_Source\PSoC6/CapSense_1_SensingCSD_LL.c ****             }
2092:Generated_Source\PSoC6/CapSense_1_SensingCSD_LL.c ****         #endif /* (CapSense_1_CSD_MATRIX_WIDGET_EN || CapSense_1_CSD_TOUCHPAD_WIDGET_EN) */
2093:Generated_Source\PSoC6/CapSense_1_SensingCSD_LL.c **** 
2094:Generated_Source\PSoC6/CapSense_1_SensingCSD_LL.c ****         CapSense_1_sensorIndex = 0u;
2095:Generated_Source\PSoC6/CapSense_1_SensingCSD_LL.c **** 
2096:Generated_Source\PSoC6/CapSense_1_SensingCSD_LL.c ****         return calibrateStatus;
2097:Generated_Source\PSoC6/CapSense_1_SensingCSD_LL.c ****     }
2098:Generated_Source\PSoC6/CapSense_1_SensingCSD_LL.c **** #endif /* ((CapSense_1_CSD_SS_DIS != CapSense_1_CSD_AUTOTUNE)) || \
2099:Generated_Source\PSoC6/CapSense_1_SensingCSD_LL.c ****             (CapSense_1_ENABLE == CapSense_1_CSD_IDAC_AUTOCAL_EN)) */
2100:Generated_Source\PSoC6/CapSense_1_SensingCSD_LL.c **** 
2101:Generated_Source\PSoC6/CapSense_1_SensingCSD_LL.c **** 
2102:Generated_Source\PSoC6/CapSense_1_SensingCSD_LL.c **** /*******************************************************************************
2103:Generated_Source\PSoC6/CapSense_1_SensingCSD_LL.c **** * Function Name: CapSense_1_SsCSDCmodPrecharge
2104:Generated_Source\PSoC6/CapSense_1_SensingCSD_LL.c **** ****************************************************************************//**
2105:Generated_Source\PSoC6/CapSense_1_SensingCSD_LL.c **** *
2106:Generated_Source\PSoC6/CapSense_1_SensingCSD_LL.c **** * \brief
2107:Generated_Source\PSoC6/CapSense_1_SensingCSD_LL.c **** *  This function initializes the Cmod charging to Vref.
2108:Generated_Source\PSoC6/CapSense_1_SensingCSD_LL.c **** *
2109:Generated_Source\PSoC6/CapSense_1_SensingCSD_LL.c **** * \details
2110:Generated_Source\PSoC6/CapSense_1_SensingCSD_LL.c **** *  Coarse initialization for CMOD and Cch.
2111:Generated_Source\PSoC6/CapSense_1_SensingCSD_LL.c **** *  The coarse initialization is performed by HSCOMP.
2112:Generated_Source\PSoC6/CapSense_1_SensingCSD_LL.c **** *  The HSCOMP monitors the Cmod voltage via Cmod sense path
2113:Generated_Source\PSoC6/CapSense_1_SensingCSD_LL.c **** *  and charges the Cmod using HCAV switch via CSDBUS-A, AMUXBUS-A
2114:Generated_Source\PSoC6/CapSense_1_SensingCSD_LL.c **** *  and static connection of Cmod to AMUXBUS-A.
2115:Generated_Source\PSoC6/CapSense_1_SensingCSD_LL.c **** *
2116:Generated_Source\PSoC6/CapSense_1_SensingCSD_LL.c **** *******************************************************************************/
2117:Generated_Source\PSoC6/CapSense_1_SensingCSD_LL.c **** static void CapSense_1_SsCSDCmodPrecharge(void)
2118:Generated_Source\PSoC6/CapSense_1_SensingCSD_LL.c **** {
 320              		.loc 1 2118 0
 321              		.cfi_startproc
 322              		@ args = 0, pretend = 0, frame = 0
 323              		@ frame_needed = 0, uses_anonymous_args = 0
 324              		@ link register save eliminated.
2119:Generated_Source\PSoC6/CapSense_1_SensingCSD_LL.c ****     uint32 watchdogCounter;
2120:Generated_Source\PSoC6/CapSense_1_SensingCSD_LL.c **** 
2121:Generated_Source\PSoC6/CapSense_1_SensingCSD_LL.c ****     CY_SET_REG32(CapSense_1_CSD_CSDCMP_PTR, CapSense_1_CSD_CSDCMP_INIT);
 325              		.loc 1 2121 0
 326 0000 0023     		movs	r3, #0
 327 0002 164A     		ldr	r2, .L34
 328 0004 1360     		str	r3, [r2]
ARM GAS  C:\Users\enes_\AppData\Local\Temp\ccsgh5TW.s 			page 44


2122:Generated_Source\PSoC6/CapSense_1_SensingCSD_LL.c **** 
2123:Generated_Source\PSoC6/CapSense_1_SensingCSD_LL.c ****     CY_SET_REG32(CapSense_1_CSD_SW_FW_MOD_SEL_PTR,  CapSense_1_CSD_SW_FW_MOD_SEL_INIT);
 329              		.loc 1 2123 0
 330 0006 02F59272 		add	r2, r2, #292
 331 000a 1360     		str	r3, [r2]
2124:Generated_Source\PSoC6/CapSense_1_SensingCSD_LL.c ****     CY_SET_REG32(CapSense_1_CSD_SW_FW_TANK_SEL_PTR, CapSense_1_CSD_SW_FW_TANK_SEL_INIT);
 332              		.loc 1 2124 0
 333 000c 0432     		adds	r2, r2, #4
 334 000e 1360     		str	r3, [r2]
2125:Generated_Source\PSoC6/CapSense_1_SensingCSD_LL.c ****     CY_SET_REG32(CapSense_1_CSD_SW_SHIELD_SEL_PTR,  CapSense_1_CSD_SW_SHIELD_SEL_INIT);
 335              		.loc 1 2125 0
 336 0010 0621     		movs	r1, #6
 337 0012 2C3A     		subs	r2, r2, #44
 338 0014 1160     		str	r1, [r2]
2126:Generated_Source\PSoC6/CapSense_1_SensingCSD_LL.c ****     #if (CapSense_1_ENABLE == CapSense_1_CSD_SHIELD_EN)
2127:Generated_Source\PSoC6/CapSense_1_SensingCSD_LL.c ****         /*
2128:Generated_Source\PSoC6/CapSense_1_SensingCSD_LL.c ****          * Connect CMOD to (sense path) to HSCOMP: HMPM or HMPS or HMPT switches depend on Cmod con
2129:Generated_Source\PSoC6/CapSense_1_SensingCSD_LL.c ****          * Connect AMUXBUS-B to HSCMP positive input
2130:Generated_Source\PSoC6/CapSense_1_SensingCSD_LL.c ****          */
2131:Generated_Source\PSoC6/CapSense_1_SensingCSD_LL.c ****         CY_SET_REG32(CapSense_1_CSD_SW_HS_P_SEL_PTR, CapSense_1_CSD_SW_HS_P_SEL_COARSE);
2132:Generated_Source\PSoC6/CapSense_1_SensingCSD_LL.c **** 
2133:Generated_Source\PSoC6/CapSense_1_SensingCSD_LL.c ****         #if(0u != CapSense_1_CSD_SHIELD_TANK_EN)
2134:Generated_Source\PSoC6/CapSense_1_SensingCSD_LL.c ****             /* Connect CTANK to AMUXBUS-A */
2135:Generated_Source\PSoC6/CapSense_1_SensingCSD_LL.c ****             Cy_GPIO_SetHSIOM((GPIO_PRT_Type*)CapSense_1_CSD_CTANK_PORT_PTR, CapSense_1_CSD_CTANK_PI
2136:Generated_Source\PSoC6/CapSense_1_SensingCSD_LL.c ****                                                                        (en_hsiom_sel_t)CapSense_1_H
2137:Generated_Source\PSoC6/CapSense_1_SensingCSD_LL.c ****         #endif /* (0u != CapSense_1_CSD_SHIELD_TANK_EN) */
2138:Generated_Source\PSoC6/CapSense_1_SensingCSD_LL.c ****     #else
2139:Generated_Source\PSoC6/CapSense_1_SensingCSD_LL.c ****         /* Connect CMOD to (sense path) to HSCOMP: HMPM or HMPS or HMPT switches depend on Cmod con
2140:Generated_Source\PSoC6/CapSense_1_SensingCSD_LL.c ****         CY_SET_REG32(CapSense_1_CSD_SW_HS_P_SEL_PTR, CapSense_1_CSD_SW_HS_P_SEL_COARSE);
 339              		.loc 1 2140 0
 340 0016 4FF48071 		mov	r1, #256
 341 001a 083A     		subs	r2, r2, #8
 342 001c 1160     		str	r1, [r2]
2141:Generated_Source\PSoC6/CapSense_1_SensingCSD_LL.c ****     #endif /* (CapSense_1_ENABLE == CapSense_1_CSD_SHIELD_EN) */
2142:Generated_Source\PSoC6/CapSense_1_SensingCSD_LL.c **** 
2143:Generated_Source\PSoC6/CapSense_1_SensingCSD_LL.c ****     CY_SET_REG32(CapSense_1_CSD_SW_RES_PTR, CapSense_1_CSD_SW_RES_INIT);
 343              		.loc 1 2143 0
 344 001e 0121     		movs	r1, #1
 345 0020 903A     		subs	r2, r2, #144
 346 0022 1160     		str	r1, [r2]
2144:Generated_Source\PSoC6/CapSense_1_SensingCSD_LL.c **** 
2145:Generated_Source\PSoC6/CapSense_1_SensingCSD_LL.c ****     /* Clear all interrupt pending requests */
2146:Generated_Source\PSoC6/CapSense_1_SensingCSD_LL.c ****     CY_SET_REG32(CapSense_1_CSD_INTR_PTR, CapSense_1_CSD_INTR_ALL_MSK);
 347              		.loc 1 2146 0
 348 0024 A2F58072 		sub	r2, r2, #256
 349 0028 4FF48371 		mov	r1, #262
 350 002c 1160     		str	r1, [r2]
2147:Generated_Source\PSoC6/CapSense_1_SensingCSD_LL.c ****     (void)CY_GET_REG32(CapSense_1_CSD_INTR_PTR);
 351              		.loc 1 2147 0
 352 002e 1268     		ldr	r2, [r2]
2148:Generated_Source\PSoC6/CapSense_1_SensingCSD_LL.c **** 
2149:Generated_Source\PSoC6/CapSense_1_SensingCSD_LL.c ****     /* Unmask INIT interrupt (enable interrupt) */
2150:Generated_Source\PSoC6/CapSense_1_SensingCSD_LL.c ****     CY_SET_REG32(CapSense_1_CSD_INTR_MASK_PTR, CapSense_1_CSD_INTR_MASK_CLEAR_MSK);
 353              		.loc 1 2150 0
 354 0030 0B4A     		ldr	r2, .L34+4
 355 0032 1360     		str	r3, [r2]
2151:Generated_Source\PSoC6/CapSense_1_SensingCSD_LL.c **** 
ARM GAS  C:\Users\enes_\AppData\Local\Temp\ccsgh5TW.s 			page 45


2152:Generated_Source\PSoC6/CapSense_1_SensingCSD_LL.c ****     /* Start SEQUENCER for coarse initialization for Cmod */
2153:Generated_Source\PSoC6/CapSense_1_SensingCSD_LL.c ****     CY_SET_REG32(CapSense_1_CSD_SEQ_START_PTR, CapSense_1_CSD_SEQ_START_SEQ_MODE_MSK |
 356              		.loc 1 2153 0
 357 0034 0322     		movs	r2, #3
 358 0036 0B4B     		ldr	r3, .L34+8
 359 0038 1A60     		str	r2, [r3]
 360              	.LVL34:
2154:Generated_Source\PSoC6/CapSense_1_SensingCSD_LL.c ****                                                  CapSense_1_CSD_SEQ_START_START_MSK);
2155:Generated_Source\PSoC6/CapSense_1_SensingCSD_LL.c **** 
2156:Generated_Source\PSoC6/CapSense_1_SensingCSD_LL.c ****     /* Init Watchdog Counter to prevent a hang */
2157:Generated_Source\PSoC6/CapSense_1_SensingCSD_LL.c ****     watchdogCounter = CapSense_1_CSD_PRECHARGE_WATCHDOG_CYCLES_NUM;
 361              		.loc 1 2157 0
 362 003a 4FF4FA63 		mov	r3, #2000
2158:Generated_Source\PSoC6/CapSense_1_SensingCSD_LL.c **** 
2159:Generated_Source\PSoC6/CapSense_1_SensingCSD_LL.c ****     /* Wait for INTR.INIT goes high */
2160:Generated_Source\PSoC6/CapSense_1_SensingCSD_LL.c ****     while((0u == (CY_GET_REG32(CapSense_1_CSD_INTR_PTR) & CapSense_1_CSD_INTR_INIT_MSK)) && (0u != 
 363              		.loc 1 2160 0
 364 003e 00E0     		b	.L30
 365              	.LVL35:
 366              	.L32:
2161:Generated_Source\PSoC6/CapSense_1_SensingCSD_LL.c ****     {
2162:Generated_Source\PSoC6/CapSense_1_SensingCSD_LL.c ****         watchdogCounter--;
 367              		.loc 1 2162 0
 368 0040 013B     		subs	r3, r3, #1
 369              	.LVL36:
 370              	.L30:
2160:Generated_Source\PSoC6/CapSense_1_SensingCSD_LL.c ****     {
 371              		.loc 1 2160 0
 372 0042 094A     		ldr	r2, .L34+12
 373 0044 1268     		ldr	r2, [r2]
 374 0046 12F0040F 		tst	r2, #4
 375 004a 01D1     		bne	.L31
2160:Generated_Source\PSoC6/CapSense_1_SensingCSD_LL.c ****     {
 376              		.loc 1 2160 0 is_stmt 0 discriminator 1
 377 004c 002B     		cmp	r3, #0
 378 004e F7D1     		bne	.L32
 379              	.L31:
2163:Generated_Source\PSoC6/CapSense_1_SensingCSD_LL.c ****     }
2164:Generated_Source\PSoC6/CapSense_1_SensingCSD_LL.c **** 
2165:Generated_Source\PSoC6/CapSense_1_SensingCSD_LL.c ****     if (0u == watchdogCounter)
 380              		.loc 1 2165 0 is_stmt 1
 381 0050 13B9     		cbnz	r3, .L29
2166:Generated_Source\PSoC6/CapSense_1_SensingCSD_LL.c ****     {
2167:Generated_Source\PSoC6/CapSense_1_SensingCSD_LL.c ****         /* Set sequencer to idle state if coarse initialization fails */
2168:Generated_Source\PSoC6/CapSense_1_SensingCSD_LL.c ****         CY_SET_REG32(CapSense_1_CSD_SEQ_START_PTR, CapSense_1_CSD_SEQ_START_ABORT_MSK);
 382              		.loc 1 2168 0
 383 0052 0822     		movs	r2, #8
 384 0054 034B     		ldr	r3, .L34+8
 385              	.LVL37:
 386 0056 1A60     		str	r2, [r3]
 387              	.L29:
 388 0058 7047     		bx	lr
 389              	.L35:
 390 005a 00BF     		.align	2
 391              	.L34:
 392 005c 8C013640 		.word	1077281164
 393 0060 F8003640 		.word	1077281016
ARM GAS  C:\Users\enes_\AppData\Local\Temp\ccsgh5TW.s 			page 46


 394 0064 40033640 		.word	1077281600
 395 0068 F0003640 		.word	1077281008
 396              		.cfi_endproc
 397              	.LFE296:
 398              		.size	CapSense_1_SsCSDCmodPrecharge, .-CapSense_1_SsCSDCmodPrecharge
 399              		.section	.text.CapSense_1_SsCSDTriggerScan,"ax",%progbits
 400              		.align	2
 401              		.thumb
 402              		.thumb_func
 403              		.type	CapSense_1_SsCSDTriggerScan, %function
 404              	CapSense_1_SsCSDTriggerScan:
