ARM GAS  C:\Users\enes_\AppData\Local\Temp\ccsXGQXN.s 			page 1


   1              		.syntax unified
   2              		.cpu cortex-m4
   3              		.eabi_attribute 27, 1
   4              		.fpu fpv4-sp-d16
   5              		.eabi_attribute 20, 1
   6              		.eabi_attribute 21, 1
   7              		.eabi_attribute 23, 3
   8              		.eabi_attribute 24, 1
   9              		.eabi_attribute 25, 1
  10              		.eabi_attribute 26, 1
  11              		.eabi_attribute 30, 1
  12              		.eabi_attribute 34, 1
  13              		.eabi_attribute 18, 4
  14              		.thumb
  15              		.syntax unified
  16              		.file	"cy_dma.c"
  17              		.text
  18              	.Ltext0:
  19              		.cfi_sections	.debug_frame
  20              		.section	.text.Cy_DMA_Crc_Init,"ax",%progbits
  21              		.align	2
  22              		.global	Cy_DMA_Crc_Init
  23              		.thumb
  24              		.thumb_func
  25              		.type	Cy_DMA_Crc_Init, %function
  26              	Cy_DMA_Crc_Init:
  27              	.LFB183:
  28              		.file 1 "Generated_Source\\PSoC6\\pdl\\drivers\\peripheral\\dma\\cy_dma.c"
   1:Generated_Source\PSoC6\pdl\drivers\peripheral\dma/cy_dma.c **** /***************************************************************************//**
   2:Generated_Source\PSoC6\pdl\drivers\peripheral\dma/cy_dma.c **** * \file cy_dma.c
   3:Generated_Source\PSoC6\pdl\drivers\peripheral\dma/cy_dma.c **** * \version 2.10
   4:Generated_Source\PSoC6\pdl\drivers\peripheral\dma/cy_dma.c **** *
   5:Generated_Source\PSoC6\pdl\drivers\peripheral\dma/cy_dma.c **** * \brief
   6:Generated_Source\PSoC6\pdl\drivers\peripheral\dma/cy_dma.c **** * The source code file for the DMA driver.
   7:Generated_Source\PSoC6\pdl\drivers\peripheral\dma/cy_dma.c **** *
   8:Generated_Source\PSoC6\pdl\drivers\peripheral\dma/cy_dma.c **** ********************************************************************************
   9:Generated_Source\PSoC6\pdl\drivers\peripheral\dma/cy_dma.c **** * \copyright
  10:Generated_Source\PSoC6\pdl\drivers\peripheral\dma/cy_dma.c **** * Copyright 2016-2018, Cypress Semiconductor Corporation. All rights reserved.
  11:Generated_Source\PSoC6\pdl\drivers\peripheral\dma/cy_dma.c **** * You may use this file only in accordance with the license, terms, conditions,
  12:Generated_Source\PSoC6\pdl\drivers\peripheral\dma/cy_dma.c **** * disclaimers, and limitations in the end user license agreement accompanying
  13:Generated_Source\PSoC6\pdl\drivers\peripheral\dma/cy_dma.c **** * the software package with which this file was provided.
  14:Generated_Source\PSoC6\pdl\drivers\peripheral\dma/cy_dma.c **** *******************************************************************************/
  15:Generated_Source\PSoC6\pdl\drivers\peripheral\dma/cy_dma.c **** 
  16:Generated_Source\PSoC6\pdl\drivers\peripheral\dma/cy_dma.c **** #include "cy_dma.h"
  17:Generated_Source\PSoC6\pdl\drivers\peripheral\dma/cy_dma.c **** 
  18:Generated_Source\PSoC6\pdl\drivers\peripheral\dma/cy_dma.c **** #ifdef CY_IP_M4CPUSS_DMA
  19:Generated_Source\PSoC6\pdl\drivers\peripheral\dma/cy_dma.c **** 
  20:Generated_Source\PSoC6\pdl\drivers\peripheral\dma/cy_dma.c **** 
  21:Generated_Source\PSoC6\pdl\drivers\peripheral\dma/cy_dma.c **** /*******************************************************************************
  22:Generated_Source\PSoC6\pdl\drivers\peripheral\dma/cy_dma.c **** * Function Name: Cy_DMA_Crc_Init
  23:Generated_Source\PSoC6\pdl\drivers\peripheral\dma/cy_dma.c **** ****************************************************************************//**
  24:Generated_Source\PSoC6\pdl\drivers\peripheral\dma/cy_dma.c **** *
  25:Generated_Source\PSoC6\pdl\drivers\peripheral\dma/cy_dma.c **** * Initializes the DMA CRC functionality.
  26:Generated_Source\PSoC6\pdl\drivers\peripheral\dma/cy_dma.c **** *
  27:Generated_Source\PSoC6\pdl\drivers\peripheral\dma/cy_dma.c **** * \param base The pointer to the hardware DMA block.
  28:Generated_Source\PSoC6\pdl\drivers\peripheral\dma/cy_dma.c **** *
  29:Generated_Source\PSoC6\pdl\drivers\peripheral\dma/cy_dma.c **** * \param crcConfig The pointer to the CRC configuration structure
ARM GAS  C:\Users\enes_\AppData\Local\Temp\ccsXGQXN.s 			page 2


  30:Generated_Source\PSoC6\pdl\drivers\peripheral\dma/cy_dma.c **** *                  \ref cy_stc_dma_crc_config_t.
  31:Generated_Source\PSoC6\pdl\drivers\peripheral\dma/cy_dma.c **** *
  32:Generated_Source\PSoC6\pdl\drivers\peripheral\dma/cy_dma.c **** * \return The status /ref cy_en_dma_status_t.
  33:Generated_Source\PSoC6\pdl\drivers\peripheral\dma/cy_dma.c **** *
  34:Generated_Source\PSoC6\pdl\drivers\peripheral\dma/cy_dma.c **** * \funcusage 
  35:Generated_Source\PSoC6\pdl\drivers\peripheral\dma/cy_dma.c **** * \snippet dma\2.10\snippet\main.c snippet_Cy_DMA_Crc_Init
  36:Generated_Source\PSoC6\pdl\drivers\peripheral\dma/cy_dma.c **** *
  37:Generated_Source\PSoC6\pdl\drivers\peripheral\dma/cy_dma.c **** *******************************************************************************/
  38:Generated_Source\PSoC6\pdl\drivers\peripheral\dma/cy_dma.c **** cy_en_dma_status_t Cy_DMA_Crc_Init(DW_Type * base, cy_stc_dma_crc_config_t const * crcConfig)
  39:Generated_Source\PSoC6\pdl\drivers\peripheral\dma/cy_dma.c **** {
  29              		.loc 1 39 0
  30              		.cfi_startproc
  31              		@ args = 0, pretend = 0, frame = 0
  32              		@ frame_needed = 0, uses_anonymous_args = 0
  33              		@ link register save eliminated.
  34              	.LVL0:
  40:Generated_Source\PSoC6\pdl\drivers\peripheral\dma/cy_dma.c ****     cy_en_dma_status_t ret = CY_DMA_BAD_PARAM;
  41:Generated_Source\PSoC6\pdl\drivers\peripheral\dma/cy_dma.c ****     
  42:Generated_Source\PSoC6\pdl\drivers\peripheral\dma/cy_dma.c ****     if((NULL != base) && (NULL != crcConfig) && CY_DW_CRC)
  35              		.loc 1 42 0
  36 0000 20B3     		cbz	r0, .L5
  37 0002 0346     		mov	r3, r0
  38              		.loc 1 42 0 is_stmt 0 discriminator 1
  39 0004 21B3     		cbz	r1, .L6
  40              		.loc 1 42 0 discriminator 2
  41 0006 164A     		ldr	r2, .L12
  42 0008 1268     		ldr	r2, [r2]
  43 000a 92F82A20 		ldrb	r2, [r2, #42]	@ zero_extendqisi2
  44 000e 012A     		cmp	r2, #1
  45 0010 20D9     		bls	.L7
  39:Generated_Source\PSoC6\pdl\drivers\peripheral\dma/cy_dma.c ****     cy_en_dma_status_t ret = CY_DMA_BAD_PARAM;
  46              		.loc 1 39 0 is_stmt 1
  47 0012 10B4     		push	{r4}
  48              		.cfi_def_cfa_offset 4
  49              		.cfi_offset 4, -4
  43:Generated_Source\PSoC6\pdl\drivers\peripheral\dma/cy_dma.c ****     {
  44:Generated_Source\PSoC6\pdl\drivers\peripheral\dma/cy_dma.c ****         DW_CRC_CTL(base) = _BOOL2FLD(DW_V2_CRC_CTL_DATA_REVERSE, crcConfig->dataReverse) |
  50              		.loc 1 44 0
  51 0014 0A78     		ldrb	r2, [r1]	@ zero_extendqisi2
  52 0016 0AB1     		cbz	r2, .L8
  53 0018 0124     		movs	r4, #1
  54 001a 00E0     		b	.L3
  55              	.L8:
  56 001c 0024     		movs	r4, #0
  57              	.L3:
  45:Generated_Source\PSoC6\pdl\drivers\peripheral\dma/cy_dma.c ****                            _BOOL2FLD(DW_V2_CRC_CTL_REM_REVERSE,  crcConfig->reminderReverse);
  58              		.loc 1 45 0
  59 001e 087A     		ldrb	r0, [r1, #8]	@ zero_extendqisi2
  60              	.LVL1:
  61 0020 10B1     		cbz	r0, .L9
  62 0022 4FF48072 		mov	r2, #256
  63 0026 00E0     		b	.L4
  64              	.L9:
  65 0028 0022     		movs	r2, #0
  66              	.L4:
  44:Generated_Source\PSoC6\pdl\drivers\peripheral\dma/cy_dma.c ****                            _BOOL2FLD(DW_V2_CRC_CTL_REM_REVERSE,  crcConfig->reminderReverse);
  67              		.loc 1 44 0
ARM GAS  C:\Users\enes_\AppData\Local\Temp\ccsXGQXN.s 			page 3


  68 002a 2243     		orrs	r2, r2, r4
  69 002c C3F80021 		str	r2, [r3, #256]
  46:Generated_Source\PSoC6\pdl\drivers\peripheral\dma/cy_dma.c **** 
  47:Generated_Source\PSoC6\pdl\drivers\peripheral\dma/cy_dma.c ****         DW_CRC_DATA_CTL(base) = _VAL2FLD(DW_V2_CRC_DATA_CTL_DATA_XOR,  crcConfig->dataXor);
  70              		.loc 1 47 0
  71 0030 0A79     		ldrb	r2, [r1, #4]	@ zero_extendqisi2
  72 0032 C3F81021 		str	r2, [r3, #272]
  48:Generated_Source\PSoC6\pdl\drivers\peripheral\dma/cy_dma.c ****         DW_CRC_REM_CTL(base)  = _VAL2FLD(DW_V2_CRC_REM_CTL_REM_XOR,    crcConfig->reminderXor);
  73              		.loc 1 48 0
  74 0036 CA68     		ldr	r2, [r1, #12]
  75 0038 C3F84021 		str	r2, [r3, #320]
  49:Generated_Source\PSoC6\pdl\drivers\peripheral\dma/cy_dma.c ****         DW_CRC_POL_CTL(base)  = _VAL2FLD(DW_V2_CRC_POL_CTL_POLYNOMIAL, crcConfig->polynomial);
  76              		.loc 1 49 0
  77 003c 0A69     		ldr	r2, [r1, #16]
  78 003e C3F82021 		str	r2, [r3, #288]
  50:Generated_Source\PSoC6\pdl\drivers\peripheral\dma/cy_dma.c ****         DW_CRC_LFSR_CTL(base) = _VAL2FLD(DW_V2_CRC_LFSR_CTL_LFSR32,    crcConfig->lfsrInitVal);
  79              		.loc 1 50 0
  80 0042 4A69     		ldr	r2, [r1, #20]
  81 0044 C3F83021 		str	r2, [r3, #304]
  82              	.LVL2:
  51:Generated_Source\PSoC6\pdl\drivers\peripheral\dma/cy_dma.c **** 
  52:Generated_Source\PSoC6\pdl\drivers\peripheral\dma/cy_dma.c ****         ret = CY_DMA_SUCCESS;
  83              		.loc 1 52 0
  84 0048 0020     		movs	r0, #0
  85 004a 05E0     		b	.L2
  86              	.LVL3:
  87              	.L5:
  88              		.cfi_def_cfa_offset 0
  89              		.cfi_restore 4
  40:Generated_Source\PSoC6\pdl\drivers\peripheral\dma/cy_dma.c ****     
  90              		.loc 1 40 0
  91 004c 0548     		ldr	r0, .L12+4
  92              	.LVL4:
  53:Generated_Source\PSoC6\pdl\drivers\peripheral\dma/cy_dma.c ****     }
  54:Generated_Source\PSoC6\pdl\drivers\peripheral\dma/cy_dma.c **** 
  55:Generated_Source\PSoC6\pdl\drivers\peripheral\dma/cy_dma.c ****     return ret;
  56:Generated_Source\PSoC6\pdl\drivers\peripheral\dma/cy_dma.c **** }
  93              		.loc 1 56 0
  94 004e 7047     		bx	lr
  95              	.LVL5:
  96              	.L6:
  40:Generated_Source\PSoC6\pdl\drivers\peripheral\dma/cy_dma.c ****     
  97              		.loc 1 40 0
  98 0050 0448     		ldr	r0, .L12+4
  99              	.LVL6:
 100 0052 7047     		bx	lr
 101              	.LVL7:
 102              	.L7:
 103 0054 0348     		ldr	r0, .L12+4
 104              	.LVL8:
 105 0056 7047     		bx	lr
 106              	.LVL9:
 107              	.L2:
 108              		.cfi_def_cfa_offset 4
 109              		.cfi_offset 4, -4
 110              		.loc 1 56 0
 111 0058 5DF8044B 		ldr	r4, [sp], #4
ARM GAS  C:\Users\enes_\AppData\Local\Temp\ccsXGQXN.s 			page 4


 112              		.cfi_restore 4
 113              		.cfi_def_cfa_offset 0
 114 005c 7047     		bx	lr
 115              	.L13:
 116 005e 00BF     		.align	2
 117              	.L12:
 118 0060 00000000 		.word	cy_device
 119 0064 01004E00 		.word	5111809
 120              		.cfi_endproc
 121              	.LFE183:
 122              		.size	Cy_DMA_Crc_Init, .-Cy_DMA_Crc_Init
 123              		.section	.text.Cy_DMA_Descriptor_Init,"ax",%progbits
 124              		.align	2
 125              		.global	Cy_DMA_Descriptor_Init
 126              		.thumb
 127              		.thumb_func
 128              		.type	Cy_DMA_Descriptor_Init, %function
 129              	Cy_DMA_Descriptor_Init:
 130              	.LFB184:
  57:Generated_Source\PSoC6\pdl\drivers\peripheral\dma/cy_dma.c **** 
  58:Generated_Source\PSoC6\pdl\drivers\peripheral\dma/cy_dma.c **** 
  59:Generated_Source\PSoC6\pdl\drivers\peripheral\dma/cy_dma.c **** /*******************************************************************************
  60:Generated_Source\PSoC6\pdl\drivers\peripheral\dma/cy_dma.c **** * Function Name: Cy_DMA_Descriptor_Init
  61:Generated_Source\PSoC6\pdl\drivers\peripheral\dma/cy_dma.c **** ****************************************************************************//**
  62:Generated_Source\PSoC6\pdl\drivers\peripheral\dma/cy_dma.c **** *
  63:Generated_Source\PSoC6\pdl\drivers\peripheral\dma/cy_dma.c **** * Initializes the descriptor structure in SRAM from a pre-initialized
  64:Generated_Source\PSoC6\pdl\drivers\peripheral\dma/cy_dma.c **** * configuration structure.
  65:Generated_Source\PSoC6\pdl\drivers\peripheral\dma/cy_dma.c **** * This function initializes only the descriptor and not the channel.
  66:Generated_Source\PSoC6\pdl\drivers\peripheral\dma/cy_dma.c **** *
  67:Generated_Source\PSoC6\pdl\drivers\peripheral\dma/cy_dma.c **** * \param descriptor
  68:Generated_Source\PSoC6\pdl\drivers\peripheral\dma/cy_dma.c **** * The descriptor structure instance declared by the user/component.
  69:Generated_Source\PSoC6\pdl\drivers\peripheral\dma/cy_dma.c **** *
  70:Generated_Source\PSoC6\pdl\drivers\peripheral\dma/cy_dma.c **** * \param config
  71:Generated_Source\PSoC6\pdl\drivers\peripheral\dma/cy_dma.c **** * This is a configuration structure that has all initialization information for
  72:Generated_Source\PSoC6\pdl\drivers\peripheral\dma/cy_dma.c **** * the descriptor.
  73:Generated_Source\PSoC6\pdl\drivers\peripheral\dma/cy_dma.c **** *
  74:Generated_Source\PSoC6\pdl\drivers\peripheral\dma/cy_dma.c **** * \return
  75:Generated_Source\PSoC6\pdl\drivers\peripheral\dma/cy_dma.c **** * The status /ref cy_en_dma_status_t.
  76:Generated_Source\PSoC6\pdl\drivers\peripheral\dma/cy_dma.c **** *
  77:Generated_Source\PSoC6\pdl\drivers\peripheral\dma/cy_dma.c **** * \funcusage 
  78:Generated_Source\PSoC6\pdl\drivers\peripheral\dma/cy_dma.c **** * \snippet dma\2.10\snippet\main.c snippet_Cy_DMA_Enable
  79:Generated_Source\PSoC6\pdl\drivers\peripheral\dma/cy_dma.c **** *
  80:Generated_Source\PSoC6\pdl\drivers\peripheral\dma/cy_dma.c **** *******************************************************************************/
  81:Generated_Source\PSoC6\pdl\drivers\peripheral\dma/cy_dma.c **** cy_en_dma_status_t Cy_DMA_Descriptor_Init(cy_stc_dma_descriptor_t * descriptor, const cy_stc_dma_de
  82:Generated_Source\PSoC6\pdl\drivers\peripheral\dma/cy_dma.c **** {
 131              		.loc 1 82 0
 132              		.cfi_startproc
 133              		@ args = 0, pretend = 0, frame = 0
 134              		@ frame_needed = 0, uses_anonymous_args = 0
 135              	.LVL10:
  83:Generated_Source\PSoC6\pdl\drivers\peripheral\dma/cy_dma.c ****     cy_en_dma_status_t ret = CY_DMA_BAD_PARAM;
  84:Generated_Source\PSoC6\pdl\drivers\peripheral\dma/cy_dma.c **** 
  85:Generated_Source\PSoC6\pdl\drivers\peripheral\dma/cy_dma.c ****     if ((NULL != descriptor) && (NULL != config))
 136              		.loc 1 85 0
 137 0000 0028     		cmp	r0, #0
 138 0002 00F02481 		beq	.L41
  82:Generated_Source\PSoC6\pdl\drivers\peripheral\dma/cy_dma.c ****     cy_en_dma_status_t ret = CY_DMA_BAD_PARAM;
ARM GAS  C:\Users\enes_\AppData\Local\Temp\ccsXGQXN.s 			page 5


 139              		.loc 1 82 0 discriminator 1
 140 0006 38B5     		push	{r3, r4, r5, lr}
 141              		.cfi_def_cfa_offset 16
 142              		.cfi_offset 3, -16
 143              		.cfi_offset 4, -12
 144              		.cfi_offset 5, -8
 145              		.cfi_offset 14, -4
 146 0008 0546     		mov	r5, r0
 147              		.loc 1 85 0 discriminator 1
 148 000a 0029     		cmp	r1, #0
 149 000c 00F02181 		beq	.L42
 150 0010 0C46     		mov	r4, r1
  86:Generated_Source\PSoC6\pdl\drivers\peripheral\dma/cy_dma.c ****     {
  87:Generated_Source\PSoC6\pdl\drivers\peripheral\dma/cy_dma.c ****         CY_ASSERT_L3(CY_DMA_IS_RETRIG_VALID(config->retrigger));
 151              		.loc 1 87 0
 152 0012 0B78     		ldrb	r3, [r1]	@ zero_extendqisi2
 153 0014 032B     		cmp	r3, #3
 154 0016 03D9     		bls	.L16
 155              		.loc 1 87 0 is_stmt 0 discriminator 1
 156 0018 5721     		movs	r1, #87
 157              	.LVL11:
 158 001a 9148     		ldr	r0, .L46
 159              	.LVL12:
 160 001c FFF7FEFF 		bl	Cy_SysLib_AssertFailed
 161              	.LVL13:
 162              	.L16:
  88:Generated_Source\PSoC6\pdl\drivers\peripheral\dma/cy_dma.c ****         CY_ASSERT_L3(CY_DMA_IS_TRIG_TYPE_VALID(config->interruptType));
 163              		.loc 1 88 0 is_stmt 1
 164 0020 6378     		ldrb	r3, [r4, #1]	@ zero_extendqisi2
 165 0022 032B     		cmp	r3, #3
 166 0024 03D9     		bls	.L17
 167              		.loc 1 88 0 is_stmt 0 discriminator 1
 168 0026 5821     		movs	r1, #88
 169 0028 8D48     		ldr	r0, .L46
 170 002a FFF7FEFF 		bl	Cy_SysLib_AssertFailed
 171              	.LVL14:
 172              	.L17:
  89:Generated_Source\PSoC6\pdl\drivers\peripheral\dma/cy_dma.c ****         CY_ASSERT_L3(CY_DMA_IS_TRIG_TYPE_VALID(config->triggerOutType));
 173              		.loc 1 89 0 is_stmt 1
 174 002e A378     		ldrb	r3, [r4, #2]	@ zero_extendqisi2
 175 0030 032B     		cmp	r3, #3
 176 0032 03D9     		bls	.L18
 177              		.loc 1 89 0 is_stmt 0 discriminator 1
 178 0034 5921     		movs	r1, #89
 179 0036 8A48     		ldr	r0, .L46
 180 0038 FFF7FEFF 		bl	Cy_SysLib_AssertFailed
 181              	.LVL15:
 182              	.L18:
  90:Generated_Source\PSoC6\pdl\drivers\peripheral\dma/cy_dma.c ****         CY_ASSERT_L3(CY_DMA_IS_TRIG_TYPE_VALID(config->triggerInType));
 183              		.loc 1 90 0 is_stmt 1
 184 003c 2379     		ldrb	r3, [r4, #4]	@ zero_extendqisi2
 185 003e 032B     		cmp	r3, #3
 186 0040 03D9     		bls	.L19
 187              		.loc 1 90 0 is_stmt 0 discriminator 1
 188 0042 5A21     		movs	r1, #90
 189 0044 8648     		ldr	r0, .L46
 190 0046 FFF7FEFF 		bl	Cy_SysLib_AssertFailed
ARM GAS  C:\Users\enes_\AppData\Local\Temp\ccsXGQXN.s 			page 6


 191              	.LVL16:
 192              	.L19:
  91:Generated_Source\PSoC6\pdl\drivers\peripheral\dma/cy_dma.c ****         CY_ASSERT_L3(CY_DMA_IS_XFER_SIZE_VALID(config->srcTransferSize));
 193              		.loc 1 91 0 is_stmt 1
 194 004a A379     		ldrb	r3, [r4, #6]	@ zero_extendqisi2
 195 004c 012B     		cmp	r3, #1
 196 004e 03D9     		bls	.L20
 197              		.loc 1 91 0 is_stmt 0 discriminator 1
 198 0050 5B21     		movs	r1, #91
 199 0052 8348     		ldr	r0, .L46
 200 0054 FFF7FEFF 		bl	Cy_SysLib_AssertFailed
 201              	.LVL17:
 202              	.L20:
  92:Generated_Source\PSoC6\pdl\drivers\peripheral\dma/cy_dma.c ****         CY_ASSERT_L3(CY_DMA_IS_XFER_SIZE_VALID(config->dstTransferSize));
 203              		.loc 1 92 0 is_stmt 1
 204 0058 E379     		ldrb	r3, [r4, #7]	@ zero_extendqisi2
 205 005a 012B     		cmp	r3, #1
 206 005c 03D9     		bls	.L21
 207              		.loc 1 92 0 is_stmt 0 discriminator 1
 208 005e 5C21     		movs	r1, #92
 209 0060 7F48     		ldr	r0, .L46
 210 0062 FFF7FEFF 		bl	Cy_SysLib_AssertFailed
 211              	.LVL18:
 212              	.L21:
  93:Generated_Source\PSoC6\pdl\drivers\peripheral\dma/cy_dma.c ****         CY_ASSERT_L3(CY_DMA_IS_CHANNEL_STATE_VALID(config->channelState));
 213              		.loc 1 93 0 is_stmt 1
 214 0066 E378     		ldrb	r3, [r4, #3]	@ zero_extendqisi2
 215 0068 012B     		cmp	r3, #1
 216 006a 03D9     		bls	.L22
 217              		.loc 1 93 0 is_stmt 0 discriminator 1
 218 006c 5D21     		movs	r1, #93
 219 006e 7C48     		ldr	r0, .L46
 220 0070 FFF7FEFF 		bl	Cy_SysLib_AssertFailed
 221              	.LVL19:
 222              	.L22:
  94:Generated_Source\PSoC6\pdl\drivers\peripheral\dma/cy_dma.c ****         CY_ASSERT_L3(CY_DMA_IS_DATA_SIZE_VALID(config->dataSize));
 223              		.loc 1 94 0 is_stmt 1
 224 0074 6379     		ldrb	r3, [r4, #5]	@ zero_extendqisi2
 225 0076 022B     		cmp	r3, #2
 226 0078 03D9     		bls	.L23
 227              		.loc 1 94 0 is_stmt 0 discriminator 1
 228 007a 5E21     		movs	r1, #94
 229 007c 7848     		ldr	r0, .L46
 230 007e FFF7FEFF 		bl	Cy_SysLib_AssertFailed
 231              	.LVL20:
 232              	.L23:
  95:Generated_Source\PSoC6\pdl\drivers\peripheral\dma/cy_dma.c ****         CY_ASSERT_L3(CY_DMA_IS_TYPE_VALID(config->descriptorType));
 233              		.loc 1 95 0 is_stmt 1
 234 0082 237A     		ldrb	r3, [r4, #8]	@ zero_extendqisi2
 235 0084 032B     		cmp	r3, #3
 236 0086 03D9     		bls	.L24
 237              		.loc 1 95 0 is_stmt 0 discriminator 1
 238 0088 5F21     		movs	r1, #95
 239 008a 7548     		ldr	r0, .L46
 240 008c FFF7FEFF 		bl	Cy_SysLib_AssertFailed
 241              	.LVL21:
 242              	.L24:
ARM GAS  C:\Users\enes_\AppData\Local\Temp\ccsXGQXN.s 			page 7


  96:Generated_Source\PSoC6\pdl\drivers\peripheral\dma/cy_dma.c **** 
  97:Generated_Source\PSoC6\pdl\drivers\peripheral\dma/cy_dma.c ****         descriptor->ctl =
  98:Generated_Source\PSoC6\pdl\drivers\peripheral\dma/cy_dma.c ****             _VAL2FLD(CY_DMA_CTL_RETRIG, config->retrigger) |
 243              		.loc 1 98 0 is_stmt 1
 244 0090 2378     		ldrb	r3, [r4]	@ zero_extendqisi2
 245 0092 03F00301 		and	r1, r3, #3
  99:Generated_Source\PSoC6\pdl\drivers\peripheral\dma/cy_dma.c ****             _VAL2FLD(CY_DMA_CTL_INTR_TYPE, config->interruptType) |
 246              		.loc 1 99 0
 247 0096 6278     		ldrb	r2, [r4, #1]	@ zero_extendqisi2
 248 0098 9300     		lsls	r3, r2, #2
 249 009a 03F00C03 		and	r3, r3, #12
  98:Generated_Source\PSoC6\pdl\drivers\peripheral\dma/cy_dma.c ****             _VAL2FLD(CY_DMA_CTL_INTR_TYPE, config->interruptType) |
 250              		.loc 1 98 0
 251 009e 0B43     		orrs	r3, r3, r1
 100:Generated_Source\PSoC6\pdl\drivers\peripheral\dma/cy_dma.c ****             _VAL2FLD(CY_DMA_CTL_TR_OUT_TYPE, config->triggerOutType) |
 252              		.loc 1 100 0
 253 00a0 A278     		ldrb	r2, [r4, #2]	@ zero_extendqisi2
 254 00a2 1201     		lsls	r2, r2, #4
 255 00a4 02F03002 		and	r2, r2, #48
  99:Generated_Source\PSoC6\pdl\drivers\peripheral\dma/cy_dma.c ****             _VAL2FLD(CY_DMA_CTL_INTR_TYPE, config->interruptType) |
 256              		.loc 1 99 0
 257 00a8 1343     		orrs	r3, r3, r2
 101:Generated_Source\PSoC6\pdl\drivers\peripheral\dma/cy_dma.c ****             _VAL2FLD(CY_DMA_CTL_TR_IN_TYPE, config->triggerInType) |
 258              		.loc 1 101 0
 259 00aa 2279     		ldrb	r2, [r4, #4]	@ zero_extendqisi2
 260 00ac 9201     		lsls	r2, r2, #6
 261 00ae D2B2     		uxtb	r2, r2
 100:Generated_Source\PSoC6\pdl\drivers\peripheral\dma/cy_dma.c ****             _VAL2FLD(CY_DMA_CTL_TR_OUT_TYPE, config->triggerOutType) |
 262              		.loc 1 100 0
 263 00b0 1343     		orrs	r3, r3, r2
 102:Generated_Source\PSoC6\pdl\drivers\peripheral\dma/cy_dma.c ****             _VAL2FLD(CY_DMA_CTL_SRC_SIZE, config->srcTransferSize) |
 264              		.loc 1 102 0
 265 00b2 A279     		ldrb	r2, [r4, #6]	@ zero_extendqisi2
 266 00b4 9206     		lsls	r2, r2, #26
 267 00b6 02F08062 		and	r2, r2, #67108864
 101:Generated_Source\PSoC6\pdl\drivers\peripheral\dma/cy_dma.c ****             _VAL2FLD(CY_DMA_CTL_TR_IN_TYPE, config->triggerInType) |
 268              		.loc 1 101 0
 269 00ba 1343     		orrs	r3, r3, r2
 103:Generated_Source\PSoC6\pdl\drivers\peripheral\dma/cy_dma.c ****             _VAL2FLD(CY_DMA_CTL_DST_SIZE, config->dstTransferSize) |
 270              		.loc 1 103 0
 271 00bc E279     		ldrb	r2, [r4, #7]	@ zero_extendqisi2
 272 00be D206     		lsls	r2, r2, #27
 273 00c0 02F00062 		and	r2, r2, #134217728
 102:Generated_Source\PSoC6\pdl\drivers\peripheral\dma/cy_dma.c ****             _VAL2FLD(CY_DMA_CTL_SRC_SIZE, config->srcTransferSize) |
 274              		.loc 1 102 0
 275 00c4 1343     		orrs	r3, r3, r2
 104:Generated_Source\PSoC6\pdl\drivers\peripheral\dma/cy_dma.c ****             _VAL2FLD(CY_DMA_CTL_CH_DISABLE, config->channelState) |
 276              		.loc 1 104 0
 277 00c6 E278     		ldrb	r2, [r4, #3]	@ zero_extendqisi2
 278 00c8 1206     		lsls	r2, r2, #24
 279 00ca 02F08072 		and	r2, r2, #16777216
 103:Generated_Source\PSoC6\pdl\drivers\peripheral\dma/cy_dma.c ****             _VAL2FLD(CY_DMA_CTL_DST_SIZE, config->dstTransferSize) |
 280              		.loc 1 103 0
 281 00ce 1343     		orrs	r3, r3, r2
 105:Generated_Source\PSoC6\pdl\drivers\peripheral\dma/cy_dma.c ****             _VAL2FLD(CY_DMA_CTL_DATA_SIZE, config->dataSize) |
 282              		.loc 1 105 0
 283 00d0 6279     		ldrb	r2, [r4, #5]	@ zero_extendqisi2
ARM GAS  C:\Users\enes_\AppData\Local\Temp\ccsXGQXN.s 			page 8


 284 00d2 1207     		lsls	r2, r2, #28
 285 00d4 02F04052 		and	r2, r2, #805306368
 104:Generated_Source\PSoC6\pdl\drivers\peripheral\dma/cy_dma.c ****             _VAL2FLD(CY_DMA_CTL_CH_DISABLE, config->channelState) |
 286              		.loc 1 104 0
 287 00d8 1343     		orrs	r3, r3, r2
 106:Generated_Source\PSoC6\pdl\drivers\peripheral\dma/cy_dma.c ****             _VAL2FLD(CY_DMA_CTL_TYPE, config->descriptorType);
 288              		.loc 1 106 0
 289 00da 227A     		ldrb	r2, [r4, #8]	@ zero_extendqisi2
 105:Generated_Source\PSoC6\pdl\drivers\peripheral\dma/cy_dma.c ****             _VAL2FLD(CY_DMA_CTL_DATA_SIZE, config->dataSize) |
 290              		.loc 1 105 0
 291 00dc 43EA8273 		orr	r3, r3, r2, lsl #30
  97:Generated_Source\PSoC6\pdl\drivers\peripheral\dma/cy_dma.c ****             _VAL2FLD(CY_DMA_CTL_RETRIG, config->retrigger) |
 292              		.loc 1 97 0
 293 00e0 2B60     		str	r3, [r5]
 107:Generated_Source\PSoC6\pdl\drivers\peripheral\dma/cy_dma.c **** 
 108:Generated_Source\PSoC6\pdl\drivers\peripheral\dma/cy_dma.c ****         descriptor->src = (uint32_t)config->srcAddress;
 294              		.loc 1 108 0
 295 00e2 E368     		ldr	r3, [r4, #12]
 296 00e4 6B60     		str	r3, [r5, #4]
 109:Generated_Source\PSoC6\pdl\drivers\peripheral\dma/cy_dma.c **** 
 110:Generated_Source\PSoC6\pdl\drivers\peripheral\dma/cy_dma.c ****         descriptor->dst = (uint32_t)config->dstAddress;
 297              		.loc 1 110 0
 298 00e6 2369     		ldr	r3, [r4, #16]
 299 00e8 AB60     		str	r3, [r5, #8]
 111:Generated_Source\PSoC6\pdl\drivers\peripheral\dma/cy_dma.c **** 
 112:Generated_Source\PSoC6\pdl\drivers\peripheral\dma/cy_dma.c ****         switch(config->descriptorType)
 300              		.loc 1 112 0
 301 00ea 237A     		ldrb	r3, [r4, #8]	@ zero_extendqisi2
 302 00ec 032B     		cmp	r3, #3
 303 00ee 00F2B280 		bhi	.L43
 304 00f2 DFE803F0 		tbb	[pc, r3]
 305              	.L26:
 306 00f6 02       		.byte	(.L25-.L26)/2
 307 00f7 06       		.byte	(.L27-.L26)/2
 308 00f8 33       		.byte	(.L28-.L26)/2
 309 00f9 88       		.byte	(.L29-.L26)/2
 310              		.p2align 1
 311              	.L25:
 113:Generated_Source\PSoC6\pdl\drivers\peripheral\dma/cy_dma.c ****         {
 114:Generated_Source\PSoC6\pdl\drivers\peripheral\dma/cy_dma.c ****             case CY_DMA_SINGLE_TRANSFER:
 115:Generated_Source\PSoC6\pdl\drivers\peripheral\dma/cy_dma.c ****                 descriptor->xCtl = (uint32_t)config->nextDescriptor;
 312              		.loc 1 115 0
 313 00fa E36A     		ldr	r3, [r4, #44]
 314 00fc EB60     		str	r3, [r5, #12]
 315              	.LVL22:
 116:Generated_Source\PSoC6\pdl\drivers\peripheral\dma/cy_dma.c ****                 ret = CY_DMA_SUCCESS;
 316              		.loc 1 116 0
 317 00fe 0020     		movs	r0, #0
 117:Generated_Source\PSoC6\pdl\drivers\peripheral\dma/cy_dma.c ****                 break;
 318              		.loc 1 117 0
 319 0100 38BD     		pop	{r3, r4, r5, pc}
 320              	.LVL23:
 321              	.L27:
 118:Generated_Source\PSoC6\pdl\drivers\peripheral\dma/cy_dma.c **** 
 119:Generated_Source\PSoC6\pdl\drivers\peripheral\dma/cy_dma.c ****             case CY_DMA_1D_TRANSFER:
 120:Generated_Source\PSoC6\pdl\drivers\peripheral\dma/cy_dma.c ****                 CY_ASSERT_L2(CY_DMA_IS_LOOP_INCR_VALID(config->srcXincrement));
 322              		.loc 1 120 0
ARM GAS  C:\Users\enes_\AppData\Local\Temp\ccsXGQXN.s 			page 9


 323 0102 6369     		ldr	r3, [r4, #20]
 324 0104 03F50063 		add	r3, r3, #2048
 325 0108 B3F5805F 		cmp	r3, #4096
 326 010c 03D3     		bcc	.L30
 327              		.loc 1 120 0 is_stmt 0 discriminator 1
 328 010e 7821     		movs	r1, #120
 329 0110 5348     		ldr	r0, .L46
 330 0112 FFF7FEFF 		bl	Cy_SysLib_AssertFailed
 331              	.LVL24:
 332              	.L30:
 121:Generated_Source\PSoC6\pdl\drivers\peripheral\dma/cy_dma.c ****                 CY_ASSERT_L2(CY_DMA_IS_LOOP_INCR_VALID(config->dstXincrement));
 333              		.loc 1 121 0 is_stmt 1
 334 0116 A369     		ldr	r3, [r4, #24]
 335 0118 03F50063 		add	r3, r3, #2048
 336 011c B3F5805F 		cmp	r3, #4096
 337 0120 03D3     		bcc	.L31
 338              		.loc 1 121 0 is_stmt 0 discriminator 1
 339 0122 7921     		movs	r1, #121
 340 0124 4E48     		ldr	r0, .L46
 341 0126 FFF7FEFF 		bl	Cy_SysLib_AssertFailed
 342              	.LVL25:
 343              	.L31:
 122:Generated_Source\PSoC6\pdl\drivers\peripheral\dma/cy_dma.c ****                 CY_ASSERT_L2(CY_DMA_IS_LOOP_COUNT_VALID(config->xCount));
 344              		.loc 1 122 0 is_stmt 1
 345 012a E369     		ldr	r3, [r4, #28]
 346 012c 013B     		subs	r3, r3, #1
 347 012e FF2B     		cmp	r3, #255
 348 0130 03D9     		bls	.L32
 349              		.loc 1 122 0 is_stmt 0 discriminator 1
 350 0132 7A21     		movs	r1, #122
 351 0134 4A48     		ldr	r0, .L46
 352 0136 FFF7FEFF 		bl	Cy_SysLib_AssertFailed
 353              	.LVL26:
 354              	.L32:
 123:Generated_Source\PSoC6\pdl\drivers\peripheral\dma/cy_dma.c **** 
 124:Generated_Source\PSoC6\pdl\drivers\peripheral\dma/cy_dma.c ****                 descriptor->xCtl =
 125:Generated_Source\PSoC6\pdl\drivers\peripheral\dma/cy_dma.c ****                     _VAL2FLD(CY_DMA_CTL_SRC_INCR, config->srcXincrement) |
 355              		.loc 1 125 0 is_stmt 1
 356 013a 6369     		ldr	r3, [r4, #20]
 357 013c C3F30B02 		ubfx	r2, r3, #0, #12
 126:Generated_Source\PSoC6\pdl\drivers\peripheral\dma/cy_dma.c ****                     _VAL2FLD(CY_DMA_CTL_DST_INCR, config->dstXincrement) |
 358              		.loc 1 126 0
 359 0140 A369     		ldr	r3, [r4, #24]
 360 0142 4849     		ldr	r1, .L46+4
 361 0144 01EA0333 		and	r3, r1, r3, lsl #12
 125:Generated_Source\PSoC6\pdl\drivers\peripheral\dma/cy_dma.c ****                     _VAL2FLD(CY_DMA_CTL_DST_INCR, config->dstXincrement) |
 362              		.loc 1 125 0
 363 0148 1A43     		orrs	r2, r2, r3
 127:Generated_Source\PSoC6\pdl\drivers\peripheral\dma/cy_dma.c ****     /* Convert the data count from the user's range (1-256) into the machine range (0-255). */
 128:Generated_Source\PSoC6\pdl\drivers\peripheral\dma/cy_dma.c ****                     _VAL2FLD(CY_DMA_CTL_COUNT, config->xCount - 1UL);
 364              		.loc 1 128 0
 365 014a E369     		ldr	r3, [r4, #28]
 366 014c 013B     		subs	r3, r3, #1
 126:Generated_Source\PSoC6\pdl\drivers\peripheral\dma/cy_dma.c ****     /* Convert the data count from the user's range (1-256) into the machine range (0-255). */
 367              		.loc 1 126 0
 368 014e 42EA0363 		orr	r3, r2, r3, lsl #24
 124:Generated_Source\PSoC6\pdl\drivers\peripheral\dma/cy_dma.c ****                     _VAL2FLD(CY_DMA_CTL_SRC_INCR, config->srcXincrement) |
ARM GAS  C:\Users\enes_\AppData\Local\Temp\ccsXGQXN.s 			page 10


 369              		.loc 1 124 0
 370 0152 EB60     		str	r3, [r5, #12]
 129:Generated_Source\PSoC6\pdl\drivers\peripheral\dma/cy_dma.c **** 
 130:Generated_Source\PSoC6\pdl\drivers\peripheral\dma/cy_dma.c ****                 descriptor->yCtl = (uint32_t)config->nextDescriptor;
 371              		.loc 1 130 0
 372 0154 E36A     		ldr	r3, [r4, #44]
 373 0156 2B61     		str	r3, [r5, #16]
 374              	.LVL27:
 131:Generated_Source\PSoC6\pdl\drivers\peripheral\dma/cy_dma.c ****                 ret = CY_DMA_SUCCESS;
 375              		.loc 1 131 0
 376 0158 0020     		movs	r0, #0
 132:Generated_Source\PSoC6\pdl\drivers\peripheral\dma/cy_dma.c ****                 break;
 377              		.loc 1 132 0
 378 015a 38BD     		pop	{r3, r4, r5, pc}
 379              	.LVL28:
 380              	.L28:
 133:Generated_Source\PSoC6\pdl\drivers\peripheral\dma/cy_dma.c **** 
 134:Generated_Source\PSoC6\pdl\drivers\peripheral\dma/cy_dma.c ****             case CY_DMA_2D_TRANSFER:
 135:Generated_Source\PSoC6\pdl\drivers\peripheral\dma/cy_dma.c ****                 CY_ASSERT_L2(CY_DMA_IS_LOOP_INCR_VALID(config->srcXincrement));
 381              		.loc 1 135 0
 382 015c 6369     		ldr	r3, [r4, #20]
 383 015e 03F50063 		add	r3, r3, #2048
 384 0162 B3F5805F 		cmp	r3, #4096
 385 0166 03D3     		bcc	.L33
 386              		.loc 1 135 0 is_stmt 0 discriminator 1
 387 0168 8721     		movs	r1, #135
 388 016a 3D48     		ldr	r0, .L46
 389 016c FFF7FEFF 		bl	Cy_SysLib_AssertFailed
 390              	.LVL29:
 391              	.L33:
 136:Generated_Source\PSoC6\pdl\drivers\peripheral\dma/cy_dma.c ****                 CY_ASSERT_L2(CY_DMA_IS_LOOP_INCR_VALID(config->dstXincrement));
 392              		.loc 1 136 0 is_stmt 1
 393 0170 A369     		ldr	r3, [r4, #24]
 394 0172 03F50063 		add	r3, r3, #2048
 395 0176 B3F5805F 		cmp	r3, #4096
 396 017a 03D3     		bcc	.L34
 397              		.loc 1 136 0 is_stmt 0 discriminator 1
 398 017c 8821     		movs	r1, #136
 399 017e 3848     		ldr	r0, .L46
 400 0180 FFF7FEFF 		bl	Cy_SysLib_AssertFailed
 401              	.LVL30:
 402              	.L34:
 137:Generated_Source\PSoC6\pdl\drivers\peripheral\dma/cy_dma.c ****                 CY_ASSERT_L2(CY_DMA_IS_LOOP_COUNT_VALID(config->xCount));
 403              		.loc 1 137 0 is_stmt 1
 404 0184 E369     		ldr	r3, [r4, #28]
 405 0186 013B     		subs	r3, r3, #1
 406 0188 FF2B     		cmp	r3, #255
 407 018a 03D9     		bls	.L35
 408              		.loc 1 137 0 is_stmt 0 discriminator 1
 409 018c 8921     		movs	r1, #137
 410 018e 3448     		ldr	r0, .L46
 411 0190 FFF7FEFF 		bl	Cy_SysLib_AssertFailed
 412              	.LVL31:
 413              	.L35:
 138:Generated_Source\PSoC6\pdl\drivers\peripheral\dma/cy_dma.c ****                 CY_ASSERT_L2(CY_DMA_IS_LOOP_INCR_VALID(config->srcYincrement));
 414              		.loc 1 138 0 is_stmt 1
 415 0194 236A     		ldr	r3, [r4, #32]
ARM GAS  C:\Users\enes_\AppData\Local\Temp\ccsXGQXN.s 			page 11


 416 0196 03F50063 		add	r3, r3, #2048
 417 019a B3F5805F 		cmp	r3, #4096
 418 019e 03D3     		bcc	.L36
 419              		.loc 1 138 0 is_stmt 0 discriminator 1
 420 01a0 8A21     		movs	r1, #138
 421 01a2 2F48     		ldr	r0, .L46
 422 01a4 FFF7FEFF 		bl	Cy_SysLib_AssertFailed
 423              	.LVL32:
 424              	.L36:
 139:Generated_Source\PSoC6\pdl\drivers\peripheral\dma/cy_dma.c ****                 CY_ASSERT_L2(CY_DMA_IS_LOOP_INCR_VALID(config->dstYincrement));
 425              		.loc 1 139 0 is_stmt 1
 426 01a8 636A     		ldr	r3, [r4, #36]
 427 01aa 03F50063 		add	r3, r3, #2048
 428 01ae B3F5805F 		cmp	r3, #4096
 429 01b2 03D3     		bcc	.L37
 430              		.loc 1 139 0 is_stmt 0 discriminator 1
 431 01b4 8B21     		movs	r1, #139
 432 01b6 2A48     		ldr	r0, .L46
 433 01b8 FFF7FEFF 		bl	Cy_SysLib_AssertFailed
 434              	.LVL33:
 435              	.L37:
 140:Generated_Source\PSoC6\pdl\drivers\peripheral\dma/cy_dma.c ****                 CY_ASSERT_L2(CY_DMA_IS_LOOP_COUNT_VALID(config->yCount));
 436              		.loc 1 140 0 is_stmt 1
 437 01bc A36A     		ldr	r3, [r4, #40]
 438 01be 013B     		subs	r3, r3, #1
 439 01c0 FF2B     		cmp	r3, #255
 440 01c2 03D9     		bls	.L38
 441              		.loc 1 140 0 is_stmt 0 discriminator 1
 442 01c4 8C21     		movs	r1, #140
 443 01c6 2648     		ldr	r0, .L46
 444 01c8 FFF7FEFF 		bl	Cy_SysLib_AssertFailed
 445              	.LVL34:
 446              	.L38:
 141:Generated_Source\PSoC6\pdl\drivers\peripheral\dma/cy_dma.c **** 
 142:Generated_Source\PSoC6\pdl\drivers\peripheral\dma/cy_dma.c ****                 descriptor->xCtl =
 143:Generated_Source\PSoC6\pdl\drivers\peripheral\dma/cy_dma.c ****                     _VAL2FLD(CY_DMA_CTL_SRC_INCR, config->srcXincrement) |
 447              		.loc 1 143 0 is_stmt 1
 448 01cc 6269     		ldr	r2, [r4, #20]
 449 01ce C2F30B01 		ubfx	r1, r2, #0, #12
 144:Generated_Source\PSoC6\pdl\drivers\peripheral\dma/cy_dma.c ****                     _VAL2FLD(CY_DMA_CTL_DST_INCR, config->dstXincrement) |
 450              		.loc 1 144 0
 451 01d2 A269     		ldr	r2, [r4, #24]
 452 01d4 234B     		ldr	r3, .L46+4
 453 01d6 03EA0232 		and	r2, r3, r2, lsl #12
 143:Generated_Source\PSoC6\pdl\drivers\peripheral\dma/cy_dma.c ****                     _VAL2FLD(CY_DMA_CTL_DST_INCR, config->dstXincrement) |
 454              		.loc 1 143 0
 455 01da 0A43     		orrs	r2, r2, r1
 145:Generated_Source\PSoC6\pdl\drivers\peripheral\dma/cy_dma.c ****     /* Convert the data count from the user's range (1-256) into the machine range (0-255). */
 146:Generated_Source\PSoC6\pdl\drivers\peripheral\dma/cy_dma.c ****                     _VAL2FLD(CY_DMA_CTL_COUNT, config->xCount - 1UL);
 456              		.loc 1 146 0
 457 01dc E169     		ldr	r1, [r4, #28]
 458 01de 0139     		subs	r1, r1, #1
 144:Generated_Source\PSoC6\pdl\drivers\peripheral\dma/cy_dma.c ****     /* Convert the data count from the user's range (1-256) into the machine range (0-255). */
 459              		.loc 1 144 0
 460 01e0 42EA0162 		orr	r2, r2, r1, lsl #24
 142:Generated_Source\PSoC6\pdl\drivers\peripheral\dma/cy_dma.c ****                     _VAL2FLD(CY_DMA_CTL_SRC_INCR, config->srcXincrement) |
 461              		.loc 1 142 0
ARM GAS  C:\Users\enes_\AppData\Local\Temp\ccsXGQXN.s 			page 12


 462 01e4 EA60     		str	r2, [r5, #12]
 147:Generated_Source\PSoC6\pdl\drivers\peripheral\dma/cy_dma.c **** 
 148:Generated_Source\PSoC6\pdl\drivers\peripheral\dma/cy_dma.c ****                 descriptor->yCtl =
 149:Generated_Source\PSoC6\pdl\drivers\peripheral\dma/cy_dma.c ****                     _VAL2FLD(CY_DMA_CTL_SRC_INCR, config->srcYincrement) |
 463              		.loc 1 149 0
 464 01e6 226A     		ldr	r2, [r4, #32]
 465 01e8 C2F30B02 		ubfx	r2, r2, #0, #12
 150:Generated_Source\PSoC6\pdl\drivers\peripheral\dma/cy_dma.c ****                     _VAL2FLD(CY_DMA_CTL_DST_INCR, config->dstYincrement) |
 466              		.loc 1 150 0
 467 01ec 616A     		ldr	r1, [r4, #36]
 468 01ee 03EA0133 		and	r3, r3, r1, lsl #12
 149:Generated_Source\PSoC6\pdl\drivers\peripheral\dma/cy_dma.c ****                     _VAL2FLD(CY_DMA_CTL_DST_INCR, config->dstYincrement) |
 469              		.loc 1 149 0
 470 01f2 1343     		orrs	r3, r3, r2
 151:Generated_Source\PSoC6\pdl\drivers\peripheral\dma/cy_dma.c ****     /* Convert the data count from the user's range (1-256) into the machine range (0-255). */
 152:Generated_Source\PSoC6\pdl\drivers\peripheral\dma/cy_dma.c ****                     _VAL2FLD(CY_DMA_CTL_COUNT, config->yCount - 1UL);
 471              		.loc 1 152 0
 472 01f4 A26A     		ldr	r2, [r4, #40]
 473 01f6 013A     		subs	r2, r2, #1
 150:Generated_Source\PSoC6\pdl\drivers\peripheral\dma/cy_dma.c ****     /* Convert the data count from the user's range (1-256) into the machine range (0-255). */
 474              		.loc 1 150 0
 475 01f8 43EA0263 		orr	r3, r3, r2, lsl #24
 148:Generated_Source\PSoC6\pdl\drivers\peripheral\dma/cy_dma.c ****                     _VAL2FLD(CY_DMA_CTL_SRC_INCR, config->srcYincrement) |
 476              		.loc 1 148 0
 477 01fc 2B61     		str	r3, [r5, #16]
 153:Generated_Source\PSoC6\pdl\drivers\peripheral\dma/cy_dma.c **** 
 154:Generated_Source\PSoC6\pdl\drivers\peripheral\dma/cy_dma.c ****                 descriptor->nextPtr = (uint32_t)config->nextDescriptor;
 478              		.loc 1 154 0
 479 01fe E36A     		ldr	r3, [r4, #44]
 480 0200 6B61     		str	r3, [r5, #20]
 481              	.LVL35:
 155:Generated_Source\PSoC6\pdl\drivers\peripheral\dma/cy_dma.c ****                 ret = CY_DMA_SUCCESS;
 482              		.loc 1 155 0
 483 0202 0020     		movs	r0, #0
 156:Generated_Source\PSoC6\pdl\drivers\peripheral\dma/cy_dma.c ****                 break;
 484              		.loc 1 156 0
 485 0204 38BD     		pop	{r3, r4, r5, pc}
 486              	.LVL36:
 487              	.L29:
 157:Generated_Source\PSoC6\pdl\drivers\peripheral\dma/cy_dma.c **** 
 158:Generated_Source\PSoC6\pdl\drivers\peripheral\dma/cy_dma.c ****             case CY_DMA_CRC_TRANSFER:
 159:Generated_Source\PSoC6\pdl\drivers\peripheral\dma/cy_dma.c ****                 if (CY_DW_CRC)
 488              		.loc 1 159 0
 489 0206 184B     		ldr	r3, .L46+8
 490 0208 1B68     		ldr	r3, [r3]
 491 020a 93F82A30 		ldrb	r3, [r3, #42]	@ zero_extendqisi2
 492 020e 012B     		cmp	r3, #1
 493 0210 23D9     		bls	.L44
 160:Generated_Source\PSoC6\pdl\drivers\peripheral\dma/cy_dma.c ****                 {
 161:Generated_Source\PSoC6\pdl\drivers\peripheral\dma/cy_dma.c ****                     CY_ASSERT_L2(CY_DMA_IS_LOOP_INCR_VALID(config->srcXincrement));
 494              		.loc 1 161 0
 495 0212 6369     		ldr	r3, [r4, #20]
 496 0214 03F50063 		add	r3, r3, #2048
 497 0218 B3F5805F 		cmp	r3, #4096
 498 021c 03D3     		bcc	.L39
 499              		.loc 1 161 0 is_stmt 0 discriminator 1
 500 021e A121     		movs	r1, #161
ARM GAS  C:\Users\enes_\AppData\Local\Temp\ccsXGQXN.s 			page 13


 501 0220 0F48     		ldr	r0, .L46
 502 0222 FFF7FEFF 		bl	Cy_SysLib_AssertFailed
 503              	.LVL37:
 504              	.L39:
 162:Generated_Source\PSoC6\pdl\drivers\peripheral\dma/cy_dma.c ****                     CY_ASSERT_L2(CY_DMA_IS_LOOP_COUNT_VALID(config->xCount));
 505              		.loc 1 162 0 is_stmt 1
 506 0226 E369     		ldr	r3, [r4, #28]
 507 0228 013B     		subs	r3, r3, #1
 508 022a FF2B     		cmp	r3, #255
 509 022c 03D9     		bls	.L40
 510              		.loc 1 162 0 is_stmt 0 discriminator 1
 511 022e A221     		movs	r1, #162
 512 0230 0B48     		ldr	r0, .L46
 513 0232 FFF7FEFF 		bl	Cy_SysLib_AssertFailed
 514              	.LVL38:
 515              	.L40:
 163:Generated_Source\PSoC6\pdl\drivers\peripheral\dma/cy_dma.c **** 
 164:Generated_Source\PSoC6\pdl\drivers\peripheral\dma/cy_dma.c ****                     descriptor->xCtl =
 165:Generated_Source\PSoC6\pdl\drivers\peripheral\dma/cy_dma.c ****                         _VAL2FLD(CY_DMA_CTL_SRC_INCR, config->srcXincrement) |
 516              		.loc 1 165 0 is_stmt 1
 517 0236 6369     		ldr	r3, [r4, #20]
 518 0238 C3F30B03 		ubfx	r3, r3, #0, #12
 166:Generated_Source\PSoC6\pdl\drivers\peripheral\dma/cy_dma.c ****         /* Convert the data count from the user's range (1-256) into the machine range (0-255). */
 167:Generated_Source\PSoC6\pdl\drivers\peripheral\dma/cy_dma.c ****                         _VAL2FLD(CY_DMA_CTL_COUNT, config->xCount - 1UL);
 519              		.loc 1 167 0
 520 023c E269     		ldr	r2, [r4, #28]
 521 023e 013A     		subs	r2, r2, #1
 165:Generated_Source\PSoC6\pdl\drivers\peripheral\dma/cy_dma.c ****         /* Convert the data count from the user's range (1-256) into the machine range (0-255). */
 522              		.loc 1 165 0
 523 0240 43EA0263 		orr	r3, r3, r2, lsl #24
 164:Generated_Source\PSoC6\pdl\drivers\peripheral\dma/cy_dma.c ****                         _VAL2FLD(CY_DMA_CTL_SRC_INCR, config->srcXincrement) |
 524              		.loc 1 164 0
 525 0244 EB60     		str	r3, [r5, #12]
 168:Generated_Source\PSoC6\pdl\drivers\peripheral\dma/cy_dma.c **** 
 169:Generated_Source\PSoC6\pdl\drivers\peripheral\dma/cy_dma.c ****                     descriptor->yCtl = (uint32_t)config->nextDescriptor;
 526              		.loc 1 169 0
 527 0246 E36A     		ldr	r3, [r4, #44]
 528 0248 2B61     		str	r3, [r5, #16]
 529              	.LVL39:
 170:Generated_Source\PSoC6\pdl\drivers\peripheral\dma/cy_dma.c ****                     ret = CY_DMA_SUCCESS;
 530              		.loc 1 170 0
 531 024a 0020     		movs	r0, #0
 532 024c 38BD     		pop	{r3, r4, r5, pc}
 533              	.LVL40:
 534              	.L41:
 535              		.cfi_def_cfa_offset 0
 536              		.cfi_restore 3
 537              		.cfi_restore 4
 538              		.cfi_restore 5
 539              		.cfi_restore 14
  83:Generated_Source\PSoC6\pdl\drivers\peripheral\dma/cy_dma.c **** 
 540              		.loc 1 83 0
 541 024e 0748     		ldr	r0, .L46+12
 542              	.LVL41:
 171:Generated_Source\PSoC6\pdl\drivers\peripheral\dma/cy_dma.c ****                 }
 172:Generated_Source\PSoC6\pdl\drivers\peripheral\dma/cy_dma.c ****                 break;
 173:Generated_Source\PSoC6\pdl\drivers\peripheral\dma/cy_dma.c **** 
ARM GAS  C:\Users\enes_\AppData\Local\Temp\ccsXGQXN.s 			page 14


 174:Generated_Source\PSoC6\pdl\drivers\peripheral\dma/cy_dma.c ****             default: /* An unsupported type of a descriptor */
 175:Generated_Source\PSoC6\pdl\drivers\peripheral\dma/cy_dma.c ****                 break;
 176:Generated_Source\PSoC6\pdl\drivers\peripheral\dma/cy_dma.c ****         }
 177:Generated_Source\PSoC6\pdl\drivers\peripheral\dma/cy_dma.c ****     }
 178:Generated_Source\PSoC6\pdl\drivers\peripheral\dma/cy_dma.c **** 
 179:Generated_Source\PSoC6\pdl\drivers\peripheral\dma/cy_dma.c ****     return ret;
 180:Generated_Source\PSoC6\pdl\drivers\peripheral\dma/cy_dma.c **** }
 543              		.loc 1 180 0
 544 0250 7047     		bx	lr
 545              	.LVL42:
 546              	.L42:
 547              		.cfi_def_cfa_offset 16
 548              		.cfi_offset 3, -16
 549              		.cfi_offset 4, -12
 550              		.cfi_offset 5, -8
 551              		.cfi_offset 14, -4
  83:Generated_Source\PSoC6\pdl\drivers\peripheral\dma/cy_dma.c **** 
 552              		.loc 1 83 0
 553 0252 0648     		ldr	r0, .L46+12
 554              	.LVL43:
 555 0254 38BD     		pop	{r3, r4, r5, pc}
 556              	.LVL44:
 557              	.L43:
 558 0256 0548     		ldr	r0, .L46+12
 559 0258 38BD     		pop	{r3, r4, r5, pc}
 560              	.LVL45:
 561              	.L44:
 562 025a 0448     		ldr	r0, .L46+12
 563              	.LVL46:
 564              		.loc 1 180 0
 565 025c 38BD     		pop	{r3, r4, r5, pc}
 566              	.LVL47:
 567              	.L47:
 568 025e 00BF     		.align	2
 569              	.L46:
 570 0260 00000000 		.word	.LC0
 571 0264 00F0FF00 		.word	16773120
 572 0268 00000000 		.word	cy_device
 573 026c 01004E00 		.word	5111809
 574              		.cfi_endproc
 575              	.LFE184:
 576              		.size	Cy_DMA_Descriptor_Init, .-Cy_DMA_Descriptor_Init
 577              		.section	.text.Cy_DMA_Descriptor_DeInit,"ax",%progbits
 578              		.align	2
 579              		.global	Cy_DMA_Descriptor_DeInit
 580              		.thumb
 581              		.thumb_func
 582              		.type	Cy_DMA_Descriptor_DeInit, %function
 583              	Cy_DMA_Descriptor_DeInit:
 584              	.LFB185:
 181:Generated_Source\PSoC6\pdl\drivers\peripheral\dma/cy_dma.c **** 
 182:Generated_Source\PSoC6\pdl\drivers\peripheral\dma/cy_dma.c **** 
 183:Generated_Source\PSoC6\pdl\drivers\peripheral\dma/cy_dma.c **** /*******************************************************************************
 184:Generated_Source\PSoC6\pdl\drivers\peripheral\dma/cy_dma.c **** * Function Name: Cy_DMA_Descriptor_DeInit
 185:Generated_Source\PSoC6\pdl\drivers\peripheral\dma/cy_dma.c **** ****************************************************************************//**
 186:Generated_Source\PSoC6\pdl\drivers\peripheral\dma/cy_dma.c **** *
 187:Generated_Source\PSoC6\pdl\drivers\peripheral\dma/cy_dma.c **** * Clears the content of the specified descriptor.
ARM GAS  C:\Users\enes_\AppData\Local\Temp\ccsXGQXN.s 			page 15


 188:Generated_Source\PSoC6\pdl\drivers\peripheral\dma/cy_dma.c **** *
 189:Generated_Source\PSoC6\pdl\drivers\peripheral\dma/cy_dma.c **** * \param descriptor
 190:Generated_Source\PSoC6\pdl\drivers\peripheral\dma/cy_dma.c **** * The descriptor structure instance declared by the user/component.
 191:Generated_Source\PSoC6\pdl\drivers\peripheral\dma/cy_dma.c **** *
 192:Generated_Source\PSoC6\pdl\drivers\peripheral\dma/cy_dma.c **** * \funcusage 
 193:Generated_Source\PSoC6\pdl\drivers\peripheral\dma/cy_dma.c **** * \snippet dma\2.10\snippet\main.c snippet_Cy_DMA_Descriptor_Deinit
 194:Generated_Source\PSoC6\pdl\drivers\peripheral\dma/cy_dma.c **** *
 195:Generated_Source\PSoC6\pdl\drivers\peripheral\dma/cy_dma.c **** *******************************************************************************/
 196:Generated_Source\PSoC6\pdl\drivers\peripheral\dma/cy_dma.c **** void Cy_DMA_Descriptor_DeInit(cy_stc_dma_descriptor_t * descriptor)
 197:Generated_Source\PSoC6\pdl\drivers\peripheral\dma/cy_dma.c **** {
 585              		.loc 1 197 0
 586              		.cfi_startproc
 587              		@ args = 0, pretend = 0, frame = 0
 588              		@ frame_needed = 0, uses_anonymous_args = 0
 589              		@ link register save eliminated.
 590              	.LVL48:
 198:Generated_Source\PSoC6\pdl\drivers\peripheral\dma/cy_dma.c ****     descriptor->ctl = 0UL;
 591              		.loc 1 198 0
 592 0000 0023     		movs	r3, #0
 593 0002 0360     		str	r3, [r0]
 199:Generated_Source\PSoC6\pdl\drivers\peripheral\dma/cy_dma.c ****     descriptor->src = 0UL;
 594              		.loc 1 199 0
 595 0004 4360     		str	r3, [r0, #4]
 200:Generated_Source\PSoC6\pdl\drivers\peripheral\dma/cy_dma.c ****     descriptor->dst = 0UL;
 596              		.loc 1 200 0
 597 0006 8360     		str	r3, [r0, #8]
 201:Generated_Source\PSoC6\pdl\drivers\peripheral\dma/cy_dma.c ****     descriptor->xCtl = 0UL;
 598              		.loc 1 201 0
 599 0008 C360     		str	r3, [r0, #12]
 202:Generated_Source\PSoC6\pdl\drivers\peripheral\dma/cy_dma.c ****     descriptor->yCtl = 0UL;
 600              		.loc 1 202 0
 601 000a 0361     		str	r3, [r0, #16]
 203:Generated_Source\PSoC6\pdl\drivers\peripheral\dma/cy_dma.c ****     descriptor->nextPtr = 0UL;
 602              		.loc 1 203 0
 603 000c 4361     		str	r3, [r0, #20]
 604 000e 7047     		bx	lr
 605              		.cfi_endproc
 606              	.LFE185:
 607              		.size	Cy_DMA_Descriptor_DeInit, .-Cy_DMA_Descriptor_DeInit
 608              		.section	.text.Cy_DMA_Channel_Init,"ax",%progbits
 609              		.align	2
 610              		.global	Cy_DMA_Channel_Init
 611              		.thumb
 612              		.thumb_func
 613              		.type	Cy_DMA_Channel_Init, %function
 614              	Cy_DMA_Channel_Init:
 615              	.LFB186:
 204:Generated_Source\PSoC6\pdl\drivers\peripheral\dma/cy_dma.c **** }
 205:Generated_Source\PSoC6\pdl\drivers\peripheral\dma/cy_dma.c **** 
 206:Generated_Source\PSoC6\pdl\drivers\peripheral\dma/cy_dma.c **** 
 207:Generated_Source\PSoC6\pdl\drivers\peripheral\dma/cy_dma.c **** /*******************************************************************************
 208:Generated_Source\PSoC6\pdl\drivers\peripheral\dma/cy_dma.c **** * Function Name: Cy_DMA_Channel_Init
 209:Generated_Source\PSoC6\pdl\drivers\peripheral\dma/cy_dma.c **** ****************************************************************************//**
 210:Generated_Source\PSoC6\pdl\drivers\peripheral\dma/cy_dma.c **** *
 211:Generated_Source\PSoC6\pdl\drivers\peripheral\dma/cy_dma.c **** * Initializes the DMA channel with a descriptor and other parameters.
 212:Generated_Source\PSoC6\pdl\drivers\peripheral\dma/cy_dma.c **** *
 213:Generated_Source\PSoC6\pdl\drivers\peripheral\dma/cy_dma.c **** * \param base
ARM GAS  C:\Users\enes_\AppData\Local\Temp\ccsXGQXN.s 			page 16


 214:Generated_Source\PSoC6\pdl\drivers\peripheral\dma/cy_dma.c **** * The pointer to the hardware DMA block.
 215:Generated_Source\PSoC6\pdl\drivers\peripheral\dma/cy_dma.c **** *
 216:Generated_Source\PSoC6\pdl\drivers\peripheral\dma/cy_dma.c **** * \param channel
 217:Generated_Source\PSoC6\pdl\drivers\peripheral\dma/cy_dma.c **** * A channel number.
 218:Generated_Source\PSoC6\pdl\drivers\peripheral\dma/cy_dma.c **** *
 219:Generated_Source\PSoC6\pdl\drivers\peripheral\dma/cy_dma.c **** * \param channelConfig
 220:Generated_Source\PSoC6\pdl\drivers\peripheral\dma/cy_dma.c **** * The structure that has the initialization information for the
 221:Generated_Source\PSoC6\pdl\drivers\peripheral\dma/cy_dma.c **** * channel.
 222:Generated_Source\PSoC6\pdl\drivers\peripheral\dma/cy_dma.c **** *
 223:Generated_Source\PSoC6\pdl\drivers\peripheral\dma/cy_dma.c **** * \return
 224:Generated_Source\PSoC6\pdl\drivers\peripheral\dma/cy_dma.c **** * The status /ref cy_en_dma_status_t.
 225:Generated_Source\PSoC6\pdl\drivers\peripheral\dma/cy_dma.c **** *
 226:Generated_Source\PSoC6\pdl\drivers\peripheral\dma/cy_dma.c **** * \funcusage 
 227:Generated_Source\PSoC6\pdl\drivers\peripheral\dma/cy_dma.c **** * \snippet dma\2.10\snippet\main.c snippet_Cy_DMA_Enable
 228:Generated_Source\PSoC6\pdl\drivers\peripheral\dma/cy_dma.c **** *
 229:Generated_Source\PSoC6\pdl\drivers\peripheral\dma/cy_dma.c **** *******************************************************************************/
 230:Generated_Source\PSoC6\pdl\drivers\peripheral\dma/cy_dma.c **** cy_en_dma_status_t Cy_DMA_Channel_Init(DW_Type * base, uint32_t channel, cy_stc_dma_channel_config_
 231:Generated_Source\PSoC6\pdl\drivers\peripheral\dma/cy_dma.c **** {
 616              		.loc 1 231 0
 617              		.cfi_startproc
 618              		@ args = 0, pretend = 0, frame = 0
 619              		@ frame_needed = 0, uses_anonymous_args = 0
 620              	.LVL49:
 232:Generated_Source\PSoC6\pdl\drivers\peripheral\dma/cy_dma.c ****     cy_en_dma_status_t ret = CY_DMA_BAD_PARAM;
 233:Generated_Source\PSoC6\pdl\drivers\peripheral\dma/cy_dma.c **** 
 234:Generated_Source\PSoC6\pdl\drivers\peripheral\dma/cy_dma.c ****     if ((NULL != base) &&
 621              		.loc 1 234 0
 622 0000 0028     		cmp	r0, #0
 623 0002 60D0     		beq	.L56
 231:Generated_Source\PSoC6\pdl\drivers\peripheral\dma/cy_dma.c ****     cy_en_dma_status_t ret = CY_DMA_BAD_PARAM;
 624              		.loc 1 231 0 discriminator 1
 625 0004 F8B5     		push	{r3, r4, r5, r6, r7, lr}
 626              		.cfi_def_cfa_offset 24
 627              		.cfi_offset 3, -24
 628              		.cfi_offset 4, -20
 629              		.cfi_offset 5, -16
 630              		.cfi_offset 6, -12
 631              		.cfi_offset 7, -8
 632              		.cfi_offset 14, -4
 633 0006 0346     		mov	r3, r0
 634              		.loc 1 234 0 discriminator 1
 635 0008 002A     		cmp	r2, #0
 636 000a 5ED0     		beq	.L57
 235:Generated_Source\PSoC6\pdl\drivers\peripheral\dma/cy_dma.c ****         (NULL != channelConfig) && 
 236:Generated_Source\PSoC6\pdl\drivers\peripheral\dma/cy_dma.c ****         (NULL != channelConfig->descriptor) &&
 637              		.loc 1 236 0
 638 000c 1068     		ldr	r0, [r2]
 639              	.LVL50:
 235:Generated_Source\PSoC6\pdl\drivers\peripheral\dma/cy_dma.c ****         (NULL != channelConfig) && 
 640              		.loc 1 235 0
 641 000e 0028     		cmp	r0, #0
 642 0010 5DD0     		beq	.L58
 237:Generated_Source\PSoC6\pdl\drivers\peripheral\dma/cy_dma.c ****         (CY_DMA_IS_CH_NR_VALID(channel)))
 643              		.loc 1 237 0
 644 0012 3148     		ldr	r0, .L64
 645 0014 0068     		ldr	r0, [r0]
 646 0016 90F83300 		ldrb	r0, [r0, #51]	@ zero_extendqisi2
ARM GAS  C:\Users\enes_\AppData\Local\Temp\ccsXGQXN.s 			page 17


 236:Generated_Source\PSoC6\pdl\drivers\peripheral\dma/cy_dma.c ****         (CY_DMA_IS_CH_NR_VALID(channel)))
 647              		.loc 1 236 0
 648 001a 8842     		cmp	r0, r1
 649 001c 59D9     		bls	.L59
 650 001e 1E46     		mov	r6, r3
 651 0020 1446     		mov	r4, r2
 652 0022 0D46     		mov	r5, r1
 238:Generated_Source\PSoC6\pdl\drivers\peripheral\dma/cy_dma.c ****     {
 239:Generated_Source\PSoC6\pdl\drivers\peripheral\dma/cy_dma.c ****         CY_ASSERT_L2(CY_DMA_IS_PRIORITY_VALID(channelConfig->priority));
 653              		.loc 1 239 0
 654 0024 9368     		ldr	r3, [r2, #8]
 655              	.LVL51:
 656 0026 032B     		cmp	r3, #3
 657 0028 03D9     		bls	.L51
 658              		.loc 1 239 0 is_stmt 0 discriminator 1
 659 002a EF21     		movs	r1, #239
 660              	.LVL52:
 661 002c 2B48     		ldr	r0, .L64+4
 662 002e FFF7FEFF 		bl	Cy_SysLib_AssertFailed
 663              	.LVL53:
 664              	.L51:
 240:Generated_Source\PSoC6\pdl\drivers\peripheral\dma/cy_dma.c ****         
 241:Generated_Source\PSoC6\pdl\drivers\peripheral\dma/cy_dma.c ****         /* Set the current descriptor */
 242:Generated_Source\PSoC6\pdl\drivers\peripheral\dma/cy_dma.c ****         Cy_DMA_Channel_SetDescriptor(base, channel, channelConfig->descriptor);
 665              		.loc 1 242 0 is_stmt 1
 666 0032 2768     		ldr	r7, [r4]
 667              	.LVL54:
 668              	.LBB7:
 669              	.LBB8:
 670              		.file 2 "Generated_Source\\PSoC6\\pdl\\drivers\\peripheral\\dma\\cy_dma.h"
   1:Generated_Source\PSoC6\pdl\drivers\peripheral\dma/cy_dma.h **** /***************************************************************************//**
   2:Generated_Source\PSoC6\pdl\drivers\peripheral\dma/cy_dma.h **** * \file cy_dma.h
   3:Generated_Source\PSoC6\pdl\drivers\peripheral\dma/cy_dma.h **** * \version 2.10
   4:Generated_Source\PSoC6\pdl\drivers\peripheral\dma/cy_dma.h **** *
   5:Generated_Source\PSoC6\pdl\drivers\peripheral\dma/cy_dma.h **** * \brief
   6:Generated_Source\PSoC6\pdl\drivers\peripheral\dma/cy_dma.h **** * The header file of the DMA driver.
   7:Generated_Source\PSoC6\pdl\drivers\peripheral\dma/cy_dma.h **** *
   8:Generated_Source\PSoC6\pdl\drivers\peripheral\dma/cy_dma.h **** ********************************************************************************
   9:Generated_Source\PSoC6\pdl\drivers\peripheral\dma/cy_dma.h **** * \copyright
  10:Generated_Source\PSoC6\pdl\drivers\peripheral\dma/cy_dma.h **** * Copyright 2016-2018, Cypress Semiconductor Corporation. All rights reserved.
  11:Generated_Source\PSoC6\pdl\drivers\peripheral\dma/cy_dma.h **** * You may use this file only in accordance with the license, terms, conditions,
  12:Generated_Source\PSoC6\pdl\drivers\peripheral\dma/cy_dma.h **** * disclaimers, and limitations in the end user license agreement accompanying
  13:Generated_Source\PSoC6\pdl\drivers\peripheral\dma/cy_dma.h **** * the software package with which this file was provided.
  14:Generated_Source\PSoC6\pdl\drivers\peripheral\dma/cy_dma.h **** *******************************************************************************/
  15:Generated_Source\PSoC6\pdl\drivers\peripheral\dma/cy_dma.h **** 
  16:Generated_Source\PSoC6\pdl\drivers\peripheral\dma/cy_dma.h **** /**
  17:Generated_Source\PSoC6\pdl\drivers\peripheral\dma/cy_dma.h **** * \addtogroup group_dma
  18:Generated_Source\PSoC6\pdl\drivers\peripheral\dma/cy_dma.h **** * \{
  19:Generated_Source\PSoC6\pdl\drivers\peripheral\dma/cy_dma.h **** * Configures a DMA channel and its descriptor(s).
  20:Generated_Source\PSoC6\pdl\drivers\peripheral\dma/cy_dma.h **** *
  21:Generated_Source\PSoC6\pdl\drivers\peripheral\dma/cy_dma.h **** * The functions and other declarations used in this driver are in cy_dma.h. 
  22:Generated_Source\PSoC6\pdl\drivers\peripheral\dma/cy_dma.h **** * You can include cy_pdl.h (ModusToolbox only) to get access to all functions 
  23:Generated_Source\PSoC6\pdl\drivers\peripheral\dma/cy_dma.h **** * and declarations in the PDL.
  24:Generated_Source\PSoC6\pdl\drivers\peripheral\dma/cy_dma.h **** *
  25:Generated_Source\PSoC6\pdl\drivers\peripheral\dma/cy_dma.h **** * The DMA channel can be used in any project to transfer data
  26:Generated_Source\PSoC6\pdl\drivers\peripheral\dma/cy_dma.h **** * without CPU intervention basing on a hardware trigger signal from another component.
  27:Generated_Source\PSoC6\pdl\drivers\peripheral\dma/cy_dma.h **** *
ARM GAS  C:\Users\enes_\AppData\Local\Temp\ccsXGQXN.s 			page 18


  28:Generated_Source\PSoC6\pdl\drivers\peripheral\dma/cy_dma.h **** * A device may support more than one DMA hardware block. Each block has a set of 
  29:Generated_Source\PSoC6\pdl\drivers\peripheral\dma/cy_dma.h **** * registers, a base hardware address, and supports multiple channels. 
  30:Generated_Source\PSoC6\pdl\drivers\peripheral\dma/cy_dma.h **** * Many API functions for the DMA driver require a base hardware address and  
  31:Generated_Source\PSoC6\pdl\drivers\peripheral\dma/cy_dma.h **** * channel number. Ensure that you use the correct hardware address for the DMA block in use.
  32:Generated_Source\PSoC6\pdl\drivers\peripheral\dma/cy_dma.h **** * 
  33:Generated_Source\PSoC6\pdl\drivers\peripheral\dma/cy_dma.h **** * Features:
  34:Generated_Source\PSoC6\pdl\drivers\peripheral\dma/cy_dma.h **** * * Multiple DW blocks (device specific)
  35:Generated_Source\PSoC6\pdl\drivers\peripheral\dma/cy_dma.h **** * * Multiple channels per each DW block (device specific)
  36:Generated_Source\PSoC6\pdl\drivers\peripheral\dma/cy_dma.h **** * * Four priority levels for each channel
  37:Generated_Source\PSoC6\pdl\drivers\peripheral\dma/cy_dma.h **** * * Byte, half-word (2-byte), and word (4-byte) transfers
  38:Generated_Source\PSoC6\pdl\drivers\peripheral\dma/cy_dma.h **** * * Configurable source and destination addresses
  39:Generated_Source\PSoC6\pdl\drivers\peripheral\dma/cy_dma.h **** * * CRC calculation support (only for CPUSS_ver2)
  40:Generated_Source\PSoC6\pdl\drivers\peripheral\dma/cy_dma.h **** *
  41:Generated_Source\PSoC6\pdl\drivers\peripheral\dma/cy_dma.h **** * \section group_dma_configuration Configuration Considerations
  42:Generated_Source\PSoC6\pdl\drivers\peripheral\dma/cy_dma.h **** *
  43:Generated_Source\PSoC6\pdl\drivers\peripheral\dma/cy_dma.h **** * To set up a DMA driver, initialize a descriptor,
  44:Generated_Source\PSoC6\pdl\drivers\peripheral\dma/cy_dma.h **** * initialize and enable a channel, and enable the DMA block.
  45:Generated_Source\PSoC6\pdl\drivers\peripheral\dma/cy_dma.h **** * 
  46:Generated_Source\PSoC6\pdl\drivers\peripheral\dma/cy_dma.h **** * To set up a descriptor, provide the configuration parameters for the 
  47:Generated_Source\PSoC6\pdl\drivers\peripheral\dma/cy_dma.h **** * descriptor in the \ref cy_stc_dma_descriptor_config_t structure. Then call the 
  48:Generated_Source\PSoC6\pdl\drivers\peripheral\dma/cy_dma.h **** * \ref Cy_DMA_Descriptor_Init function to initialize the descriptor in SRAM. You can 
  49:Generated_Source\PSoC6\pdl\drivers\peripheral\dma/cy_dma.h **** * modify the source and destination addresses dynamically by calling 
  50:Generated_Source\PSoC6\pdl\drivers\peripheral\dma/cy_dma.h **** * \ref Cy_DMA_Descriptor_SetSrcAddress and \ref Cy_DMA_Descriptor_SetDstAddress.
  51:Generated_Source\PSoC6\pdl\drivers\peripheral\dma/cy_dma.h **** * 
  52:Generated_Source\PSoC6\pdl\drivers\peripheral\dma/cy_dma.h **** * To set up a DMA channel, provide a filled \ref cy_stc_dma_channel_config_t 
  53:Generated_Source\PSoC6\pdl\drivers\peripheral\dma/cy_dma.h **** * structure. Call the \ref Cy_DMA_Channel_Init function, specifying the channel
  54:Generated_Source\PSoC6\pdl\drivers\peripheral\dma/cy_dma.h **** * number. Use \ref Cy_DMA_Channel_Enable to enable the configured DMA channel.
  55:Generated_Source\PSoC6\pdl\drivers\peripheral\dma/cy_dma.h **** *
  56:Generated_Source\PSoC6\pdl\drivers\peripheral\dma/cy_dma.h **** * Call \ref Cy_DMA_Channel_Enable for each DMA channel in use.
  57:Generated_Source\PSoC6\pdl\drivers\peripheral\dma/cy_dma.h **** *
  58:Generated_Source\PSoC6\pdl\drivers\peripheral\dma/cy_dma.h **** * When configured, another peripheral typically triggers the DMA. The trigger is
  59:Generated_Source\PSoC6\pdl\drivers\peripheral\dma/cy_dma.h **** * connected to the DMA using the trigger multiplexer. The trigger multiplexer
  60:Generated_Source\PSoC6\pdl\drivers\peripheral\dma/cy_dma.h **** * driver has a software trigger you can use in firmware to trigger the DMA. See the
  61:Generated_Source\PSoC6\pdl\drivers\peripheral\dma/cy_dma.h **** * <a href="group__group__trigmux.html">Trigger Multiplexer</a> documentation.
  62:Generated_Source\PSoC6\pdl\drivers\peripheral\dma/cy_dma.h **** *
  63:Generated_Source\PSoC6\pdl\drivers\peripheral\dma/cy_dma.h **** * The following is a simplified structure of the DMA driver API interdependencies
  64:Generated_Source\PSoC6\pdl\drivers\peripheral\dma/cy_dma.h **** * in a typical user application:
  65:Generated_Source\PSoC6\pdl\drivers\peripheral\dma/cy_dma.h **** * \image html dma.png
  66:Generated_Source\PSoC6\pdl\drivers\peripheral\dma/cy_dma.h **** *
  67:Generated_Source\PSoC6\pdl\drivers\peripheral\dma/cy_dma.h **** * <B>NOTE:</B> Even if a DMA channel is enabled, it is not operational until 
  68:Generated_Source\PSoC6\pdl\drivers\peripheral\dma/cy_dma.h **** * the DMA block is enabled using function \ref Cy_DMA_Enable.\n
  69:Generated_Source\PSoC6\pdl\drivers\peripheral\dma/cy_dma.h **** * <B>NOTE:</B> If the DMA descriptor is configured to generate an interrupt, 
  70:Generated_Source\PSoC6\pdl\drivers\peripheral\dma/cy_dma.h **** * the interrupt must be enabled using the \ref Cy_DMA_Channel_SetInterruptMask 
  71:Generated_Source\PSoC6\pdl\drivers\peripheral\dma/cy_dma.h **** * function for each DMA channel.
  72:Generated_Source\PSoC6\pdl\drivers\peripheral\dma/cy_dma.h **** *
  73:Generated_Source\PSoC6\pdl\drivers\peripheral\dma/cy_dma.h **** * For example:
  74:Generated_Source\PSoC6\pdl\drivers\peripheral\dma/cy_dma.h **** * \snippet dma\2.10\snippet\main.c snippet_Cy_DMA_Enable
  75:Generated_Source\PSoC6\pdl\drivers\peripheral\dma/cy_dma.h **** * 
  76:Generated_Source\PSoC6\pdl\drivers\peripheral\dma/cy_dma.h **** * \section group_dma_more_information More Information.
  77:Generated_Source\PSoC6\pdl\drivers\peripheral\dma/cy_dma.h **** * See: the DMA chapter of the device technical reference manual (TRM);
  78:Generated_Source\PSoC6\pdl\drivers\peripheral\dma/cy_dma.h **** *      the DMA Component datasheet;
  79:Generated_Source\PSoC6\pdl\drivers\peripheral\dma/cy_dma.h **** *      CE219940 - PSoC 6 MCU Multiple DMA Concatenation.
  80:Generated_Source\PSoC6\pdl\drivers\peripheral\dma/cy_dma.h **** *
  81:Generated_Source\PSoC6\pdl\drivers\peripheral\dma/cy_dma.h **** * \section group_dma_MISRA MISRA-C Compliance
  82:Generated_Source\PSoC6\pdl\drivers\peripheral\dma/cy_dma.h **** * The DMA driver has the following specific deviations:
  83:Generated_Source\PSoC6\pdl\drivers\peripheral\dma/cy_dma.h **** *
  84:Generated_Source\PSoC6\pdl\drivers\peripheral\dma/cy_dma.h **** * <table class="doxtable">
ARM GAS  C:\Users\enes_\AppData\Local\Temp\ccsXGQXN.s 			page 19


  85:Generated_Source\PSoC6\pdl\drivers\peripheral\dma/cy_dma.h **** *   <tr>
  86:Generated_Source\PSoC6\pdl\drivers\peripheral\dma/cy_dma.h **** *     <th>MISRA Rule</th>
  87:Generated_Source\PSoC6\pdl\drivers\peripheral\dma/cy_dma.h **** *     <th>Rule Class (Required/Advisory)</th>
  88:Generated_Source\PSoC6\pdl\drivers\peripheral\dma/cy_dma.h **** *     <th>Rule Description</th>
  89:Generated_Source\PSoC6\pdl\drivers\peripheral\dma/cy_dma.h **** *     <th>Description of Deviation(s)</th>
  90:Generated_Source\PSoC6\pdl\drivers\peripheral\dma/cy_dma.h **** *   </tr>
  91:Generated_Source\PSoC6\pdl\drivers\peripheral\dma/cy_dma.h **** *   <tr>
  92:Generated_Source\PSoC6\pdl\drivers\peripheral\dma/cy_dma.h **** *     <td>10.3</td>
  93:Generated_Source\PSoC6\pdl\drivers\peripheral\dma/cy_dma.h **** *     <td>R</td>
  94:Generated_Source\PSoC6\pdl\drivers\peripheral\dma/cy_dma.h **** *     <td>A composite expression of the "essentially unsigned" type is being
  95:Generated_Source\PSoC6\pdl\drivers\peripheral\dma/cy_dma.h **** *         cast to a different type category.</td>
  96:Generated_Source\PSoC6\pdl\drivers\peripheral\dma/cy_dma.h **** *     <td>The value got from the bitfield physically cannot exceed the enumeration
  97:Generated_Source\PSoC6\pdl\drivers\peripheral\dma/cy_dma.h **** *         that describes this bitfield. So, the code is safe by design.</td>
  98:Generated_Source\PSoC6\pdl\drivers\peripheral\dma/cy_dma.h **** *   </tr>
  99:Generated_Source\PSoC6\pdl\drivers\peripheral\dma/cy_dma.h **** *   <tr>
 100:Generated_Source\PSoC6\pdl\drivers\peripheral\dma/cy_dma.h **** *     <td>11.4</td>
 101:Generated_Source\PSoC6\pdl\drivers\peripheral\dma/cy_dma.h **** *     <td>A</td>
 102:Generated_Source\PSoC6\pdl\drivers\peripheral\dma/cy_dma.h **** *     <td>A cast should not be performed between a pointer to object type and
 103:Generated_Source\PSoC6\pdl\drivers\peripheral\dma/cy_dma.h **** *         a different pointer to object type.</td>
 104:Generated_Source\PSoC6\pdl\drivers\peripheral\dma/cy_dma.h **** *     <td>This piece of code is written for DW_V2_Type only and it will be never
 105:Generated_Source\PSoC6\pdl\drivers\peripheral\dma/cy_dma.h **** *         executed for DW_V1_Type (which is a default build option for DW_Type).</td>
 106:Generated_Source\PSoC6\pdl\drivers\peripheral\dma/cy_dma.h **** *   </tr>
 107:Generated_Source\PSoC6\pdl\drivers\peripheral\dma/cy_dma.h **** * </table>
 108:Generated_Source\PSoC6\pdl\drivers\peripheral\dma/cy_dma.h **** *
 109:Generated_Source\PSoC6\pdl\drivers\peripheral\dma/cy_dma.h **** * \section group_dma_changelog Changelog
 110:Generated_Source\PSoC6\pdl\drivers\peripheral\dma/cy_dma.h **** *
 111:Generated_Source\PSoC6\pdl\drivers\peripheral\dma/cy_dma.h **** * <table class="doxtable">
 112:Generated_Source\PSoC6\pdl\drivers\peripheral\dma/cy_dma.h **** *   <tr><th>Version</th><th>Changes</th><th>Reason for Change</th></tr>
 113:Generated_Source\PSoC6\pdl\drivers\peripheral\dma/cy_dma.h **** *   <tr>
 114:Generated_Source\PSoC6\pdl\drivers\peripheral\dma/cy_dma.h **** *     <td rowspan="3">2.10</td>
 115:Generated_Source\PSoC6\pdl\drivers\peripheral\dma/cy_dma.h **** *     <td>Flattened the organization of the driver source code into the single source directory and
 116:Generated_Source\PSoC6\pdl\drivers\peripheral\dma/cy_dma.h **** *     <td>Driver library directory-structure simplification.</td>
 117:Generated_Source\PSoC6\pdl\drivers\peripheral\dma/cy_dma.h **** *   </tr>
 118:Generated_Source\PSoC6\pdl\drivers\peripheral\dma/cy_dma.h **** *   <tr>
 119:Generated_Source\PSoC6\pdl\drivers\peripheral\dma/cy_dma.h **** *     <td>Added CRC mode and the CRC descriptor support. \n Added the \ref Cy_DMA_Crc_Init function
 120:Generated_Source\PSoC6\pdl\drivers\peripheral\dma/cy_dma.h **** *     <td>New devices support.</td>
 121:Generated_Source\PSoC6\pdl\drivers\peripheral\dma/cy_dma.h **** *   </tr>
 122:Generated_Source\PSoC6\pdl\drivers\peripheral\dma/cy_dma.h **** *   <tr>
 123:Generated_Source\PSoC6\pdl\drivers\peripheral\dma/cy_dma.h **** *     <td>Added register access layer. Use register access macros instead
 124:Generated_Source\PSoC6\pdl\drivers\peripheral\dma/cy_dma.h **** *         of direct register access using dereferenced pointers.</td>
 125:Generated_Source\PSoC6\pdl\drivers\peripheral\dma/cy_dma.h **** *     <td>Makes register access device-independent, so that the PDL does 
 126:Generated_Source\PSoC6\pdl\drivers\peripheral\dma/cy_dma.h **** *         not need to be recompiled for each supported part number.</td>
 127:Generated_Source\PSoC6\pdl\drivers\peripheral\dma/cy_dma.h **** *   </tr>
 128:Generated_Source\PSoC6\pdl\drivers\peripheral\dma/cy_dma.h **** *   <tr>
 129:Generated_Source\PSoC6\pdl\drivers\peripheral\dma/cy_dma.h **** *     <td>2.0.1</td>
 130:Generated_Source\PSoC6\pdl\drivers\peripheral\dma/cy_dma.h **** *     <td>Changed CY_DMA_BWC macro values from Boolean to numeric</td>
 131:Generated_Source\PSoC6\pdl\drivers\peripheral\dma/cy_dma.h **** *     <td>Improvements made based on usability feedback</td>
 132:Generated_Source\PSoC6\pdl\drivers\peripheral\dma/cy_dma.h **** *   </tr>
 133:Generated_Source\PSoC6\pdl\drivers\peripheral\dma/cy_dma.h **** *   <tr>
 134:Generated_Source\PSoC6\pdl\drivers\peripheral\dma/cy_dma.h **** *     <td>2.0</td>
 135:Generated_Source\PSoC6\pdl\drivers\peripheral\dma/cy_dma.h **** *     <td> * All the API is refactored to be consistent within itself and with the
 136:Generated_Source\PSoC6\pdl\drivers\peripheral\dma/cy_dma.h **** *            rest of the PDL content.
 137:Generated_Source\PSoC6\pdl\drivers\peripheral\dma/cy_dma.h **** *          * The descriptor API is updated as follows:
 138:Generated_Source\PSoC6\pdl\drivers\peripheral\dma/cy_dma.h **** *            The \ref Cy_DMA_Descriptor_Init function sets a full bunch of descriptor
 139:Generated_Source\PSoC6\pdl\drivers\peripheral\dma/cy_dma.h **** *            settings, and the rest of the descriptor API is a get/set interface
 140:Generated_Source\PSoC6\pdl\drivers\peripheral\dma/cy_dma.h **** *            to each of the descriptor settings.
 141:Generated_Source\PSoC6\pdl\drivers\peripheral\dma/cy_dma.h **** *          * There is a group of macros to support the backward compatibility with most 
ARM GAS  C:\Users\enes_\AppData\Local\Temp\ccsXGQXN.s 			page 20


 142:Generated_Source\PSoC6\pdl\drivers\peripheral\dma/cy_dma.h **** *            of the driver version 1.0 API. But, you should use
 143:Generated_Source\PSoC6\pdl\drivers\peripheral\dma/cy_dma.h **** *            the new v2.0 interface in new designs (do not just copy-paste from old
 144:Generated_Source\PSoC6\pdl\drivers\peripheral\dma/cy_dma.h **** *            projects). To enable the backward compatibility support, the CY_DMA_BWC 
 145:Generated_Source\PSoC6\pdl\drivers\peripheral\dma/cy_dma.h **** *            definition should be changed to "1".</td>
 146:Generated_Source\PSoC6\pdl\drivers\peripheral\dma/cy_dma.h **** *     <td></td>
 147:Generated_Source\PSoC6\pdl\drivers\peripheral\dma/cy_dma.h **** *   </tr>
 148:Generated_Source\PSoC6\pdl\drivers\peripheral\dma/cy_dma.h **** *   <tr>
 149:Generated_Source\PSoC6\pdl\drivers\peripheral\dma/cy_dma.h **** *     <td>1.0</td>
 150:Generated_Source\PSoC6\pdl\drivers\peripheral\dma/cy_dma.h **** *     <td>Initial version</td>
 151:Generated_Source\PSoC6\pdl\drivers\peripheral\dma/cy_dma.h **** *     <td></td>
 152:Generated_Source\PSoC6\pdl\drivers\peripheral\dma/cy_dma.h **** *   </tr>
 153:Generated_Source\PSoC6\pdl\drivers\peripheral\dma/cy_dma.h **** * </table>
 154:Generated_Source\PSoC6\pdl\drivers\peripheral\dma/cy_dma.h **** *
 155:Generated_Source\PSoC6\pdl\drivers\peripheral\dma/cy_dma.h **** 
 156:Generated_Source\PSoC6\pdl\drivers\peripheral\dma/cy_dma.h **** * \defgroup group_dma_macros Macros
 157:Generated_Source\PSoC6\pdl\drivers\peripheral\dma/cy_dma.h **** * \defgroup group_dma_functions Functions
 158:Generated_Source\PSoC6\pdl\drivers\peripheral\dma/cy_dma.h **** * \{
 159:Generated_Source\PSoC6\pdl\drivers\peripheral\dma/cy_dma.h **** * \defgroup group_dma_block_functions Block Functions
 160:Generated_Source\PSoC6\pdl\drivers\peripheral\dma/cy_dma.h **** * \defgroup group_dma_channel_functions Channel Functions
 161:Generated_Source\PSoC6\pdl\drivers\peripheral\dma/cy_dma.h **** * \defgroup group_dma_descriptor_functions Descriptor Functions
 162:Generated_Source\PSoC6\pdl\drivers\peripheral\dma/cy_dma.h **** * \}
 163:Generated_Source\PSoC6\pdl\drivers\peripheral\dma/cy_dma.h **** * \defgroup group_dma_data_structures Data Structures
 164:Generated_Source\PSoC6\pdl\drivers\peripheral\dma/cy_dma.h **** * \defgroup group_dma_enums Enumerated Types
 165:Generated_Source\PSoC6\pdl\drivers\peripheral\dma/cy_dma.h **** */
 166:Generated_Source\PSoC6\pdl\drivers\peripheral\dma/cy_dma.h **** 
 167:Generated_Source\PSoC6\pdl\drivers\peripheral\dma/cy_dma.h **** #if !defined(CY_DMA_H)
 168:Generated_Source\PSoC6\pdl\drivers\peripheral\dma/cy_dma.h **** #define CY_DMA_H
 169:Generated_Source\PSoC6\pdl\drivers\peripheral\dma/cy_dma.h **** 
 170:Generated_Source\PSoC6\pdl\drivers\peripheral\dma/cy_dma.h **** #include "cy_device.h"
 171:Generated_Source\PSoC6\pdl\drivers\peripheral\dma/cy_dma.h **** #include "cy_device_headers.h"
 172:Generated_Source\PSoC6\pdl\drivers\peripheral\dma/cy_dma.h **** #include "cy_syslib.h"
 173:Generated_Source\PSoC6\pdl\drivers\peripheral\dma/cy_dma.h **** #include <stdint.h>
 174:Generated_Source\PSoC6\pdl\drivers\peripheral\dma/cy_dma.h **** #include <stdbool.h>
 175:Generated_Source\PSoC6\pdl\drivers\peripheral\dma/cy_dma.h **** #include <stddef.h>
 176:Generated_Source\PSoC6\pdl\drivers\peripheral\dma/cy_dma.h **** 
 177:Generated_Source\PSoC6\pdl\drivers\peripheral\dma/cy_dma.h **** #ifdef CY_IP_M4CPUSS_DMA
 178:Generated_Source\PSoC6\pdl\drivers\peripheral\dma/cy_dma.h **** 
 179:Generated_Source\PSoC6\pdl\drivers\peripheral\dma/cy_dma.h **** #if defined(__cplusplus)
 180:Generated_Source\PSoC6\pdl\drivers\peripheral\dma/cy_dma.h **** extern "C" {
 181:Generated_Source\PSoC6\pdl\drivers\peripheral\dma/cy_dma.h **** #endif
 182:Generated_Source\PSoC6\pdl\drivers\peripheral\dma/cy_dma.h **** 
 183:Generated_Source\PSoC6\pdl\drivers\peripheral\dma/cy_dma.h **** /******************************************************************************
 184:Generated_Source\PSoC6\pdl\drivers\peripheral\dma/cy_dma.h ****  * Macro definitions                                                          *
 185:Generated_Source\PSoC6\pdl\drivers\peripheral\dma/cy_dma.h ****  ******************************************************************************/
 186:Generated_Source\PSoC6\pdl\drivers\peripheral\dma/cy_dma.h **** 
 187:Generated_Source\PSoC6\pdl\drivers\peripheral\dma/cy_dma.h **** /**
 188:Generated_Source\PSoC6\pdl\drivers\peripheral\dma/cy_dma.h **** * \addtogroup group_dma_macros
 189:Generated_Source\PSoC6\pdl\drivers\peripheral\dma/cy_dma.h **** * \{
 190:Generated_Source\PSoC6\pdl\drivers\peripheral\dma/cy_dma.h **** */
 191:Generated_Source\PSoC6\pdl\drivers\peripheral\dma/cy_dma.h **** 
 192:Generated_Source\PSoC6\pdl\drivers\peripheral\dma/cy_dma.h **** /** The driver major version */
 193:Generated_Source\PSoC6\pdl\drivers\peripheral\dma/cy_dma.h **** #define CY_DMA_DRV_VERSION_MAJOR       2
 194:Generated_Source\PSoC6\pdl\drivers\peripheral\dma/cy_dma.h **** 
 195:Generated_Source\PSoC6\pdl\drivers\peripheral\dma/cy_dma.h **** /** The driver minor version */
 196:Generated_Source\PSoC6\pdl\drivers\peripheral\dma/cy_dma.h **** #define CY_DMA_DRV_VERSION_MINOR       10
 197:Generated_Source\PSoC6\pdl\drivers\peripheral\dma/cy_dma.h **** 
 198:Generated_Source\PSoC6\pdl\drivers\peripheral\dma/cy_dma.h **** /** The DMA driver identifier */
ARM GAS  C:\Users\enes_\AppData\Local\Temp\ccsXGQXN.s 			page 21


 199:Generated_Source\PSoC6\pdl\drivers\peripheral\dma/cy_dma.h **** #define CY_DMA_ID                      (CY_PDL_DRV_ID(0x13U))
 200:Generated_Source\PSoC6\pdl\drivers\peripheral\dma/cy_dma.h ****  
 201:Generated_Source\PSoC6\pdl\drivers\peripheral\dma/cy_dma.h **** /** The DMA channel interrupt mask */
 202:Generated_Source\PSoC6\pdl\drivers\peripheral\dma/cy_dma.h **** #define CY_DMA_INTR_MASK               (0x01UL)
 203:Generated_Source\PSoC6\pdl\drivers\peripheral\dma/cy_dma.h **** 
 204:Generated_Source\PSoC6\pdl\drivers\peripheral\dma/cy_dma.h **** /** The minimum X/Y Count API parameters */
 205:Generated_Source\PSoC6\pdl\drivers\peripheral\dma/cy_dma.h **** #define CY_DMA_LOOP_COUNT_MIN          (1UL)
 206:Generated_Source\PSoC6\pdl\drivers\peripheral\dma/cy_dma.h **** /** The maximum X/Y Count API parameters */
 207:Generated_Source\PSoC6\pdl\drivers\peripheral\dma/cy_dma.h **** #define CY_DMA_LOOP_COUNT_MAX          (256UL)
 208:Generated_Source\PSoC6\pdl\drivers\peripheral\dma/cy_dma.h **** 
 209:Generated_Source\PSoC6\pdl\drivers\peripheral\dma/cy_dma.h **** /** The minimum X/Y Increment API parameters */
 210:Generated_Source\PSoC6\pdl\drivers\peripheral\dma/cy_dma.h **** #define CY_DMA_LOOP_INCREMENT_MIN      (-2048L)
 211:Generated_Source\PSoC6\pdl\drivers\peripheral\dma/cy_dma.h **** /** The maximum X/Y Increment API parameters */
 212:Generated_Source\PSoC6\pdl\drivers\peripheral\dma/cy_dma.h **** #define CY_DMA_LOOP_INCREMENT_MAX      (2047L)
 213:Generated_Source\PSoC6\pdl\drivers\peripheral\dma/cy_dma.h **** 
 214:Generated_Source\PSoC6\pdl\drivers\peripheral\dma/cy_dma.h **** /** The backward compatibility flag. Enables a group of macros which provide 
 215:Generated_Source\PSoC6\pdl\drivers\peripheral\dma/cy_dma.h **** * the backward compatibility with most of the DMA driver version 1.0 interface. */
 216:Generated_Source\PSoC6\pdl\drivers\peripheral\dma/cy_dma.h **** #ifndef CY_DMA_BWC
 217:Generated_Source\PSoC6\pdl\drivers\peripheral\dma/cy_dma.h ****     #define CY_DMA_BWC                 (0U) /* Disabled by default */
 218:Generated_Source\PSoC6\pdl\drivers\peripheral\dma/cy_dma.h **** #endif
 219:Generated_Source\PSoC6\pdl\drivers\peripheral\dma/cy_dma.h **** 
 220:Generated_Source\PSoC6\pdl\drivers\peripheral\dma/cy_dma.h **** /** \} group_dma_macros */
 221:Generated_Source\PSoC6\pdl\drivers\peripheral\dma/cy_dma.h **** 
 222:Generated_Source\PSoC6\pdl\drivers\peripheral\dma/cy_dma.h **** 
 223:Generated_Source\PSoC6\pdl\drivers\peripheral\dma/cy_dma.h **** /**
 224:Generated_Source\PSoC6\pdl\drivers\peripheral\dma/cy_dma.h **** * \addtogroup group_dma_enums
 225:Generated_Source\PSoC6\pdl\drivers\peripheral\dma/cy_dma.h **** * \{
 226:Generated_Source\PSoC6\pdl\drivers\peripheral\dma/cy_dma.h **** */
 227:Generated_Source\PSoC6\pdl\drivers\peripheral\dma/cy_dma.h **** 
 228:Generated_Source\PSoC6\pdl\drivers\peripheral\dma/cy_dma.h **** /** Contains the possible interrupt cause values */
 229:Generated_Source\PSoC6\pdl\drivers\peripheral\dma/cy_dma.h **** typedef enum
 230:Generated_Source\PSoC6\pdl\drivers\peripheral\dma/cy_dma.h **** {
 231:Generated_Source\PSoC6\pdl\drivers\peripheral\dma/cy_dma.h ****     CY_DMA_INTR_CAUSE_NO_INTR            = 0U, /**< No interrupt.                       */
 232:Generated_Source\PSoC6\pdl\drivers\peripheral\dma/cy_dma.h ****     CY_DMA_INTR_CAUSE_COMPLETION         = 1U, /**< Completion.                         */
 233:Generated_Source\PSoC6\pdl\drivers\peripheral\dma/cy_dma.h ****     CY_DMA_INTR_CAUSE_SRC_BUS_ERROR      = 2U, /**< Source bus error.                   */
 234:Generated_Source\PSoC6\pdl\drivers\peripheral\dma/cy_dma.h ****     CY_DMA_INTR_CAUSE_DST_BUS_ERROR      = 3U, /**< Destination bus error.              */
 235:Generated_Source\PSoC6\pdl\drivers\peripheral\dma/cy_dma.h ****     CY_DMA_INTR_CAUSE_SRC_MISAL          = 4U, /**< Source address is not aligned.       */
 236:Generated_Source\PSoC6\pdl\drivers\peripheral\dma/cy_dma.h ****     CY_DMA_INTR_CAUSE_DST_MISAL          = 5U, /**< Destination address is not aligned. */
 237:Generated_Source\PSoC6\pdl\drivers\peripheral\dma/cy_dma.h ****     CY_DMA_INTR_CAUSE_CURR_PTR_NULL      = 6U, /**< Current descriptor pointer is NULL. */
 238:Generated_Source\PSoC6\pdl\drivers\peripheral\dma/cy_dma.h ****     CY_DMA_INTR_CAUSE_ACTIVE_CH_DISABLED = 7U, /**< Active channel is disabled.         */
 239:Generated_Source\PSoC6\pdl\drivers\peripheral\dma/cy_dma.h ****     CY_DMA_INTR_CAUSE_DESCR_BUS_ERROR    = 8U  /**< Descriptor bus error.               */
 240:Generated_Source\PSoC6\pdl\drivers\peripheral\dma/cy_dma.h **** } cy_en_dma_intr_cause_t;
 241:Generated_Source\PSoC6\pdl\drivers\peripheral\dma/cy_dma.h **** 
 242:Generated_Source\PSoC6\pdl\drivers\peripheral\dma/cy_dma.h **** /** Contains the options for the descriptor type */
 243:Generated_Source\PSoC6\pdl\drivers\peripheral\dma/cy_dma.h **** typedef enum
 244:Generated_Source\PSoC6\pdl\drivers\peripheral\dma/cy_dma.h **** {
 245:Generated_Source\PSoC6\pdl\drivers\peripheral\dma/cy_dma.h ****     CY_DMA_SINGLE_TRANSFER = 0UL,          /**< Single transfer. */
 246:Generated_Source\PSoC6\pdl\drivers\peripheral\dma/cy_dma.h ****     CY_DMA_1D_TRANSFER     = 1UL,          /**< 1D transfer.     */
 247:Generated_Source\PSoC6\pdl\drivers\peripheral\dma/cy_dma.h ****     CY_DMA_2D_TRANSFER     = 2UL,          /**< 2D transfer.     */
 248:Generated_Source\PSoC6\pdl\drivers\peripheral\dma/cy_dma.h ****     CY_DMA_CRC_TRANSFER    = 3UL,          /**< CRC transfer. Supported by the CPUSS_ver2 only. */
 249:Generated_Source\PSoC6\pdl\drivers\peripheral\dma/cy_dma.h **** } cy_en_dma_descriptor_type_t;
 250:Generated_Source\PSoC6\pdl\drivers\peripheral\dma/cy_dma.h **** 
 251:Generated_Source\PSoC6\pdl\drivers\peripheral\dma/cy_dma.h **** /** Contains the options for the interrupt, trig-in and trig-out type parameters of the descriptor 
 252:Generated_Source\PSoC6\pdl\drivers\peripheral\dma/cy_dma.h **** typedef enum
 253:Generated_Source\PSoC6\pdl\drivers\peripheral\dma/cy_dma.h **** {
 254:Generated_Source\PSoC6\pdl\drivers\peripheral\dma/cy_dma.h ****     CY_DMA_1ELEMENT    = 0UL,              /**< One element transfer.             */
 255:Generated_Source\PSoC6\pdl\drivers\peripheral\dma/cy_dma.h ****     CY_DMA_X_LOOP      = 1UL,              /**< One X loop transfer.              */
ARM GAS  C:\Users\enes_\AppData\Local\Temp\ccsXGQXN.s 			page 22


 256:Generated_Source\PSoC6\pdl\drivers\peripheral\dma/cy_dma.h ****     CY_DMA_DESCR       = 2UL,              /**< One descriptor transfer.          */
 257:Generated_Source\PSoC6\pdl\drivers\peripheral\dma/cy_dma.h ****     CY_DMA_DESCR_CHAIN = 3UL               /**< Entire descriptor chain transfer. */
 258:Generated_Source\PSoC6\pdl\drivers\peripheral\dma/cy_dma.h **** } cy_en_dma_trigger_type_t;
 259:Generated_Source\PSoC6\pdl\drivers\peripheral\dma/cy_dma.h **** 
 260:Generated_Source\PSoC6\pdl\drivers\peripheral\dma/cy_dma.h **** /** Contains the options for the data size */
 261:Generated_Source\PSoC6\pdl\drivers\peripheral\dma/cy_dma.h **** typedef enum
 262:Generated_Source\PSoC6\pdl\drivers\peripheral\dma/cy_dma.h **** {
 263:Generated_Source\PSoC6\pdl\drivers\peripheral\dma/cy_dma.h ****     CY_DMA_BYTE     = 0UL,                 /**< One byte.               */
 264:Generated_Source\PSoC6\pdl\drivers\peripheral\dma/cy_dma.h ****     CY_DMA_HALFWORD = 1UL,                 /**< Half word (two bytes).  */
 265:Generated_Source\PSoC6\pdl\drivers\peripheral\dma/cy_dma.h ****     CY_DMA_WORD     = 2UL                  /**< Full word (four bytes). */
 266:Generated_Source\PSoC6\pdl\drivers\peripheral\dma/cy_dma.h **** } cy_en_dma_data_size_t;
 267:Generated_Source\PSoC6\pdl\drivers\peripheral\dma/cy_dma.h **** 
 268:Generated_Source\PSoC6\pdl\drivers\peripheral\dma/cy_dma.h **** /** Contains the options for descriptor retriggering */
 269:Generated_Source\PSoC6\pdl\drivers\peripheral\dma/cy_dma.h **** typedef enum
 270:Generated_Source\PSoC6\pdl\drivers\peripheral\dma/cy_dma.h **** {
 271:Generated_Source\PSoC6\pdl\drivers\peripheral\dma/cy_dma.h ****     CY_DMA_RETRIG_IM      = 0UL,           /**< Retrigger immediately.              */
 272:Generated_Source\PSoC6\pdl\drivers\peripheral\dma/cy_dma.h ****     CY_DMA_RETRIG_4CYC    = 1UL,           /**< Retrigger after 4 Clk_Slow cycles.  */
 273:Generated_Source\PSoC6\pdl\drivers\peripheral\dma/cy_dma.h ****     CY_DMA_RETRIG_16CYC   = 2UL,           /**< Retrigger after 16 Clk_Slow cycles. */
 274:Generated_Source\PSoC6\pdl\drivers\peripheral\dma/cy_dma.h ****     CY_DMA_WAIT_FOR_REACT = 3UL            /**< Wait for trigger reactivation.      */
 275:Generated_Source\PSoC6\pdl\drivers\peripheral\dma/cy_dma.h **** } cy_en_dma_retrigger_t;
 276:Generated_Source\PSoC6\pdl\drivers\peripheral\dma/cy_dma.h **** 
 277:Generated_Source\PSoC6\pdl\drivers\peripheral\dma/cy_dma.h **** /** Contains the options for the transfer size */
 278:Generated_Source\PSoC6\pdl\drivers\peripheral\dma/cy_dma.h **** typedef enum
 279:Generated_Source\PSoC6\pdl\drivers\peripheral\dma/cy_dma.h **** {
 280:Generated_Source\PSoC6\pdl\drivers\peripheral\dma/cy_dma.h ****     CY_DMA_TRANSFER_SIZE_DATA = 0UL,       /**< As specified by dataSize. */
 281:Generated_Source\PSoC6\pdl\drivers\peripheral\dma/cy_dma.h ****     CY_DMA_TRANSFER_SIZE_WORD = 1UL,       /**< A full word (four bytes). */
 282:Generated_Source\PSoC6\pdl\drivers\peripheral\dma/cy_dma.h **** } cy_en_dma_transfer_size_t;
 283:Generated_Source\PSoC6\pdl\drivers\peripheral\dma/cy_dma.h **** 
 284:Generated_Source\PSoC6\pdl\drivers\peripheral\dma/cy_dma.h **** /** Contains the options for the state of the channel when the descriptor is completed   */
 285:Generated_Source\PSoC6\pdl\drivers\peripheral\dma/cy_dma.h **** typedef enum
 286:Generated_Source\PSoC6\pdl\drivers\peripheral\dma/cy_dma.h **** {
 287:Generated_Source\PSoC6\pdl\drivers\peripheral\dma/cy_dma.h ****     CY_DMA_CHANNEL_ENABLED  = 0UL,         /**< Channel stays enabled. */
 288:Generated_Source\PSoC6\pdl\drivers\peripheral\dma/cy_dma.h ****     CY_DMA_CHANNEL_DISABLED = 1UL          /**< Channel is disabled.   */
 289:Generated_Source\PSoC6\pdl\drivers\peripheral\dma/cy_dma.h **** } cy_en_dma_channel_state_t;
 290:Generated_Source\PSoC6\pdl\drivers\peripheral\dma/cy_dma.h **** 
 291:Generated_Source\PSoC6\pdl\drivers\peripheral\dma/cy_dma.h **** /** Contains the return values of the DMA driver */
 292:Generated_Source\PSoC6\pdl\drivers\peripheral\dma/cy_dma.h **** typedef enum 
 293:Generated_Source\PSoC6\pdl\drivers\peripheral\dma/cy_dma.h **** {
 294:Generated_Source\PSoC6\pdl\drivers\peripheral\dma/cy_dma.h ****     CY_DMA_SUCCESS   = 0x00UL, /**< Success. */
 295:Generated_Source\PSoC6\pdl\drivers\peripheral\dma/cy_dma.h ****     CY_DMA_BAD_PARAM = CY_DMA_ID | CY_PDL_STATUS_ERROR | 0x01UL /**< The input parameters passed to
 296:Generated_Source\PSoC6\pdl\drivers\peripheral\dma/cy_dma.h **** } cy_en_dma_status_t;
 297:Generated_Source\PSoC6\pdl\drivers\peripheral\dma/cy_dma.h **** 
 298:Generated_Source\PSoC6\pdl\drivers\peripheral\dma/cy_dma.h **** /** \} group_dma_enums */
 299:Generated_Source\PSoC6\pdl\drivers\peripheral\dma/cy_dma.h **** 
 300:Generated_Source\PSoC6\pdl\drivers\peripheral\dma/cy_dma.h **** 
 301:Generated_Source\PSoC6\pdl\drivers\peripheral\dma/cy_dma.h **** /** \cond Internal */
 302:Generated_Source\PSoC6\pdl\drivers\peripheral\dma/cy_dma.h **** 
 303:Generated_Source\PSoC6\pdl\drivers\peripheral\dma/cy_dma.h **** /* Macros for the conditions used by CY_ASSERT calls */
 304:Generated_Source\PSoC6\pdl\drivers\peripheral\dma/cy_dma.h **** #define CY_DMA_IS_LOOP_COUNT_VALID(count)      (((count) >= CY_DMA_LOOP_COUNT_MIN) && ((count) <= C
 305:Generated_Source\PSoC6\pdl\drivers\peripheral\dma/cy_dma.h **** #define CY_DMA_IS_LOOP_INCR_VALID(incr)        (((incr) >= CY_DMA_LOOP_INCREMENT_MIN) && ((incr) <=
 306:Generated_Source\PSoC6\pdl\drivers\peripheral\dma/cy_dma.h **** #define CY_DMA_IS_PRIORITY_VALID(prio)         ((prio) <= 3UL)
 307:Generated_Source\PSoC6\pdl\drivers\peripheral\dma/cy_dma.h **** #define CY_DMA_IS_INTR_MASK_VALID(intr)        (0UL == ((intr) & ((uint32_t) ~CY_DMA_INTR_MASK)))
 308:Generated_Source\PSoC6\pdl\drivers\peripheral\dma/cy_dma.h **** 
 309:Generated_Source\PSoC6\pdl\drivers\peripheral\dma/cy_dma.h **** #define CY_DMA_IS_RETRIG_VALID(retrig)         ((CY_DMA_RETRIG_IM      == (retrig)) || \
 310:Generated_Source\PSoC6\pdl\drivers\peripheral\dma/cy_dma.h ****                                                 (CY_DMA_RETRIG_4CYC    == (retrig)) || \
 311:Generated_Source\PSoC6\pdl\drivers\peripheral\dma/cy_dma.h ****                                                 (CY_DMA_RETRIG_16CYC   == (retrig)) || \
 312:Generated_Source\PSoC6\pdl\drivers\peripheral\dma/cy_dma.h ****                                                 (CY_DMA_WAIT_FOR_REACT == (retrig)))
ARM GAS  C:\Users\enes_\AppData\Local\Temp\ccsXGQXN.s 			page 23


 313:Generated_Source\PSoC6\pdl\drivers\peripheral\dma/cy_dma.h **** 
 314:Generated_Source\PSoC6\pdl\drivers\peripheral\dma/cy_dma.h **** #define CY_DMA_IS_TRIG_TYPE_VALID(trigType)    ((CY_DMA_1ELEMENT    == (trigType)) || \
 315:Generated_Source\PSoC6\pdl\drivers\peripheral\dma/cy_dma.h ****                                                 (CY_DMA_X_LOOP      == (trigType)) || \
 316:Generated_Source\PSoC6\pdl\drivers\peripheral\dma/cy_dma.h ****                                                 (CY_DMA_DESCR       == (trigType)) || \
 317:Generated_Source\PSoC6\pdl\drivers\peripheral\dma/cy_dma.h ****                                                 (CY_DMA_DESCR_CHAIN == (trigType)))
 318:Generated_Source\PSoC6\pdl\drivers\peripheral\dma/cy_dma.h **** 
 319:Generated_Source\PSoC6\pdl\drivers\peripheral\dma/cy_dma.h **** #define CY_DMA_IS_XFER_SIZE_VALID(xferSize)    ((CY_DMA_TRANSFER_SIZE_DATA == (xferSize)) || \
 320:Generated_Source\PSoC6\pdl\drivers\peripheral\dma/cy_dma.h ****                                                 (CY_DMA_TRANSFER_SIZE_WORD == (xferSize)))
 321:Generated_Source\PSoC6\pdl\drivers\peripheral\dma/cy_dma.h **** 
 322:Generated_Source\PSoC6\pdl\drivers\peripheral\dma/cy_dma.h **** #define CY_DMA_IS_CHANNEL_STATE_VALID(state)   ((CY_DMA_CHANNEL_ENABLED  == (state)) || \
 323:Generated_Source\PSoC6\pdl\drivers\peripheral\dma/cy_dma.h ****                                                 (CY_DMA_CHANNEL_DISABLED == (state)))
 324:Generated_Source\PSoC6\pdl\drivers\peripheral\dma/cy_dma.h **** 
 325:Generated_Source\PSoC6\pdl\drivers\peripheral\dma/cy_dma.h **** #define CY_DMA_IS_DATA_SIZE_VALID(dataSize)    ((CY_DMA_BYTE     == (dataSize)) || \
 326:Generated_Source\PSoC6\pdl\drivers\peripheral\dma/cy_dma.h ****                                                 (CY_DMA_HALFWORD == (dataSize)) || \
 327:Generated_Source\PSoC6\pdl\drivers\peripheral\dma/cy_dma.h ****                                                 (CY_DMA_WORD     == (dataSize)))
 328:Generated_Source\PSoC6\pdl\drivers\peripheral\dma/cy_dma.h **** 
 329:Generated_Source\PSoC6\pdl\drivers\peripheral\dma/cy_dma.h **** #define CY_DMA_IS_TYPE_VALID(descrType)        ((CY_DMA_SINGLE_TRANSFER == (descrType)) || \
 330:Generated_Source\PSoC6\pdl\drivers\peripheral\dma/cy_dma.h ****                                                 (CY_DMA_1D_TRANSFER     == (descrType)) || \
 331:Generated_Source\PSoC6\pdl\drivers\peripheral\dma/cy_dma.h ****                                                 (CY_DMA_2D_TRANSFER     == (descrType)) || \
 332:Generated_Source\PSoC6\pdl\drivers\peripheral\dma/cy_dma.h ****                                                 (CY_DMA_CRC_TRANSFER    == (descrType)))
 333:Generated_Source\PSoC6\pdl\drivers\peripheral\dma/cy_dma.h **** 
 334:Generated_Source\PSoC6\pdl\drivers\peripheral\dma/cy_dma.h **** #define CY_DMA_IS_CH_NR_VALID(chNr)            ((chNr) < CY_DW_CH_NR)
 335:Generated_Source\PSoC6\pdl\drivers\peripheral\dma/cy_dma.h **** 
 336:Generated_Source\PSoC6\pdl\drivers\peripheral\dma/cy_dma.h **** 
 337:Generated_Source\PSoC6\pdl\drivers\peripheral\dma/cy_dma.h **** /* The descriptor structure bit field definitions */
 338:Generated_Source\PSoC6\pdl\drivers\peripheral\dma/cy_dma.h **** #define CY_DMA_CTL_RETRIG_Pos      (0UL)
 339:Generated_Source\PSoC6\pdl\drivers\peripheral\dma/cy_dma.h **** #define CY_DMA_CTL_RETRIG_Msk      ((uint32_t)0x3UL << CY_DMA_CTL_RETRIG_Pos)
 340:Generated_Source\PSoC6\pdl\drivers\peripheral\dma/cy_dma.h **** #define CY_DMA_CTL_INTR_TYPE_Pos   (2UL)
 341:Generated_Source\PSoC6\pdl\drivers\peripheral\dma/cy_dma.h **** #define CY_DMA_CTL_INTR_TYPE_Msk   ((uint32_t)0x3UL << CY_DMA_CTL_INTR_TYPE_Pos)
 342:Generated_Source\PSoC6\pdl\drivers\peripheral\dma/cy_dma.h **** #define CY_DMA_CTL_TR_OUT_TYPE_Pos (4UL)
 343:Generated_Source\PSoC6\pdl\drivers\peripheral\dma/cy_dma.h **** #define CY_DMA_CTL_TR_OUT_TYPE_Msk ((uint32_t)0x3UL << CY_DMA_CTL_TR_OUT_TYPE_Pos)
 344:Generated_Source\PSoC6\pdl\drivers\peripheral\dma/cy_dma.h **** #define CY_DMA_CTL_TR_IN_TYPE_Pos  (6UL)
 345:Generated_Source\PSoC6\pdl\drivers\peripheral\dma/cy_dma.h **** #define CY_DMA_CTL_TR_IN_TYPE_Msk  ((uint32_t)0x3UL << CY_DMA_CTL_TR_IN_TYPE_Pos)
 346:Generated_Source\PSoC6\pdl\drivers\peripheral\dma/cy_dma.h **** #define CY_DMA_CTL_CH_DISABLE_Pos  (24UL)
 347:Generated_Source\PSoC6\pdl\drivers\peripheral\dma/cy_dma.h **** #define CY_DMA_CTL_CH_DISABLE_Msk  ((uint32_t)0x1UL << CY_DMA_CTL_CH_DISABLE_Pos)
 348:Generated_Source\PSoC6\pdl\drivers\peripheral\dma/cy_dma.h **** #define CY_DMA_CTL_SRC_SIZE_Pos    (26UL)
 349:Generated_Source\PSoC6\pdl\drivers\peripheral\dma/cy_dma.h **** #define CY_DMA_CTL_SRC_SIZE_Msk    ((uint32_t)0x1UL << CY_DMA_CTL_SRC_SIZE_Pos)
 350:Generated_Source\PSoC6\pdl\drivers\peripheral\dma/cy_dma.h **** #define CY_DMA_CTL_DST_SIZE_Pos    (27UL)
 351:Generated_Source\PSoC6\pdl\drivers\peripheral\dma/cy_dma.h **** #define CY_DMA_CTL_DST_SIZE_Msk    ((uint32_t)0x1UL << CY_DMA_CTL_DST_SIZE_Pos)
 352:Generated_Source\PSoC6\pdl\drivers\peripheral\dma/cy_dma.h **** #define CY_DMA_CTL_DATA_SIZE_Pos   (28UL)
 353:Generated_Source\PSoC6\pdl\drivers\peripheral\dma/cy_dma.h **** #define CY_DMA_CTL_DATA_SIZE_Msk   ((uint32_t)0x3UL << CY_DMA_CTL_DATA_SIZE_Pos)
 354:Generated_Source\PSoC6\pdl\drivers\peripheral\dma/cy_dma.h **** #define CY_DMA_CTL_TYPE_Pos        (30UL)
 355:Generated_Source\PSoC6\pdl\drivers\peripheral\dma/cy_dma.h **** #define CY_DMA_CTL_TYPE_Msk        ((uint32_t)0x3UL << CY_DMA_CTL_TYPE_Pos)
 356:Generated_Source\PSoC6\pdl\drivers\peripheral\dma/cy_dma.h **** 
 357:Generated_Source\PSoC6\pdl\drivers\peripheral\dma/cy_dma.h **** #define CY_DMA_CTL_SRC_INCR_Pos    (0UL)
 358:Generated_Source\PSoC6\pdl\drivers\peripheral\dma/cy_dma.h **** #define CY_DMA_CTL_SRC_INCR_Msk    ((uint32_t)0xFFFUL << CY_DMA_CTL_SRC_INCR_Pos)
 359:Generated_Source\PSoC6\pdl\drivers\peripheral\dma/cy_dma.h **** #define CY_DMA_CTL_DST_INCR_Pos    (12UL)
 360:Generated_Source\PSoC6\pdl\drivers\peripheral\dma/cy_dma.h **** #define CY_DMA_CTL_DST_INCR_Msk    ((uint32_t)0xFFFUL << CY_DMA_CTL_DST_INCR_Pos)
 361:Generated_Source\PSoC6\pdl\drivers\peripheral\dma/cy_dma.h **** #define CY_DMA_CTL_COUNT_Pos       (24UL)
 362:Generated_Source\PSoC6\pdl\drivers\peripheral\dma/cy_dma.h **** #define CY_DMA_CTL_COUNT_Msk       ((uint32_t)0xFFUL << CY_DMA_CTL_COUNT_Pos)
 363:Generated_Source\PSoC6\pdl\drivers\peripheral\dma/cy_dma.h **** 
 364:Generated_Source\PSoC6\pdl\drivers\peripheral\dma/cy_dma.h **** /** \endcond */
 365:Generated_Source\PSoC6\pdl\drivers\peripheral\dma/cy_dma.h **** 
 366:Generated_Source\PSoC6\pdl\drivers\peripheral\dma/cy_dma.h **** 
 367:Generated_Source\PSoC6\pdl\drivers\peripheral\dma/cy_dma.h **** /**
 368:Generated_Source\PSoC6\pdl\drivers\peripheral\dma/cy_dma.h **** * \addtogroup group_dma_data_structures
 369:Generated_Source\PSoC6\pdl\drivers\peripheral\dma/cy_dma.h **** * \{
ARM GAS  C:\Users\enes_\AppData\Local\Temp\ccsXGQXN.s 			page 24


 370:Generated_Source\PSoC6\pdl\drivers\peripheral\dma/cy_dma.h **** */
 371:Generated_Source\PSoC6\pdl\drivers\peripheral\dma/cy_dma.h **** 
 372:Generated_Source\PSoC6\pdl\drivers\peripheral\dma/cy_dma.h **** /** 
 373:Generated_Source\PSoC6\pdl\drivers\peripheral\dma/cy_dma.h **** * DMA descriptor structure type. It is a user/component-declared structure 
 374:Generated_Source\PSoC6\pdl\drivers\peripheral\dma/cy_dma.h **** * allocated in RAM. The DMA HW requires a pointer to this structure to work with it.
 375:Generated_Source\PSoC6\pdl\drivers\peripheral\dma/cy_dma.h **** *
 376:Generated_Source\PSoC6\pdl\drivers\peripheral\dma/cy_dma.h **** * For advanced users: the descriptor can be allocated even in flash, then the user
 377:Generated_Source\PSoC6\pdl\drivers\peripheral\dma/cy_dma.h **** * manually predefines all the structure items with constants. This is 
 378:Generated_Source\PSoC6\pdl\drivers\peripheral\dma/cy_dma.h **** * because most of the driver's API (especially functions modifying
 379:Generated_Source\PSoC6\pdl\drivers\peripheral\dma/cy_dma.h **** * descriptors, including \ref Cy_DMA_Descriptor_Init()) can't work with 
 380:Generated_Source\PSoC6\pdl\drivers\peripheral\dma/cy_dma.h **** * read-only descriptors.
 381:Generated_Source\PSoC6\pdl\drivers\peripheral\dma/cy_dma.h **** */
 382:Generated_Source\PSoC6\pdl\drivers\peripheral\dma/cy_dma.h **** typedef struct
 383:Generated_Source\PSoC6\pdl\drivers\peripheral\dma/cy_dma.h **** {
 384:Generated_Source\PSoC6\pdl\drivers\peripheral\dma/cy_dma.h ****     uint32_t ctl;                    /*!< 0x00000000 Descriptor control */
 385:Generated_Source\PSoC6\pdl\drivers\peripheral\dma/cy_dma.h ****     uint32_t src;                    /*!< 0x00000004 Descriptor source */
 386:Generated_Source\PSoC6\pdl\drivers\peripheral\dma/cy_dma.h ****     uint32_t dst;                    /*!< 0x00000008 Descriptor destination */
 387:Generated_Source\PSoC6\pdl\drivers\peripheral\dma/cy_dma.h ****     uint32_t xCtl;                   /*!< 0x0000000C Descriptor X loop control */
 388:Generated_Source\PSoC6\pdl\drivers\peripheral\dma/cy_dma.h ****     uint32_t yCtl;                   /*!< 0x00000010 Descriptor Y loop control */
 389:Generated_Source\PSoC6\pdl\drivers\peripheral\dma/cy_dma.h ****     uint32_t nextPtr;                /*!< 0x00000014 Descriptor next pointer */
 390:Generated_Source\PSoC6\pdl\drivers\peripheral\dma/cy_dma.h **** } cy_stc_dma_descriptor_t;
 391:Generated_Source\PSoC6\pdl\drivers\peripheral\dma/cy_dma.h **** 
 392:Generated_Source\PSoC6\pdl\drivers\peripheral\dma/cy_dma.h **** /**
 393:Generated_Source\PSoC6\pdl\drivers\peripheral\dma/cy_dma.h **** * This structure is a configuration structure pre-initialized by the user and
 394:Generated_Source\PSoC6\pdl\drivers\peripheral\dma/cy_dma.h **** * passed as a parameter to the \ref Cy_DMA_Descriptor_Init().
 395:Generated_Source\PSoC6\pdl\drivers\peripheral\dma/cy_dma.h **** * It can be allocated in RAM/flash (the user's choice).
 396:Generated_Source\PSoC6\pdl\drivers\peripheral\dma/cy_dma.h **** * In case of flash allocation, there is a possibility to reinitialize the descriptor in runtime.
 397:Generated_Source\PSoC6\pdl\drivers\peripheral\dma/cy_dma.h **** * This structure has all the parameters of the descriptor as separate parameters.
 398:Generated_Source\PSoC6\pdl\drivers\peripheral\dma/cy_dma.h **** * Most of these parameters are represented in the \ref cy_stc_dma_descriptor_t structure as bitfiel
 399:Generated_Source\PSoC6\pdl\drivers\peripheral\dma/cy_dma.h **** */
 400:Generated_Source\PSoC6\pdl\drivers\peripheral\dma/cy_dma.h **** typedef struct
 401:Generated_Source\PSoC6\pdl\drivers\peripheral\dma/cy_dma.h **** {
 402:Generated_Source\PSoC6\pdl\drivers\peripheral\dma/cy_dma.h ****     cy_en_dma_retrigger_t       retrigger;       /**< Specifies whether the DW controller should wa
 403:Generated_Source\PSoC6\pdl\drivers\peripheral\dma/cy_dma.h ****     cy_en_dma_trigger_type_t    interruptType;   /**< Sets the event that triggers an interrupt. Se
 404:Generated_Source\PSoC6\pdl\drivers\peripheral\dma/cy_dma.h ****     cy_en_dma_trigger_type_t    triggerOutType;  /**< Sets the event that triggers an output. See \
 405:Generated_Source\PSoC6\pdl\drivers\peripheral\dma/cy_dma.h ****     cy_en_dma_channel_state_t   channelState;    /**< Specifies whether the channel is enabled or d
 406:Generated_Source\PSoC6\pdl\drivers\peripheral\dma/cy_dma.h ****     cy_en_dma_trigger_type_t    triggerInType;   /**< Sets what type of transfer is triggered. See 
 407:Generated_Source\PSoC6\pdl\drivers\peripheral\dma/cy_dma.h ****     cy_en_dma_data_size_t       dataSize;        /**< The size of the data bus for transfer. See \r
 408:Generated_Source\PSoC6\pdl\drivers\peripheral\dma/cy_dma.h ****     cy_en_dma_transfer_size_t   srcTransferSize; /**< The source transfer size. */
 409:Generated_Source\PSoC6\pdl\drivers\peripheral\dma/cy_dma.h ****     cy_en_dma_transfer_size_t   dstTransferSize; /**< The destination transfer size. */
 410:Generated_Source\PSoC6\pdl\drivers\peripheral\dma/cy_dma.h ****     cy_en_dma_descriptor_type_t descriptorType;  /**< The type of the descriptor. See \ref cy_en_dm
 411:Generated_Source\PSoC6\pdl\drivers\peripheral\dma/cy_dma.h ****     void *                      srcAddress;      /**< The source address of the transfer. */
 412:Generated_Source\PSoC6\pdl\drivers\peripheral\dma/cy_dma.h ****     void *                      dstAddress;      /**< The destination address of the transfer.
 413:Generated_Source\PSoC6\pdl\drivers\peripheral\dma/cy_dma.h ****                                                    *  For CPUSS_ver2 only: for CRC transfer, the CR
 414:Generated_Source\PSoC6\pdl\drivers\peripheral\dma/cy_dma.h ****                                                    *  (reversing and/or XORing, if used) is placed 
 415:Generated_Source\PSoC6\pdl\drivers\peripheral\dma/cy_dma.h ****                                                    */
 416:Generated_Source\PSoC6\pdl\drivers\peripheral\dma/cy_dma.h ****     int32_t                     srcXincrement;   /**< The address increment of the source after eac
 417:Generated_Source\PSoC6\pdl\drivers\peripheral\dma/cy_dma.h ****     int32_t                     dstXincrement;   /**< The address increment of the destination afte
 418:Generated_Source\PSoC6\pdl\drivers\peripheral\dma/cy_dma.h ****     uint32_t                    xCount;          /**< The number of transfers in an X-loop. Valid r
 419:Generated_Source\PSoC6\pdl\drivers\peripheral\dma/cy_dma.h ****     int32_t                     srcYincrement;   /**< The address increment of the source after eac
 420:Generated_Source\PSoC6\pdl\drivers\peripheral\dma/cy_dma.h ****     int32_t                     dstYincrement;   /**< The address increment of the destination afte
 421:Generated_Source\PSoC6\pdl\drivers\peripheral\dma/cy_dma.h ****     uint32_t                    yCount;          /**< The number of X-loops in the Y-loop. Valid ra
 422:Generated_Source\PSoC6\pdl\drivers\peripheral\dma/cy_dma.h ****     cy_stc_dma_descriptor_t *   nextDescriptor;  /**< The next descriptor to chain after completion
 423:Generated_Source\PSoC6\pdl\drivers\peripheral\dma/cy_dma.h **** } cy_stc_dma_descriptor_config_t;
 424:Generated_Source\PSoC6\pdl\drivers\peripheral\dma/cy_dma.h **** 
 425:Generated_Source\PSoC6\pdl\drivers\peripheral\dma/cy_dma.h **** /** This structure holds the initialization values for the DMA channel */
 426:Generated_Source\PSoC6\pdl\drivers\peripheral\dma/cy_dma.h **** typedef struct
ARM GAS  C:\Users\enes_\AppData\Local\Temp\ccsXGQXN.s 			page 25


 427:Generated_Source\PSoC6\pdl\drivers\peripheral\dma/cy_dma.h **** {
 428:Generated_Source\PSoC6\pdl\drivers\peripheral\dma/cy_dma.h ****     cy_stc_dma_descriptor_t * descriptor;      /**< The DMA descriptor associated with the channel 
 429:Generated_Source\PSoC6\pdl\drivers\peripheral\dma/cy_dma.h ****     bool     preemptable;                      /**< Specifies whether the channel is preemptable by
 430:Generated_Source\PSoC6\pdl\drivers\peripheral\dma/cy_dma.h ****     uint32_t priority;                         /**< This parameter specifies the channel's priority
 431:Generated_Source\PSoC6\pdl\drivers\peripheral\dma/cy_dma.h ****     bool     enable;                           /**< This parameter specifies whether the channel is
 432:Generated_Source\PSoC6\pdl\drivers\peripheral\dma/cy_dma.h ****     bool     bufferable;                       /**< This parameter specifies whether a write transa
 433:Generated_Source\PSoC6\pdl\drivers\peripheral\dma/cy_dma.h ****                                                     without waiting for the destination to accept t
 434:Generated_Source\PSoC6\pdl\drivers\peripheral\dma/cy_dma.h **** } cy_stc_dma_channel_config_t;
 435:Generated_Source\PSoC6\pdl\drivers\peripheral\dma/cy_dma.h **** 
 436:Generated_Source\PSoC6\pdl\drivers\peripheral\dma/cy_dma.h **** 
 437:Generated_Source\PSoC6\pdl\drivers\peripheral\dma/cy_dma.h **** /** This structure holds the initialization values for the CRC feature, only for CPUSS_ver2 */
 438:Generated_Source\PSoC6\pdl\drivers\peripheral\dma/cy_dma.h **** typedef struct
 439:Generated_Source\PSoC6\pdl\drivers\peripheral\dma/cy_dma.h **** {
 440:Generated_Source\PSoC6\pdl\drivers\peripheral\dma/cy_dma.h ****     bool     dataReverse;     /**< Specifies the bit order in which a data byte is processed (rever
 441:Generated_Source\PSoC6\pdl\drivers\peripheral\dma/cy_dma.h ****                                * 'false': Most significant bit (bit 1) first.
 442:Generated_Source\PSoC6\pdl\drivers\peripheral\dma/cy_dma.h ****                                * 'true': Least significant bit (bit 0) first.
 443:Generated_Source\PSoC6\pdl\drivers\peripheral\dma/cy_dma.h ****                                */
 444:Generated_Source\PSoC6\pdl\drivers\peripheral\dma/cy_dma.h ****     uint32_t dataXor;         /**< Specifies a byte mask with which each data byte is XORed. The XO
 445:Generated_Source\PSoC6\pdl\drivers\peripheral\dma/cy_dma.h ****     bool     reminderReverse; /**< Specifies whether the remainder is bit reversed (reversal is per
 446:Generated_Source\PSoC6\pdl\drivers\peripheral\dma/cy_dma.h ****                                *   Note: this parameter doesn't affect the CRC value stored into th
 447:Generated_Source\PSoC6\pdl\drivers\peripheral\dma/cy_dma.h ****                                *   The reversed value remains in the CRC_REM_RESULT register.
 448:Generated_Source\PSoC6\pdl\drivers\peripheral\dma/cy_dma.h ****                                */
 449:Generated_Source\PSoC6\pdl\drivers\peripheral\dma/cy_dma.h ****     uint32_t reminderXor;     /**< Specifies a mask with which the remainder is XORed. The XOR is p
 450:Generated_Source\PSoC6\pdl\drivers\peripheral\dma/cy_dma.h ****                                *   Note: this parameter doesn't affect the CRC value stored into th
 451:Generated_Source\PSoC6\pdl\drivers\peripheral\dma/cy_dma.h ****                                *   The XORed value remains in the CRC_REM_RESULT register.
 452:Generated_Source\PSoC6\pdl\drivers\peripheral\dma/cy_dma.h ****                                */
 453:Generated_Source\PSoC6\pdl\drivers\peripheral\dma/cy_dma.h ****     uint32_t polynomial;      /**< CRC polynomial. The polynomial is represented WITHOUT the high o
 454:Generated_Source\PSoC6\pdl\drivers\peripheral\dma/cy_dma.h ****                                * The polynomial should be aligned/shifted such that the more signif
 455:Generated_Source\PSoC6\pdl\drivers\peripheral\dma/cy_dma.h ****                                * and the less significant bits (bit 0 and up) contain padding '0's.
 456:Generated_Source\PSoC6\pdl\drivers\peripheral\dma/cy_dma.h ****                                * - CRC32: POLYNOMIAL is 0x04c11db7 (x^32 + x^26 + x^23 + x^22 + x^1
 457:Generated_Source\PSoC6\pdl\drivers\peripheral\dma/cy_dma.h ****                                * - CRC16: POLYNOMIAL is 0x80050000 (x^16 + x^15 + x^2 + 1, shifted 
 458:Generated_Source\PSoC6\pdl\drivers\peripheral\dma/cy_dma.h ****                                * - CRC16 CCITT: POLYNOMIAL is 0x10210000 (x^16 + x^12 + x^5 + 1, sh
 459:Generated_Source\PSoC6\pdl\drivers\peripheral\dma/cy_dma.h ****                                */
 460:Generated_Source\PSoC6\pdl\drivers\peripheral\dma/cy_dma.h ****     uint32_t lfsrInitVal;     /**< The initial value of the Linear Feedback Shift Register */
 461:Generated_Source\PSoC6\pdl\drivers\peripheral\dma/cy_dma.h **** } cy_stc_dma_crc_config_t;
 462:Generated_Source\PSoC6\pdl\drivers\peripheral\dma/cy_dma.h **** 
 463:Generated_Source\PSoC6\pdl\drivers\peripheral\dma/cy_dma.h **** /** \} group_dma_data_structures */
 464:Generated_Source\PSoC6\pdl\drivers\peripheral\dma/cy_dma.h **** 
 465:Generated_Source\PSoC6\pdl\drivers\peripheral\dma/cy_dma.h **** 
 466:Generated_Source\PSoC6\pdl\drivers\peripheral\dma/cy_dma.h **** /**
 467:Generated_Source\PSoC6\pdl\drivers\peripheral\dma/cy_dma.h **** * \addtogroup group_dma_functions
 468:Generated_Source\PSoC6\pdl\drivers\peripheral\dma/cy_dma.h **** * \{
 469:Generated_Source\PSoC6\pdl\drivers\peripheral\dma/cy_dma.h **** */
 470:Generated_Source\PSoC6\pdl\drivers\peripheral\dma/cy_dma.h **** 
 471:Generated_Source\PSoC6\pdl\drivers\peripheral\dma/cy_dma.h **** 
 472:Generated_Source\PSoC6\pdl\drivers\peripheral\dma/cy_dma.h **** /**
 473:Generated_Source\PSoC6\pdl\drivers\peripheral\dma/cy_dma.h **** * \addtogroup group_dma_block_functions
 474:Generated_Source\PSoC6\pdl\drivers\peripheral\dma/cy_dma.h **** * \{
 475:Generated_Source\PSoC6\pdl\drivers\peripheral\dma/cy_dma.h **** */
 476:Generated_Source\PSoC6\pdl\drivers\peripheral\dma/cy_dma.h **** 
 477:Generated_Source\PSoC6\pdl\drivers\peripheral\dma/cy_dma.h **** 
 478:Generated_Source\PSoC6\pdl\drivers\peripheral\dma/cy_dma.h **** __STATIC_INLINE void     Cy_DMA_Enable             (DW_Type * base);
 479:Generated_Source\PSoC6\pdl\drivers\peripheral\dma/cy_dma.h **** __STATIC_INLINE void     Cy_DMA_Disable            (DW_Type * base);
 480:Generated_Source\PSoC6\pdl\drivers\peripheral\dma/cy_dma.h **** __STATIC_INLINE uint32_t Cy_DMA_GetActiveChannel   (DW_Type const * base);
 481:Generated_Source\PSoC6\pdl\drivers\peripheral\dma/cy_dma.h **** __STATIC_INLINE void *   Cy_DMA_GetActiveSrcAddress(DW_Type * base);
 482:Generated_Source\PSoC6\pdl\drivers\peripheral\dma/cy_dma.h **** __STATIC_INLINE void *   Cy_DMA_GetActiveDstAddress(DW_Type * base);
 483:Generated_Source\PSoC6\pdl\drivers\peripheral\dma/cy_dma.h ****       cy_en_dma_status_t Cy_DMA_Crc_Init           (DW_Type * base, cy_stc_dma_crc_config_t const *
ARM GAS  C:\Users\enes_\AppData\Local\Temp\ccsXGQXN.s 			page 26


 484:Generated_Source\PSoC6\pdl\drivers\peripheral\dma/cy_dma.h **** 
 485:Generated_Source\PSoC6\pdl\drivers\peripheral\dma/cy_dma.h **** /** \} group_dma_block_functions */
 486:Generated_Source\PSoC6\pdl\drivers\peripheral\dma/cy_dma.h **** 
 487:Generated_Source\PSoC6\pdl\drivers\peripheral\dma/cy_dma.h **** 
 488:Generated_Source\PSoC6\pdl\drivers\peripheral\dma/cy_dma.h **** /**
 489:Generated_Source\PSoC6\pdl\drivers\peripheral\dma/cy_dma.h **** * \addtogroup group_dma_channel_functions
 490:Generated_Source\PSoC6\pdl\drivers\peripheral\dma/cy_dma.h **** * \{
 491:Generated_Source\PSoC6\pdl\drivers\peripheral\dma/cy_dma.h **** */
 492:Generated_Source\PSoC6\pdl\drivers\peripheral\dma/cy_dma.h ****       cy_en_dma_status_t Cy_DMA_Channel_Init                    (DW_Type       * base, uint32_t cha
 493:Generated_Source\PSoC6\pdl\drivers\peripheral\dma/cy_dma.h ****                 void     Cy_DMA_Channel_DeInit                  (DW_Type       * base, uint32_t cha
 494:Generated_Source\PSoC6\pdl\drivers\peripheral\dma/cy_dma.h **** __STATIC_INLINE void     Cy_DMA_Channel_SetDescriptor           (DW_Type       * base, uint32_t cha
 495:Generated_Source\PSoC6\pdl\drivers\peripheral\dma/cy_dma.h **** __STATIC_INLINE void     Cy_DMA_Channel_Enable                  (DW_Type       * base, uint32_t cha
 496:Generated_Source\PSoC6\pdl\drivers\peripheral\dma/cy_dma.h **** __STATIC_INLINE void     Cy_DMA_Channel_Disable                 (DW_Type       * base, uint32_t cha
 497:Generated_Source\PSoC6\pdl\drivers\peripheral\dma/cy_dma.h **** __STATIC_INLINE void     Cy_DMA_Channel_SetPriority             (DW_Type       * base, uint32_t cha
 498:Generated_Source\PSoC6\pdl\drivers\peripheral\dma/cy_dma.h **** __STATIC_INLINE uint32_t Cy_DMA_Channel_GetPriority             (DW_Type const * base, uint32_t cha
 499:Generated_Source\PSoC6\pdl\drivers\peripheral\dma/cy_dma.h **** __STATIC_INLINE
 500:Generated_Source\PSoC6\pdl\drivers\peripheral\dma/cy_dma.h ****   cy_en_dma_intr_cause_t Cy_DMA_Channel_GetStatus               (DW_Type const * base, uint32_t cha
 501:Generated_Source\PSoC6\pdl\drivers\peripheral\dma/cy_dma.h **** __STATIC_INLINE
 502:Generated_Source\PSoC6\pdl\drivers\peripheral\dma/cy_dma.h **** cy_stc_dma_descriptor_t * Cy_DMA_Channel_GetCurrentDescriptor   (DW_Type const * base, uint32_t cha
 503:Generated_Source\PSoC6\pdl\drivers\peripheral\dma/cy_dma.h **** 
 504:Generated_Source\PSoC6\pdl\drivers\peripheral\dma/cy_dma.h **** __STATIC_INLINE uint32_t Cy_DMA_Channel_GetInterruptStatus      (DW_Type const * base, uint32_t cha
 505:Generated_Source\PSoC6\pdl\drivers\peripheral\dma/cy_dma.h **** __STATIC_INLINE void     Cy_DMA_Channel_ClearInterrupt          (DW_Type       * base, uint32_t cha
 506:Generated_Source\PSoC6\pdl\drivers\peripheral\dma/cy_dma.h **** __STATIC_INLINE void     Cy_DMA_Channel_SetInterrupt            (DW_Type       * base, uint32_t cha
 507:Generated_Source\PSoC6\pdl\drivers\peripheral\dma/cy_dma.h **** __STATIC_INLINE uint32_t Cy_DMA_Channel_GetInterruptMask        (DW_Type const * base, uint32_t cha
 508:Generated_Source\PSoC6\pdl\drivers\peripheral\dma/cy_dma.h **** __STATIC_INLINE void     Cy_DMA_Channel_SetInterruptMask        (DW_Type       * base, uint32_t cha
 509:Generated_Source\PSoC6\pdl\drivers\peripheral\dma/cy_dma.h **** __STATIC_INLINE uint32_t Cy_DMA_Channel_GetInterruptStatusMasked(DW_Type const * base, uint32_t cha
 510:Generated_Source\PSoC6\pdl\drivers\peripheral\dma/cy_dma.h **** 
 511:Generated_Source\PSoC6\pdl\drivers\peripheral\dma/cy_dma.h **** /** \} group_dma_channel_functions */
 512:Generated_Source\PSoC6\pdl\drivers\peripheral\dma/cy_dma.h **** 
 513:Generated_Source\PSoC6\pdl\drivers\peripheral\dma/cy_dma.h **** 
 514:Generated_Source\PSoC6\pdl\drivers\peripheral\dma/cy_dma.h **** /**
 515:Generated_Source\PSoC6\pdl\drivers\peripheral\dma/cy_dma.h **** * \addtogroup group_dma_descriptor_functions
 516:Generated_Source\PSoC6\pdl\drivers\peripheral\dma/cy_dma.h **** * \{
 517:Generated_Source\PSoC6\pdl\drivers\peripheral\dma/cy_dma.h **** */
 518:Generated_Source\PSoC6\pdl\drivers\peripheral\dma/cy_dma.h **** 
 519:Generated_Source\PSoC6\pdl\drivers\peripheral\dma/cy_dma.h ****   cy_en_dma_status_t Cy_DMA_Descriptor_Init  (cy_stc_dma_descriptor_t * descriptor, cy_stc_dma_desc
 520:Generated_Source\PSoC6\pdl\drivers\peripheral\dma/cy_dma.h ****                 void Cy_DMA_Descriptor_DeInit(cy_stc_dma_descriptor_t * descriptor);
 521:Generated_Source\PSoC6\pdl\drivers\peripheral\dma/cy_dma.h ****                 
 522:Generated_Source\PSoC6\pdl\drivers\peripheral\dma/cy_dma.h ****                 void Cy_DMA_Descriptor_SetNextDescriptor   (cy_stc_dma_descriptor_t * descriptor, c
 523:Generated_Source\PSoC6\pdl\drivers\peripheral\dma/cy_dma.h ****                 void Cy_DMA_Descriptor_SetDescriptorType   (cy_stc_dma_descriptor_t * descriptor, c
 524:Generated_Source\PSoC6\pdl\drivers\peripheral\dma/cy_dma.h **** __STATIC_INLINE void Cy_DMA_Descriptor_SetSrcAddress       (cy_stc_dma_descriptor_t * descriptor, v
 525:Generated_Source\PSoC6\pdl\drivers\peripheral\dma/cy_dma.h **** __STATIC_INLINE void Cy_DMA_Descriptor_SetDstAddress       (cy_stc_dma_descriptor_t * descriptor, v
 526:Generated_Source\PSoC6\pdl\drivers\peripheral\dma/cy_dma.h **** __STATIC_INLINE void Cy_DMA_Descriptor_SetXloopDataCount   (cy_stc_dma_descriptor_t * descriptor, u
 527:Generated_Source\PSoC6\pdl\drivers\peripheral\dma/cy_dma.h **** __STATIC_INLINE void Cy_DMA_Descriptor_SetYloopDataCount   (cy_stc_dma_descriptor_t * descriptor, u
 528:Generated_Source\PSoC6\pdl\drivers\peripheral\dma/cy_dma.h **** __STATIC_INLINE void Cy_DMA_Descriptor_SetXloopSrcIncrement(cy_stc_dma_descriptor_t * descriptor, i
 529:Generated_Source\PSoC6\pdl\drivers\peripheral\dma/cy_dma.h **** __STATIC_INLINE void Cy_DMA_Descriptor_SetXloopDstIncrement(cy_stc_dma_descriptor_t * descriptor, i
 530:Generated_Source\PSoC6\pdl\drivers\peripheral\dma/cy_dma.h **** __STATIC_INLINE void Cy_DMA_Descriptor_SetYloopSrcIncrement(cy_stc_dma_descriptor_t * descriptor, i
 531:Generated_Source\PSoC6\pdl\drivers\peripheral\dma/cy_dma.h **** __STATIC_INLINE void Cy_DMA_Descriptor_SetYloopDstIncrement(cy_stc_dma_descriptor_t * descriptor, i
 532:Generated_Source\PSoC6\pdl\drivers\peripheral\dma/cy_dma.h **** __STATIC_INLINE void Cy_DMA_Descriptor_SetInterruptType    (cy_stc_dma_descriptor_t * descriptor, c
 533:Generated_Source\PSoC6\pdl\drivers\peripheral\dma/cy_dma.h **** __STATIC_INLINE void Cy_DMA_Descriptor_SetTriggerInType    (cy_stc_dma_descriptor_t * descriptor, c
 534:Generated_Source\PSoC6\pdl\drivers\peripheral\dma/cy_dma.h **** __STATIC_INLINE void Cy_DMA_Descriptor_SetTriggerOutType   (cy_stc_dma_descriptor_t * descriptor, c
 535:Generated_Source\PSoC6\pdl\drivers\peripheral\dma/cy_dma.h **** __STATIC_INLINE void Cy_DMA_Descriptor_SetDataSize         (cy_stc_dma_descriptor_t * descriptor, c
 536:Generated_Source\PSoC6\pdl\drivers\peripheral\dma/cy_dma.h **** __STATIC_INLINE void Cy_DMA_Descriptor_SetSrcTransferSize  (cy_stc_dma_descriptor_t * descriptor, c
 537:Generated_Source\PSoC6\pdl\drivers\peripheral\dma/cy_dma.h **** __STATIC_INLINE void Cy_DMA_Descriptor_SetDstTransferSize  (cy_stc_dma_descriptor_t * descriptor, c
 538:Generated_Source\PSoC6\pdl\drivers\peripheral\dma/cy_dma.h **** __STATIC_INLINE void Cy_DMA_Descriptor_SetRetrigger        (cy_stc_dma_descriptor_t * descriptor, c
 539:Generated_Source\PSoC6\pdl\drivers\peripheral\dma/cy_dma.h **** __STATIC_INLINE void Cy_DMA_Descriptor_SetChannelState     (cy_stc_dma_descriptor_t * descriptor, c
 540:Generated_Source\PSoC6\pdl\drivers\peripheral\dma/cy_dma.h **** 
ARM GAS  C:\Users\enes_\AppData\Local\Temp\ccsXGQXN.s 			page 27


 541:Generated_Source\PSoC6\pdl\drivers\peripheral\dma/cy_dma.h ****                 cy_stc_dma_descriptor_t *   Cy_DMA_Descriptor_GetNextDescriptor   (cy_stc_dma_descr
 542:Generated_Source\PSoC6\pdl\drivers\peripheral\dma/cy_dma.h **** __STATIC_INLINE cy_en_dma_descriptor_type_t Cy_DMA_Descriptor_GetDescriptorType   (cy_stc_dma_descr
 543:Generated_Source\PSoC6\pdl\drivers\peripheral\dma/cy_dma.h **** __STATIC_INLINE void *                      Cy_DMA_Descriptor_GetSrcAddress       (cy_stc_dma_descr
 544:Generated_Source\PSoC6\pdl\drivers\peripheral\dma/cy_dma.h **** __STATIC_INLINE void *                      Cy_DMA_Descriptor_GetDstAddress       (cy_stc_dma_descr
 545:Generated_Source\PSoC6\pdl\drivers\peripheral\dma/cy_dma.h **** __STATIC_INLINE uint32_t                    Cy_DMA_Descriptor_GetXloopDataCount   (cy_stc_dma_descr
 546:Generated_Source\PSoC6\pdl\drivers\peripheral\dma/cy_dma.h **** __STATIC_INLINE uint32_t                    Cy_DMA_Descriptor_GetYloopDataCount   (cy_stc_dma_descr
 547:Generated_Source\PSoC6\pdl\drivers\peripheral\dma/cy_dma.h **** __STATIC_INLINE int32_t                     Cy_DMA_Descriptor_GetXloopSrcIncrement(cy_stc_dma_descr
 548:Generated_Source\PSoC6\pdl\drivers\peripheral\dma/cy_dma.h **** __STATIC_INLINE int32_t                     Cy_DMA_Descriptor_GetXloopDstIncrement(cy_stc_dma_descr
 549:Generated_Source\PSoC6\pdl\drivers\peripheral\dma/cy_dma.h **** __STATIC_INLINE int32_t                     Cy_DMA_Descriptor_GetYloopSrcIncrement(cy_stc_dma_descr
 550:Generated_Source\PSoC6\pdl\drivers\peripheral\dma/cy_dma.h **** __STATIC_INLINE int32_t                     Cy_DMA_Descriptor_GetYloopDstIncrement(cy_stc_dma_descr
 551:Generated_Source\PSoC6\pdl\drivers\peripheral\dma/cy_dma.h **** __STATIC_INLINE cy_en_dma_trigger_type_t    Cy_DMA_Descriptor_GetInterruptType    (cy_stc_dma_descr
 552:Generated_Source\PSoC6\pdl\drivers\peripheral\dma/cy_dma.h **** __STATIC_INLINE cy_en_dma_trigger_type_t    Cy_DMA_Descriptor_GetTriggerInType    (cy_stc_dma_descr
 553:Generated_Source\PSoC6\pdl\drivers\peripheral\dma/cy_dma.h **** __STATIC_INLINE cy_en_dma_trigger_type_t    Cy_DMA_Descriptor_GetTriggerOutType   (cy_stc_dma_descr
 554:Generated_Source\PSoC6\pdl\drivers\peripheral\dma/cy_dma.h **** __STATIC_INLINE cy_en_dma_data_size_t       Cy_DMA_Descriptor_GetDataSize         (cy_stc_dma_descr
 555:Generated_Source\PSoC6\pdl\drivers\peripheral\dma/cy_dma.h **** __STATIC_INLINE cy_en_dma_transfer_size_t   Cy_DMA_Descriptor_GetSrcTransferSize  (cy_stc_dma_descr
 556:Generated_Source\PSoC6\pdl\drivers\peripheral\dma/cy_dma.h **** __STATIC_INLINE cy_en_dma_transfer_size_t   Cy_DMA_Descriptor_GetDstTransferSize  (cy_stc_dma_descr
 557:Generated_Source\PSoC6\pdl\drivers\peripheral\dma/cy_dma.h **** __STATIC_INLINE cy_en_dma_retrigger_t       Cy_DMA_Descriptor_GetRetrigger        (cy_stc_dma_descr
 558:Generated_Source\PSoC6\pdl\drivers\peripheral\dma/cy_dma.h **** __STATIC_INLINE cy_en_dma_channel_state_t   Cy_DMA_Descriptor_GetChannelState     (cy_stc_dma_descr
 559:Generated_Source\PSoC6\pdl\drivers\peripheral\dma/cy_dma.h **** 
 560:Generated_Source\PSoC6\pdl\drivers\peripheral\dma/cy_dma.h **** /** \} group_dma_descriptor_functions */
 561:Generated_Source\PSoC6\pdl\drivers\peripheral\dma/cy_dma.h **** 
 562:Generated_Source\PSoC6\pdl\drivers\peripheral\dma/cy_dma.h **** 
 563:Generated_Source\PSoC6\pdl\drivers\peripheral\dma/cy_dma.h **** 
 564:Generated_Source\PSoC6\pdl\drivers\peripheral\dma/cy_dma.h **** /***************************************
 565:Generated_Source\PSoC6\pdl\drivers\peripheral\dma/cy_dma.h **** *    In-line Function Implementation
 566:Generated_Source\PSoC6\pdl\drivers\peripheral\dma/cy_dma.h **** ***************************************/
 567:Generated_Source\PSoC6\pdl\drivers\peripheral\dma/cy_dma.h **** 
 568:Generated_Source\PSoC6\pdl\drivers\peripheral\dma/cy_dma.h **** 
 569:Generated_Source\PSoC6\pdl\drivers\peripheral\dma/cy_dma.h **** /**
 570:Generated_Source\PSoC6\pdl\drivers\peripheral\dma/cy_dma.h **** * \addtogroup group_dma_block_functions
 571:Generated_Source\PSoC6\pdl\drivers\peripheral\dma/cy_dma.h **** * \{
 572:Generated_Source\PSoC6\pdl\drivers\peripheral\dma/cy_dma.h **** */
 573:Generated_Source\PSoC6\pdl\drivers\peripheral\dma/cy_dma.h **** 
 574:Generated_Source\PSoC6\pdl\drivers\peripheral\dma/cy_dma.h **** 
 575:Generated_Source\PSoC6\pdl\drivers\peripheral\dma/cy_dma.h **** /*******************************************************************************
 576:Generated_Source\PSoC6\pdl\drivers\peripheral\dma/cy_dma.h **** * Function Name: Cy_DMA_Enable
 577:Generated_Source\PSoC6\pdl\drivers\peripheral\dma/cy_dma.h **** ****************************************************************************//**
 578:Generated_Source\PSoC6\pdl\drivers\peripheral\dma/cy_dma.h **** *
 579:Generated_Source\PSoC6\pdl\drivers\peripheral\dma/cy_dma.h **** * Enables the DMA block.
 580:Generated_Source\PSoC6\pdl\drivers\peripheral\dma/cy_dma.h **** *
 581:Generated_Source\PSoC6\pdl\drivers\peripheral\dma/cy_dma.h **** * \param base
 582:Generated_Source\PSoC6\pdl\drivers\peripheral\dma/cy_dma.h **** * The pointer to the hardware DMA block.
 583:Generated_Source\PSoC6\pdl\drivers\peripheral\dma/cy_dma.h **** *
 584:Generated_Source\PSoC6\pdl\drivers\peripheral\dma/cy_dma.h **** * \funcusage 
 585:Generated_Source\PSoC6\pdl\drivers\peripheral\dma/cy_dma.h **** * \snippet dma\2.10\snippet\main.c snippet_Cy_DMA_Enable
 586:Generated_Source\PSoC6\pdl\drivers\peripheral\dma/cy_dma.h **** *
 587:Generated_Source\PSoC6\pdl\drivers\peripheral\dma/cy_dma.h **** *******************************************************************************/
 588:Generated_Source\PSoC6\pdl\drivers\peripheral\dma/cy_dma.h **** __STATIC_INLINE void Cy_DMA_Enable(DW_Type * base)
 589:Generated_Source\PSoC6\pdl\drivers\peripheral\dma/cy_dma.h **** {
 590:Generated_Source\PSoC6\pdl\drivers\peripheral\dma/cy_dma.h ****     DW_CTL(base) |= DW_CTL_ENABLED_Msk;
 591:Generated_Source\PSoC6\pdl\drivers\peripheral\dma/cy_dma.h **** }
 592:Generated_Source\PSoC6\pdl\drivers\peripheral\dma/cy_dma.h **** 
 593:Generated_Source\PSoC6\pdl\drivers\peripheral\dma/cy_dma.h **** 
 594:Generated_Source\PSoC6\pdl\drivers\peripheral\dma/cy_dma.h **** /*******************************************************************************
 595:Generated_Source\PSoC6\pdl\drivers\peripheral\dma/cy_dma.h **** * Function Name: Cy_DMA_Disable
 596:Generated_Source\PSoC6\pdl\drivers\peripheral\dma/cy_dma.h **** ****************************************************************************//**
 597:Generated_Source\PSoC6\pdl\drivers\peripheral\dma/cy_dma.h **** *
ARM GAS  C:\Users\enes_\AppData\Local\Temp\ccsXGQXN.s 			page 28


 598:Generated_Source\PSoC6\pdl\drivers\peripheral\dma/cy_dma.h **** * Disables the DMA block.
 599:Generated_Source\PSoC6\pdl\drivers\peripheral\dma/cy_dma.h **** *
 600:Generated_Source\PSoC6\pdl\drivers\peripheral\dma/cy_dma.h **** * \param base
 601:Generated_Source\PSoC6\pdl\drivers\peripheral\dma/cy_dma.h **** * The pointer to the hardware DMA block.
 602:Generated_Source\PSoC6\pdl\drivers\peripheral\dma/cy_dma.h **** *
 603:Generated_Source\PSoC6\pdl\drivers\peripheral\dma/cy_dma.h **** * \funcusage 
 604:Generated_Source\PSoC6\pdl\drivers\peripheral\dma/cy_dma.h **** * \snippet dma\2.10\snippet\main.c snippet_Cy_DMA_Disable
 605:Generated_Source\PSoC6\pdl\drivers\peripheral\dma/cy_dma.h **** *
 606:Generated_Source\PSoC6\pdl\drivers\peripheral\dma/cy_dma.h **** *******************************************************************************/
 607:Generated_Source\PSoC6\pdl\drivers\peripheral\dma/cy_dma.h **** __STATIC_INLINE void Cy_DMA_Disable(DW_Type * base)
 608:Generated_Source\PSoC6\pdl\drivers\peripheral\dma/cy_dma.h **** {
 609:Generated_Source\PSoC6\pdl\drivers\peripheral\dma/cy_dma.h ****     DW_CTL(base) &= (uint32_t) ~DW_CTL_ENABLED_Msk;
 610:Generated_Source\PSoC6\pdl\drivers\peripheral\dma/cy_dma.h **** }
 611:Generated_Source\PSoC6\pdl\drivers\peripheral\dma/cy_dma.h **** 
 612:Generated_Source\PSoC6\pdl\drivers\peripheral\dma/cy_dma.h **** 
 613:Generated_Source\PSoC6\pdl\drivers\peripheral\dma/cy_dma.h **** /*******************************************************************************
 614:Generated_Source\PSoC6\pdl\drivers\peripheral\dma/cy_dma.h **** * Function Name: Cy_DMA_GetActiveChannel
 615:Generated_Source\PSoC6\pdl\drivers\peripheral\dma/cy_dma.h **** ****************************************************************************//**
 616:Generated_Source\PSoC6\pdl\drivers\peripheral\dma/cy_dma.h **** *
 617:Generated_Source\PSoC6\pdl\drivers\peripheral\dma/cy_dma.h **** * Returns the status of the active/pending channels.
 618:Generated_Source\PSoC6\pdl\drivers\peripheral\dma/cy_dma.h **** * the DMA block.
 619:Generated_Source\PSoC6\pdl\drivers\peripheral\dma/cy_dma.h **** *
 620:Generated_Source\PSoC6\pdl\drivers\peripheral\dma/cy_dma.h **** * \param base
 621:Generated_Source\PSoC6\pdl\drivers\peripheral\dma/cy_dma.h **** * The pointer to the hardware DMA block.
 622:Generated_Source\PSoC6\pdl\drivers\peripheral\dma/cy_dma.h **** *
 623:Generated_Source\PSoC6\pdl\drivers\peripheral\dma/cy_dma.h **** * \return
 624:Generated_Source\PSoC6\pdl\drivers\peripheral\dma/cy_dma.h **** * Returns a bit-field with all of the currently active/pending channels in the
 625:Generated_Source\PSoC6\pdl\drivers\peripheral\dma/cy_dma.h **** * DMA block.
 626:Generated_Source\PSoC6\pdl\drivers\peripheral\dma/cy_dma.h **** *
 627:Generated_Source\PSoC6\pdl\drivers\peripheral\dma/cy_dma.h **** * \funcusage 
 628:Generated_Source\PSoC6\pdl\drivers\peripheral\dma/cy_dma.h **** * \snippet dma\2.10\snippet\main.c snippet_Cy_DMA_Disable
 629:Generated_Source\PSoC6\pdl\drivers\peripheral\dma/cy_dma.h **** *
 630:Generated_Source\PSoC6\pdl\drivers\peripheral\dma/cy_dma.h **** *******************************************************************************/
 631:Generated_Source\PSoC6\pdl\drivers\peripheral\dma/cy_dma.h **** __STATIC_INLINE uint32_t Cy_DMA_GetActiveChannel(DW_Type const * base)
 632:Generated_Source\PSoC6\pdl\drivers\peripheral\dma/cy_dma.h **** {
 633:Generated_Source\PSoC6\pdl\drivers\peripheral\dma/cy_dma.h ****     return(_FLD2VAL(CY_DW_STATUS_CH_IDX, DW_STATUS(base)));
 634:Generated_Source\PSoC6\pdl\drivers\peripheral\dma/cy_dma.h **** }
 635:Generated_Source\PSoC6\pdl\drivers\peripheral\dma/cy_dma.h **** 
 636:Generated_Source\PSoC6\pdl\drivers\peripheral\dma/cy_dma.h **** 
 637:Generated_Source\PSoC6\pdl\drivers\peripheral\dma/cy_dma.h **** /*******************************************************************************
 638:Generated_Source\PSoC6\pdl\drivers\peripheral\dma/cy_dma.h **** * Function Name: Cy_DMA_GetActiveSrcAddress
 639:Generated_Source\PSoC6\pdl\drivers\peripheral\dma/cy_dma.h **** ****************************************************************************//**
 640:Generated_Source\PSoC6\pdl\drivers\peripheral\dma/cy_dma.h **** *
 641:Generated_Source\PSoC6\pdl\drivers\peripheral\dma/cy_dma.h **** * Returns the source address being used for the current transfer.
 642:Generated_Source\PSoC6\pdl\drivers\peripheral\dma/cy_dma.h **** *
 643:Generated_Source\PSoC6\pdl\drivers\peripheral\dma/cy_dma.h **** * \param base
 644:Generated_Source\PSoC6\pdl\drivers\peripheral\dma/cy_dma.h **** * The pointer to the hardware DMA block.
 645:Generated_Source\PSoC6\pdl\drivers\peripheral\dma/cy_dma.h **** *
 646:Generated_Source\PSoC6\pdl\drivers\peripheral\dma/cy_dma.h **** * \return
 647:Generated_Source\PSoC6\pdl\drivers\peripheral\dma/cy_dma.h **** * Returns the pointer to the source of transfer.
 648:Generated_Source\PSoC6\pdl\drivers\peripheral\dma/cy_dma.h **** *
 649:Generated_Source\PSoC6\pdl\drivers\peripheral\dma/cy_dma.h **** * \funcusage 
 650:Generated_Source\PSoC6\pdl\drivers\peripheral\dma/cy_dma.h **** * \snippet dma\2.10\snippet\main.c snippet_Cy_DMA_GetActiveSrcAddress
 651:Generated_Source\PSoC6\pdl\drivers\peripheral\dma/cy_dma.h **** *
 652:Generated_Source\PSoC6\pdl\drivers\peripheral\dma/cy_dma.h **** *******************************************************************************/
 653:Generated_Source\PSoC6\pdl\drivers\peripheral\dma/cy_dma.h **** __STATIC_INLINE void * Cy_DMA_GetActiveSrcAddress(DW_Type * base)
 654:Generated_Source\PSoC6\pdl\drivers\peripheral\dma/cy_dma.h **** {
ARM GAS  C:\Users\enes_\AppData\Local\Temp\ccsXGQXN.s 			page 29


 655:Generated_Source\PSoC6\pdl\drivers\peripheral\dma/cy_dma.h ****     return ((void *) DW_DESCR_SRC(base));
 656:Generated_Source\PSoC6\pdl\drivers\peripheral\dma/cy_dma.h **** }
 657:Generated_Source\PSoC6\pdl\drivers\peripheral\dma/cy_dma.h **** 
 658:Generated_Source\PSoC6\pdl\drivers\peripheral\dma/cy_dma.h **** 
 659:Generated_Source\PSoC6\pdl\drivers\peripheral\dma/cy_dma.h **** /*******************************************************************************
 660:Generated_Source\PSoC6\pdl\drivers\peripheral\dma/cy_dma.h **** * Function Name: Cy_DMA_GetActiveDstAddress
 661:Generated_Source\PSoC6\pdl\drivers\peripheral\dma/cy_dma.h **** ****************************************************************************//**
 662:Generated_Source\PSoC6\pdl\drivers\peripheral\dma/cy_dma.h **** *
 663:Generated_Source\PSoC6\pdl\drivers\peripheral\dma/cy_dma.h **** * Returns the destination address being used for the current transfer.
 664:Generated_Source\PSoC6\pdl\drivers\peripheral\dma/cy_dma.h **** *
 665:Generated_Source\PSoC6\pdl\drivers\peripheral\dma/cy_dma.h **** * \param base
 666:Generated_Source\PSoC6\pdl\drivers\peripheral\dma/cy_dma.h **** * The pointer to the hardware DMA block.
 667:Generated_Source\PSoC6\pdl\drivers\peripheral\dma/cy_dma.h **** *
 668:Generated_Source\PSoC6\pdl\drivers\peripheral\dma/cy_dma.h **** * \return
 669:Generated_Source\PSoC6\pdl\drivers\peripheral\dma/cy_dma.h **** * Returns the pointer to the destination of transfer.
 670:Generated_Source\PSoC6\pdl\drivers\peripheral\dma/cy_dma.h **** *
 671:Generated_Source\PSoC6\pdl\drivers\peripheral\dma/cy_dma.h **** * \funcusage 
 672:Generated_Source\PSoC6\pdl\drivers\peripheral\dma/cy_dma.h **** * \snippet dma\2.10\snippet\main.c snippet_Cy_DMA_GetActiveSrcAddress
 673:Generated_Source\PSoC6\pdl\drivers\peripheral\dma/cy_dma.h **** *
 674:Generated_Source\PSoC6\pdl\drivers\peripheral\dma/cy_dma.h **** *******************************************************************************/
 675:Generated_Source\PSoC6\pdl\drivers\peripheral\dma/cy_dma.h **** __STATIC_INLINE void * Cy_DMA_GetActiveDstAddress(DW_Type * base)
 676:Generated_Source\PSoC6\pdl\drivers\peripheral\dma/cy_dma.h **** {
 677:Generated_Source\PSoC6\pdl\drivers\peripheral\dma/cy_dma.h ****     return ((void *) DW_DESCR_DST(base));
 678:Generated_Source\PSoC6\pdl\drivers\peripheral\dma/cy_dma.h **** }
 679:Generated_Source\PSoC6\pdl\drivers\peripheral\dma/cy_dma.h **** 
 680:Generated_Source\PSoC6\pdl\drivers\peripheral\dma/cy_dma.h **** /** \} group_dma_block_functions */
 681:Generated_Source\PSoC6\pdl\drivers\peripheral\dma/cy_dma.h **** 
 682:Generated_Source\PSoC6\pdl\drivers\peripheral\dma/cy_dma.h **** /**
 683:Generated_Source\PSoC6\pdl\drivers\peripheral\dma/cy_dma.h **** * \addtogroup group_dma_descriptor_functions
 684:Generated_Source\PSoC6\pdl\drivers\peripheral\dma/cy_dma.h **** * \{
 685:Generated_Source\PSoC6\pdl\drivers\peripheral\dma/cy_dma.h **** */
 686:Generated_Source\PSoC6\pdl\drivers\peripheral\dma/cy_dma.h **** 
 687:Generated_Source\PSoC6\pdl\drivers\peripheral\dma/cy_dma.h **** 
 688:Generated_Source\PSoC6\pdl\drivers\peripheral\dma/cy_dma.h **** /*******************************************************************************
 689:Generated_Source\PSoC6\pdl\drivers\peripheral\dma/cy_dma.h **** * Function Name: Cy_DMA_Descriptor_SetSrcAddress
 690:Generated_Source\PSoC6\pdl\drivers\peripheral\dma/cy_dma.h **** ****************************************************************************//**
 691:Generated_Source\PSoC6\pdl\drivers\peripheral\dma/cy_dma.h **** *
 692:Generated_Source\PSoC6\pdl\drivers\peripheral\dma/cy_dma.h **** * Sets the source address for the specified descriptor.
 693:Generated_Source\PSoC6\pdl\drivers\peripheral\dma/cy_dma.h **** *
 694:Generated_Source\PSoC6\pdl\drivers\peripheral\dma/cy_dma.h **** * \param descriptor
 695:Generated_Source\PSoC6\pdl\drivers\peripheral\dma/cy_dma.h **** * The descriptor structure instance declared by the user/component.
 696:Generated_Source\PSoC6\pdl\drivers\peripheral\dma/cy_dma.h **** *
 697:Generated_Source\PSoC6\pdl\drivers\peripheral\dma/cy_dma.h **** * \param srcAddress
 698:Generated_Source\PSoC6\pdl\drivers\peripheral\dma/cy_dma.h **** * The source address value for the descriptor.
 699:Generated_Source\PSoC6\pdl\drivers\peripheral\dma/cy_dma.h **** *
 700:Generated_Source\PSoC6\pdl\drivers\peripheral\dma/cy_dma.h **** * \funcusage 
 701:Generated_Source\PSoC6\pdl\drivers\peripheral\dma/cy_dma.h **** * \snippet dma\2.10\snippet\main.c snippet_Cy_DMA_Descriptor_SetterFunctions
 702:Generated_Source\PSoC6\pdl\drivers\peripheral\dma/cy_dma.h **** *
 703:Generated_Source\PSoC6\pdl\drivers\peripheral\dma/cy_dma.h **** *******************************************************************************/
 704:Generated_Source\PSoC6\pdl\drivers\peripheral\dma/cy_dma.h **** __STATIC_INLINE void Cy_DMA_Descriptor_SetSrcAddress(cy_stc_dma_descriptor_t * descriptor, void con
 705:Generated_Source\PSoC6\pdl\drivers\peripheral\dma/cy_dma.h **** {
 706:Generated_Source\PSoC6\pdl\drivers\peripheral\dma/cy_dma.h ****     descriptor->src = (uint32_t) srcAddress;
 707:Generated_Source\PSoC6\pdl\drivers\peripheral\dma/cy_dma.h **** }
 708:Generated_Source\PSoC6\pdl\drivers\peripheral\dma/cy_dma.h **** 
 709:Generated_Source\PSoC6\pdl\drivers\peripheral\dma/cy_dma.h **** 
 710:Generated_Source\PSoC6\pdl\drivers\peripheral\dma/cy_dma.h **** /*******************************************************************************
 711:Generated_Source\PSoC6\pdl\drivers\peripheral\dma/cy_dma.h **** * Function Name: Cy_DMA_Descriptor_GetSrcAddress
ARM GAS  C:\Users\enes_\AppData\Local\Temp\ccsXGQXN.s 			page 30


 712:Generated_Source\PSoC6\pdl\drivers\peripheral\dma/cy_dma.h **** ****************************************************************************//**
 713:Generated_Source\PSoC6\pdl\drivers\peripheral\dma/cy_dma.h **** *
 714:Generated_Source\PSoC6\pdl\drivers\peripheral\dma/cy_dma.h **** * Returns the source address parameter of the specified descriptor.
 715:Generated_Source\PSoC6\pdl\drivers\peripheral\dma/cy_dma.h **** * 
 716:Generated_Source\PSoC6\pdl\drivers\peripheral\dma/cy_dma.h **** * \param descriptor
 717:Generated_Source\PSoC6\pdl\drivers\peripheral\dma/cy_dma.h **** * The descriptor structure instance declared by the user/component.
 718:Generated_Source\PSoC6\pdl\drivers\peripheral\dma/cy_dma.h **** *
 719:Generated_Source\PSoC6\pdl\drivers\peripheral\dma/cy_dma.h **** * \return
 720:Generated_Source\PSoC6\pdl\drivers\peripheral\dma/cy_dma.h **** * The source address value of the descriptor.
 721:Generated_Source\PSoC6\pdl\drivers\peripheral\dma/cy_dma.h **** *
 722:Generated_Source\PSoC6\pdl\drivers\peripheral\dma/cy_dma.h **** * \funcusage 
 723:Generated_Source\PSoC6\pdl\drivers\peripheral\dma/cy_dma.h **** * \snippet dma\2.10\snippet\main.c snippet_Cy_DMA_Descriptor_GetterFunctions
 724:Generated_Source\PSoC6\pdl\drivers\peripheral\dma/cy_dma.h **** *
 725:Generated_Source\PSoC6\pdl\drivers\peripheral\dma/cy_dma.h **** *******************************************************************************/
 726:Generated_Source\PSoC6\pdl\drivers\peripheral\dma/cy_dma.h **** __STATIC_INLINE void * Cy_DMA_Descriptor_GetSrcAddress(cy_stc_dma_descriptor_t const * descriptor)
 727:Generated_Source\PSoC6\pdl\drivers\peripheral\dma/cy_dma.h **** {
 728:Generated_Source\PSoC6\pdl\drivers\peripheral\dma/cy_dma.h ****     return ((void *) descriptor->src);
 729:Generated_Source\PSoC6\pdl\drivers\peripheral\dma/cy_dma.h **** }
 730:Generated_Source\PSoC6\pdl\drivers\peripheral\dma/cy_dma.h **** 
 731:Generated_Source\PSoC6\pdl\drivers\peripheral\dma/cy_dma.h **** 
 732:Generated_Source\PSoC6\pdl\drivers\peripheral\dma/cy_dma.h **** /*******************************************************************************
 733:Generated_Source\PSoC6\pdl\drivers\peripheral\dma/cy_dma.h **** * Function Name: Cy_DMA_Descriptor_SetDstAddress
 734:Generated_Source\PSoC6\pdl\drivers\peripheral\dma/cy_dma.h **** ****************************************************************************//**
 735:Generated_Source\PSoC6\pdl\drivers\peripheral\dma/cy_dma.h **** *
 736:Generated_Source\PSoC6\pdl\drivers\peripheral\dma/cy_dma.h **** * Sets the destination address for the specified descriptor.
 737:Generated_Source\PSoC6\pdl\drivers\peripheral\dma/cy_dma.h **** *
 738:Generated_Source\PSoC6\pdl\drivers\peripheral\dma/cy_dma.h **** * \param descriptor
 739:Generated_Source\PSoC6\pdl\drivers\peripheral\dma/cy_dma.h **** * The descriptor structure instance declared by the user/component.
 740:Generated_Source\PSoC6\pdl\drivers\peripheral\dma/cy_dma.h **** *
 741:Generated_Source\PSoC6\pdl\drivers\peripheral\dma/cy_dma.h **** * \param dstAddress
 742:Generated_Source\PSoC6\pdl\drivers\peripheral\dma/cy_dma.h **** * The destination address value for the descriptor.
 743:Generated_Source\PSoC6\pdl\drivers\peripheral\dma/cy_dma.h **** *
 744:Generated_Source\PSoC6\pdl\drivers\peripheral\dma/cy_dma.h **** * \funcusage 
 745:Generated_Source\PSoC6\pdl\drivers\peripheral\dma/cy_dma.h **** * \snippet dma\2.10\snippet\main.c snippet_Cy_DMA_Descriptor_SetterFunctions
 746:Generated_Source\PSoC6\pdl\drivers\peripheral\dma/cy_dma.h **** *
 747:Generated_Source\PSoC6\pdl\drivers\peripheral\dma/cy_dma.h **** *******************************************************************************/
 748:Generated_Source\PSoC6\pdl\drivers\peripheral\dma/cy_dma.h **** __STATIC_INLINE void Cy_DMA_Descriptor_SetDstAddress(cy_stc_dma_descriptor_t * descriptor, void con
 749:Generated_Source\PSoC6\pdl\drivers\peripheral\dma/cy_dma.h **** {
 750:Generated_Source\PSoC6\pdl\drivers\peripheral\dma/cy_dma.h ****     descriptor->dst = (uint32_t) dstAddress;
 751:Generated_Source\PSoC6\pdl\drivers\peripheral\dma/cy_dma.h **** }
 752:Generated_Source\PSoC6\pdl\drivers\peripheral\dma/cy_dma.h **** 
 753:Generated_Source\PSoC6\pdl\drivers\peripheral\dma/cy_dma.h **** 
 754:Generated_Source\PSoC6\pdl\drivers\peripheral\dma/cy_dma.h **** /*******************************************************************************
 755:Generated_Source\PSoC6\pdl\drivers\peripheral\dma/cy_dma.h **** * Function Name: Cy_DMA_Descriptor_GetDstAddress
 756:Generated_Source\PSoC6\pdl\drivers\peripheral\dma/cy_dma.h **** ****************************************************************************//**
 757:Generated_Source\PSoC6\pdl\drivers\peripheral\dma/cy_dma.h **** *
 758:Generated_Source\PSoC6\pdl\drivers\peripheral\dma/cy_dma.h **** * Returns the destination address parameter of the specified descriptor.
 759:Generated_Source\PSoC6\pdl\drivers\peripheral\dma/cy_dma.h **** * 
 760:Generated_Source\PSoC6\pdl\drivers\peripheral\dma/cy_dma.h **** * \param descriptor
 761:Generated_Source\PSoC6\pdl\drivers\peripheral\dma/cy_dma.h **** * The descriptor structure instance declared by the user/component.
 762:Generated_Source\PSoC6\pdl\drivers\peripheral\dma/cy_dma.h **** *
 763:Generated_Source\PSoC6\pdl\drivers\peripheral\dma/cy_dma.h **** * \return
 764:Generated_Source\PSoC6\pdl\drivers\peripheral\dma/cy_dma.h **** * The destination address value of the descriptor.
 765:Generated_Source\PSoC6\pdl\drivers\peripheral\dma/cy_dma.h **** *
 766:Generated_Source\PSoC6\pdl\drivers\peripheral\dma/cy_dma.h **** * \funcusage 
 767:Generated_Source\PSoC6\pdl\drivers\peripheral\dma/cy_dma.h **** * \snippet dma\2.10\snippet\main.c snippet_Cy_DMA_Descriptor_GetterFunctions
 768:Generated_Source\PSoC6\pdl\drivers\peripheral\dma/cy_dma.h **** *
ARM GAS  C:\Users\enes_\AppData\Local\Temp\ccsXGQXN.s 			page 31


 769:Generated_Source\PSoC6\pdl\drivers\peripheral\dma/cy_dma.h **** *******************************************************************************/
 770:Generated_Source\PSoC6\pdl\drivers\peripheral\dma/cy_dma.h **** __STATIC_INLINE void * Cy_DMA_Descriptor_GetDstAddress(cy_stc_dma_descriptor_t const * descriptor)
 771:Generated_Source\PSoC6\pdl\drivers\peripheral\dma/cy_dma.h **** {
 772:Generated_Source\PSoC6\pdl\drivers\peripheral\dma/cy_dma.h ****     return ((void *) descriptor->dst);
 773:Generated_Source\PSoC6\pdl\drivers\peripheral\dma/cy_dma.h **** }
 774:Generated_Source\PSoC6\pdl\drivers\peripheral\dma/cy_dma.h **** 
 775:Generated_Source\PSoC6\pdl\drivers\peripheral\dma/cy_dma.h **** 
 776:Generated_Source\PSoC6\pdl\drivers\peripheral\dma/cy_dma.h **** /*******************************************************************************
 777:Generated_Source\PSoC6\pdl\drivers\peripheral\dma/cy_dma.h **** * Function Name: Cy_DMA_Descriptor_SetInterruptType
 778:Generated_Source\PSoC6\pdl\drivers\peripheral\dma/cy_dma.h **** ****************************************************************************//**
 779:Generated_Source\PSoC6\pdl\drivers\peripheral\dma/cy_dma.h **** *
 780:Generated_Source\PSoC6\pdl\drivers\peripheral\dma/cy_dma.h **** * Sets the interrupt type for the specified descriptor.
 781:Generated_Source\PSoC6\pdl\drivers\peripheral\dma/cy_dma.h **** *
 782:Generated_Source\PSoC6\pdl\drivers\peripheral\dma/cy_dma.h **** * \param descriptor
 783:Generated_Source\PSoC6\pdl\drivers\peripheral\dma/cy_dma.h **** * The descriptor structure instance declared by the user/component.
 784:Generated_Source\PSoC6\pdl\drivers\peripheral\dma/cy_dma.h **** *
 785:Generated_Source\PSoC6\pdl\drivers\peripheral\dma/cy_dma.h **** * \param interruptType
 786:Generated_Source\PSoC6\pdl\drivers\peripheral\dma/cy_dma.h **** * The interrupt type set for the descriptor. \ref cy_en_dma_trigger_type_t
 787:Generated_Source\PSoC6\pdl\drivers\peripheral\dma/cy_dma.h **** *
 788:Generated_Source\PSoC6\pdl\drivers\peripheral\dma/cy_dma.h **** * \funcusage 
 789:Generated_Source\PSoC6\pdl\drivers\peripheral\dma/cy_dma.h **** * \snippet dma\2.10\snippet\main.c snippet_Cy_DMA_Descriptor_SetterFunctions
 790:Generated_Source\PSoC6\pdl\drivers\peripheral\dma/cy_dma.h **** *
 791:Generated_Source\PSoC6\pdl\drivers\peripheral\dma/cy_dma.h **** *******************************************************************************/
 792:Generated_Source\PSoC6\pdl\drivers\peripheral\dma/cy_dma.h **** __STATIC_INLINE void Cy_DMA_Descriptor_SetInterruptType(cy_stc_dma_descriptor_t * descriptor, cy_en
 793:Generated_Source\PSoC6\pdl\drivers\peripheral\dma/cy_dma.h **** {
 794:Generated_Source\PSoC6\pdl\drivers\peripheral\dma/cy_dma.h ****     CY_ASSERT_L3(CY_DMA_IS_TRIG_TYPE_VALID(interruptType));
 795:Generated_Source\PSoC6\pdl\drivers\peripheral\dma/cy_dma.h ****     
 796:Generated_Source\PSoC6\pdl\drivers\peripheral\dma/cy_dma.h ****     CY_REG32_CLR_SET(descriptor->ctl, CY_DMA_CTL_INTR_TYPE, interruptType);
 797:Generated_Source\PSoC6\pdl\drivers\peripheral\dma/cy_dma.h **** }
 798:Generated_Source\PSoC6\pdl\drivers\peripheral\dma/cy_dma.h **** 
 799:Generated_Source\PSoC6\pdl\drivers\peripheral\dma/cy_dma.h **** 
 800:Generated_Source\PSoC6\pdl\drivers\peripheral\dma/cy_dma.h **** /*******************************************************************************
 801:Generated_Source\PSoC6\pdl\drivers\peripheral\dma/cy_dma.h **** * Function Name: Cy_DMA_Descriptor_GetInterruptType
 802:Generated_Source\PSoC6\pdl\drivers\peripheral\dma/cy_dma.h **** ****************************************************************************//**
 803:Generated_Source\PSoC6\pdl\drivers\peripheral\dma/cy_dma.h **** *
 804:Generated_Source\PSoC6\pdl\drivers\peripheral\dma/cy_dma.h **** * Returns the Interrupt-Type of the specified descriptor.
 805:Generated_Source\PSoC6\pdl\drivers\peripheral\dma/cy_dma.h **** *
 806:Generated_Source\PSoC6\pdl\drivers\peripheral\dma/cy_dma.h **** * \param descriptor
 807:Generated_Source\PSoC6\pdl\drivers\peripheral\dma/cy_dma.h **** * The descriptor structure instance declared by the user/component.
 808:Generated_Source\PSoC6\pdl\drivers\peripheral\dma/cy_dma.h **** *
 809:Generated_Source\PSoC6\pdl\drivers\peripheral\dma/cy_dma.h **** * \return
 810:Generated_Source\PSoC6\pdl\drivers\peripheral\dma/cy_dma.h **** * The Interrupt-Type \ref cy_en_dma_trigger_type_t.
 811:Generated_Source\PSoC6\pdl\drivers\peripheral\dma/cy_dma.h **** *
 812:Generated_Source\PSoC6\pdl\drivers\peripheral\dma/cy_dma.h **** * \funcusage 
 813:Generated_Source\PSoC6\pdl\drivers\peripheral\dma/cy_dma.h **** * \snippet dma\2.10\snippet\main.c snippet_Cy_DMA_Descriptor_GetterFunctions
 814:Generated_Source\PSoC6\pdl\drivers\peripheral\dma/cy_dma.h **** *  
 815:Generated_Source\PSoC6\pdl\drivers\peripheral\dma/cy_dma.h **** *******************************************************************************/
 816:Generated_Source\PSoC6\pdl\drivers\peripheral\dma/cy_dma.h **** __STATIC_INLINE cy_en_dma_trigger_type_t Cy_DMA_Descriptor_GetInterruptType(cy_stc_dma_descriptor_t
 817:Generated_Source\PSoC6\pdl\drivers\peripheral\dma/cy_dma.h **** {
 818:Generated_Source\PSoC6\pdl\drivers\peripheral\dma/cy_dma.h ****     return((cy_en_dma_trigger_type_t) _FLD2VAL(CY_DMA_CTL_INTR_TYPE, descriptor->ctl));
 819:Generated_Source\PSoC6\pdl\drivers\peripheral\dma/cy_dma.h **** }
 820:Generated_Source\PSoC6\pdl\drivers\peripheral\dma/cy_dma.h **** 
 821:Generated_Source\PSoC6\pdl\drivers\peripheral\dma/cy_dma.h **** 
 822:Generated_Source\PSoC6\pdl\drivers\peripheral\dma/cy_dma.h **** /*******************************************************************************
 823:Generated_Source\PSoC6\pdl\drivers\peripheral\dma/cy_dma.h **** * Function Name: Cy_DMA_Descriptor_SetTriggerInType
 824:Generated_Source\PSoC6\pdl\drivers\peripheral\dma/cy_dma.h **** ****************************************************************************//**
 825:Generated_Source\PSoC6\pdl\drivers\peripheral\dma/cy_dma.h **** *
ARM GAS  C:\Users\enes_\AppData\Local\Temp\ccsXGQXN.s 			page 32


 826:Generated_Source\PSoC6\pdl\drivers\peripheral\dma/cy_dma.h **** * Sets the Trigger-In-Type for the specified descriptor.
 827:Generated_Source\PSoC6\pdl\drivers\peripheral\dma/cy_dma.h **** *
 828:Generated_Source\PSoC6\pdl\drivers\peripheral\dma/cy_dma.h **** * \param descriptor
 829:Generated_Source\PSoC6\pdl\drivers\peripheral\dma/cy_dma.h **** * The descriptor structure instance declared by the user/component.
 830:Generated_Source\PSoC6\pdl\drivers\peripheral\dma/cy_dma.h **** *
 831:Generated_Source\PSoC6\pdl\drivers\peripheral\dma/cy_dma.h **** * \param triggerInType
 832:Generated_Source\PSoC6\pdl\drivers\peripheral\dma/cy_dma.h **** * The Trigger In Type parameter \ref cy_en_dma_trigger_type_t
 833:Generated_Source\PSoC6\pdl\drivers\peripheral\dma/cy_dma.h **** *
 834:Generated_Source\PSoC6\pdl\drivers\peripheral\dma/cy_dma.h **** * \funcusage 
 835:Generated_Source\PSoC6\pdl\drivers\peripheral\dma/cy_dma.h **** * \snippet dma\2.10\snippet\main.c snippet_Cy_DMA_Descriptor_SetterFunctions
 836:Generated_Source\PSoC6\pdl\drivers\peripheral\dma/cy_dma.h **** *
 837:Generated_Source\PSoC6\pdl\drivers\peripheral\dma/cy_dma.h **** *******************************************************************************/
 838:Generated_Source\PSoC6\pdl\drivers\peripheral\dma/cy_dma.h **** __STATIC_INLINE void Cy_DMA_Descriptor_SetTriggerInType(cy_stc_dma_descriptor_t * descriptor, cy_en
 839:Generated_Source\PSoC6\pdl\drivers\peripheral\dma/cy_dma.h **** {
 840:Generated_Source\PSoC6\pdl\drivers\peripheral\dma/cy_dma.h ****     CY_ASSERT_L3(CY_DMA_IS_TRIG_TYPE_VALID(triggerInType));
 841:Generated_Source\PSoC6\pdl\drivers\peripheral\dma/cy_dma.h ****     
 842:Generated_Source\PSoC6\pdl\drivers\peripheral\dma/cy_dma.h ****     CY_REG32_CLR_SET(descriptor->ctl, CY_DMA_CTL_TR_IN_TYPE, triggerInType);
 843:Generated_Source\PSoC6\pdl\drivers\peripheral\dma/cy_dma.h **** }
 844:Generated_Source\PSoC6\pdl\drivers\peripheral\dma/cy_dma.h **** 
 845:Generated_Source\PSoC6\pdl\drivers\peripheral\dma/cy_dma.h **** 
 846:Generated_Source\PSoC6\pdl\drivers\peripheral\dma/cy_dma.h **** /*******************************************************************************
 847:Generated_Source\PSoC6\pdl\drivers\peripheral\dma/cy_dma.h **** * Function Name: Cy_DMA_Descriptor_GetTriggerInType
 848:Generated_Source\PSoC6\pdl\drivers\peripheral\dma/cy_dma.h **** ****************************************************************************//**
 849:Generated_Source\PSoC6\pdl\drivers\peripheral\dma/cy_dma.h **** *
 850:Generated_Source\PSoC6\pdl\drivers\peripheral\dma/cy_dma.h **** * Returns the Trigger-In-Type parameter of the specified descriptor.
 851:Generated_Source\PSoC6\pdl\drivers\peripheral\dma/cy_dma.h **** *
 852:Generated_Source\PSoC6\pdl\drivers\peripheral\dma/cy_dma.h **** * \param descriptor
 853:Generated_Source\PSoC6\pdl\drivers\peripheral\dma/cy_dma.h **** * The descriptor structure instance declared by the user/component.
 854:Generated_Source\PSoC6\pdl\drivers\peripheral\dma/cy_dma.h **** *
 855:Generated_Source\PSoC6\pdl\drivers\peripheral\dma/cy_dma.h **** * \return
 856:Generated_Source\PSoC6\pdl\drivers\peripheral\dma/cy_dma.h **** * The Trigger-In-Type \ref cy_en_dma_trigger_type_t
 857:Generated_Source\PSoC6\pdl\drivers\peripheral\dma/cy_dma.h **** *
 858:Generated_Source\PSoC6\pdl\drivers\peripheral\dma/cy_dma.h **** * \funcusage 
 859:Generated_Source\PSoC6\pdl\drivers\peripheral\dma/cy_dma.h **** * \snippet dma\2.10\snippet\main.c snippet_Cy_DMA_Descriptor_GetterFunctions
 860:Generated_Source\PSoC6\pdl\drivers\peripheral\dma/cy_dma.h **** *  
 861:Generated_Source\PSoC6\pdl\drivers\peripheral\dma/cy_dma.h **** *******************************************************************************/
 862:Generated_Source\PSoC6\pdl\drivers\peripheral\dma/cy_dma.h **** __STATIC_INLINE cy_en_dma_trigger_type_t Cy_DMA_Descriptor_GetTriggerInType(cy_stc_dma_descriptor_t
 863:Generated_Source\PSoC6\pdl\drivers\peripheral\dma/cy_dma.h **** {
 864:Generated_Source\PSoC6\pdl\drivers\peripheral\dma/cy_dma.h ****     return((cy_en_dma_trigger_type_t) _FLD2VAL(CY_DMA_CTL_TR_IN_TYPE, descriptor->ctl));
 865:Generated_Source\PSoC6\pdl\drivers\peripheral\dma/cy_dma.h **** }
 866:Generated_Source\PSoC6\pdl\drivers\peripheral\dma/cy_dma.h **** 
 867:Generated_Source\PSoC6\pdl\drivers\peripheral\dma/cy_dma.h **** 
 868:Generated_Source\PSoC6\pdl\drivers\peripheral\dma/cy_dma.h **** /*******************************************************************************
 869:Generated_Source\PSoC6\pdl\drivers\peripheral\dma/cy_dma.h **** * Function Name: Cy_DMA_Descriptor_SetTriggerOutType
 870:Generated_Source\PSoC6\pdl\drivers\peripheral\dma/cy_dma.h **** ****************************************************************************//**
 871:Generated_Source\PSoC6\pdl\drivers\peripheral\dma/cy_dma.h **** *
 872:Generated_Source\PSoC6\pdl\drivers\peripheral\dma/cy_dma.h **** * Sets the Trigger-Out-Type for the specified descriptor.
 873:Generated_Source\PSoC6\pdl\drivers\peripheral\dma/cy_dma.h **** *
 874:Generated_Source\PSoC6\pdl\drivers\peripheral\dma/cy_dma.h **** * \param descriptor
 875:Generated_Source\PSoC6\pdl\drivers\peripheral\dma/cy_dma.h **** * The descriptor structure instance declared by the user/component.
 876:Generated_Source\PSoC6\pdl\drivers\peripheral\dma/cy_dma.h **** *
 877:Generated_Source\PSoC6\pdl\drivers\peripheral\dma/cy_dma.h **** * \param triggerOutType
 878:Generated_Source\PSoC6\pdl\drivers\peripheral\dma/cy_dma.h **** * The Trigger-Out-Type set for the descriptor. \ref cy_en_dma_trigger_type_t
 879:Generated_Source\PSoC6\pdl\drivers\peripheral\dma/cy_dma.h **** *
 880:Generated_Source\PSoC6\pdl\drivers\peripheral\dma/cy_dma.h **** * \funcusage 
 881:Generated_Source\PSoC6\pdl\drivers\peripheral\dma/cy_dma.h **** * \snippet dma\2.10\snippet\main.c snippet_Cy_DMA_Descriptor_SetterFunctions
 882:Generated_Source\PSoC6\pdl\drivers\peripheral\dma/cy_dma.h **** *
ARM GAS  C:\Users\enes_\AppData\Local\Temp\ccsXGQXN.s 			page 33


 883:Generated_Source\PSoC6\pdl\drivers\peripheral\dma/cy_dma.h **** *******************************************************************************/
 884:Generated_Source\PSoC6\pdl\drivers\peripheral\dma/cy_dma.h **** __STATIC_INLINE void Cy_DMA_Descriptor_SetTriggerOutType(cy_stc_dma_descriptor_t * descriptor, cy_e
 885:Generated_Source\PSoC6\pdl\drivers\peripheral\dma/cy_dma.h **** {
 886:Generated_Source\PSoC6\pdl\drivers\peripheral\dma/cy_dma.h ****     CY_ASSERT_L3(CY_DMA_IS_TRIG_TYPE_VALID(triggerOutType));
 887:Generated_Source\PSoC6\pdl\drivers\peripheral\dma/cy_dma.h ****     
 888:Generated_Source\PSoC6\pdl\drivers\peripheral\dma/cy_dma.h ****     CY_REG32_CLR_SET(descriptor->ctl, CY_DMA_CTL_TR_OUT_TYPE, triggerOutType);
 889:Generated_Source\PSoC6\pdl\drivers\peripheral\dma/cy_dma.h **** }
 890:Generated_Source\PSoC6\pdl\drivers\peripheral\dma/cy_dma.h **** 
 891:Generated_Source\PSoC6\pdl\drivers\peripheral\dma/cy_dma.h **** 
 892:Generated_Source\PSoC6\pdl\drivers\peripheral\dma/cy_dma.h **** /*******************************************************************************
 893:Generated_Source\PSoC6\pdl\drivers\peripheral\dma/cy_dma.h **** * Function Name: Cy_DMA_Descriptor_GetTriggerOutType
 894:Generated_Source\PSoC6\pdl\drivers\peripheral\dma/cy_dma.h **** ****************************************************************************//**
 895:Generated_Source\PSoC6\pdl\drivers\peripheral\dma/cy_dma.h **** *
 896:Generated_Source\PSoC6\pdl\drivers\peripheral\dma/cy_dma.h **** * Returns the Trigger-Out-Type parameter of the specified descriptor.
 897:Generated_Source\PSoC6\pdl\drivers\peripheral\dma/cy_dma.h **** *
 898:Generated_Source\PSoC6\pdl\drivers\peripheral\dma/cy_dma.h **** * \param descriptor
 899:Generated_Source\PSoC6\pdl\drivers\peripheral\dma/cy_dma.h **** * The descriptor structure instance declared by the user/component.
 900:Generated_Source\PSoC6\pdl\drivers\peripheral\dma/cy_dma.h **** *
 901:Generated_Source\PSoC6\pdl\drivers\peripheral\dma/cy_dma.h **** * \return
 902:Generated_Source\PSoC6\pdl\drivers\peripheral\dma/cy_dma.h **** * The Trigger-Out-Type parameter \ref cy_en_dma_trigger_type_t.
 903:Generated_Source\PSoC6\pdl\drivers\peripheral\dma/cy_dma.h **** *
 904:Generated_Source\PSoC6\pdl\drivers\peripheral\dma/cy_dma.h **** * \funcusage 
 905:Generated_Source\PSoC6\pdl\drivers\peripheral\dma/cy_dma.h **** * \snippet dma\2.10\snippet\main.c snippet_Cy_DMA_Descriptor_GetterFunctions
 906:Generated_Source\PSoC6\pdl\drivers\peripheral\dma/cy_dma.h **** *  
 907:Generated_Source\PSoC6\pdl\drivers\peripheral\dma/cy_dma.h **** *******************************************************************************/
 908:Generated_Source\PSoC6\pdl\drivers\peripheral\dma/cy_dma.h **** __STATIC_INLINE cy_en_dma_trigger_type_t Cy_DMA_Descriptor_GetTriggerOutType(cy_stc_dma_descriptor_
 909:Generated_Source\PSoC6\pdl\drivers\peripheral\dma/cy_dma.h **** {
 910:Generated_Source\PSoC6\pdl\drivers\peripheral\dma/cy_dma.h ****     return((cy_en_dma_trigger_type_t) _FLD2VAL(CY_DMA_CTL_TR_OUT_TYPE, descriptor->ctl));
 911:Generated_Source\PSoC6\pdl\drivers\peripheral\dma/cy_dma.h **** }
 912:Generated_Source\PSoC6\pdl\drivers\peripheral\dma/cy_dma.h **** 
 913:Generated_Source\PSoC6\pdl\drivers\peripheral\dma/cy_dma.h **** 
 914:Generated_Source\PSoC6\pdl\drivers\peripheral\dma/cy_dma.h **** /*******************************************************************************
 915:Generated_Source\PSoC6\pdl\drivers\peripheral\dma/cy_dma.h **** * Function Name: Cy_DMA_Descriptor_SetDataSize
 916:Generated_Source\PSoC6\pdl\drivers\peripheral\dma/cy_dma.h **** ****************************************************************************//**
 917:Generated_Source\PSoC6\pdl\drivers\peripheral\dma/cy_dma.h **** *
 918:Generated_Source\PSoC6\pdl\drivers\peripheral\dma/cy_dma.h **** * Sets the Data Element Size for the specified descriptor.
 919:Generated_Source\PSoC6\pdl\drivers\peripheral\dma/cy_dma.h **** *
 920:Generated_Source\PSoC6\pdl\drivers\peripheral\dma/cy_dma.h **** * \param descriptor
 921:Generated_Source\PSoC6\pdl\drivers\peripheral\dma/cy_dma.h **** * The descriptor structure instance declared by the user/component.
 922:Generated_Source\PSoC6\pdl\drivers\peripheral\dma/cy_dma.h **** *
 923:Generated_Source\PSoC6\pdl\drivers\peripheral\dma/cy_dma.h **** * \param dataSize
 924:Generated_Source\PSoC6\pdl\drivers\peripheral\dma/cy_dma.h **** * The Data Element Size \ref cy_en_dma_data_size_t
 925:Generated_Source\PSoC6\pdl\drivers\peripheral\dma/cy_dma.h **** *
 926:Generated_Source\PSoC6\pdl\drivers\peripheral\dma/cy_dma.h **** * \funcusage 
 927:Generated_Source\PSoC6\pdl\drivers\peripheral\dma/cy_dma.h **** * \snippet dma\2.10\snippet\main.c snippet_Cy_DMA_Descriptor_SetterFunctions
 928:Generated_Source\PSoC6\pdl\drivers\peripheral\dma/cy_dma.h **** *  
 929:Generated_Source\PSoC6\pdl\drivers\peripheral\dma/cy_dma.h **** *******************************************************************************/
 930:Generated_Source\PSoC6\pdl\drivers\peripheral\dma/cy_dma.h **** __STATIC_INLINE void Cy_DMA_Descriptor_SetDataSize(cy_stc_dma_descriptor_t * descriptor, cy_en_dma_
 931:Generated_Source\PSoC6\pdl\drivers\peripheral\dma/cy_dma.h **** {
 932:Generated_Source\PSoC6\pdl\drivers\peripheral\dma/cy_dma.h ****     CY_ASSERT_L3(CY_DMA_IS_DATA_SIZE_VALID(dataSize));
 933:Generated_Source\PSoC6\pdl\drivers\peripheral\dma/cy_dma.h ****     
 934:Generated_Source\PSoC6\pdl\drivers\peripheral\dma/cy_dma.h ****     CY_REG32_CLR_SET(descriptor->ctl, CY_DMA_CTL_DATA_SIZE, dataSize);
 935:Generated_Source\PSoC6\pdl\drivers\peripheral\dma/cy_dma.h **** }
 936:Generated_Source\PSoC6\pdl\drivers\peripheral\dma/cy_dma.h **** 
 937:Generated_Source\PSoC6\pdl\drivers\peripheral\dma/cy_dma.h **** 
 938:Generated_Source\PSoC6\pdl\drivers\peripheral\dma/cy_dma.h **** /*******************************************************************************
 939:Generated_Source\PSoC6\pdl\drivers\peripheral\dma/cy_dma.h **** * Function Name: Cy_DMA_Descriptor_GetDataSize
ARM GAS  C:\Users\enes_\AppData\Local\Temp\ccsXGQXN.s 			page 34


 940:Generated_Source\PSoC6\pdl\drivers\peripheral\dma/cy_dma.h **** ****************************************************************************//**
 941:Generated_Source\PSoC6\pdl\drivers\peripheral\dma/cy_dma.h **** *
 942:Generated_Source\PSoC6\pdl\drivers\peripheral\dma/cy_dma.h **** * Returns the Data Element Size parameter of the specified descriptor.
 943:Generated_Source\PSoC6\pdl\drivers\peripheral\dma/cy_dma.h **** *
 944:Generated_Source\PSoC6\pdl\drivers\peripheral\dma/cy_dma.h **** * \param descriptor
 945:Generated_Source\PSoC6\pdl\drivers\peripheral\dma/cy_dma.h **** * The descriptor structure instance declared by the user/component.
 946:Generated_Source\PSoC6\pdl\drivers\peripheral\dma/cy_dma.h **** *
 947:Generated_Source\PSoC6\pdl\drivers\peripheral\dma/cy_dma.h **** * \return
 948:Generated_Source\PSoC6\pdl\drivers\peripheral\dma/cy_dma.h **** * The Data Element Size \ref cy_en_dma_data_size_t.
 949:Generated_Source\PSoC6\pdl\drivers\peripheral\dma/cy_dma.h **** *
 950:Generated_Source\PSoC6\pdl\drivers\peripheral\dma/cy_dma.h **** * \funcusage 
 951:Generated_Source\PSoC6\pdl\drivers\peripheral\dma/cy_dma.h **** * \snippet dma\2.10\snippet\main.c snippet_Cy_DMA_Descriptor_GetterFunctions
 952:Generated_Source\PSoC6\pdl\drivers\peripheral\dma/cy_dma.h **** *  
 953:Generated_Source\PSoC6\pdl\drivers\peripheral\dma/cy_dma.h **** *******************************************************************************/
 954:Generated_Source\PSoC6\pdl\drivers\peripheral\dma/cy_dma.h **** __STATIC_INLINE cy_en_dma_data_size_t Cy_DMA_Descriptor_GetDataSize(cy_stc_dma_descriptor_t const *
 955:Generated_Source\PSoC6\pdl\drivers\peripheral\dma/cy_dma.h **** {
 956:Generated_Source\PSoC6\pdl\drivers\peripheral\dma/cy_dma.h ****     return((cy_en_dma_data_size_t) _FLD2VAL(CY_DMA_CTL_DATA_SIZE, descriptor->ctl));
 957:Generated_Source\PSoC6\pdl\drivers\peripheral\dma/cy_dma.h **** }
 958:Generated_Source\PSoC6\pdl\drivers\peripheral\dma/cy_dma.h **** 
 959:Generated_Source\PSoC6\pdl\drivers\peripheral\dma/cy_dma.h **** 
 960:Generated_Source\PSoC6\pdl\drivers\peripheral\dma/cy_dma.h **** /*******************************************************************************
 961:Generated_Source\PSoC6\pdl\drivers\peripheral\dma/cy_dma.h **** * Function Name: Cy_DMA_Descriptor_SetSrcTransferSize
 962:Generated_Source\PSoC6\pdl\drivers\peripheral\dma/cy_dma.h **** ****************************************************************************//**
 963:Generated_Source\PSoC6\pdl\drivers\peripheral\dma/cy_dma.h **** *
 964:Generated_Source\PSoC6\pdl\drivers\peripheral\dma/cy_dma.h **** * Sets the Source Transfer Size for the specified descriptor.
 965:Generated_Source\PSoC6\pdl\drivers\peripheral\dma/cy_dma.h **** *
 966:Generated_Source\PSoC6\pdl\drivers\peripheral\dma/cy_dma.h **** * \param descriptor
 967:Generated_Source\PSoC6\pdl\drivers\peripheral\dma/cy_dma.h **** * The descriptor structure instance declared by the user/component.
 968:Generated_Source\PSoC6\pdl\drivers\peripheral\dma/cy_dma.h **** *
 969:Generated_Source\PSoC6\pdl\drivers\peripheral\dma/cy_dma.h **** * \param srcTransferSize
 970:Generated_Source\PSoC6\pdl\drivers\peripheral\dma/cy_dma.h **** * The Source Transfer Size \ref cy_en_dma_transfer_size_t.
 971:Generated_Source\PSoC6\pdl\drivers\peripheral\dma/cy_dma.h **** *
 972:Generated_Source\PSoC6\pdl\drivers\peripheral\dma/cy_dma.h **** * \funcusage 
 973:Generated_Source\PSoC6\pdl\drivers\peripheral\dma/cy_dma.h **** * \snippet dma\2.10\snippet\main.c snippet_Cy_DMA_Descriptor_SetterFunctions
 974:Generated_Source\PSoC6\pdl\drivers\peripheral\dma/cy_dma.h **** *
 975:Generated_Source\PSoC6\pdl\drivers\peripheral\dma/cy_dma.h **** *******************************************************************************/
 976:Generated_Source\PSoC6\pdl\drivers\peripheral\dma/cy_dma.h **** __STATIC_INLINE void Cy_DMA_Descriptor_SetSrcTransferSize(cy_stc_dma_descriptor_t * descriptor, cy_
 977:Generated_Source\PSoC6\pdl\drivers\peripheral\dma/cy_dma.h **** {
 978:Generated_Source\PSoC6\pdl\drivers\peripheral\dma/cy_dma.h ****     CY_ASSERT_L3(CY_DMA_IS_XFER_SIZE_VALID(srcTransferSize));
 979:Generated_Source\PSoC6\pdl\drivers\peripheral\dma/cy_dma.h **** 
 980:Generated_Source\PSoC6\pdl\drivers\peripheral\dma/cy_dma.h ****     CY_REG32_CLR_SET(descriptor->ctl, CY_DMA_CTL_SRC_SIZE, srcTransferSize);
 981:Generated_Source\PSoC6\pdl\drivers\peripheral\dma/cy_dma.h **** }
 982:Generated_Source\PSoC6\pdl\drivers\peripheral\dma/cy_dma.h **** 
 983:Generated_Source\PSoC6\pdl\drivers\peripheral\dma/cy_dma.h **** 
 984:Generated_Source\PSoC6\pdl\drivers\peripheral\dma/cy_dma.h **** /*******************************************************************************
 985:Generated_Source\PSoC6\pdl\drivers\peripheral\dma/cy_dma.h **** * Function Name: Cy_DMA_Descriptor_GetSrcTransferSize
 986:Generated_Source\PSoC6\pdl\drivers\peripheral\dma/cy_dma.h **** ****************************************************************************//**
 987:Generated_Source\PSoC6\pdl\drivers\peripheral\dma/cy_dma.h **** *
 988:Generated_Source\PSoC6\pdl\drivers\peripheral\dma/cy_dma.h **** * Returns the Source Transfer Size parameter of the specified descriptor.
 989:Generated_Source\PSoC6\pdl\drivers\peripheral\dma/cy_dma.h **** *
 990:Generated_Source\PSoC6\pdl\drivers\peripheral\dma/cy_dma.h **** * \param descriptor
 991:Generated_Source\PSoC6\pdl\drivers\peripheral\dma/cy_dma.h **** * The descriptor structure instance declared by the user/component.
 992:Generated_Source\PSoC6\pdl\drivers\peripheral\dma/cy_dma.h **** *
 993:Generated_Source\PSoC6\pdl\drivers\peripheral\dma/cy_dma.h **** * \return
 994:Generated_Source\PSoC6\pdl\drivers\peripheral\dma/cy_dma.h **** * The Source Transfer Size \ref cy_en_dma_transfer_size_t.
 995:Generated_Source\PSoC6\pdl\drivers\peripheral\dma/cy_dma.h **** *
 996:Generated_Source\PSoC6\pdl\drivers\peripheral\dma/cy_dma.h **** * \funcusage 
ARM GAS  C:\Users\enes_\AppData\Local\Temp\ccsXGQXN.s 			page 35


 997:Generated_Source\PSoC6\pdl\drivers\peripheral\dma/cy_dma.h **** * \snippet dma\2.10\snippet\main.c snippet_Cy_DMA_Descriptor_GetterFunctions
 998:Generated_Source\PSoC6\pdl\drivers\peripheral\dma/cy_dma.h **** *  
 999:Generated_Source\PSoC6\pdl\drivers\peripheral\dma/cy_dma.h **** *******************************************************************************/
1000:Generated_Source\PSoC6\pdl\drivers\peripheral\dma/cy_dma.h **** __STATIC_INLINE cy_en_dma_transfer_size_t Cy_DMA_Descriptor_GetSrcTransferSize(cy_stc_dma_descripto
1001:Generated_Source\PSoC6\pdl\drivers\peripheral\dma/cy_dma.h **** {
1002:Generated_Source\PSoC6\pdl\drivers\peripheral\dma/cy_dma.h ****     return((cy_en_dma_transfer_size_t) _FLD2VAL(CY_DMA_CTL_SRC_SIZE, descriptor->ctl));
1003:Generated_Source\PSoC6\pdl\drivers\peripheral\dma/cy_dma.h **** }
1004:Generated_Source\PSoC6\pdl\drivers\peripheral\dma/cy_dma.h **** 
1005:Generated_Source\PSoC6\pdl\drivers\peripheral\dma/cy_dma.h **** 
1006:Generated_Source\PSoC6\pdl\drivers\peripheral\dma/cy_dma.h **** /*******************************************************************************
1007:Generated_Source\PSoC6\pdl\drivers\peripheral\dma/cy_dma.h **** * Function Name: Cy_DMA_Descriptor_SetDstTransferSize
1008:Generated_Source\PSoC6\pdl\drivers\peripheral\dma/cy_dma.h **** ****************************************************************************//**
1009:Generated_Source\PSoC6\pdl\drivers\peripheral\dma/cy_dma.h **** *
1010:Generated_Source\PSoC6\pdl\drivers\peripheral\dma/cy_dma.h **** * Sets the Destination Transfer Size for the specified descriptor.
1011:Generated_Source\PSoC6\pdl\drivers\peripheral\dma/cy_dma.h **** *
1012:Generated_Source\PSoC6\pdl\drivers\peripheral\dma/cy_dma.h **** * \param descriptor
1013:Generated_Source\PSoC6\pdl\drivers\peripheral\dma/cy_dma.h **** * The descriptor structure instance declared by the user/component.
1014:Generated_Source\PSoC6\pdl\drivers\peripheral\dma/cy_dma.h **** *
1015:Generated_Source\PSoC6\pdl\drivers\peripheral\dma/cy_dma.h **** * \param dstTransferSize
1016:Generated_Source\PSoC6\pdl\drivers\peripheral\dma/cy_dma.h **** * The Destination Transfer Size \ref cy_en_dma_transfer_size_t.
1017:Generated_Source\PSoC6\pdl\drivers\peripheral\dma/cy_dma.h **** *
1018:Generated_Source\PSoC6\pdl\drivers\peripheral\dma/cy_dma.h **** * \funcusage 
1019:Generated_Source\PSoC6\pdl\drivers\peripheral\dma/cy_dma.h **** * \snippet dma\2.10\snippet\main.c snippet_Cy_DMA_Descriptor_SetterFunctions
1020:Generated_Source\PSoC6\pdl\drivers\peripheral\dma/cy_dma.h **** *
1021:Generated_Source\PSoC6\pdl\drivers\peripheral\dma/cy_dma.h **** *******************************************************************************/
1022:Generated_Source\PSoC6\pdl\drivers\peripheral\dma/cy_dma.h **** __STATIC_INLINE void Cy_DMA_Descriptor_SetDstTransferSize(cy_stc_dma_descriptor_t * descriptor, cy_
1023:Generated_Source\PSoC6\pdl\drivers\peripheral\dma/cy_dma.h **** {
1024:Generated_Source\PSoC6\pdl\drivers\peripheral\dma/cy_dma.h ****     CY_ASSERT_L3(CY_DMA_IS_XFER_SIZE_VALID(dstTransferSize));
1025:Generated_Source\PSoC6\pdl\drivers\peripheral\dma/cy_dma.h ****     
1026:Generated_Source\PSoC6\pdl\drivers\peripheral\dma/cy_dma.h ****     CY_REG32_CLR_SET(descriptor->ctl, CY_DMA_CTL_DST_SIZE, dstTransferSize);
1027:Generated_Source\PSoC6\pdl\drivers\peripheral\dma/cy_dma.h **** }
1028:Generated_Source\PSoC6\pdl\drivers\peripheral\dma/cy_dma.h **** 
1029:Generated_Source\PSoC6\pdl\drivers\peripheral\dma/cy_dma.h **** 
1030:Generated_Source\PSoC6\pdl\drivers\peripheral\dma/cy_dma.h **** /*******************************************************************************
1031:Generated_Source\PSoC6\pdl\drivers\peripheral\dma/cy_dma.h **** * Function Name: Cy_DMA_Descriptor_GetDstTransferSize
1032:Generated_Source\PSoC6\pdl\drivers\peripheral\dma/cy_dma.h **** ****************************************************************************//**
1033:Generated_Source\PSoC6\pdl\drivers\peripheral\dma/cy_dma.h **** *
1034:Generated_Source\PSoC6\pdl\drivers\peripheral\dma/cy_dma.h **** * Returns the Destination Transfer Size parameter of the specified descriptor.
1035:Generated_Source\PSoC6\pdl\drivers\peripheral\dma/cy_dma.h **** *
1036:Generated_Source\PSoC6\pdl\drivers\peripheral\dma/cy_dma.h **** * \param descriptor
1037:Generated_Source\PSoC6\pdl\drivers\peripheral\dma/cy_dma.h **** * The descriptor structure instance declared by the user/component.
1038:Generated_Source\PSoC6\pdl\drivers\peripheral\dma/cy_dma.h **** *
1039:Generated_Source\PSoC6\pdl\drivers\peripheral\dma/cy_dma.h **** * \return
1040:Generated_Source\PSoC6\pdl\drivers\peripheral\dma/cy_dma.h **** * The Destination Transfer Size \ref cy_en_dma_transfer_size_t.
1041:Generated_Source\PSoC6\pdl\drivers\peripheral\dma/cy_dma.h **** *
1042:Generated_Source\PSoC6\pdl\drivers\peripheral\dma/cy_dma.h **** * \funcusage 
1043:Generated_Source\PSoC6\pdl\drivers\peripheral\dma/cy_dma.h **** * \snippet dma\2.10\snippet\main.c snippet_Cy_DMA_Descriptor_GetterFunctions
1044:Generated_Source\PSoC6\pdl\drivers\peripheral\dma/cy_dma.h **** *  
1045:Generated_Source\PSoC6\pdl\drivers\peripheral\dma/cy_dma.h **** *******************************************************************************/
1046:Generated_Source\PSoC6\pdl\drivers\peripheral\dma/cy_dma.h **** __STATIC_INLINE cy_en_dma_transfer_size_t Cy_DMA_Descriptor_GetDstTransferSize(cy_stc_dma_descripto
1047:Generated_Source\PSoC6\pdl\drivers\peripheral\dma/cy_dma.h **** {
1048:Generated_Source\PSoC6\pdl\drivers\peripheral\dma/cy_dma.h ****     return((cy_en_dma_transfer_size_t) _FLD2VAL(CY_DMA_CTL_DST_SIZE, descriptor->ctl));
1049:Generated_Source\PSoC6\pdl\drivers\peripheral\dma/cy_dma.h **** }
1050:Generated_Source\PSoC6\pdl\drivers\peripheral\dma/cy_dma.h **** 
1051:Generated_Source\PSoC6\pdl\drivers\peripheral\dma/cy_dma.h **** 
1052:Generated_Source\PSoC6\pdl\drivers\peripheral\dma/cy_dma.h **** /*******************************************************************************
1053:Generated_Source\PSoC6\pdl\drivers\peripheral\dma/cy_dma.h **** * Function Name: Cy_DMA_Descriptor_SetRetrigger
ARM GAS  C:\Users\enes_\AppData\Local\Temp\ccsXGQXN.s 			page 36


1054:Generated_Source\PSoC6\pdl\drivers\peripheral\dma/cy_dma.h **** ****************************************************************************//**
1055:Generated_Source\PSoC6\pdl\drivers\peripheral\dma/cy_dma.h **** *
1056:Generated_Source\PSoC6\pdl\drivers\peripheral\dma/cy_dma.h **** * Sets the retrigger value that specifies whether the controller should 
1057:Generated_Source\PSoC6\pdl\drivers\peripheral\dma/cy_dma.h **** * wait for the input trigger to be deactivated.
1058:Generated_Source\PSoC6\pdl\drivers\peripheral\dma/cy_dma.h **** *
1059:Generated_Source\PSoC6\pdl\drivers\peripheral\dma/cy_dma.h **** * \param descriptor
1060:Generated_Source\PSoC6\pdl\drivers\peripheral\dma/cy_dma.h **** * The descriptor structure instance declared by the user/component.
1061:Generated_Source\PSoC6\pdl\drivers\peripheral\dma/cy_dma.h **** *
1062:Generated_Source\PSoC6\pdl\drivers\peripheral\dma/cy_dma.h **** * \param retrigger 
1063:Generated_Source\PSoC6\pdl\drivers\peripheral\dma/cy_dma.h **** * The \ref cy_en_dma_retrigger_t parameter specifies whether the controller
1064:Generated_Source\PSoC6\pdl\drivers\peripheral\dma/cy_dma.h **** * should wait for the input trigger to be deactivated.
1065:Generated_Source\PSoC6\pdl\drivers\peripheral\dma/cy_dma.h **** *
1066:Generated_Source\PSoC6\pdl\drivers\peripheral\dma/cy_dma.h **** * \funcusage 
1067:Generated_Source\PSoC6\pdl\drivers\peripheral\dma/cy_dma.h **** * \snippet dma\2.10\snippet\main.c snippet_Cy_DMA_Descriptor_SetterFunctions
1068:Generated_Source\PSoC6\pdl\drivers\peripheral\dma/cy_dma.h **** *
1069:Generated_Source\PSoC6\pdl\drivers\peripheral\dma/cy_dma.h **** *******************************************************************************/
1070:Generated_Source\PSoC6\pdl\drivers\peripheral\dma/cy_dma.h **** __STATIC_INLINE void Cy_DMA_Descriptor_SetRetrigger(cy_stc_dma_descriptor_t * descriptor, cy_en_dma
1071:Generated_Source\PSoC6\pdl\drivers\peripheral\dma/cy_dma.h **** {
1072:Generated_Source\PSoC6\pdl\drivers\peripheral\dma/cy_dma.h ****     CY_ASSERT_L3(CY_DMA_IS_RETRIG_VALID(retrigger));
1073:Generated_Source\PSoC6\pdl\drivers\peripheral\dma/cy_dma.h ****     
1074:Generated_Source\PSoC6\pdl\drivers\peripheral\dma/cy_dma.h ****     CY_REG32_CLR_SET(descriptor->ctl, CY_DMA_CTL_RETRIG, retrigger);
1075:Generated_Source\PSoC6\pdl\drivers\peripheral\dma/cy_dma.h **** }
1076:Generated_Source\PSoC6\pdl\drivers\peripheral\dma/cy_dma.h **** 
1077:Generated_Source\PSoC6\pdl\drivers\peripheral\dma/cy_dma.h **** 
1078:Generated_Source\PSoC6\pdl\drivers\peripheral\dma/cy_dma.h **** /*******************************************************************************
1079:Generated_Source\PSoC6\pdl\drivers\peripheral\dma/cy_dma.h **** * Function Name: Cy_DMA_Descriptor_GetRetrigger
1080:Generated_Source\PSoC6\pdl\drivers\peripheral\dma/cy_dma.h **** ****************************************************************************//**
1081:Generated_Source\PSoC6\pdl\drivers\peripheral\dma/cy_dma.h **** *
1082:Generated_Source\PSoC6\pdl\drivers\peripheral\dma/cy_dma.h **** * Returns a value that specifies whether the controller should 
1083:Generated_Source\PSoC6\pdl\drivers\peripheral\dma/cy_dma.h **** * wait for the input trigger to be deactivated.
1084:Generated_Source\PSoC6\pdl\drivers\peripheral\dma/cy_dma.h **** *
1085:Generated_Source\PSoC6\pdl\drivers\peripheral\dma/cy_dma.h **** * \param descriptor
1086:Generated_Source\PSoC6\pdl\drivers\peripheral\dma/cy_dma.h **** * The descriptor structure instance declared by the user/component.
1087:Generated_Source\PSoC6\pdl\drivers\peripheral\dma/cy_dma.h **** *
1088:Generated_Source\PSoC6\pdl\drivers\peripheral\dma/cy_dma.h **** * \return
1089:Generated_Source\PSoC6\pdl\drivers\peripheral\dma/cy_dma.h **** * The Retrigger setting \ref cy_en_dma_retrigger_t.
1090:Generated_Source\PSoC6\pdl\drivers\peripheral\dma/cy_dma.h **** *
1091:Generated_Source\PSoC6\pdl\drivers\peripheral\dma/cy_dma.h **** * \funcusage 
1092:Generated_Source\PSoC6\pdl\drivers\peripheral\dma/cy_dma.h **** * \snippet dma\2.10\snippet\main.c snippet_Cy_DMA_Descriptor_GetterFunctions
1093:Generated_Source\PSoC6\pdl\drivers\peripheral\dma/cy_dma.h **** *  
1094:Generated_Source\PSoC6\pdl\drivers\peripheral\dma/cy_dma.h **** *******************************************************************************/
1095:Generated_Source\PSoC6\pdl\drivers\peripheral\dma/cy_dma.h **** __STATIC_INLINE cy_en_dma_retrigger_t Cy_DMA_Descriptor_GetRetrigger(cy_stc_dma_descriptor_t const 
1096:Generated_Source\PSoC6\pdl\drivers\peripheral\dma/cy_dma.h **** {
1097:Generated_Source\PSoC6\pdl\drivers\peripheral\dma/cy_dma.h ****     return((cy_en_dma_retrigger_t) _FLD2VAL(CY_DMA_CTL_RETRIG, descriptor->ctl));
1098:Generated_Source\PSoC6\pdl\drivers\peripheral\dma/cy_dma.h **** }
1099:Generated_Source\PSoC6\pdl\drivers\peripheral\dma/cy_dma.h **** 
1100:Generated_Source\PSoC6\pdl\drivers\peripheral\dma/cy_dma.h **** 
1101:Generated_Source\PSoC6\pdl\drivers\peripheral\dma/cy_dma.h **** /*******************************************************************************
1102:Generated_Source\PSoC6\pdl\drivers\peripheral\dma/cy_dma.h **** * Function Name: Cy_DMA_Descriptor_GetDescriptorType
1103:Generated_Source\PSoC6\pdl\drivers\peripheral\dma/cy_dma.h **** ****************************************************************************//**
1104:Generated_Source\PSoC6\pdl\drivers\peripheral\dma/cy_dma.h **** *
1105:Generated_Source\PSoC6\pdl\drivers\peripheral\dma/cy_dma.h **** * Returns the descriptor's type of the specified descriptor.
1106:Generated_Source\PSoC6\pdl\drivers\peripheral\dma/cy_dma.h **** *
1107:Generated_Source\PSoC6\pdl\drivers\peripheral\dma/cy_dma.h **** * \param descriptor
1108:Generated_Source\PSoC6\pdl\drivers\peripheral\dma/cy_dma.h **** * The descriptor structure instance declared by the user/component.
1109:Generated_Source\PSoC6\pdl\drivers\peripheral\dma/cy_dma.h **** *
1110:Generated_Source\PSoC6\pdl\drivers\peripheral\dma/cy_dma.h **** * \return
ARM GAS  C:\Users\enes_\AppData\Local\Temp\ccsXGQXN.s 			page 37


1111:Generated_Source\PSoC6\pdl\drivers\peripheral\dma/cy_dma.h **** * The descriptor type \ref cy_en_dma_descriptor_type_t.
1112:Generated_Source\PSoC6\pdl\drivers\peripheral\dma/cy_dma.h **** *
1113:Generated_Source\PSoC6\pdl\drivers\peripheral\dma/cy_dma.h **** * \funcusage 
1114:Generated_Source\PSoC6\pdl\drivers\peripheral\dma/cy_dma.h **** * \snippet dma\2.10\snippet\main.c snippet_Cy_DMA_Descriptor_GetterFunctions
1115:Generated_Source\PSoC6\pdl\drivers\peripheral\dma/cy_dma.h **** *  
1116:Generated_Source\PSoC6\pdl\drivers\peripheral\dma/cy_dma.h **** *******************************************************************************/
1117:Generated_Source\PSoC6\pdl\drivers\peripheral\dma/cy_dma.h **** __STATIC_INLINE cy_en_dma_descriptor_type_t Cy_DMA_Descriptor_GetDescriptorType(cy_stc_dma_descript
1118:Generated_Source\PSoC6\pdl\drivers\peripheral\dma/cy_dma.h **** {
1119:Generated_Source\PSoC6\pdl\drivers\peripheral\dma/cy_dma.h ****     return((cy_en_dma_descriptor_type_t) _FLD2VAL(CY_DMA_CTL_TYPE, descriptor->ctl));
1120:Generated_Source\PSoC6\pdl\drivers\peripheral\dma/cy_dma.h **** }
1121:Generated_Source\PSoC6\pdl\drivers\peripheral\dma/cy_dma.h **** 
1122:Generated_Source\PSoC6\pdl\drivers\peripheral\dma/cy_dma.h **** 
1123:Generated_Source\PSoC6\pdl\drivers\peripheral\dma/cy_dma.h **** /*******************************************************************************
1124:Generated_Source\PSoC6\pdl\drivers\peripheral\dma/cy_dma.h **** * Function Name: Cy_DMA_Descriptor_SetChannelState
1125:Generated_Source\PSoC6\pdl\drivers\peripheral\dma/cy_dma.h **** ****************************************************************************//**
1126:Generated_Source\PSoC6\pdl\drivers\peripheral\dma/cy_dma.h **** *
1127:Generated_Source\PSoC6\pdl\drivers\peripheral\dma/cy_dma.h **** * Sets the channel state on completion of the specified descriptor.
1128:Generated_Source\PSoC6\pdl\drivers\peripheral\dma/cy_dma.h **** *
1129:Generated_Source\PSoC6\pdl\drivers\peripheral\dma/cy_dma.h **** * \param descriptor
1130:Generated_Source\PSoC6\pdl\drivers\peripheral\dma/cy_dma.h **** * The descriptor structure instance declared by the user/component.
1131:Generated_Source\PSoC6\pdl\drivers\peripheral\dma/cy_dma.h **** *
1132:Generated_Source\PSoC6\pdl\drivers\peripheral\dma/cy_dma.h **** * \param channelState 
1133:Generated_Source\PSoC6\pdl\drivers\peripheral\dma/cy_dma.h **** * The channel state \ref cy_en_dma_channel_state_t.
1134:Generated_Source\PSoC6\pdl\drivers\peripheral\dma/cy_dma.h **** *
1135:Generated_Source\PSoC6\pdl\drivers\peripheral\dma/cy_dma.h **** * \funcusage 
1136:Generated_Source\PSoC6\pdl\drivers\peripheral\dma/cy_dma.h **** * \snippet dma\2.10\snippet\main.c snippet_Cy_DMA_Descriptor_SetterFunctions
1137:Generated_Source\PSoC6\pdl\drivers\peripheral\dma/cy_dma.h **** *
1138:Generated_Source\PSoC6\pdl\drivers\peripheral\dma/cy_dma.h **** *******************************************************************************/
1139:Generated_Source\PSoC6\pdl\drivers\peripheral\dma/cy_dma.h **** __STATIC_INLINE void Cy_DMA_Descriptor_SetChannelState(cy_stc_dma_descriptor_t * descriptor, cy_en_
1140:Generated_Source\PSoC6\pdl\drivers\peripheral\dma/cy_dma.h **** {
1141:Generated_Source\PSoC6\pdl\drivers\peripheral\dma/cy_dma.h ****     CY_ASSERT_L3(CY_DMA_IS_CHANNEL_STATE_VALID(channelState));
1142:Generated_Source\PSoC6\pdl\drivers\peripheral\dma/cy_dma.h ****     
1143:Generated_Source\PSoC6\pdl\drivers\peripheral\dma/cy_dma.h ****     CY_REG32_CLR_SET(descriptor->ctl, CY_DMA_CTL_CH_DISABLE, channelState);
1144:Generated_Source\PSoC6\pdl\drivers\peripheral\dma/cy_dma.h **** }
1145:Generated_Source\PSoC6\pdl\drivers\peripheral\dma/cy_dma.h **** 
1146:Generated_Source\PSoC6\pdl\drivers\peripheral\dma/cy_dma.h **** 
1147:Generated_Source\PSoC6\pdl\drivers\peripheral\dma/cy_dma.h **** /*******************************************************************************
1148:Generated_Source\PSoC6\pdl\drivers\peripheral\dma/cy_dma.h **** * Function Name: Cy_DMA_Descriptor_GetChannelState
1149:Generated_Source\PSoC6\pdl\drivers\peripheral\dma/cy_dma.h **** ****************************************************************************//**
1150:Generated_Source\PSoC6\pdl\drivers\peripheral\dma/cy_dma.h **** *
1151:Generated_Source\PSoC6\pdl\drivers\peripheral\dma/cy_dma.h **** * Returns the channel state on completion of the specified descriptor.
1152:Generated_Source\PSoC6\pdl\drivers\peripheral\dma/cy_dma.h **** *
1153:Generated_Source\PSoC6\pdl\drivers\peripheral\dma/cy_dma.h **** * \param descriptor
1154:Generated_Source\PSoC6\pdl\drivers\peripheral\dma/cy_dma.h **** * The descriptor structure instance declared by the user/component.
1155:Generated_Source\PSoC6\pdl\drivers\peripheral\dma/cy_dma.h **** *
1156:Generated_Source\PSoC6\pdl\drivers\peripheral\dma/cy_dma.h **** * \return
1157:Generated_Source\PSoC6\pdl\drivers\peripheral\dma/cy_dma.h **** * The Channel State setting \ref cy_en_dma_channel_state_t.
1158:Generated_Source\PSoC6\pdl\drivers\peripheral\dma/cy_dma.h **** *
1159:Generated_Source\PSoC6\pdl\drivers\peripheral\dma/cy_dma.h **** * \funcusage 
1160:Generated_Source\PSoC6\pdl\drivers\peripheral\dma/cy_dma.h **** * \snippet dma\2.10\snippet\main.c snippet_Cy_DMA_Descriptor_GetterFunctions
1161:Generated_Source\PSoC6\pdl\drivers\peripheral\dma/cy_dma.h **** *  
1162:Generated_Source\PSoC6\pdl\drivers\peripheral\dma/cy_dma.h **** *******************************************************************************/
1163:Generated_Source\PSoC6\pdl\drivers\peripheral\dma/cy_dma.h **** __STATIC_INLINE cy_en_dma_channel_state_t Cy_DMA_Descriptor_GetChannelState(cy_stc_dma_descriptor_t
1164:Generated_Source\PSoC6\pdl\drivers\peripheral\dma/cy_dma.h **** {
1165:Generated_Source\PSoC6\pdl\drivers\peripheral\dma/cy_dma.h ****     return((cy_en_dma_channel_state_t) _FLD2VAL(CY_DMA_CTL_CH_DISABLE, descriptor->ctl));
1166:Generated_Source\PSoC6\pdl\drivers\peripheral\dma/cy_dma.h **** }
1167:Generated_Source\PSoC6\pdl\drivers\peripheral\dma/cy_dma.h **** 
ARM GAS  C:\Users\enes_\AppData\Local\Temp\ccsXGQXN.s 			page 38


1168:Generated_Source\PSoC6\pdl\drivers\peripheral\dma/cy_dma.h **** 
1169:Generated_Source\PSoC6\pdl\drivers\peripheral\dma/cy_dma.h **** /*******************************************************************************
1170:Generated_Source\PSoC6\pdl\drivers\peripheral\dma/cy_dma.h **** * Function Name: Cy_DMA_Descriptor_SetXloopDataCount
1171:Generated_Source\PSoC6\pdl\drivers\peripheral\dma/cy_dma.h **** ****************************************************************************//**
1172:Generated_Source\PSoC6\pdl\drivers\peripheral\dma/cy_dma.h **** *
1173:Generated_Source\PSoC6\pdl\drivers\peripheral\dma/cy_dma.h **** * Sets the number of data elements to transfer in the X loop
1174:Generated_Source\PSoC6\pdl\drivers\peripheral\dma/cy_dma.h **** * for the specified descriptor (for 1D or 2D descriptors only).
1175:Generated_Source\PSoC6\pdl\drivers\peripheral\dma/cy_dma.h **** *
1176:Generated_Source\PSoC6\pdl\drivers\peripheral\dma/cy_dma.h **** * \param descriptor
1177:Generated_Source\PSoC6\pdl\drivers\peripheral\dma/cy_dma.h **** * The descriptor structure instance declared by the user/component.
1178:Generated_Source\PSoC6\pdl\drivers\peripheral\dma/cy_dma.h **** *
1179:Generated_Source\PSoC6\pdl\drivers\peripheral\dma/cy_dma.h **** * \param xCount
1180:Generated_Source\PSoC6\pdl\drivers\peripheral\dma/cy_dma.h **** * The number of data elements to transfer in the X loop. Valid range is 1 ... 256.
1181:Generated_Source\PSoC6\pdl\drivers\peripheral\dma/cy_dma.h **** *
1182:Generated_Source\PSoC6\pdl\drivers\peripheral\dma/cy_dma.h **** * \funcusage 
1183:Generated_Source\PSoC6\pdl\drivers\peripheral\dma/cy_dma.h **** * \snippet dma\2.10\snippet\main.c snippet_Cy_DMA_Descriptor_SetterFunctions
1184:Generated_Source\PSoC6\pdl\drivers\peripheral\dma/cy_dma.h **** *  
1185:Generated_Source\PSoC6\pdl\drivers\peripheral\dma/cy_dma.h **** *******************************************************************************/
1186:Generated_Source\PSoC6\pdl\drivers\peripheral\dma/cy_dma.h **** __STATIC_INLINE void Cy_DMA_Descriptor_SetXloopDataCount(cy_stc_dma_descriptor_t * descriptor, uint
1187:Generated_Source\PSoC6\pdl\drivers\peripheral\dma/cy_dma.h **** {
1188:Generated_Source\PSoC6\pdl\drivers\peripheral\dma/cy_dma.h ****     CY_ASSERT_L1(CY_DMA_SINGLE_TRANSFER != Cy_DMA_Descriptor_GetDescriptorType(descriptor));
1189:Generated_Source\PSoC6\pdl\drivers\peripheral\dma/cy_dma.h ****     CY_ASSERT_L2(CY_DMA_IS_LOOP_COUNT_VALID(xCount));
1190:Generated_Source\PSoC6\pdl\drivers\peripheral\dma/cy_dma.h ****     /* Convert the data count from the user's range (1-256) into the machine range (0-255). */
1191:Generated_Source\PSoC6\pdl\drivers\peripheral\dma/cy_dma.h ****     CY_REG32_CLR_SET(descriptor->xCtl, CY_DMA_CTL_COUNT, xCount - 1UL);
1192:Generated_Source\PSoC6\pdl\drivers\peripheral\dma/cy_dma.h **** }
1193:Generated_Source\PSoC6\pdl\drivers\peripheral\dma/cy_dma.h **** 
1194:Generated_Source\PSoC6\pdl\drivers\peripheral\dma/cy_dma.h **** 
1195:Generated_Source\PSoC6\pdl\drivers\peripheral\dma/cy_dma.h **** /*******************************************************************************
1196:Generated_Source\PSoC6\pdl\drivers\peripheral\dma/cy_dma.h **** * Function Name: Cy_DMA_Descriptor_GetXloopDataCount
1197:Generated_Source\PSoC6\pdl\drivers\peripheral\dma/cy_dma.h **** ****************************************************************************//**
1198:Generated_Source\PSoC6\pdl\drivers\peripheral\dma/cy_dma.h **** *
1199:Generated_Source\PSoC6\pdl\drivers\peripheral\dma/cy_dma.h **** * Returns the number of data elements for the X loop of the specified
1200:Generated_Source\PSoC6\pdl\drivers\peripheral\dma/cy_dma.h **** * descriptor (for 1D or 2D descriptors only).
1201:Generated_Source\PSoC6\pdl\drivers\peripheral\dma/cy_dma.h **** *
1202:Generated_Source\PSoC6\pdl\drivers\peripheral\dma/cy_dma.h **** * \param descriptor
1203:Generated_Source\PSoC6\pdl\drivers\peripheral\dma/cy_dma.h **** * The descriptor structure instance declared by the user/component.
1204:Generated_Source\PSoC6\pdl\drivers\peripheral\dma/cy_dma.h **** *
1205:Generated_Source\PSoC6\pdl\drivers\peripheral\dma/cy_dma.h **** * \return
1206:Generated_Source\PSoC6\pdl\drivers\peripheral\dma/cy_dma.h **** * The number of data elements to transfer in the X loop. The range is 1 ... 256.
1207:Generated_Source\PSoC6\pdl\drivers\peripheral\dma/cy_dma.h **** *
1208:Generated_Source\PSoC6\pdl\drivers\peripheral\dma/cy_dma.h **** * \funcusage 
1209:Generated_Source\PSoC6\pdl\drivers\peripheral\dma/cy_dma.h **** * \snippet dma\2.10\snippet\main.c snippet_Cy_DMA_Descriptor_GetterFunctions
1210:Generated_Source\PSoC6\pdl\drivers\peripheral\dma/cy_dma.h **** *  
1211:Generated_Source\PSoC6\pdl\drivers\peripheral\dma/cy_dma.h **** *******************************************************************************/
1212:Generated_Source\PSoC6\pdl\drivers\peripheral\dma/cy_dma.h **** __STATIC_INLINE uint32_t Cy_DMA_Descriptor_GetXloopDataCount(cy_stc_dma_descriptor_t const * descri
1213:Generated_Source\PSoC6\pdl\drivers\peripheral\dma/cy_dma.h **** {
1214:Generated_Source\PSoC6\pdl\drivers\peripheral\dma/cy_dma.h ****     CY_ASSERT_L1(CY_DMA_SINGLE_TRANSFER != Cy_DMA_Descriptor_GetDescriptorType(descriptor));
1215:Generated_Source\PSoC6\pdl\drivers\peripheral\dma/cy_dma.h ****     /* Convert the data count from the machine range (0-255) into the user's range (1-256). */
1216:Generated_Source\PSoC6\pdl\drivers\peripheral\dma/cy_dma.h ****     return (_FLD2VAL(CY_DMA_CTL_COUNT, descriptor->xCtl) + 1UL);
1217:Generated_Source\PSoC6\pdl\drivers\peripheral\dma/cy_dma.h **** }
1218:Generated_Source\PSoC6\pdl\drivers\peripheral\dma/cy_dma.h **** 
1219:Generated_Source\PSoC6\pdl\drivers\peripheral\dma/cy_dma.h **** 
1220:Generated_Source\PSoC6\pdl\drivers\peripheral\dma/cy_dma.h **** /*******************************************************************************
1221:Generated_Source\PSoC6\pdl\drivers\peripheral\dma/cy_dma.h **** * Function Name: Cy_DMA_Descriptor_SetXloopSrcIncrement
1222:Generated_Source\PSoC6\pdl\drivers\peripheral\dma/cy_dma.h **** ****************************************************************************//**
1223:Generated_Source\PSoC6\pdl\drivers\peripheral\dma/cy_dma.h **** *
1224:Generated_Source\PSoC6\pdl\drivers\peripheral\dma/cy_dma.h **** * Sets the source increment parameter for the X loop of the specified
ARM GAS  C:\Users\enes_\AppData\Local\Temp\ccsXGQXN.s 			page 39


1225:Generated_Source\PSoC6\pdl\drivers\peripheral\dma/cy_dma.h **** * descriptor (for 1D or 2D descriptors only).
1226:Generated_Source\PSoC6\pdl\drivers\peripheral\dma/cy_dma.h **** *
1227:Generated_Source\PSoC6\pdl\drivers\peripheral\dma/cy_dma.h **** * \param descriptor
1228:Generated_Source\PSoC6\pdl\drivers\peripheral\dma/cy_dma.h **** * The descriptor structure instance declared by the user/component.
1229:Generated_Source\PSoC6\pdl\drivers\peripheral\dma/cy_dma.h **** *
1230:Generated_Source\PSoC6\pdl\drivers\peripheral\dma/cy_dma.h **** * \param srcXincrement
1231:Generated_Source\PSoC6\pdl\drivers\peripheral\dma/cy_dma.h **** * The value of the source increment. The valid range is -2048 ... 2047.
1232:Generated_Source\PSoC6\pdl\drivers\peripheral\dma/cy_dma.h **** *
1233:Generated_Source\PSoC6\pdl\drivers\peripheral\dma/cy_dma.h **** * \funcusage 
1234:Generated_Source\PSoC6\pdl\drivers\peripheral\dma/cy_dma.h **** * \snippet dma\2.10\snippet\main.c snippet_Cy_DMA_Descriptor_SetterFunctions
1235:Generated_Source\PSoC6\pdl\drivers\peripheral\dma/cy_dma.h **** *
1236:Generated_Source\PSoC6\pdl\drivers\peripheral\dma/cy_dma.h **** *******************************************************************************/
1237:Generated_Source\PSoC6\pdl\drivers\peripheral\dma/cy_dma.h **** __STATIC_INLINE void Cy_DMA_Descriptor_SetXloopSrcIncrement(cy_stc_dma_descriptor_t * descriptor, i
1238:Generated_Source\PSoC6\pdl\drivers\peripheral\dma/cy_dma.h **** {
1239:Generated_Source\PSoC6\pdl\drivers\peripheral\dma/cy_dma.h ****     CY_ASSERT_L1(CY_DMA_SINGLE_TRANSFER != Cy_DMA_Descriptor_GetDescriptorType(descriptor));
1240:Generated_Source\PSoC6\pdl\drivers\peripheral\dma/cy_dma.h ****     CY_ASSERT_L2(CY_DMA_IS_LOOP_INCR_VALID(srcXincrement));
1241:Generated_Source\PSoC6\pdl\drivers\peripheral\dma/cy_dma.h ****     
1242:Generated_Source\PSoC6\pdl\drivers\peripheral\dma/cy_dma.h ****     CY_REG32_CLR_SET(descriptor->xCtl, CY_DMA_CTL_SRC_INCR, srcXincrement);
1243:Generated_Source\PSoC6\pdl\drivers\peripheral\dma/cy_dma.h **** }
1244:Generated_Source\PSoC6\pdl\drivers\peripheral\dma/cy_dma.h **** 
1245:Generated_Source\PSoC6\pdl\drivers\peripheral\dma/cy_dma.h **** 
1246:Generated_Source\PSoC6\pdl\drivers\peripheral\dma/cy_dma.h **** /*******************************************************************************
1247:Generated_Source\PSoC6\pdl\drivers\peripheral\dma/cy_dma.h **** * Function Name: Cy_DMA_Descriptor_GetXloopSrcIncrement
1248:Generated_Source\PSoC6\pdl\drivers\peripheral\dma/cy_dma.h **** ****************************************************************************//**
1249:Generated_Source\PSoC6\pdl\drivers\peripheral\dma/cy_dma.h **** *
1250:Generated_Source\PSoC6\pdl\drivers\peripheral\dma/cy_dma.h **** * Returns the source increment parameter for the X loop of the specified
1251:Generated_Source\PSoC6\pdl\drivers\peripheral\dma/cy_dma.h **** * descriptor (for 1D or 2D descriptors only).
1252:Generated_Source\PSoC6\pdl\drivers\peripheral\dma/cy_dma.h **** *
1253:Generated_Source\PSoC6\pdl\drivers\peripheral\dma/cy_dma.h **** * \param descriptor
1254:Generated_Source\PSoC6\pdl\drivers\peripheral\dma/cy_dma.h **** * The descriptor structure instance declared by the user/component.
1255:Generated_Source\PSoC6\pdl\drivers\peripheral\dma/cy_dma.h **** *
1256:Generated_Source\PSoC6\pdl\drivers\peripheral\dma/cy_dma.h **** * \return
1257:Generated_Source\PSoC6\pdl\drivers\peripheral\dma/cy_dma.h **** * The value of the source increment. The range is -2048 ... 2047.
1258:Generated_Source\PSoC6\pdl\drivers\peripheral\dma/cy_dma.h **** *
1259:Generated_Source\PSoC6\pdl\drivers\peripheral\dma/cy_dma.h **** * \funcusage 
1260:Generated_Source\PSoC6\pdl\drivers\peripheral\dma/cy_dma.h **** * \snippet dma\2.10\snippet\main.c snippet_Cy_DMA_Descriptor_GetterFunctions
1261:Generated_Source\PSoC6\pdl\drivers\peripheral\dma/cy_dma.h **** *  
1262:Generated_Source\PSoC6\pdl\drivers\peripheral\dma/cy_dma.h **** *******************************************************************************/
1263:Generated_Source\PSoC6\pdl\drivers\peripheral\dma/cy_dma.h **** __STATIC_INLINE int32_t Cy_DMA_Descriptor_GetXloopSrcIncrement(cy_stc_dma_descriptor_t const * desc
1264:Generated_Source\PSoC6\pdl\drivers\peripheral\dma/cy_dma.h **** {
1265:Generated_Source\PSoC6\pdl\drivers\peripheral\dma/cy_dma.h ****     CY_ASSERT_L1(CY_DMA_SINGLE_TRANSFER != Cy_DMA_Descriptor_GetDescriptorType(descriptor));
1266:Generated_Source\PSoC6\pdl\drivers\peripheral\dma/cy_dma.h ****     
1267:Generated_Source\PSoC6\pdl\drivers\peripheral\dma/cy_dma.h ****     return ((int32_t) _FLD2VAL(CY_DMA_CTL_SRC_INCR, descriptor->xCtl));
1268:Generated_Source\PSoC6\pdl\drivers\peripheral\dma/cy_dma.h **** }
1269:Generated_Source\PSoC6\pdl\drivers\peripheral\dma/cy_dma.h **** 
1270:Generated_Source\PSoC6\pdl\drivers\peripheral\dma/cy_dma.h **** 
1271:Generated_Source\PSoC6\pdl\drivers\peripheral\dma/cy_dma.h **** /*******************************************************************************
1272:Generated_Source\PSoC6\pdl\drivers\peripheral\dma/cy_dma.h **** * Function Name: Cy_DMA_Descriptor_SetXloopDstIncrement
1273:Generated_Source\PSoC6\pdl\drivers\peripheral\dma/cy_dma.h **** ****************************************************************************//**
1274:Generated_Source\PSoC6\pdl\drivers\peripheral\dma/cy_dma.h **** *
1275:Generated_Source\PSoC6\pdl\drivers\peripheral\dma/cy_dma.h **** * Sets the destination increment parameter for the X loop for the specified
1276:Generated_Source\PSoC6\pdl\drivers\peripheral\dma/cy_dma.h **** * descriptor (for 1D or 2D descriptors only).
1277:Generated_Source\PSoC6\pdl\drivers\peripheral\dma/cy_dma.h **** *
1278:Generated_Source\PSoC6\pdl\drivers\peripheral\dma/cy_dma.h **** * \param descriptor
1279:Generated_Source\PSoC6\pdl\drivers\peripheral\dma/cy_dma.h **** * The descriptor structure instance declared by the user/component.
1280:Generated_Source\PSoC6\pdl\drivers\peripheral\dma/cy_dma.h **** *
1281:Generated_Source\PSoC6\pdl\drivers\peripheral\dma/cy_dma.h **** * \param dstXincrement
ARM GAS  C:\Users\enes_\AppData\Local\Temp\ccsXGQXN.s 			page 40


1282:Generated_Source\PSoC6\pdl\drivers\peripheral\dma/cy_dma.h **** * The value of the destination increment. The valid range is -2048 ... 2047.
1283:Generated_Source\PSoC6\pdl\drivers\peripheral\dma/cy_dma.h **** *
1284:Generated_Source\PSoC6\pdl\drivers\peripheral\dma/cy_dma.h **** * \funcusage 
1285:Generated_Source\PSoC6\pdl\drivers\peripheral\dma/cy_dma.h **** * \snippet dma\2.10\snippet\main.c snippet_Cy_DMA_Descriptor_SetterFunctions
1286:Generated_Source\PSoC6\pdl\drivers\peripheral\dma/cy_dma.h **** *  
1287:Generated_Source\PSoC6\pdl\drivers\peripheral\dma/cy_dma.h **** *******************************************************************************/
1288:Generated_Source\PSoC6\pdl\drivers\peripheral\dma/cy_dma.h **** __STATIC_INLINE void Cy_DMA_Descriptor_SetXloopDstIncrement(cy_stc_dma_descriptor_t * descriptor, i
1289:Generated_Source\PSoC6\pdl\drivers\peripheral\dma/cy_dma.h **** {
1290:Generated_Source\PSoC6\pdl\drivers\peripheral\dma/cy_dma.h ****     CY_ASSERT_L1(CY_DMA_SINGLE_TRANSFER != Cy_DMA_Descriptor_GetDescriptorType(descriptor));
1291:Generated_Source\PSoC6\pdl\drivers\peripheral\dma/cy_dma.h ****     CY_ASSERT_L2(CY_DMA_IS_LOOP_INCR_VALID(dstXincrement));
1292:Generated_Source\PSoC6\pdl\drivers\peripheral\dma/cy_dma.h ****     
1293:Generated_Source\PSoC6\pdl\drivers\peripheral\dma/cy_dma.h ****     CY_REG32_CLR_SET(descriptor->xCtl, CY_DMA_CTL_DST_INCR, dstXincrement);
1294:Generated_Source\PSoC6\pdl\drivers\peripheral\dma/cy_dma.h **** }
1295:Generated_Source\PSoC6\pdl\drivers\peripheral\dma/cy_dma.h **** 
1296:Generated_Source\PSoC6\pdl\drivers\peripheral\dma/cy_dma.h **** 
1297:Generated_Source\PSoC6\pdl\drivers\peripheral\dma/cy_dma.h **** /*******************************************************************************
1298:Generated_Source\PSoC6\pdl\drivers\peripheral\dma/cy_dma.h **** * Function Name: Cy_DMA_Descriptor_GetXloopDstIncrement
1299:Generated_Source\PSoC6\pdl\drivers\peripheral\dma/cy_dma.h **** ****************************************************************************//**
1300:Generated_Source\PSoC6\pdl\drivers\peripheral\dma/cy_dma.h **** *
1301:Generated_Source\PSoC6\pdl\drivers\peripheral\dma/cy_dma.h **** * Returns the destination increment parameter for the X loop of the specified
1302:Generated_Source\PSoC6\pdl\drivers\peripheral\dma/cy_dma.h **** * descriptor (for 1D or 2D descriptors only).
1303:Generated_Source\PSoC6\pdl\drivers\peripheral\dma/cy_dma.h **** *
1304:Generated_Source\PSoC6\pdl\drivers\peripheral\dma/cy_dma.h **** * \param descriptor
1305:Generated_Source\PSoC6\pdl\drivers\peripheral\dma/cy_dma.h **** * The descriptor structure instance declared by the user/component.
1306:Generated_Source\PSoC6\pdl\drivers\peripheral\dma/cy_dma.h **** *
1307:Generated_Source\PSoC6\pdl\drivers\peripheral\dma/cy_dma.h **** * \return
1308:Generated_Source\PSoC6\pdl\drivers\peripheral\dma/cy_dma.h **** * The value of the destination increment. The range is -2048 ... 2047.
1309:Generated_Source\PSoC6\pdl\drivers\peripheral\dma/cy_dma.h **** *
1310:Generated_Source\PSoC6\pdl\drivers\peripheral\dma/cy_dma.h **** * \funcusage 
1311:Generated_Source\PSoC6\pdl\drivers\peripheral\dma/cy_dma.h **** * \snippet dma\2.10\snippet\main.c snippet_Cy_DMA_Descriptor_GetterFunctions
1312:Generated_Source\PSoC6\pdl\drivers\peripheral\dma/cy_dma.h **** *  
1313:Generated_Source\PSoC6\pdl\drivers\peripheral\dma/cy_dma.h **** *******************************************************************************/
1314:Generated_Source\PSoC6\pdl\drivers\peripheral\dma/cy_dma.h **** __STATIC_INLINE int32_t Cy_DMA_Descriptor_GetXloopDstIncrement(cy_stc_dma_descriptor_t const * desc
1315:Generated_Source\PSoC6\pdl\drivers\peripheral\dma/cy_dma.h **** {
1316:Generated_Source\PSoC6\pdl\drivers\peripheral\dma/cy_dma.h ****     CY_ASSERT_L1(CY_DMA_SINGLE_TRANSFER != Cy_DMA_Descriptor_GetDescriptorType(descriptor));
1317:Generated_Source\PSoC6\pdl\drivers\peripheral\dma/cy_dma.h ****     
1318:Generated_Source\PSoC6\pdl\drivers\peripheral\dma/cy_dma.h ****     return ((int32_t) _FLD2VAL(CY_DMA_CTL_DST_INCR, descriptor->xCtl));
1319:Generated_Source\PSoC6\pdl\drivers\peripheral\dma/cy_dma.h **** }
1320:Generated_Source\PSoC6\pdl\drivers\peripheral\dma/cy_dma.h **** 
1321:Generated_Source\PSoC6\pdl\drivers\peripheral\dma/cy_dma.h **** 
1322:Generated_Source\PSoC6\pdl\drivers\peripheral\dma/cy_dma.h **** /*******************************************************************************
1323:Generated_Source\PSoC6\pdl\drivers\peripheral\dma/cy_dma.h **** * Function Name: Cy_DMA_Descriptor_SetYloopDataCount
1324:Generated_Source\PSoC6\pdl\drivers\peripheral\dma/cy_dma.h **** ****************************************************************************//**
1325:Generated_Source\PSoC6\pdl\drivers\peripheral\dma/cy_dma.h **** *
1326:Generated_Source\PSoC6\pdl\drivers\peripheral\dma/cy_dma.h **** * Sets the number of data elements for the Y loop of the specified descriptor
1327:Generated_Source\PSoC6\pdl\drivers\peripheral\dma/cy_dma.h **** * (for 2D descriptors only).
1328:Generated_Source\PSoC6\pdl\drivers\peripheral\dma/cy_dma.h **** *
1329:Generated_Source\PSoC6\pdl\drivers\peripheral\dma/cy_dma.h **** * \param descriptor
1330:Generated_Source\PSoC6\pdl\drivers\peripheral\dma/cy_dma.h **** * The descriptor structure instance declared by the user/component.
1331:Generated_Source\PSoC6\pdl\drivers\peripheral\dma/cy_dma.h **** *
1332:Generated_Source\PSoC6\pdl\drivers\peripheral\dma/cy_dma.h **** * \param yCount
1333:Generated_Source\PSoC6\pdl\drivers\peripheral\dma/cy_dma.h **** * The number of X loops to execute in the Y loop. The valid range is 1 ... 256.
1334:Generated_Source\PSoC6\pdl\drivers\peripheral\dma/cy_dma.h **** *
1335:Generated_Source\PSoC6\pdl\drivers\peripheral\dma/cy_dma.h **** * \funcusage 
1336:Generated_Source\PSoC6\pdl\drivers\peripheral\dma/cy_dma.h **** * \snippet dma\2.10\snippet\main.c snippet_Cy_DMA_Descriptor_SetterFunctions
1337:Generated_Source\PSoC6\pdl\drivers\peripheral\dma/cy_dma.h **** *  
1338:Generated_Source\PSoC6\pdl\drivers\peripheral\dma/cy_dma.h **** *******************************************************************************/
ARM GAS  C:\Users\enes_\AppData\Local\Temp\ccsXGQXN.s 			page 41


1339:Generated_Source\PSoC6\pdl\drivers\peripheral\dma/cy_dma.h **** __STATIC_INLINE void Cy_DMA_Descriptor_SetYloopDataCount(cy_stc_dma_descriptor_t * descriptor, uint
1340:Generated_Source\PSoC6\pdl\drivers\peripheral\dma/cy_dma.h **** {
1341:Generated_Source\PSoC6\pdl\drivers\peripheral\dma/cy_dma.h ****     CY_ASSERT_L1(CY_DMA_2D_TRANSFER == Cy_DMA_Descriptor_GetDescriptorType(descriptor));
1342:Generated_Source\PSoC6\pdl\drivers\peripheral\dma/cy_dma.h ****     CY_ASSERT_L2(CY_DMA_IS_LOOP_COUNT_VALID(yCount));
1343:Generated_Source\PSoC6\pdl\drivers\peripheral\dma/cy_dma.h ****     /* Convert the data count from the user's range (1-256) into the machine range (0-255). */
1344:Generated_Source\PSoC6\pdl\drivers\peripheral\dma/cy_dma.h ****     CY_REG32_CLR_SET(descriptor->yCtl, CY_DMA_CTL_COUNT, yCount - 1UL);
1345:Generated_Source\PSoC6\pdl\drivers\peripheral\dma/cy_dma.h **** }
1346:Generated_Source\PSoC6\pdl\drivers\peripheral\dma/cy_dma.h **** 
1347:Generated_Source\PSoC6\pdl\drivers\peripheral\dma/cy_dma.h **** 
1348:Generated_Source\PSoC6\pdl\drivers\peripheral\dma/cy_dma.h **** /*******************************************************************************
1349:Generated_Source\PSoC6\pdl\drivers\peripheral\dma/cy_dma.h **** * Function Name: Cy_DMA_Descriptor_GetYloopDataCount
1350:Generated_Source\PSoC6\pdl\drivers\peripheral\dma/cy_dma.h **** ****************************************************************************//**
1351:Generated_Source\PSoC6\pdl\drivers\peripheral\dma/cy_dma.h **** *
1352:Generated_Source\PSoC6\pdl\drivers\peripheral\dma/cy_dma.h **** * Returns the number of X loops to execute in the Y loop of the specified
1353:Generated_Source\PSoC6\pdl\drivers\peripheral\dma/cy_dma.h **** * descriptor (for 2D descriptors only).
1354:Generated_Source\PSoC6\pdl\drivers\peripheral\dma/cy_dma.h **** *
1355:Generated_Source\PSoC6\pdl\drivers\peripheral\dma/cy_dma.h **** * \param descriptor
1356:Generated_Source\PSoC6\pdl\drivers\peripheral\dma/cy_dma.h **** * The descriptor structure instance declared by the user/component.
1357:Generated_Source\PSoC6\pdl\drivers\peripheral\dma/cy_dma.h **** *
1358:Generated_Source\PSoC6\pdl\drivers\peripheral\dma/cy_dma.h **** * \return
1359:Generated_Source\PSoC6\pdl\drivers\peripheral\dma/cy_dma.h **** * The number of X loops to execute in the Y loop. The range is 1 ... 256.
1360:Generated_Source\PSoC6\pdl\drivers\peripheral\dma/cy_dma.h **** *
1361:Generated_Source\PSoC6\pdl\drivers\peripheral\dma/cy_dma.h **** * \funcusage 
1362:Generated_Source\PSoC6\pdl\drivers\peripheral\dma/cy_dma.h **** * \snippet dma\2.10\snippet\main.c snippet_Cy_DMA_Descriptor_GetterFunctions
1363:Generated_Source\PSoC6\pdl\drivers\peripheral\dma/cy_dma.h **** *  
1364:Generated_Source\PSoC6\pdl\drivers\peripheral\dma/cy_dma.h **** *******************************************************************************/
1365:Generated_Source\PSoC6\pdl\drivers\peripheral\dma/cy_dma.h **** __STATIC_INLINE uint32_t Cy_DMA_Descriptor_GetYloopDataCount(cy_stc_dma_descriptor_t const * descri
1366:Generated_Source\PSoC6\pdl\drivers\peripheral\dma/cy_dma.h **** {
1367:Generated_Source\PSoC6\pdl\drivers\peripheral\dma/cy_dma.h ****     CY_ASSERT_L1(CY_DMA_2D_TRANSFER == Cy_DMA_Descriptor_GetDescriptorType(descriptor));
1368:Generated_Source\PSoC6\pdl\drivers\peripheral\dma/cy_dma.h ****     /* Convert the data count from the machine range (0-255) into the user's range (1-256). */
1369:Generated_Source\PSoC6\pdl\drivers\peripheral\dma/cy_dma.h ****     return (_FLD2VAL(CY_DMA_CTL_COUNT, descriptor->yCtl) + 1UL);
1370:Generated_Source\PSoC6\pdl\drivers\peripheral\dma/cy_dma.h **** }
1371:Generated_Source\PSoC6\pdl\drivers\peripheral\dma/cy_dma.h **** 
1372:Generated_Source\PSoC6\pdl\drivers\peripheral\dma/cy_dma.h **** 
1373:Generated_Source\PSoC6\pdl\drivers\peripheral\dma/cy_dma.h **** /*******************************************************************************
1374:Generated_Source\PSoC6\pdl\drivers\peripheral\dma/cy_dma.h **** * Function Name: Cy_DMA_Descriptor_SetYloopSrcIncrement
1375:Generated_Source\PSoC6\pdl\drivers\peripheral\dma/cy_dma.h **** ****************************************************************************//**
1376:Generated_Source\PSoC6\pdl\drivers\peripheral\dma/cy_dma.h **** *
1377:Generated_Source\PSoC6\pdl\drivers\peripheral\dma/cy_dma.h **** * Sets the source increment parameter for the Y loop for the specified
1378:Generated_Source\PSoC6\pdl\drivers\peripheral\dma/cy_dma.h **** * descriptor (for 2D descriptors only).
1379:Generated_Source\PSoC6\pdl\drivers\peripheral\dma/cy_dma.h **** *
1380:Generated_Source\PSoC6\pdl\drivers\peripheral\dma/cy_dma.h **** * \param descriptor
1381:Generated_Source\PSoC6\pdl\drivers\peripheral\dma/cy_dma.h **** * The descriptor structure instance declared by the user/component.
1382:Generated_Source\PSoC6\pdl\drivers\peripheral\dma/cy_dma.h **** *
1383:Generated_Source\PSoC6\pdl\drivers\peripheral\dma/cy_dma.h **** * \param srcYincrement
1384:Generated_Source\PSoC6\pdl\drivers\peripheral\dma/cy_dma.h **** * The value of the source increment. The valid range is -2048 ... 2047.
1385:Generated_Source\PSoC6\pdl\drivers\peripheral\dma/cy_dma.h **** *
1386:Generated_Source\PSoC6\pdl\drivers\peripheral\dma/cy_dma.h **** * \funcusage 
1387:Generated_Source\PSoC6\pdl\drivers\peripheral\dma/cy_dma.h **** * \snippet dma\2.10\snippet\main.c snippet_Cy_DMA_Descriptor_SetterFunctions
1388:Generated_Source\PSoC6\pdl\drivers\peripheral\dma/cy_dma.h **** *  
1389:Generated_Source\PSoC6\pdl\drivers\peripheral\dma/cy_dma.h **** *******************************************************************************/
1390:Generated_Source\PSoC6\pdl\drivers\peripheral\dma/cy_dma.h **** __STATIC_INLINE void Cy_DMA_Descriptor_SetYloopSrcIncrement(cy_stc_dma_descriptor_t * descriptor, i
1391:Generated_Source\PSoC6\pdl\drivers\peripheral\dma/cy_dma.h **** {
1392:Generated_Source\PSoC6\pdl\drivers\peripheral\dma/cy_dma.h ****     CY_ASSERT_L1(CY_DMA_2D_TRANSFER == Cy_DMA_Descriptor_GetDescriptorType(descriptor));
1393:Generated_Source\PSoC6\pdl\drivers\peripheral\dma/cy_dma.h ****     CY_ASSERT_L2(CY_DMA_IS_LOOP_INCR_VALID(srcYincrement));
1394:Generated_Source\PSoC6\pdl\drivers\peripheral\dma/cy_dma.h ****     
1395:Generated_Source\PSoC6\pdl\drivers\peripheral\dma/cy_dma.h ****     CY_REG32_CLR_SET(descriptor->yCtl, CY_DMA_CTL_SRC_INCR, srcYincrement);
ARM GAS  C:\Users\enes_\AppData\Local\Temp\ccsXGQXN.s 			page 42


1396:Generated_Source\PSoC6\pdl\drivers\peripheral\dma/cy_dma.h **** }
1397:Generated_Source\PSoC6\pdl\drivers\peripheral\dma/cy_dma.h **** 
1398:Generated_Source\PSoC6\pdl\drivers\peripheral\dma/cy_dma.h **** 
1399:Generated_Source\PSoC6\pdl\drivers\peripheral\dma/cy_dma.h **** /*******************************************************************************
1400:Generated_Source\PSoC6\pdl\drivers\peripheral\dma/cy_dma.h **** * Function Name: Cy_DMA_Descriptor_GetYloopSrcIncrement
1401:Generated_Source\PSoC6\pdl\drivers\peripheral\dma/cy_dma.h **** ****************************************************************************//**
1402:Generated_Source\PSoC6\pdl\drivers\peripheral\dma/cy_dma.h **** *
1403:Generated_Source\PSoC6\pdl\drivers\peripheral\dma/cy_dma.h **** * Returns the source increment parameter for the outer Y of the specified
1404:Generated_Source\PSoC6\pdl\drivers\peripheral\dma/cy_dma.h **** * descriptor (for 2D descriptors only).
1405:Generated_Source\PSoC6\pdl\drivers\peripheral\dma/cy_dma.h **** *
1406:Generated_Source\PSoC6\pdl\drivers\peripheral\dma/cy_dma.h **** * \param descriptor
1407:Generated_Source\PSoC6\pdl\drivers\peripheral\dma/cy_dma.h **** * The descriptor structure instance declared by the user/component.
1408:Generated_Source\PSoC6\pdl\drivers\peripheral\dma/cy_dma.h **** *
1409:Generated_Source\PSoC6\pdl\drivers\peripheral\dma/cy_dma.h **** * \return
1410:Generated_Source\PSoC6\pdl\drivers\peripheral\dma/cy_dma.h **** * The value of the source increment. The range is -2048 ... 2047.
1411:Generated_Source\PSoC6\pdl\drivers\peripheral\dma/cy_dma.h **** *
1412:Generated_Source\PSoC6\pdl\drivers\peripheral\dma/cy_dma.h **** * \funcusage 
1413:Generated_Source\PSoC6\pdl\drivers\peripheral\dma/cy_dma.h **** * \snippet dma\2.10\snippet\main.c snippet_Cy_DMA_Descriptor_GetterFunctions
1414:Generated_Source\PSoC6\pdl\drivers\peripheral\dma/cy_dma.h **** *  
1415:Generated_Source\PSoC6\pdl\drivers\peripheral\dma/cy_dma.h **** *******************************************************************************/
1416:Generated_Source\PSoC6\pdl\drivers\peripheral\dma/cy_dma.h **** __STATIC_INLINE int32_t Cy_DMA_Descriptor_GetYloopSrcIncrement(cy_stc_dma_descriptor_t const * desc
1417:Generated_Source\PSoC6\pdl\drivers\peripheral\dma/cy_dma.h **** {
1418:Generated_Source\PSoC6\pdl\drivers\peripheral\dma/cy_dma.h ****     CY_ASSERT_L1(CY_DMA_2D_TRANSFER == Cy_DMA_Descriptor_GetDescriptorType(descriptor));
1419:Generated_Source\PSoC6\pdl\drivers\peripheral\dma/cy_dma.h ****     
1420:Generated_Source\PSoC6\pdl\drivers\peripheral\dma/cy_dma.h ****     return ((int32_t) _FLD2VAL(CY_DMA_CTL_SRC_INCR, descriptor->yCtl));
1421:Generated_Source\PSoC6\pdl\drivers\peripheral\dma/cy_dma.h **** }
1422:Generated_Source\PSoC6\pdl\drivers\peripheral\dma/cy_dma.h **** 
1423:Generated_Source\PSoC6\pdl\drivers\peripheral\dma/cy_dma.h **** 
1424:Generated_Source\PSoC6\pdl\drivers\peripheral\dma/cy_dma.h **** /*******************************************************************************
1425:Generated_Source\PSoC6\pdl\drivers\peripheral\dma/cy_dma.h **** * Function Name: Cy_DMA_Descriptor_SetYloopDstIncrement
1426:Generated_Source\PSoC6\pdl\drivers\peripheral\dma/cy_dma.h **** ****************************************************************************//**
1427:Generated_Source\PSoC6\pdl\drivers\peripheral\dma/cy_dma.h **** *
1428:Generated_Source\PSoC6\pdl\drivers\peripheral\dma/cy_dma.h **** * Sets the destination increment parameter for the Y loop of the specified
1429:Generated_Source\PSoC6\pdl\drivers\peripheral\dma/cy_dma.h **** * descriptor (for 2D descriptors only).
1430:Generated_Source\PSoC6\pdl\drivers\peripheral\dma/cy_dma.h **** *
1431:Generated_Source\PSoC6\pdl\drivers\peripheral\dma/cy_dma.h **** * \param descriptor
1432:Generated_Source\PSoC6\pdl\drivers\peripheral\dma/cy_dma.h **** * The descriptor structure instance declared by the user/component.
1433:Generated_Source\PSoC6\pdl\drivers\peripheral\dma/cy_dma.h **** *
1434:Generated_Source\PSoC6\pdl\drivers\peripheral\dma/cy_dma.h **** * \param dstYincrement
1435:Generated_Source\PSoC6\pdl\drivers\peripheral\dma/cy_dma.h **** * The value of the destination increment. The valid range is -2048 ... 2047.
1436:Generated_Source\PSoC6\pdl\drivers\peripheral\dma/cy_dma.h **** *
1437:Generated_Source\PSoC6\pdl\drivers\peripheral\dma/cy_dma.h **** * \funcusage 
1438:Generated_Source\PSoC6\pdl\drivers\peripheral\dma/cy_dma.h **** * \snippet dma\2.10\snippet\main.c snippet_Cy_DMA_Descriptor_SetterFunctions
1439:Generated_Source\PSoC6\pdl\drivers\peripheral\dma/cy_dma.h **** *
1440:Generated_Source\PSoC6\pdl\drivers\peripheral\dma/cy_dma.h **** *******************************************************************************/
1441:Generated_Source\PSoC6\pdl\drivers\peripheral\dma/cy_dma.h **** __STATIC_INLINE void Cy_DMA_Descriptor_SetYloopDstIncrement(cy_stc_dma_descriptor_t * descriptor, i
1442:Generated_Source\PSoC6\pdl\drivers\peripheral\dma/cy_dma.h **** {
1443:Generated_Source\PSoC6\pdl\drivers\peripheral\dma/cy_dma.h ****     CY_ASSERT_L1(CY_DMA_2D_TRANSFER == Cy_DMA_Descriptor_GetDescriptorType(descriptor));
1444:Generated_Source\PSoC6\pdl\drivers\peripheral\dma/cy_dma.h ****     CY_ASSERT_L2(CY_DMA_IS_LOOP_INCR_VALID(dstYincrement));
1445:Generated_Source\PSoC6\pdl\drivers\peripheral\dma/cy_dma.h ****     
1446:Generated_Source\PSoC6\pdl\drivers\peripheral\dma/cy_dma.h ****     CY_REG32_CLR_SET(descriptor->yCtl, CY_DMA_CTL_DST_INCR, dstYincrement);
1447:Generated_Source\PSoC6\pdl\drivers\peripheral\dma/cy_dma.h **** }
1448:Generated_Source\PSoC6\pdl\drivers\peripheral\dma/cy_dma.h **** 
1449:Generated_Source\PSoC6\pdl\drivers\peripheral\dma/cy_dma.h **** 
1450:Generated_Source\PSoC6\pdl\drivers\peripheral\dma/cy_dma.h **** /*******************************************************************************
1451:Generated_Source\PSoC6\pdl\drivers\peripheral\dma/cy_dma.h **** * Function Name: Cy_DMA_Descriptor_GetYloopDstIncrement
1452:Generated_Source\PSoC6\pdl\drivers\peripheral\dma/cy_dma.h **** ****************************************************************************//**
ARM GAS  C:\Users\enes_\AppData\Local\Temp\ccsXGQXN.s 			page 43


1453:Generated_Source\PSoC6\pdl\drivers\peripheral\dma/cy_dma.h **** *
1454:Generated_Source\PSoC6\pdl\drivers\peripheral\dma/cy_dma.h **** * Returns the destination increment parameter for the Y loop of the specified
1455:Generated_Source\PSoC6\pdl\drivers\peripheral\dma/cy_dma.h **** * descriptor (for 2D descriptors only). 
1456:Generated_Source\PSoC6\pdl\drivers\peripheral\dma/cy_dma.h **** *
1457:Generated_Source\PSoC6\pdl\drivers\peripheral\dma/cy_dma.h **** * \param descriptor
1458:Generated_Source\PSoC6\pdl\drivers\peripheral\dma/cy_dma.h **** * The descriptor structure instance declared by the user/component.
1459:Generated_Source\PSoC6\pdl\drivers\peripheral\dma/cy_dma.h **** *
1460:Generated_Source\PSoC6\pdl\drivers\peripheral\dma/cy_dma.h **** * \return
1461:Generated_Source\PSoC6\pdl\drivers\peripheral\dma/cy_dma.h **** * The value of the destination increment. The range is -2048 ... 2047.
1462:Generated_Source\PSoC6\pdl\drivers\peripheral\dma/cy_dma.h **** *
1463:Generated_Source\PSoC6\pdl\drivers\peripheral\dma/cy_dma.h **** * \funcusage 
1464:Generated_Source\PSoC6\pdl\drivers\peripheral\dma/cy_dma.h **** * \snippet dma\2.10\snippet\main.c snippet_Cy_DMA_Descriptor_GetterFunctions
1465:Generated_Source\PSoC6\pdl\drivers\peripheral\dma/cy_dma.h **** *  
1466:Generated_Source\PSoC6\pdl\drivers\peripheral\dma/cy_dma.h **** *******************************************************************************/
1467:Generated_Source\PSoC6\pdl\drivers\peripheral\dma/cy_dma.h **** __STATIC_INLINE int32_t Cy_DMA_Descriptor_GetYloopDstIncrement(cy_stc_dma_descriptor_t const * desc
1468:Generated_Source\PSoC6\pdl\drivers\peripheral\dma/cy_dma.h **** {
1469:Generated_Source\PSoC6\pdl\drivers\peripheral\dma/cy_dma.h ****     CY_ASSERT_L1(CY_DMA_2D_TRANSFER == Cy_DMA_Descriptor_GetDescriptorType(descriptor));
1470:Generated_Source\PSoC6\pdl\drivers\peripheral\dma/cy_dma.h ****     
1471:Generated_Source\PSoC6\pdl\drivers\peripheral\dma/cy_dma.h ****     return ((int32_t) _FLD2VAL(CY_DMA_CTL_DST_INCR, descriptor->yCtl));
1472:Generated_Source\PSoC6\pdl\drivers\peripheral\dma/cy_dma.h **** }
1473:Generated_Source\PSoC6\pdl\drivers\peripheral\dma/cy_dma.h **** 
1474:Generated_Source\PSoC6\pdl\drivers\peripheral\dma/cy_dma.h **** 
1475:Generated_Source\PSoC6\pdl\drivers\peripheral\dma/cy_dma.h **** /** \} group_dma_descriptor_functions */
1476:Generated_Source\PSoC6\pdl\drivers\peripheral\dma/cy_dma.h **** 
1477:Generated_Source\PSoC6\pdl\drivers\peripheral\dma/cy_dma.h **** 
1478:Generated_Source\PSoC6\pdl\drivers\peripheral\dma/cy_dma.h **** /**
1479:Generated_Source\PSoC6\pdl\drivers\peripheral\dma/cy_dma.h **** * \addtogroup group_dma_channel_functions
1480:Generated_Source\PSoC6\pdl\drivers\peripheral\dma/cy_dma.h **** * \{
1481:Generated_Source\PSoC6\pdl\drivers\peripheral\dma/cy_dma.h **** */
1482:Generated_Source\PSoC6\pdl\drivers\peripheral\dma/cy_dma.h **** 
1483:Generated_Source\PSoC6\pdl\drivers\peripheral\dma/cy_dma.h **** 
1484:Generated_Source\PSoC6\pdl\drivers\peripheral\dma/cy_dma.h **** /*******************************************************************************
1485:Generated_Source\PSoC6\pdl\drivers\peripheral\dma/cy_dma.h **** * Function Name: Cy_DMA_Channel_SetDescriptor
1486:Generated_Source\PSoC6\pdl\drivers\peripheral\dma/cy_dma.h **** ****************************************************************************//**
1487:Generated_Source\PSoC6\pdl\drivers\peripheral\dma/cy_dma.h **** *
1488:Generated_Source\PSoC6\pdl\drivers\peripheral\dma/cy_dma.h **** * Sets a descriptor as current for the specified DMA channel.
1489:Generated_Source\PSoC6\pdl\drivers\peripheral\dma/cy_dma.h **** *
1490:Generated_Source\PSoC6\pdl\drivers\peripheral\dma/cy_dma.h **** * \param base
1491:Generated_Source\PSoC6\pdl\drivers\peripheral\dma/cy_dma.h **** * The pointer to the hardware DMA block.
1492:Generated_Source\PSoC6\pdl\drivers\peripheral\dma/cy_dma.h **** *
1493:Generated_Source\PSoC6\pdl\drivers\peripheral\dma/cy_dma.h **** * \param channel
1494:Generated_Source\PSoC6\pdl\drivers\peripheral\dma/cy_dma.h **** * The channel number.
1495:Generated_Source\PSoC6\pdl\drivers\peripheral\dma/cy_dma.h **** *
1496:Generated_Source\PSoC6\pdl\drivers\peripheral\dma/cy_dma.h **** * \param descriptor
1497:Generated_Source\PSoC6\pdl\drivers\peripheral\dma/cy_dma.h **** * This is the descriptor to be associated with the channel.
1498:Generated_Source\PSoC6\pdl\drivers\peripheral\dma/cy_dma.h **** *
1499:Generated_Source\PSoC6\pdl\drivers\peripheral\dma/cy_dma.h **** * \funcusage 
1500:Generated_Source\PSoC6\pdl\drivers\peripheral\dma/cy_dma.h **** * \snippet dma\2.10\snippet\main.c snippet_Cy_DMA_Enable
1501:Generated_Source\PSoC6\pdl\drivers\peripheral\dma/cy_dma.h **** *
1502:Generated_Source\PSoC6\pdl\drivers\peripheral\dma/cy_dma.h **** *******************************************************************************/
1503:Generated_Source\PSoC6\pdl\drivers\peripheral\dma/cy_dma.h **** __STATIC_INLINE void Cy_DMA_Channel_SetDescriptor(DW_Type * base, uint32_t channel, cy_stc_dma_desc
1504:Generated_Source\PSoC6\pdl\drivers\peripheral\dma/cy_dma.h **** {
1505:Generated_Source\PSoC6\pdl\drivers\peripheral\dma/cy_dma.h ****     CY_ASSERT_L1(CY_DMA_IS_CH_NR_VALID(channel));
 671              		.loc 2 1505 0
 672 0034 284B     		ldr	r3, .L64
 673 0036 1B68     		ldr	r3, [r3]
 674 0038 93F83330 		ldrb	r3, [r3, #51]	@ zero_extendqisi2
ARM GAS  C:\Users\enes_\AppData\Local\Temp\ccsXGQXN.s 			page 44


 675 003c 9D42     		cmp	r5, r3
 676 003e 04D3     		bcc	.L52
 677 0040 40F2E151 		movw	r1, #1505
 678 0044 2648     		ldr	r0, .L64+8
 679 0046 FFF7FEFF 		bl	Cy_SysLib_AssertFailed
 680              	.LVL55:
 681              	.L52:
1506:Generated_Source\PSoC6\pdl\drivers\peripheral\dma/cy_dma.h ****     
1507:Generated_Source\PSoC6\pdl\drivers\peripheral\dma/cy_dma.h ****     DW_CH_CURR_PTR(base, channel) = (uint32_t)descriptor;
 682              		.loc 2 1507 0
 683 004a 234B     		ldr	r3, .L64
 684 004c 1A68     		ldr	r2, [r3]
 685 004e B2F85A30 		ldrh	r3, [r2, #90]
 686 0052 9919     		adds	r1, r3, r6
 687 0054 B2F85C30 		ldrh	r3, [r2, #92]
 688 0058 05FB0313 		mla	r3, r5, r3, r1
 689 005c DF60     		str	r7, [r3, #12]
1508:Generated_Source\PSoC6\pdl\drivers\peripheral\dma/cy_dma.h ****     DW_CH_IDX(base, channel) &= (uint32_t) ~(DW_CH_STRUCT_CH_IDX_X_IDX_Msk | DW_CH_STRUCT_CH_IDX_Y_
 690              		.loc 2 1508 0
 691 005e B2F85A10 		ldrh	r1, [r2, #90]
 692 0062 B2F85C30 		ldrh	r3, [r2, #92]
 693 0066 3144     		add	r1, r1, r6
 694 0068 05FB0311 		mla	r1, r5, r3, r1
 695 006c 8B68     		ldr	r3, [r1, #8]
 696 006e 1B0C     		lsrs	r3, r3, #16
 697 0070 1B04     		lsls	r3, r3, #16
 698 0072 8B60     		str	r3, [r1, #8]
 699              	.LVL56:
 700              	.LBE8:
 701              	.LBE7:
 243:Generated_Source\PSoC6\pdl\drivers\peripheral\dma/cy_dma.c **** 
 244:Generated_Source\PSoC6\pdl\drivers\peripheral\dma/cy_dma.c ****         /* Set the channel configuration */
 245:Generated_Source\PSoC6\pdl\drivers\peripheral\dma/cy_dma.c ****         DW_CH_CTL(base, channel) =
 702              		.loc 1 245 0
 703 0074 B2F85A30 		ldrh	r3, [r2, #90]
 704 0078 1E44     		add	r6, r6, r3
 705              	.LVL57:
 706 007a B2F85C10 		ldrh	r1, [r2, #92]
 707 007e 05FB01F1 		mul	r1, r5, r1
 246:Generated_Source\PSoC6\pdl\drivers\peripheral\dma/cy_dma.c ****             _BOOL2FLD(CY_DW_CH_CTL_PREEMPTABLE,    channelConfig->preemptable) |
 708              		.loc 1 246 0
 709 0082 2379     		ldrb	r3, [r4, #4]	@ zero_extendqisi2
 710 0084 2BB1     		cbz	r3, .L60
 711              		.loc 1 246 0 is_stmt 0 discriminator 1
 712 0086 92F85F70 		ldrb	r7, [r2, #95]	@ zero_extendqisi2
 713 008a 0123     		movs	r3, #1
 714 008c 03FA07F7 		lsl	r7, r3, r7
 715 0090 00E0     		b	.L53
 716              	.L60:
 717              		.loc 1 246 0
 718 0092 0027     		movs	r7, #0
 719              	.L53:
 247:Generated_Source\PSoC6\pdl\drivers\peripheral\dma/cy_dma.c ****              _VAL2FLD(CY_DW_CH_CTL_PRIO,           channelConfig->priority)    |
 720              		.loc 1 247 0 is_stmt 1
 721 0094 A068     		ldr	r0, [r4, #8]
 722 0096 92F85E50 		ldrb	r5, [r2, #94]	@ zero_extendqisi2
 723              	.LVL58:
ARM GAS  C:\Users\enes_\AppData\Local\Temp\ccsXGQXN.s 			page 45


 724 009a A840     		lsls	r0, r0, r5
 725 009c 0322     		movs	r2, #3
 726 009e AA40     		lsls	r2, r2, r5
 727 00a0 00EA0203 		and	r3, r0, r2
 246:Generated_Source\PSoC6\pdl\drivers\peripheral\dma/cy_dma.c ****             _BOOL2FLD(CY_DW_CH_CTL_PREEMPTABLE,    channelConfig->preemptable) |
 728              		.loc 1 246 0
 729 00a4 3B43     		orrs	r3, r3, r7
 248:Generated_Source\PSoC6\pdl\drivers\peripheral\dma/cy_dma.c ****             _BOOL2FLD(DW_CH_STRUCT_CH_CTL_ENABLED, channelConfig->enable)      |
 730              		.loc 1 248 0
 731 00a6 227B     		ldrb	r2, [r4, #12]	@ zero_extendqisi2
 732 00a8 12B1     		cbz	r2, .L61
 733 00aa 4FF00042 		mov	r2, #-2147483648
 734 00ae 00E0     		b	.L54
 735              	.L61:
 736 00b0 0022     		movs	r2, #0
 737              	.L54:
 247:Generated_Source\PSoC6\pdl\drivers\peripheral\dma/cy_dma.c ****              _VAL2FLD(CY_DW_CH_CTL_PRIO,           channelConfig->priority)    |
 738              		.loc 1 247 0
 739 00b2 1343     		orrs	r3, r3, r2
 249:Generated_Source\PSoC6\pdl\drivers\peripheral\dma/cy_dma.c ****             _BOOL2FLD(DW_CH_STRUCT_CH_CTL_B,       channelConfig->bufferable);
 740              		.loc 1 249 0
 741 00b4 627B     		ldrb	r2, [r4, #13]	@ zero_extendqisi2
 742 00b6 0AB1     		cbz	r2, .L62
 743 00b8 0422     		movs	r2, #4
 744 00ba 00E0     		b	.L55
 745              	.L62:
 746 00bc 0022     		movs	r2, #0
 747              	.L55:
 248:Generated_Source\PSoC6\pdl\drivers\peripheral\dma/cy_dma.c ****             _BOOL2FLD(DW_CH_STRUCT_CH_CTL_ENABLED, channelConfig->enable)      |
 748              		.loc 1 248 0
 749 00be 1343     		orrs	r3, r3, r2
 245:Generated_Source\PSoC6\pdl\drivers\peripheral\dma/cy_dma.c ****             _BOOL2FLD(CY_DW_CH_CTL_PREEMPTABLE,    channelConfig->preemptable) |
 750              		.loc 1 245 0
 751 00c0 7350     		str	r3, [r6, r1]
 752              	.LVL59:
 250:Generated_Source\PSoC6\pdl\drivers\peripheral\dma/cy_dma.c ****         ret = CY_DMA_SUCCESS;
 753              		.loc 1 250 0
 754 00c2 0020     		movs	r0, #0
 755 00c4 F8BD     		pop	{r3, r4, r5, r6, r7, pc}
 756              	.LVL60:
 757              	.L56:
 758              		.cfi_def_cfa_offset 0
 759              		.cfi_restore 3
 760              		.cfi_restore 4
 761              		.cfi_restore 5
 762              		.cfi_restore 6
 763              		.cfi_restore 7
 764              		.cfi_restore 14
 232:Generated_Source\PSoC6\pdl\drivers\peripheral\dma/cy_dma.c **** 
 765              		.loc 1 232 0
 766 00c6 0748     		ldr	r0, .L64+12
 767              	.LVL61:
 251:Generated_Source\PSoC6\pdl\drivers\peripheral\dma/cy_dma.c ****     }
 252:Generated_Source\PSoC6\pdl\drivers\peripheral\dma/cy_dma.c **** 
 253:Generated_Source\PSoC6\pdl\drivers\peripheral\dma/cy_dma.c ****     return (ret);
 254:Generated_Source\PSoC6\pdl\drivers\peripheral\dma/cy_dma.c **** }
 768              		.loc 1 254 0
ARM GAS  C:\Users\enes_\AppData\Local\Temp\ccsXGQXN.s 			page 46


 769 00c8 7047     		bx	lr
 770              	.LVL62:
 771              	.L57:
 772              		.cfi_def_cfa_offset 24
 773              		.cfi_offset 3, -24
 774              		.cfi_offset 4, -20
 775              		.cfi_offset 5, -16
 776              		.cfi_offset 6, -12
 777              		.cfi_offset 7, -8
 778              		.cfi_offset 14, -4
 232:Generated_Source\PSoC6\pdl\drivers\peripheral\dma/cy_dma.c **** 
 779              		.loc 1 232 0
 780 00ca 0648     		ldr	r0, .L64+12
 781              	.LVL63:
 782 00cc F8BD     		pop	{r3, r4, r5, r6, r7, pc}
 783              	.LVL64:
 784              	.L58:
 785 00ce 0548     		ldr	r0, .L64+12
 786 00d0 F8BD     		pop	{r3, r4, r5, r6, r7, pc}
 787              	.LVL65:
 788              	.L59:
 789 00d2 0448     		ldr	r0, .L64+12
 790              	.LVL66:
 791              		.loc 1 254 0
 792 00d4 F8BD     		pop	{r3, r4, r5, r6, r7, pc}
 793              	.LVL67:
 794              	.L65:
 795 00d6 00BF     		.align	2
 796              	.L64:
 797 00d8 00000000 		.word	cy_device
 798 00dc 00000000 		.word	.LC0
 799 00e0 3C000000 		.word	.LC1
 800 00e4 01004E00 		.word	5111809
 801              		.cfi_endproc
 802              	.LFE186:
 803              		.size	Cy_DMA_Channel_Init, .-Cy_DMA_Channel_Init
 804              		.section	.text.Cy_DMA_Channel_DeInit,"ax",%progbits
 805              		.align	2
 806              		.global	Cy_DMA_Channel_DeInit
 807              		.thumb
 808              		.thumb_func
 809              		.type	Cy_DMA_Channel_DeInit, %function
 810              	Cy_DMA_Channel_DeInit:
 811              	.LFB187:
 255:Generated_Source\PSoC6\pdl\drivers\peripheral\dma/cy_dma.c **** 
 256:Generated_Source\PSoC6\pdl\drivers\peripheral\dma/cy_dma.c **** 
 257:Generated_Source\PSoC6\pdl\drivers\peripheral\dma/cy_dma.c **** /*******************************************************************************
 258:Generated_Source\PSoC6\pdl\drivers\peripheral\dma/cy_dma.c **** * Function Name: Cy_DMA_Channel_DeInit
 259:Generated_Source\PSoC6\pdl\drivers\peripheral\dma/cy_dma.c **** ****************************************************************************//**
 260:Generated_Source\PSoC6\pdl\drivers\peripheral\dma/cy_dma.c **** *
 261:Generated_Source\PSoC6\pdl\drivers\peripheral\dma/cy_dma.c **** * Clears the content of registers corresponding to the channel.
 262:Generated_Source\PSoC6\pdl\drivers\peripheral\dma/cy_dma.c **** *
 263:Generated_Source\PSoC6\pdl\drivers\peripheral\dma/cy_dma.c **** * \param base
 264:Generated_Source\PSoC6\pdl\drivers\peripheral\dma/cy_dma.c **** * The pointer to the hardware DMA block.
 265:Generated_Source\PSoC6\pdl\drivers\peripheral\dma/cy_dma.c **** *
 266:Generated_Source\PSoC6\pdl\drivers\peripheral\dma/cy_dma.c **** * \param channel
 267:Generated_Source\PSoC6\pdl\drivers\peripheral\dma/cy_dma.c **** * A channel number.
ARM GAS  C:\Users\enes_\AppData\Local\Temp\ccsXGQXN.s 			page 47


 268:Generated_Source\PSoC6\pdl\drivers\peripheral\dma/cy_dma.c **** *
 269:Generated_Source\PSoC6\pdl\drivers\peripheral\dma/cy_dma.c **** * \funcusage 
 270:Generated_Source\PSoC6\pdl\drivers\peripheral\dma/cy_dma.c **** * \snippet dma\2.10\snippet\main.c snippet_Cy_DMA_Disable
 271:Generated_Source\PSoC6\pdl\drivers\peripheral\dma/cy_dma.c **** *
 272:Generated_Source\PSoC6\pdl\drivers\peripheral\dma/cy_dma.c **** *******************************************************************************/
 273:Generated_Source\PSoC6\pdl\drivers\peripheral\dma/cy_dma.c **** void Cy_DMA_Channel_DeInit(DW_Type * base, uint32_t channel)
 274:Generated_Source\PSoC6\pdl\drivers\peripheral\dma/cy_dma.c **** {
 812              		.loc 1 274 0
 813              		.cfi_startproc
 814              		@ args = 0, pretend = 0, frame = 0
 815              		@ frame_needed = 0, uses_anonymous_args = 0
 816              	.LVL68:
 817 0000 38B5     		push	{r3, r4, r5, lr}
 818              		.cfi_def_cfa_offset 16
 819              		.cfi_offset 3, -16
 820              		.cfi_offset 4, -12
 821              		.cfi_offset 5, -8
 822              		.cfi_offset 14, -4
 823 0002 0446     		mov	r4, r0
 824 0004 0D46     		mov	r5, r1
 275:Generated_Source\PSoC6\pdl\drivers\peripheral\dma/cy_dma.c ****     CY_ASSERT_L1(CY_DMA_IS_CH_NR_VALID(channel));
 825              		.loc 1 275 0
 826 0006 184B     		ldr	r3, .L69
 827 0008 1B68     		ldr	r3, [r3]
 828 000a 93F83330 		ldrb	r3, [r3, #51]	@ zero_extendqisi2
 829 000e 8B42     		cmp	r3, r1
 830 0010 04D8     		bhi	.L67
 831              		.loc 1 275 0 is_stmt 0 discriminator 1
 832 0012 40F21311 		movw	r1, #275
 833              	.LVL69:
 834 0016 1548     		ldr	r0, .L69+4
 835              	.LVL70:
 836 0018 FFF7FEFF 		bl	Cy_SysLib_AssertFailed
 837              	.LVL71:
 838              	.L67:
 276:Generated_Source\PSoC6\pdl\drivers\peripheral\dma/cy_dma.c ****     
 277:Generated_Source\PSoC6\pdl\drivers\peripheral\dma/cy_dma.c ****     DW_CH_CTL(base, channel) = 0UL;
 839              		.loc 1 277 0 is_stmt 1
 840 001c 1248     		ldr	r0, .L69
 841 001e 0368     		ldr	r3, [r0]
 842 0020 B3F85A10 		ldrh	r1, [r3, #90]
 843 0024 2144     		add	r1, r1, r4
 844 0026 B3F85C30 		ldrh	r3, [r3, #92]
 845 002a 05FB03F3 		mul	r3, r5, r3
 846 002e 0022     		movs	r2, #0
 847 0030 CA50     		str	r2, [r1, r3]
 278:Generated_Source\PSoC6\pdl\drivers\peripheral\dma/cy_dma.c ****     DW_CH_IDX(base, channel) = 0UL;
 848              		.loc 1 278 0
 849 0032 0368     		ldr	r3, [r0]
 850 0034 B3F85A10 		ldrh	r1, [r3, #90]
 851 0038 0819     		adds	r0, r1, r4
 852 003a B3F85C10 		ldrh	r1, [r3, #92]
 853 003e 05FB0101 		mla	r1, r5, r1, r0
 854 0042 8A60     		str	r2, [r1, #8]
 279:Generated_Source\PSoC6\pdl\drivers\peripheral\dma/cy_dma.c ****     DW_CH_CURR_PTR(base, channel) = 0UL;
 855              		.loc 1 279 0
 856 0044 B3F85A10 		ldrh	r1, [r3, #90]
ARM GAS  C:\Users\enes_\AppData\Local\Temp\ccsXGQXN.s 			page 48


 857 0048 0819     		adds	r0, r1, r4
 858 004a B3F85C10 		ldrh	r1, [r3, #92]
 859 004e 05FB0101 		mla	r1, r5, r1, r0
 860 0052 CA60     		str	r2, [r1, #12]
 280:Generated_Source\PSoC6\pdl\drivers\peripheral\dma/cy_dma.c ****     DW_CH_INTR_MASK(base, channel) = 0UL;
 861              		.loc 1 280 0
 862 0054 B3F85A10 		ldrh	r1, [r3, #90]
 863 0058 0C44     		add	r4, r4, r1
 864              	.LVL72:
 865 005a B3F85C30 		ldrh	r3, [r3, #92]
 866 005e 05FB0344 		mla	r4, r5, r3, r4
 867 0062 A261     		str	r2, [r4, #24]
 868 0064 38BD     		pop	{r3, r4, r5, pc}
 869              	.LVL73:
 870              	.L70:
 871 0066 00BF     		.align	2
 872              	.L69:
 873 0068 00000000 		.word	cy_device
 874 006c 00000000 		.word	.LC0
 875              		.cfi_endproc
 876              	.LFE187:
 877              		.size	Cy_DMA_Channel_DeInit, .-Cy_DMA_Channel_DeInit
 878              		.section	.text.Cy_DMA_Descriptor_SetNextDescriptor,"ax",%progbits
 879              		.align	2
 880              		.global	Cy_DMA_Descriptor_SetNextDescriptor
 881              		.thumb
 882              		.thumb_func
 883              		.type	Cy_DMA_Descriptor_SetNextDescriptor, %function
 884              	Cy_DMA_Descriptor_SetNextDescriptor:
 885              	.LFB188:
 281:Generated_Source\PSoC6\pdl\drivers\peripheral\dma/cy_dma.c **** }
 282:Generated_Source\PSoC6\pdl\drivers\peripheral\dma/cy_dma.c **** 
 283:Generated_Source\PSoC6\pdl\drivers\peripheral\dma/cy_dma.c **** 
 284:Generated_Source\PSoC6\pdl\drivers\peripheral\dma/cy_dma.c **** /*******************************************************************************
 285:Generated_Source\PSoC6\pdl\drivers\peripheral\dma/cy_dma.c **** * Function Name: Cy_DMA_Descriptor_SetNextDescriptor
 286:Generated_Source\PSoC6\pdl\drivers\peripheral\dma/cy_dma.c **** ****************************************************************************//**
 287:Generated_Source\PSoC6\pdl\drivers\peripheral\dma/cy_dma.c **** *
 288:Generated_Source\PSoC6\pdl\drivers\peripheral\dma/cy_dma.c **** * Sets a Next Descriptor for the specified descriptor.
 289:Generated_Source\PSoC6\pdl\drivers\peripheral\dma/cy_dma.c **** *
 290:Generated_Source\PSoC6\pdl\drivers\peripheral\dma/cy_dma.c **** * Based on the descriptor type, the offset of the address for the next descriptor may
 291:Generated_Source\PSoC6\pdl\drivers\peripheral\dma/cy_dma.c **** * vary. For the single-transfer descriptor type, this register is at offset 0x0c.
 292:Generated_Source\PSoC6\pdl\drivers\peripheral\dma/cy_dma.c **** * For the 1D-transfer descriptor type, this register is at offset 0x10. 
 293:Generated_Source\PSoC6\pdl\drivers\peripheral\dma/cy_dma.c **** * For the 2D-transfer descriptor type, this register is at offset 0x14.  
 294:Generated_Source\PSoC6\pdl\drivers\peripheral\dma/cy_dma.c **** *
 295:Generated_Source\PSoC6\pdl\drivers\peripheral\dma/cy_dma.c **** * \param descriptor
 296:Generated_Source\PSoC6\pdl\drivers\peripheral\dma/cy_dma.c **** * The descriptor structure instance declared by the user/component.
 297:Generated_Source\PSoC6\pdl\drivers\peripheral\dma/cy_dma.c **** *
 298:Generated_Source\PSoC6\pdl\drivers\peripheral\dma/cy_dma.c **** * \param nextDescriptor
 299:Generated_Source\PSoC6\pdl\drivers\peripheral\dma/cy_dma.c **** * The pointer to the next descriptor.
 300:Generated_Source\PSoC6\pdl\drivers\peripheral\dma/cy_dma.c **** *
 301:Generated_Source\PSoC6\pdl\drivers\peripheral\dma/cy_dma.c **** * \funcusage 
 302:Generated_Source\PSoC6\pdl\drivers\peripheral\dma/cy_dma.c **** * \snippet dma\2.10\snippet\main.c snippet_Cy_DMA_Descriptor_SetterFunctions
 303:Generated_Source\PSoC6\pdl\drivers\peripheral\dma/cy_dma.c **** *
 304:Generated_Source\PSoC6\pdl\drivers\peripheral\dma/cy_dma.c **** *******************************************************************************/
 305:Generated_Source\PSoC6\pdl\drivers\peripheral\dma/cy_dma.c **** void Cy_DMA_Descriptor_SetNextDescriptor(cy_stc_dma_descriptor_t * descriptor, cy_stc_dma_descripto
 306:Generated_Source\PSoC6\pdl\drivers\peripheral\dma/cy_dma.c **** {   
 886              		.loc 1 306 0
ARM GAS  C:\Users\enes_\AppData\Local\Temp\ccsXGQXN.s 			page 49


 887              		.cfi_startproc
 888              		@ args = 0, pretend = 0, frame = 0
 889              		@ frame_needed = 0, uses_anonymous_args = 0
 890              		@ link register save eliminated.
 891              	.LVL74:
 307:Generated_Source\PSoC6\pdl\drivers\peripheral\dma/cy_dma.c ****     switch((cy_en_dma_descriptor_type_t) _FLD2VAL(CY_DMA_CTL_TYPE, descriptor->ctl))
 892              		.loc 1 307 0
 893 0000 0368     		ldr	r3, [r0]
 894 0002 9B0F     		lsrs	r3, r3, #30
 895 0004 032B     		cmp	r3, #3
 896 0006 08D8     		bhi	.L71
 897 0008 DFE803F0 		tbb	[pc, r3]
 898              	.L74:
 899 000c 02       		.byte	(.L73-.L74)/2
 900 000d 04       		.byte	(.L75-.L74)/2
 901 000e 06       		.byte	(.L76-.L74)/2
 902 000f 04       		.byte	(.L75-.L74)/2
 903              		.p2align 1
 904              	.L73:
 308:Generated_Source\PSoC6\pdl\drivers\peripheral\dma/cy_dma.c ****     {
 309:Generated_Source\PSoC6\pdl\drivers\peripheral\dma/cy_dma.c ****         case CY_DMA_SINGLE_TRANSFER:
 310:Generated_Source\PSoC6\pdl\drivers\peripheral\dma/cy_dma.c ****             descriptor->xCtl = (uint32_t)nextDescriptor;
 905              		.loc 1 310 0
 906 0010 C160     		str	r1, [r0, #12]
 311:Generated_Source\PSoC6\pdl\drivers\peripheral\dma/cy_dma.c ****             break;
 907              		.loc 1 311 0
 908 0012 7047     		bx	lr
 909              	.L75:
 312:Generated_Source\PSoC6\pdl\drivers\peripheral\dma/cy_dma.c **** 
 313:Generated_Source\PSoC6\pdl\drivers\peripheral\dma/cy_dma.c ****         case CY_DMA_CRC_TRANSFER:
 314:Generated_Source\PSoC6\pdl\drivers\peripheral\dma/cy_dma.c ****         case CY_DMA_1D_TRANSFER:
 315:Generated_Source\PSoC6\pdl\drivers\peripheral\dma/cy_dma.c ****             descriptor->yCtl = (uint32_t)nextDescriptor;
 910              		.loc 1 315 0
 911 0014 0161     		str	r1, [r0, #16]
 316:Generated_Source\PSoC6\pdl\drivers\peripheral\dma/cy_dma.c ****             break;
 912              		.loc 1 316 0
 913 0016 7047     		bx	lr
 914              	.L76:
 317:Generated_Source\PSoC6\pdl\drivers\peripheral\dma/cy_dma.c ****             
 318:Generated_Source\PSoC6\pdl\drivers\peripheral\dma/cy_dma.c ****         case CY_DMA_2D_TRANSFER:
 319:Generated_Source\PSoC6\pdl\drivers\peripheral\dma/cy_dma.c ****             descriptor->nextPtr = (uint32_t)nextDescriptor;
 915              		.loc 1 319 0
 916 0018 4161     		str	r1, [r0, #20]
 917              	.L71:
 918 001a 7047     		bx	lr
 919              		.cfi_endproc
 920              	.LFE188:
 921              		.size	Cy_DMA_Descriptor_SetNextDescriptor, .-Cy_DMA_Descriptor_SetNextDescriptor
 922              		.section	.text.Cy_DMA_Descriptor_GetNextDescriptor,"ax",%progbits
 923              		.align	2
 924              		.global	Cy_DMA_Descriptor_GetNextDescriptor
 925              		.thumb
 926              		.thumb_func
 927              		.type	Cy_DMA_Descriptor_GetNextDescriptor, %function
 928              	Cy_DMA_Descriptor_GetNextDescriptor:
 929              	.LFB189:
 320:Generated_Source\PSoC6\pdl\drivers\peripheral\dma/cy_dma.c ****             break;
ARM GAS  C:\Users\enes_\AppData\Local\Temp\ccsXGQXN.s 			page 50


 321:Generated_Source\PSoC6\pdl\drivers\peripheral\dma/cy_dma.c ****             
 322:Generated_Source\PSoC6\pdl\drivers\peripheral\dma/cy_dma.c ****         default:
 323:Generated_Source\PSoC6\pdl\drivers\peripheral\dma/cy_dma.c ****             /* Unsupported type of descriptor */
 324:Generated_Source\PSoC6\pdl\drivers\peripheral\dma/cy_dma.c ****             break;
 325:Generated_Source\PSoC6\pdl\drivers\peripheral\dma/cy_dma.c ****     }
 326:Generated_Source\PSoC6\pdl\drivers\peripheral\dma/cy_dma.c **** }
 327:Generated_Source\PSoC6\pdl\drivers\peripheral\dma/cy_dma.c **** 
 328:Generated_Source\PSoC6\pdl\drivers\peripheral\dma/cy_dma.c **** 
 329:Generated_Source\PSoC6\pdl\drivers\peripheral\dma/cy_dma.c **** /*******************************************************************************
 330:Generated_Source\PSoC6\pdl\drivers\peripheral\dma/cy_dma.c **** * Function Name: Cy_DMA_Descriptor_GetNextDescriptor
 331:Generated_Source\PSoC6\pdl\drivers\peripheral\dma/cy_dma.c **** ****************************************************************************//**
 332:Generated_Source\PSoC6\pdl\drivers\peripheral\dma/cy_dma.c **** *
 333:Generated_Source\PSoC6\pdl\drivers\peripheral\dma/cy_dma.c **** * Returns a next descriptor address of the specified descriptor.
 334:Generated_Source\PSoC6\pdl\drivers\peripheral\dma/cy_dma.c **** *
 335:Generated_Source\PSoC6\pdl\drivers\peripheral\dma/cy_dma.c **** * Based on the descriptor type, the offset of the address for the next descriptor may
 336:Generated_Source\PSoC6\pdl\drivers\peripheral\dma/cy_dma.c **** * vary. For a single-transfer descriptor type, this register is at offset 0x0c.
 337:Generated_Source\PSoC6\pdl\drivers\peripheral\dma/cy_dma.c **** * For the 1D-transfer descriptor type, this register is at offset 0x10. 
 338:Generated_Source\PSoC6\pdl\drivers\peripheral\dma/cy_dma.c **** * For the 2D-transfer descriptor type, this register is at offset 0x14.  
 339:Generated_Source\PSoC6\pdl\drivers\peripheral\dma/cy_dma.c **** *
 340:Generated_Source\PSoC6\pdl\drivers\peripheral\dma/cy_dma.c **** * \param descriptor
 341:Generated_Source\PSoC6\pdl\drivers\peripheral\dma/cy_dma.c **** * The descriptor structure instance declared by the user/component.
 342:Generated_Source\PSoC6\pdl\drivers\peripheral\dma/cy_dma.c **** *
 343:Generated_Source\PSoC6\pdl\drivers\peripheral\dma/cy_dma.c **** * \return
 344:Generated_Source\PSoC6\pdl\drivers\peripheral\dma/cy_dma.c **** * The pointer to the next descriptor.
 345:Generated_Source\PSoC6\pdl\drivers\peripheral\dma/cy_dma.c **** *
 346:Generated_Source\PSoC6\pdl\drivers\peripheral\dma/cy_dma.c **** * \funcusage 
 347:Generated_Source\PSoC6\pdl\drivers\peripheral\dma/cy_dma.c **** * \snippet dma\2.10\snippet\main.c snippet_Cy_DMA_Descriptor_GetterFunctions
 348:Generated_Source\PSoC6\pdl\drivers\peripheral\dma/cy_dma.c **** *
 349:Generated_Source\PSoC6\pdl\drivers\peripheral\dma/cy_dma.c **** *******************************************************************************/
 350:Generated_Source\PSoC6\pdl\drivers\peripheral\dma/cy_dma.c **** cy_stc_dma_descriptor_t * Cy_DMA_Descriptor_GetNextDescriptor(cy_stc_dma_descriptor_t const * descr
 351:Generated_Source\PSoC6\pdl\drivers\peripheral\dma/cy_dma.c **** {
 930              		.loc 1 351 0
 931              		.cfi_startproc
 932              		@ args = 0, pretend = 0, frame = 0
 933              		@ frame_needed = 0, uses_anonymous_args = 0
 934              		@ link register save eliminated.
 935              	.LVL75:
 352:Generated_Source\PSoC6\pdl\drivers\peripheral\dma/cy_dma.c ****     cy_stc_dma_descriptor_t * retVal = NULL;
 353:Generated_Source\PSoC6\pdl\drivers\peripheral\dma/cy_dma.c **** 
 354:Generated_Source\PSoC6\pdl\drivers\peripheral\dma/cy_dma.c ****     switch((cy_en_dma_descriptor_type_t) _FLD2VAL(CY_DMA_CTL_TYPE, descriptor->ctl))
 936              		.loc 1 354 0
 937 0000 0368     		ldr	r3, [r0]
 938 0002 9B0F     		lsrs	r3, r3, #30
 939 0004 032B     		cmp	r3, #3
 940 0006 09D8     		bhi	.L83
 941 0008 DFE803F0 		tbb	[pc, r3]
 942              	.L80:
 943 000c 02       		.byte	(.L79-.L80)/2
 944 000d 04       		.byte	(.L81-.L80)/2
 945 000e 06       		.byte	(.L82-.L80)/2
 946 000f 04       		.byte	(.L81-.L80)/2
 947              		.p2align 1
 948              	.L79:
 355:Generated_Source\PSoC6\pdl\drivers\peripheral\dma/cy_dma.c ****     {
 356:Generated_Source\PSoC6\pdl\drivers\peripheral\dma/cy_dma.c ****         case CY_DMA_SINGLE_TRANSFER:
 357:Generated_Source\PSoC6\pdl\drivers\peripheral\dma/cy_dma.c ****             retVal = (cy_stc_dma_descriptor_t*) descriptor->xCtl;
 949              		.loc 1 357 0
ARM GAS  C:\Users\enes_\AppData\Local\Temp\ccsXGQXN.s 			page 51


 950 0010 C068     		ldr	r0, [r0, #12]
 951              	.LVL76:
 358:Generated_Source\PSoC6\pdl\drivers\peripheral\dma/cy_dma.c ****             break;
 952              		.loc 1 358 0
 953 0012 7047     		bx	lr
 954              	.LVL77:
 955              	.L81:
 359:Generated_Source\PSoC6\pdl\drivers\peripheral\dma/cy_dma.c **** 
 360:Generated_Source\PSoC6\pdl\drivers\peripheral\dma/cy_dma.c ****         case CY_DMA_CRC_TRANSFER:
 361:Generated_Source\PSoC6\pdl\drivers\peripheral\dma/cy_dma.c ****         case CY_DMA_1D_TRANSFER:
 362:Generated_Source\PSoC6\pdl\drivers\peripheral\dma/cy_dma.c ****             retVal = (cy_stc_dma_descriptor_t*) descriptor->yCtl;
 956              		.loc 1 362 0
 957 0014 0069     		ldr	r0, [r0, #16]
 958              	.LVL78:
 363:Generated_Source\PSoC6\pdl\drivers\peripheral\dma/cy_dma.c ****             break;
 959              		.loc 1 363 0
 960 0016 7047     		bx	lr
 961              	.LVL79:
 962              	.L82:
 364:Generated_Source\PSoC6\pdl\drivers\peripheral\dma/cy_dma.c ****             
 365:Generated_Source\PSoC6\pdl\drivers\peripheral\dma/cy_dma.c ****         case CY_DMA_2D_TRANSFER:
 366:Generated_Source\PSoC6\pdl\drivers\peripheral\dma/cy_dma.c ****             retVal = (cy_stc_dma_descriptor_t*) descriptor->nextPtr;
 963              		.loc 1 366 0
 964 0018 4069     		ldr	r0, [r0, #20]
 965              	.LVL80:
 367:Generated_Source\PSoC6\pdl\drivers\peripheral\dma/cy_dma.c ****             break;
 966              		.loc 1 367 0
 967 001a 7047     		bx	lr
 968              	.LVL81:
 969              	.L83:
 352:Generated_Source\PSoC6\pdl\drivers\peripheral\dma/cy_dma.c **** 
 970              		.loc 1 352 0
 971 001c 0020     		movs	r0, #0
 972              	.LVL82:
 368:Generated_Source\PSoC6\pdl\drivers\peripheral\dma/cy_dma.c ****             
