ARM GAS  C:\Users\enes_\AppData\Local\Temp\ccQvJBBi.s 			page 1


   1              		.syntax unified
   2              		.cpu cortex-m4
   3              		.eabi_attribute 27, 1
   4              		.fpu fpv4-sp-d16
   5              		.eabi_attribute 20, 1
   6              		.eabi_attribute 21, 1
   7              		.eabi_attribute 23, 3
   8              		.eabi_attribute 24, 1
   9              		.eabi_attribute 25, 1
  10              		.eabi_attribute 26, 1
  11              		.eabi_attribute 30, 1
  12              		.eabi_attribute 34, 1
  13              		.eabi_attribute 18, 4
  14              		.thumb
  15              		.syntax unified
  16              		.file	"cy_usbfs_dev_drv_io_dma.c"
  17              		.text
  18              	.Ltext0:
  19              		.cfi_sections	.debug_frame
  20              		.section	.text.DmaEndpointInit1D,"ax",%progbits
  21              		.align	2
  22              		.thumb
  23              		.thumb_func
  24              		.type	DmaEndpointInit1D, %function
  25              	DmaEndpointInit1D:
  26              	.LFB259:
  27              		.file 1 "Generated_Source\\PSoC6\\pdl\\drivers\\peripheral\\usbfs\\cy_usbfs_dev_drv_io_dma.c"
   1:Generated_Source\PSoC6\pdl\drivers\peripheral\usbfs/cy_usbfs_dev_drv_io_dma.c **** /***************************************************************************//**
   2:Generated_Source\PSoC6\pdl\drivers\peripheral\usbfs/cy_usbfs_dev_drv_io_dma.c **** * \file cy_usbfs_dev_drv_io_dma.c
   3:Generated_Source\PSoC6\pdl\drivers\peripheral\usbfs/cy_usbfs_dev_drv_io_dma.c **** * \version 1.0
   4:Generated_Source\PSoC6\pdl\drivers\peripheral\usbfs/cy_usbfs_dev_drv_io_dma.c **** *
   5:Generated_Source\PSoC6\pdl\drivers\peripheral\usbfs/cy_usbfs_dev_drv_io_dma.c **** * Provides data transfer API implementation of the USBFS driver.
   6:Generated_Source\PSoC6\pdl\drivers\peripheral\usbfs/cy_usbfs_dev_drv_io_dma.c **** *
   7:Generated_Source\PSoC6\pdl\drivers\peripheral\usbfs/cy_usbfs_dev_drv_io_dma.c **** ********************************************************************************
   8:Generated_Source\PSoC6\pdl\drivers\peripheral\usbfs/cy_usbfs_dev_drv_io_dma.c **** * \copyright
   9:Generated_Source\PSoC6\pdl\drivers\peripheral\usbfs/cy_usbfs_dev_drv_io_dma.c **** * Copyright 2018, Cypress Semiconductor Corporation. All rights reserved.
  10:Generated_Source\PSoC6\pdl\drivers\peripheral\usbfs/cy_usbfs_dev_drv_io_dma.c **** * You may use this file only in accordance with the license, terms, conditions,
  11:Generated_Source\PSoC6\pdl\drivers\peripheral\usbfs/cy_usbfs_dev_drv_io_dma.c **** * disclaimers, and limitations in the end user license agreement accompanying
  12:Generated_Source\PSoC6\pdl\drivers\peripheral\usbfs/cy_usbfs_dev_drv_io_dma.c **** * the software package with which this file was provided.
  13:Generated_Source\PSoC6\pdl\drivers\peripheral\usbfs/cy_usbfs_dev_drv_io_dma.c **** *******************************************************************************/
  14:Generated_Source\PSoC6\pdl\drivers\peripheral\usbfs/cy_usbfs_dev_drv_io_dma.c **** 
  15:Generated_Source\PSoC6\pdl\drivers\peripheral\usbfs/cy_usbfs_dev_drv_io_dma.c **** #include <string.h>
  16:Generated_Source\PSoC6\pdl\drivers\peripheral\usbfs/cy_usbfs_dev_drv_io_dma.c **** #include "cy_usbfs_dev_drv_pvt.h"
  17:Generated_Source\PSoC6\pdl\drivers\peripheral\usbfs/cy_usbfs_dev_drv_io_dma.c **** 
  18:Generated_Source\PSoC6\pdl\drivers\peripheral\usbfs/cy_usbfs_dev_drv_io_dma.c **** #ifdef CY_IP_MXUSBFS
  19:Generated_Source\PSoC6\pdl\drivers\peripheral\usbfs/cy_usbfs_dev_drv_io_dma.c **** 
  20:Generated_Source\PSoC6\pdl\drivers\peripheral\usbfs/cy_usbfs_dev_drv_io_dma.c **** #if defined(__cplusplus)
  21:Generated_Source\PSoC6\pdl\drivers\peripheral\usbfs/cy_usbfs_dev_drv_io_dma.c **** extern "C" {
  22:Generated_Source\PSoC6\pdl\drivers\peripheral\usbfs/cy_usbfs_dev_drv_io_dma.c **** #endif
  23:Generated_Source\PSoC6\pdl\drivers\peripheral\usbfs/cy_usbfs_dev_drv_io_dma.c **** 
  24:Generated_Source\PSoC6\pdl\drivers\peripheral\usbfs/cy_usbfs_dev_drv_io_dma.c **** /*******************************************************************************
  25:Generated_Source\PSoC6\pdl\drivers\peripheral\usbfs/cy_usbfs_dev_drv_io_dma.c **** *                        Internal Constants
  26:Generated_Source\PSoC6\pdl\drivers\peripheral\usbfs/cy_usbfs_dev_drv_io_dma.c **** *******************************************************************************/
  27:Generated_Source\PSoC6\pdl\drivers\peripheral\usbfs/cy_usbfs_dev_drv_io_dma.c **** 
  28:Generated_Source\PSoC6\pdl\drivers\peripheral\usbfs/cy_usbfs_dev_drv_io_dma.c **** /* Invalid channel */
  29:Generated_Source\PSoC6\pdl\drivers\peripheral\usbfs/cy_usbfs_dev_drv_io_dma.c **** #define DMA_INVALID_CHANNEL     ((uint32_t) (-1))
  30:Generated_Source\PSoC6\pdl\drivers\peripheral\usbfs/cy_usbfs_dev_drv_io_dma.c **** 
ARM GAS  C:\Users\enes_\AppData\Local\Temp\ccQvJBBi.s 			page 2


  31:Generated_Source\PSoC6\pdl\drivers\peripheral\usbfs/cy_usbfs_dev_drv_io_dma.c **** /* Arbiter interrupt sources for OUT and IN endpoints when mode is
  32:Generated_Source\PSoC6\pdl\drivers\peripheral\usbfs/cy_usbfs_dev_drv_io_dma.c **** * CY_USBFS_DEV_DRV_EP_MANAGEMENT_DMA_AUTO.
  33:Generated_Source\PSoC6\pdl\drivers\peripheral\usbfs/cy_usbfs_dev_drv_io_dma.c **** */
  34:Generated_Source\PSoC6\pdl\drivers\peripheral\usbfs/cy_usbfs_dev_drv_io_dma.c **** #define IN_ENDPOINT_ARB_INTR_SOURCES    (USBFS_USBDEV_ARB_EP_IN_BUF_FULL_Msk | \
  35:Generated_Source\PSoC6\pdl\drivers\peripheral\usbfs/cy_usbfs_dev_drv_io_dma.c ****                                          USBFS_USBDEV_ARB_EP_BUF_OVER_Msk    | \
  36:Generated_Source\PSoC6\pdl\drivers\peripheral\usbfs/cy_usbfs_dev_drv_io_dma.c ****                                          USBFS_USBDEV_ARB_EP_BUF_UNDER_Msk   | \
  37:Generated_Source\PSoC6\pdl\drivers\peripheral\usbfs/cy_usbfs_dev_drv_io_dma.c ****                                          USBFS_USBDEV_ARB_EP_ERR_Msk)
  38:Generated_Source\PSoC6\pdl\drivers\peripheral\usbfs/cy_usbfs_dev_drv_io_dma.c **** 
  39:Generated_Source\PSoC6\pdl\drivers\peripheral\usbfs/cy_usbfs_dev_drv_io_dma.c **** #define OUT_ENDPOINT_ARB_INTR_SOURCES   (USBFS_USBDEV_ARB_EP_DMA_TERMIN_Msk | \
  40:Generated_Source\PSoC6\pdl\drivers\peripheral\usbfs/cy_usbfs_dev_drv_io_dma.c ****                                          USBFS_USBDEV_ARB_EP_BUF_OVER_Msk   | \
  41:Generated_Source\PSoC6\pdl\drivers\peripheral\usbfs/cy_usbfs_dev_drv_io_dma.c ****                                          USBFS_USBDEV_ARB_EP_BUF_UNDER_Msk  | \
  42:Generated_Source\PSoC6\pdl\drivers\peripheral\usbfs/cy_usbfs_dev_drv_io_dma.c ****                                          USBFS_USBDEV_ARB_EP_ERR_Msk)
  43:Generated_Source\PSoC6\pdl\drivers\peripheral\usbfs/cy_usbfs_dev_drv_io_dma.c **** 
  44:Generated_Source\PSoC6\pdl\drivers\peripheral\usbfs/cy_usbfs_dev_drv_io_dma.c **** /* DMA configuration defines*/
  45:Generated_Source\PSoC6\pdl\drivers\peripheral\usbfs/cy_usbfs_dev_drv_io_dma.c **** #define DMA_XLOOP_INCREMENT    (1)
  46:Generated_Source\PSoC6\pdl\drivers\peripheral\usbfs/cy_usbfs_dev_drv_io_dma.c **** #define DMA_YLOOP_INCREMENT    (32)
  47:Generated_Source\PSoC6\pdl\drivers\peripheral\usbfs/cy_usbfs_dev_drv_io_dma.c **** #define DMA_NO_INCREMENT       (0)
  48:Generated_Source\PSoC6\pdl\drivers\peripheral\usbfs/cy_usbfs_dev_drv_io_dma.c **** 
  49:Generated_Source\PSoC6\pdl\drivers\peripheral\usbfs/cy_usbfs_dev_drv_io_dma.c **** /* Timeout for dynamic reconfiguration */
  50:Generated_Source\PSoC6\pdl\drivers\peripheral\usbfs/cy_usbfs_dev_drv_io_dma.c **** #define DYN_RECONFIG_ONE_TICK   (1U)        /* 1 tick = 1 us */
  51:Generated_Source\PSoC6\pdl\drivers\peripheral\usbfs/cy_usbfs_dev_drv_io_dma.c **** #define DYN_RECONFIG_TIMEOUT    (25000UL)   /* (25000 * tick)us = 25 ms ( TDRQCMPLTND / 2 ) */
  52:Generated_Source\PSoC6\pdl\drivers\peripheral\usbfs/cy_usbfs_dev_drv_io_dma.c **** 
  53:Generated_Source\PSoC6\pdl\drivers\peripheral\usbfs/cy_usbfs_dev_drv_io_dma.c **** /* Timeout for DMA read operation */
  54:Generated_Source\PSoC6\pdl\drivers\peripheral\usbfs/cy_usbfs_dev_drv_io_dma.c **** #define DMA_READ_REQUEST_ONE_TICK   (1U)      /* 1 tick = 1 us */
  55:Generated_Source\PSoC6\pdl\drivers\peripheral\usbfs/cy_usbfs_dev_drv_io_dma.c **** #define DMA_READ_REQUEST_TIMEOUT    (25000UL) /* (25000 * tick)us = 25 ms ( TDRQCMPLTND / 2 ) */
  56:Generated_Source\PSoC6\pdl\drivers\peripheral\usbfs/cy_usbfs_dev_drv_io_dma.c **** 
  57:Generated_Source\PSoC6\pdl\drivers\peripheral\usbfs/cy_usbfs_dev_drv_io_dma.c **** #define DMA_WRITE_REQUEST_ONE_TICK   (1U)      /* 1 tick = 1 us */
  58:Generated_Source\PSoC6\pdl\drivers\peripheral\usbfs/cy_usbfs_dev_drv_io_dma.c **** #define DMA_WRITE_REQUEST_TIMEOUT    (25000UL) /* (25000 * tick)us = 25 ms ( TDRQCMPLTND / 2 ) */
  59:Generated_Source\PSoC6\pdl\drivers\peripheral\usbfs/cy_usbfs_dev_drv_io_dma.c **** 
  60:Generated_Source\PSoC6\pdl\drivers\peripheral\usbfs/cy_usbfs_dev_drv_io_dma.c **** 
  61:Generated_Source\PSoC6\pdl\drivers\peripheral\usbfs/cy_usbfs_dev_drv_io_dma.c **** /*******************************************************************************
  62:Generated_Source\PSoC6\pdl\drivers\peripheral\usbfs/cy_usbfs_dev_drv_io_dma.c **** *                        Internal Functions Prototypes
  63:Generated_Source\PSoC6\pdl\drivers\peripheral\usbfs/cy_usbfs_dev_drv_io_dma.c **** *******************************************************************************/
  64:Generated_Source\PSoC6\pdl\drivers\peripheral\usbfs/cy_usbfs_dev_drv_io_dma.c **** 
  65:Generated_Source\PSoC6\pdl\drivers\peripheral\usbfs/cy_usbfs_dev_drv_io_dma.c **** static void DmaEndpointInit1D(cy_stc_dma_descriptor_t *descr, 
  66:Generated_Source\PSoC6\pdl\drivers\peripheral\usbfs/cy_usbfs_dev_drv_io_dma.c ****                               bool inDirection, 
  67:Generated_Source\PSoC6\pdl\drivers\peripheral\usbfs/cy_usbfs_dev_drv_io_dma.c ****                               cy_en_dma_data_size_t dataSize, 
  68:Generated_Source\PSoC6\pdl\drivers\peripheral\usbfs/cy_usbfs_dev_drv_io_dma.c ****                               volatile uint32_t const *dataReg);
  69:Generated_Source\PSoC6\pdl\drivers\peripheral\usbfs/cy_usbfs_dev_drv_io_dma.c **** 
  70:Generated_Source\PSoC6\pdl\drivers\peripheral\usbfs/cy_usbfs_dev_drv_io_dma.c **** static void DmaEndpointInit2D(cy_stc_dma_descriptor_t *descr, 
  71:Generated_Source\PSoC6\pdl\drivers\peripheral\usbfs/cy_usbfs_dev_drv_io_dma.c ****                               bool inDirection, 
  72:Generated_Source\PSoC6\pdl\drivers\peripheral\usbfs/cy_usbfs_dev_drv_io_dma.c ****                               int32_t numElements);
  73:Generated_Source\PSoC6\pdl\drivers\peripheral\usbfs/cy_usbfs_dev_drv_io_dma.c **** 
  74:Generated_Source\PSoC6\pdl\drivers\peripheral\usbfs/cy_usbfs_dev_drv_io_dma.c **** static void DmaEndpointSetLength(bool inDirection, 
  75:Generated_Source\PSoC6\pdl\drivers\peripheral\usbfs/cy_usbfs_dev_drv_io_dma.c ****                                  uint32_t size, 
  76:Generated_Source\PSoC6\pdl\drivers\peripheral\usbfs/cy_usbfs_dev_drv_io_dma.c ****                                  cy_stc_usbfs_dev_drv_endpoint_data_t *endpoint);
  77:Generated_Source\PSoC6\pdl\drivers\peripheral\usbfs/cy_usbfs_dev_drv_io_dma.c **** 
  78:Generated_Source\PSoC6\pdl\drivers\peripheral\usbfs/cy_usbfs_dev_drv_io_dma.c **** 
  79:Generated_Source\PSoC6\pdl\drivers\peripheral\usbfs/cy_usbfs_dev_drv_io_dma.c **** /*******************************************************************************
  80:Generated_Source\PSoC6\pdl\drivers\peripheral\usbfs/cy_usbfs_dev_drv_io_dma.c **** *                            Internal Constants
  81:Generated_Source\PSoC6\pdl\drivers\peripheral\usbfs/cy_usbfs_dev_drv_io_dma.c **** *******************************************************************************/
  82:Generated_Source\PSoC6\pdl\drivers\peripheral\usbfs/cy_usbfs_dev_drv_io_dma.c **** 
  83:Generated_Source\PSoC6\pdl\drivers\peripheral\usbfs/cy_usbfs_dev_drv_io_dma.c **** /* Used for getting data in X loops */
  84:Generated_Source\PSoC6\pdl\drivers\peripheral\usbfs/cy_usbfs_dev_drv_io_dma.c **** #define DMA_DESCR_1D_CFG \
  85:Generated_Source\PSoC6\pdl\drivers\peripheral\usbfs/cy_usbfs_dev_drv_io_dma.c **** {                        \
  86:Generated_Source\PSoC6\pdl\drivers\peripheral\usbfs/cy_usbfs_dev_drv_io_dma.c ****     /* .retrigger      = */ CY_DMA_RETRIG_IM,        \
  87:Generated_Source\PSoC6\pdl\drivers\peripheral\usbfs/cy_usbfs_dev_drv_io_dma.c ****     /* .interruptType  = */ CY_DMA_DESCR,            \
ARM GAS  C:\Users\enes_\AppData\Local\Temp\ccQvJBBi.s 			page 3


  88:Generated_Source\PSoC6\pdl\drivers\peripheral\usbfs/cy_usbfs_dev_drv_io_dma.c ****     /* .triggerOutType = */ CY_DMA_DESCR,            \
  89:Generated_Source\PSoC6\pdl\drivers\peripheral\usbfs/cy_usbfs_dev_drv_io_dma.c ****     /* .channelState   = */ CY_DMA_CHANNEL_DISABLED, \
  90:Generated_Source\PSoC6\pdl\drivers\peripheral\usbfs/cy_usbfs_dev_drv_io_dma.c ****     /* .triggerInType  = */ CY_DMA_DESCR,            \
  91:Generated_Source\PSoC6\pdl\drivers\peripheral\usbfs/cy_usbfs_dev_drv_io_dma.c ****     /* .dataSize        = */ CY_DMA_BYTE,               \
  92:Generated_Source\PSoC6\pdl\drivers\peripheral\usbfs/cy_usbfs_dev_drv_io_dma.c ****     /* .srcTransferSize = */ CY_DMA_TRANSFER_SIZE_WORD, \
  93:Generated_Source\PSoC6\pdl\drivers\peripheral\usbfs/cy_usbfs_dev_drv_io_dma.c ****     /* .dstTransferSize = */ CY_DMA_TRANSFER_SIZE_WORD, \
  94:Generated_Source\PSoC6\pdl\drivers\peripheral\usbfs/cy_usbfs_dev_drv_io_dma.c ****     /* .descriptorType  = */ CY_DMA_1D_TRANSFER,        \
  95:Generated_Source\PSoC6\pdl\drivers\peripheral\usbfs/cy_usbfs_dev_drv_io_dma.c ****     /* .srcAddress     = */ NULL, \
  96:Generated_Source\PSoC6\pdl\drivers\peripheral\usbfs/cy_usbfs_dev_drv_io_dma.c ****     /* .dstAddress     = */ NULL, \
  97:Generated_Source\PSoC6\pdl\drivers\peripheral\usbfs/cy_usbfs_dev_drv_io_dma.c ****     /* .srcXincrement  = */ 0,    \
  98:Generated_Source\PSoC6\pdl\drivers\peripheral\usbfs/cy_usbfs_dev_drv_io_dma.c ****     /* .dstXincrement  = */ 0,    \
  99:Generated_Source\PSoC6\pdl\drivers\peripheral\usbfs/cy_usbfs_dev_drv_io_dma.c ****     /* .xCount         = */ 1UL,  \
 100:Generated_Source\PSoC6\pdl\drivers\peripheral\usbfs/cy_usbfs_dev_drv_io_dma.c ****     /* .srcYincrement  = */ 0,    \
 101:Generated_Source\PSoC6\pdl\drivers\peripheral\usbfs/cy_usbfs_dev_drv_io_dma.c ****     /* .dstYincrement  = */ 0,    \
 102:Generated_Source\PSoC6\pdl\drivers\peripheral\usbfs/cy_usbfs_dev_drv_io_dma.c ****     /* .yCount         = */ 1UL,  \
 103:Generated_Source\PSoC6\pdl\drivers\peripheral\usbfs/cy_usbfs_dev_drv_io_dma.c ****     /* .nextDescriptor = */ NULL, \
 104:Generated_Source\PSoC6\pdl\drivers\peripheral\usbfs/cy_usbfs_dev_drv_io_dma.c **** }
 105:Generated_Source\PSoC6\pdl\drivers\peripheral\usbfs/cy_usbfs_dev_drv_io_dma.c **** 
 106:Generated_Source\PSoC6\pdl\drivers\peripheral\usbfs/cy_usbfs_dev_drv_io_dma.c **** /* Used for getting data in Y loops */
 107:Generated_Source\PSoC6\pdl\drivers\peripheral\usbfs/cy_usbfs_dev_drv_io_dma.c **** #define DMA_DESCR_2D_CFG \
 108:Generated_Source\PSoC6\pdl\drivers\peripheral\usbfs/cy_usbfs_dev_drv_io_dma.c **** {                        \
 109:Generated_Source\PSoC6\pdl\drivers\peripheral\usbfs/cy_usbfs_dev_drv_io_dma.c ****     /* .retrigger      = */ CY_DMA_RETRIG_IM,       \
 110:Generated_Source\PSoC6\pdl\drivers\peripheral\usbfs/cy_usbfs_dev_drv_io_dma.c ****     /* .interruptType  = */ CY_DMA_X_LOOP,          \
 111:Generated_Source\PSoC6\pdl\drivers\peripheral\usbfs/cy_usbfs_dev_drv_io_dma.c ****     /* .triggerOutType = */ CY_DMA_X_LOOP,          \
 112:Generated_Source\PSoC6\pdl\drivers\peripheral\usbfs/cy_usbfs_dev_drv_io_dma.c ****     /* .channelState   = */ CY_DMA_CHANNEL_ENABLED, \
 113:Generated_Source\PSoC6\pdl\drivers\peripheral\usbfs/cy_usbfs_dev_drv_io_dma.c ****     /* .triggerInType  = */ CY_DMA_X_LOOP,          \
 114:Generated_Source\PSoC6\pdl\drivers\peripheral\usbfs/cy_usbfs_dev_drv_io_dma.c ****     /* .dataSize        = */ CY_DMA_BYTE,               \
 115:Generated_Source\PSoC6\pdl\drivers\peripheral\usbfs/cy_usbfs_dev_drv_io_dma.c ****     /* .srcTransferSize = */ CY_DMA_TRANSFER_SIZE_WORD, \
 116:Generated_Source\PSoC6\pdl\drivers\peripheral\usbfs/cy_usbfs_dev_drv_io_dma.c ****     /* .dstTransferSize = */ CY_DMA_TRANSFER_SIZE_WORD, \
 117:Generated_Source\PSoC6\pdl\drivers\peripheral\usbfs/cy_usbfs_dev_drv_io_dma.c ****     /* .descriptorType  = */ CY_DMA_2D_TRANSFER,        \
 118:Generated_Source\PSoC6\pdl\drivers\peripheral\usbfs/cy_usbfs_dev_drv_io_dma.c ****     /* .srcAddress     = */ NULL, \
 119:Generated_Source\PSoC6\pdl\drivers\peripheral\usbfs/cy_usbfs_dev_drv_io_dma.c ****     /* .dstAddress     = */ NULL, \
 120:Generated_Source\PSoC6\pdl\drivers\peripheral\usbfs/cy_usbfs_dev_drv_io_dma.c ****     /* .srcXincrement  = */ 0,    \
 121:Generated_Source\PSoC6\pdl\drivers\peripheral\usbfs/cy_usbfs_dev_drv_io_dma.c ****     /* .dstXincrement  = */ 0,    \
 122:Generated_Source\PSoC6\pdl\drivers\peripheral\usbfs/cy_usbfs_dev_drv_io_dma.c ****     /* .xCount         = */ 1UL,  \
 123:Generated_Source\PSoC6\pdl\drivers\peripheral\usbfs/cy_usbfs_dev_drv_io_dma.c ****     /* .srcYincrement  = */ 0,    \
 124:Generated_Source\PSoC6\pdl\drivers\peripheral\usbfs/cy_usbfs_dev_drv_io_dma.c ****     /* .dstYincrement  = */ 0,    \
 125:Generated_Source\PSoC6\pdl\drivers\peripheral\usbfs/cy_usbfs_dev_drv_io_dma.c ****     /* .yCount         = */ 1UL,  \
 126:Generated_Source\PSoC6\pdl\drivers\peripheral\usbfs/cy_usbfs_dev_drv_io_dma.c ****     /* .nextDescriptor = */ NULL, \
 127:Generated_Source\PSoC6\pdl\drivers\peripheral\usbfs/cy_usbfs_dev_drv_io_dma.c **** }
 128:Generated_Source\PSoC6\pdl\drivers\peripheral\usbfs/cy_usbfs_dev_drv_io_dma.c **** 
 129:Generated_Source\PSoC6\pdl\drivers\peripheral\usbfs/cy_usbfs_dev_drv_io_dma.c **** 
 130:Generated_Source\PSoC6\pdl\drivers\peripheral\usbfs/cy_usbfs_dev_drv_io_dma.c **** /*******************************************************************************
 131:Generated_Source\PSoC6\pdl\drivers\peripheral\usbfs/cy_usbfs_dev_drv_io_dma.c **** * Function Name: DmaInit
 132:Generated_Source\PSoC6\pdl\drivers\peripheral\usbfs/cy_usbfs_dev_drv_io_dma.c **** ****************************************************************************//**
 133:Generated_Source\PSoC6\pdl\drivers\peripheral\usbfs/cy_usbfs_dev_drv_io_dma.c **** *
 134:Generated_Source\PSoC6\pdl\drivers\peripheral\usbfs/cy_usbfs_dev_drv_io_dma.c **** * Initializes all DMA channels used by the USBFS Device.
 135:Generated_Source\PSoC6\pdl\drivers\peripheral\usbfs/cy_usbfs_dev_drv_io_dma.c **** *
 136:Generated_Source\PSoC6\pdl\drivers\peripheral\usbfs/cy_usbfs_dev_drv_io_dma.c **** * \param config
 137:Generated_Source\PSoC6\pdl\drivers\peripheral\usbfs/cy_usbfs_dev_drv_io_dma.c **** * The pointer to the driver configuration structure \ref cy_stc_usbfs_dev_drv_config_t.
 138:Generated_Source\PSoC6\pdl\drivers\peripheral\usbfs/cy_usbfs_dev_drv_io_dma.c **** *
 139:Generated_Source\PSoC6\pdl\drivers\peripheral\usbfs/cy_usbfs_dev_drv_io_dma.c **** * \param context
 140:Generated_Source\PSoC6\pdl\drivers\peripheral\usbfs/cy_usbfs_dev_drv_io_dma.c **** * The pointer to the context structure \ref cy_stc_usbfs_dev_drv_context_t
 141:Generated_Source\PSoC6\pdl\drivers\peripheral\usbfs/cy_usbfs_dev_drv_io_dma.c **** * allocated by the user. The structure is used during the USBFS Device 
 142:Generated_Source\PSoC6\pdl\drivers\peripheral\usbfs/cy_usbfs_dev_drv_io_dma.c **** * operation for internal configuration and data retention. The user must not 
 143:Generated_Source\PSoC6\pdl\drivers\peripheral\usbfs/cy_usbfs_dev_drv_io_dma.c **** * modify anything in this structure.
 144:Generated_Source\PSoC6\pdl\drivers\peripheral\usbfs/cy_usbfs_dev_drv_io_dma.c **** *
ARM GAS  C:\Users\enes_\AppData\Local\Temp\ccQvJBBi.s 			page 4


 145:Generated_Source\PSoC6\pdl\drivers\peripheral\usbfs/cy_usbfs_dev_drv_io_dma.c **** * \return
 146:Generated_Source\PSoC6\pdl\drivers\peripheral\usbfs/cy_usbfs_dev_drv_io_dma.c **** * Status code of the function execution \ref cy_en_usbfs_dev_drv_status_t.
 147:Generated_Source\PSoC6\pdl\drivers\peripheral\usbfs/cy_usbfs_dev_drv_io_dma.c **** *
 148:Generated_Source\PSoC6\pdl\drivers\peripheral\usbfs/cy_usbfs_dev_drv_io_dma.c **** *******************************************************************************/
 149:Generated_Source\PSoC6\pdl\drivers\peripheral\usbfs/cy_usbfs_dev_drv_io_dma.c **** cy_en_usbfs_dev_drv_status_t DmaInit(cy_stc_usbfs_dev_drv_config_t const *config, cy_stc_usbfs_dev_
 150:Generated_Source\PSoC6\pdl\drivers\peripheral\usbfs/cy_usbfs_dev_drv_io_dma.c **** {
 151:Generated_Source\PSoC6\pdl\drivers\peripheral\usbfs/cy_usbfs_dev_drv_io_dma.c ****     cy_en_usbfs_dev_drv_status_t retStatus = CY_USBFS_DEV_DRV_DMA_CFG_FAILED;
 152:Generated_Source\PSoC6\pdl\drivers\peripheral\usbfs/cy_usbfs_dev_drv_io_dma.c **** 
 153:Generated_Source\PSoC6\pdl\drivers\peripheral\usbfs/cy_usbfs_dev_drv_io_dma.c ****     uint32_t endpoint;
 154:Generated_Source\PSoC6\pdl\drivers\peripheral\usbfs/cy_usbfs_dev_drv_io_dma.c **** 
 155:Generated_Source\PSoC6\pdl\drivers\peripheral\usbfs/cy_usbfs_dev_drv_io_dma.c ****     /* Configure DMA descriptors and channels for data endpoints */
 156:Generated_Source\PSoC6\pdl\drivers\peripheral\usbfs/cy_usbfs_dev_drv_io_dma.c ****     for (endpoint = 0UL; endpoint < CY_USBFS_DEV_DRV_NUM_EPS_MAX; ++endpoint)
 157:Generated_Source\PSoC6\pdl\drivers\peripheral\usbfs/cy_usbfs_dev_drv_io_dma.c ****     {
 158:Generated_Source\PSoC6\pdl\drivers\peripheral\usbfs/cy_usbfs_dev_drv_io_dma.c ****         /* DMA configuration status for endpoint */
 159:Generated_Source\PSoC6\pdl\drivers\peripheral\usbfs/cy_usbfs_dev_drv_io_dma.c ****         retStatus = CY_USBFS_DEV_DRV_DMA_CFG_FAILED;
 160:Generated_Source\PSoC6\pdl\drivers\peripheral\usbfs/cy_usbfs_dev_drv_io_dma.c **** 
 161:Generated_Source\PSoC6\pdl\drivers\peripheral\usbfs/cy_usbfs_dev_drv_io_dma.c ****         /* Get pointer to endpoint data */
 162:Generated_Source\PSoC6\pdl\drivers\peripheral\usbfs/cy_usbfs_dev_drv_io_dma.c ****         cy_stc_usbfs_dev_drv_endpoint_data_t *endpointData = &context->epPool[endpoint];
 163:Generated_Source\PSoC6\pdl\drivers\peripheral\usbfs/cy_usbfs_dev_drv_io_dma.c **** 
 164:Generated_Source\PSoC6\pdl\drivers\peripheral\usbfs/cy_usbfs_dev_drv_io_dma.c ****         if (config->dmaConfig[endpoint] != NULL)
 165:Generated_Source\PSoC6\pdl\drivers\peripheral\usbfs/cy_usbfs_dev_drv_io_dma.c ****         {
 166:Generated_Source\PSoC6\pdl\drivers\peripheral\usbfs/cy_usbfs_dev_drv_io_dma.c ****             cy_en_usbfs_dev_drv_status_t locStatus = CY_USBFS_DEV_DRV_DMA_CFG_FAILED;
 167:Generated_Source\PSoC6\pdl\drivers\peripheral\usbfs/cy_usbfs_dev_drv_io_dma.c **** 
 168:Generated_Source\PSoC6\pdl\drivers\peripheral\usbfs/cy_usbfs_dev_drv_io_dma.c ****             cy_stc_dma_channel_config_t chConfig;
 169:Generated_Source\PSoC6\pdl\drivers\peripheral\usbfs/cy_usbfs_dev_drv_io_dma.c ****             
 170:Generated_Source\PSoC6\pdl\drivers\peripheral\usbfs/cy_usbfs_dev_drv_io_dma.c ****             /* Descriptors configurations */
 171:Generated_Source\PSoC6\pdl\drivers\peripheral\usbfs/cy_usbfs_dev_drv_io_dma.c ****             const cy_stc_dma_descriptor_config_t DmaDescr1DCfg = DMA_DESCR_1D_CFG;
 172:Generated_Source\PSoC6\pdl\drivers\peripheral\usbfs/cy_usbfs_dev_drv_io_dma.c ****             const cy_stc_dma_descriptor_config_t DmaDescr2DCfg = DMA_DESCR_2D_CFG;
 173:Generated_Source\PSoC6\pdl\drivers\peripheral\usbfs/cy_usbfs_dev_drv_io_dma.c **** 
 174:Generated_Source\PSoC6\pdl\drivers\peripheral\usbfs/cy_usbfs_dev_drv_io_dma.c ****             /* Store DMA configuration required for operation */
 175:Generated_Source\PSoC6\pdl\drivers\peripheral\usbfs/cy_usbfs_dev_drv_io_dma.c ****             endpointData->base   = config->dmaConfig[endpoint]->base;
 176:Generated_Source\PSoC6\pdl\drivers\peripheral\usbfs/cy_usbfs_dev_drv_io_dma.c ****             endpointData->chNum  = config->dmaConfig[endpoint]->chNum;
 177:Generated_Source\PSoC6\pdl\drivers\peripheral\usbfs/cy_usbfs_dev_drv_io_dma.c ****             endpointData->descr0 = config->dmaConfig[endpoint]->descr0;
 178:Generated_Source\PSoC6\pdl\drivers\peripheral\usbfs/cy_usbfs_dev_drv_io_dma.c ****             endpointData->descr1 = config->dmaConfig[endpoint]->descr1;
 179:Generated_Source\PSoC6\pdl\drivers\peripheral\usbfs/cy_usbfs_dev_drv_io_dma.c ****             endpointData->outTrigMux = config->dmaConfig[endpoint]->outTrigMux;
 180:Generated_Source\PSoC6\pdl\drivers\peripheral\usbfs/cy_usbfs_dev_drv_io_dma.c ****             endpointData->copyData   = NULL;
 181:Generated_Source\PSoC6\pdl\drivers\peripheral\usbfs/cy_usbfs_dev_drv_io_dma.c **** 
 182:Generated_Source\PSoC6\pdl\drivers\peripheral\usbfs/cy_usbfs_dev_drv_io_dma.c ****             if (CY_USBFS_DEV_DRV_EP_MANAGEMENT_DMA == context->mode)
 183:Generated_Source\PSoC6\pdl\drivers\peripheral\usbfs/cy_usbfs_dev_drv_io_dma.c ****             {
 184:Generated_Source\PSoC6\pdl\drivers\peripheral\usbfs/cy_usbfs_dev_drv_io_dma.c ****                 if (NULL != endpointData->descr0)
 185:Generated_Source\PSoC6\pdl\drivers\peripheral\usbfs/cy_usbfs_dev_drv_io_dma.c ****                 {
 186:Generated_Source\PSoC6\pdl\drivers\peripheral\usbfs/cy_usbfs_dev_drv_io_dma.c ****                     /* Initialize DMA descriptor 0 for 1D operation. 
 187:Generated_Source\PSoC6\pdl\drivers\peripheral\usbfs/cy_usbfs_dev_drv_io_dma.c ****                     * Discard return because descriptor configuration (defined in driver) is valid.
 188:Generated_Source\PSoC6\pdl\drivers\peripheral\usbfs/cy_usbfs_dev_drv_io_dma.c ****                     */
 189:Generated_Source\PSoC6\pdl\drivers\peripheral\usbfs/cy_usbfs_dev_drv_io_dma.c ****                     (void) Cy_DMA_Descriptor_Init(endpointData->descr0, &DmaDescr1DCfg);
 190:Generated_Source\PSoC6\pdl\drivers\peripheral\usbfs/cy_usbfs_dev_drv_io_dma.c **** 
 191:Generated_Source\PSoC6\pdl\drivers\peripheral\usbfs/cy_usbfs_dev_drv_io_dma.c ****                     locStatus = CY_USBFS_DEV_DRV_SUCCESS;
 192:Generated_Source\PSoC6\pdl\drivers\peripheral\usbfs/cy_usbfs_dev_drv_io_dma.c ****                 }
 193:Generated_Source\PSoC6\pdl\drivers\peripheral\usbfs/cy_usbfs_dev_drv_io_dma.c ****             }
 194:Generated_Source\PSoC6\pdl\drivers\peripheral\usbfs/cy_usbfs_dev_drv_io_dma.c ****             else
 195:Generated_Source\PSoC6\pdl\drivers\peripheral\usbfs/cy_usbfs_dev_drv_io_dma.c ****             {
 196:Generated_Source\PSoC6\pdl\drivers\peripheral\usbfs/cy_usbfs_dev_drv_io_dma.c ****                 if ((NULL != endpointData->descr0) && (NULL != endpointData->descr1))
 197:Generated_Source\PSoC6\pdl\drivers\peripheral\usbfs/cy_usbfs_dev_drv_io_dma.c ****                 {
 198:Generated_Source\PSoC6\pdl\drivers\peripheral\usbfs/cy_usbfs_dev_drv_io_dma.c ****                     /* Initialize DMA descriptor 0 for 2D operation. 
 199:Generated_Source\PSoC6\pdl\drivers\peripheral\usbfs/cy_usbfs_dev_drv_io_dma.c ****                     * Discard return because descriptor configuration (defined in driver) is valid.
 200:Generated_Source\PSoC6\pdl\drivers\peripheral\usbfs/cy_usbfs_dev_drv_io_dma.c ****                     */
 201:Generated_Source\PSoC6\pdl\drivers\peripheral\usbfs/cy_usbfs_dev_drv_io_dma.c ****                     (void) Cy_DMA_Descriptor_Init(endpointData->descr0, &DmaDescr2DCfg);
ARM GAS  C:\Users\enes_\AppData\Local\Temp\ccQvJBBi.s 			page 5


 202:Generated_Source\PSoC6\pdl\drivers\peripheral\usbfs/cy_usbfs_dev_drv_io_dma.c ****                     
 203:Generated_Source\PSoC6\pdl\drivers\peripheral\usbfs/cy_usbfs_dev_drv_io_dma.c **** 
 204:Generated_Source\PSoC6\pdl\drivers\peripheral\usbfs/cy_usbfs_dev_drv_io_dma.c ****                     /* Initialize DMA descriptor 0 for 1D operation. 
 205:Generated_Source\PSoC6\pdl\drivers\peripheral\usbfs/cy_usbfs_dev_drv_io_dma.c ****                     * Discard return because descriptor configuration (defined in driver) is valid.
 206:Generated_Source\PSoC6\pdl\drivers\peripheral\usbfs/cy_usbfs_dev_drv_io_dma.c ****                     */
 207:Generated_Source\PSoC6\pdl\drivers\peripheral\usbfs/cy_usbfs_dev_drv_io_dma.c ****                     (void)Cy_DMA_Descriptor_Init(endpointData->descr1, &DmaDescr1DCfg);
 208:Generated_Source\PSoC6\pdl\drivers\peripheral\usbfs/cy_usbfs_dev_drv_io_dma.c **** 
 209:Generated_Source\PSoC6\pdl\drivers\peripheral\usbfs/cy_usbfs_dev_drv_io_dma.c ****                     locStatus = CY_USBFS_DEV_DRV_SUCCESS;
 210:Generated_Source\PSoC6\pdl\drivers\peripheral\usbfs/cy_usbfs_dev_drv_io_dma.c ****                 }
 211:Generated_Source\PSoC6\pdl\drivers\peripheral\usbfs/cy_usbfs_dev_drv_io_dma.c ****             }
 212:Generated_Source\PSoC6\pdl\drivers\peripheral\usbfs/cy_usbfs_dev_drv_io_dma.c **** 
 213:Generated_Source\PSoC6\pdl\drivers\peripheral\usbfs/cy_usbfs_dev_drv_io_dma.c ****             /* Set DMA channel configuration */
 214:Generated_Source\PSoC6\pdl\drivers\peripheral\usbfs/cy_usbfs_dev_drv_io_dma.c ****             chConfig.enable      = false;
 215:Generated_Source\PSoC6\pdl\drivers\peripheral\usbfs/cy_usbfs_dev_drv_io_dma.c ****             chConfig.bufferable  = false;
 216:Generated_Source\PSoC6\pdl\drivers\peripheral\usbfs/cy_usbfs_dev_drv_io_dma.c ****             chConfig.descriptor  = config->dmaConfig[endpoint]->descr0;
 217:Generated_Source\PSoC6\pdl\drivers\peripheral\usbfs/cy_usbfs_dev_drv_io_dma.c ****             chConfig.preemptable = config->dmaConfig[endpoint]->preemptable;
 218:Generated_Source\PSoC6\pdl\drivers\peripheral\usbfs/cy_usbfs_dev_drv_io_dma.c ****             chConfig.priority    = config->dmaConfig[endpoint]->priority;
 219:Generated_Source\PSoC6\pdl\drivers\peripheral\usbfs/cy_usbfs_dev_drv_io_dma.c **** 
 220:Generated_Source\PSoC6\pdl\drivers\peripheral\usbfs/cy_usbfs_dev_drv_io_dma.c ****             /* Initialize DMA channel */
 221:Generated_Source\PSoC6\pdl\drivers\peripheral\usbfs/cy_usbfs_dev_drv_io_dma.c ****             if ((CY_DMA_SUCCESS != Cy_DMA_Channel_Init(endpointData->base, endpointData->chNum, &ch
 222:Generated_Source\PSoC6\pdl\drivers\peripheral\usbfs/cy_usbfs_dev_drv_io_dma.c ****                 (CY_USBFS_DEV_DRV_SUCCESS != locStatus))
 223:Generated_Source\PSoC6\pdl\drivers\peripheral\usbfs/cy_usbfs_dev_drv_io_dma.c ****             {
 224:Generated_Source\PSoC6\pdl\drivers\peripheral\usbfs/cy_usbfs_dev_drv_io_dma.c ****                 break;
 225:Generated_Source\PSoC6\pdl\drivers\peripheral\usbfs/cy_usbfs_dev_drv_io_dma.c ****             }
 226:Generated_Source\PSoC6\pdl\drivers\peripheral\usbfs/cy_usbfs_dev_drv_io_dma.c **** 
 227:Generated_Source\PSoC6\pdl\drivers\peripheral\usbfs/cy_usbfs_dev_drv_io_dma.c ****             /* Enable DMA block */
 228:Generated_Source\PSoC6\pdl\drivers\peripheral\usbfs/cy_usbfs_dev_drv_io_dma.c ****             Cy_DMA_Enable(endpointData->base);
 229:Generated_Source\PSoC6\pdl\drivers\peripheral\usbfs/cy_usbfs_dev_drv_io_dma.c ****         }
 230:Generated_Source\PSoC6\pdl\drivers\peripheral\usbfs/cy_usbfs_dev_drv_io_dma.c ****         else
 231:Generated_Source\PSoC6\pdl\drivers\peripheral\usbfs/cy_usbfs_dev_drv_io_dma.c ****         {
 232:Generated_Source\PSoC6\pdl\drivers\peripheral\usbfs/cy_usbfs_dev_drv_io_dma.c ****             endpointData->chNum = DMA_INVALID_CHANNEL;
 233:Generated_Source\PSoC6\pdl\drivers\peripheral\usbfs/cy_usbfs_dev_drv_io_dma.c ****         }
 234:Generated_Source\PSoC6\pdl\drivers\peripheral\usbfs/cy_usbfs_dev_drv_io_dma.c **** 
 235:Generated_Source\PSoC6\pdl\drivers\peripheral\usbfs/cy_usbfs_dev_drv_io_dma.c ****         /* Configuration complete successfully */
 236:Generated_Source\PSoC6\pdl\drivers\peripheral\usbfs/cy_usbfs_dev_drv_io_dma.c ****         retStatus = CY_USBFS_DEV_DRV_SUCCESS;
 237:Generated_Source\PSoC6\pdl\drivers\peripheral\usbfs/cy_usbfs_dev_drv_io_dma.c ****     }
 238:Generated_Source\PSoC6\pdl\drivers\peripheral\usbfs/cy_usbfs_dev_drv_io_dma.c **** 
 239:Generated_Source\PSoC6\pdl\drivers\peripheral\usbfs/cy_usbfs_dev_drv_io_dma.c ****     /* Disable all DMAs if any configuration failed */
 240:Generated_Source\PSoC6\pdl\drivers\peripheral\usbfs/cy_usbfs_dev_drv_io_dma.c ****     if (CY_USBFS_DEV_DRV_SUCCESS != retStatus)
 241:Generated_Source\PSoC6\pdl\drivers\peripheral\usbfs/cy_usbfs_dev_drv_io_dma.c ****     {
 242:Generated_Source\PSoC6\pdl\drivers\peripheral\usbfs/cy_usbfs_dev_drv_io_dma.c ****         DmaDisable(context);
 243:Generated_Source\PSoC6\pdl\drivers\peripheral\usbfs/cy_usbfs_dev_drv_io_dma.c ****     }
 244:Generated_Source\PSoC6\pdl\drivers\peripheral\usbfs/cy_usbfs_dev_drv_io_dma.c **** 
 245:Generated_Source\PSoC6\pdl\drivers\peripheral\usbfs/cy_usbfs_dev_drv_io_dma.c ****     return retStatus;
 246:Generated_Source\PSoC6\pdl\drivers\peripheral\usbfs/cy_usbfs_dev_drv_io_dma.c **** }
 247:Generated_Source\PSoC6\pdl\drivers\peripheral\usbfs/cy_usbfs_dev_drv_io_dma.c **** 
 248:Generated_Source\PSoC6\pdl\drivers\peripheral\usbfs/cy_usbfs_dev_drv_io_dma.c **** 
 249:Generated_Source\PSoC6\pdl\drivers\peripheral\usbfs/cy_usbfs_dev_drv_io_dma.c **** /*******************************************************************************
 250:Generated_Source\PSoC6\pdl\drivers\peripheral\usbfs/cy_usbfs_dev_drv_io_dma.c **** * Function Name: DmaDisable
 251:Generated_Source\PSoC6\pdl\drivers\peripheral\usbfs/cy_usbfs_dev_drv_io_dma.c **** ****************************************************************************//**
 252:Generated_Source\PSoC6\pdl\drivers\peripheral\usbfs/cy_usbfs_dev_drv_io_dma.c **** *
 253:Generated_Source\PSoC6\pdl\drivers\peripheral\usbfs/cy_usbfs_dev_drv_io_dma.c **** * Disables all DMA channels used by the USBFS Device. 
 254:Generated_Source\PSoC6\pdl\drivers\peripheral\usbfs/cy_usbfs_dev_drv_io_dma.c **** * The channel state is not verified before being disabled.
 255:Generated_Source\PSoC6\pdl\drivers\peripheral\usbfs/cy_usbfs_dev_drv_io_dma.c **** *
 256:Generated_Source\PSoC6\pdl\drivers\peripheral\usbfs/cy_usbfs_dev_drv_io_dma.c **** * \param context
 257:Generated_Source\PSoC6\pdl\drivers\peripheral\usbfs/cy_usbfs_dev_drv_io_dma.c **** * The pointer to the context structure \ref cy_stc_usbfs_dev_drv_context_t
 258:Generated_Source\PSoC6\pdl\drivers\peripheral\usbfs/cy_usbfs_dev_drv_io_dma.c **** * allocated by the user. The structure is used during the USBFS Device 
ARM GAS  C:\Users\enes_\AppData\Local\Temp\ccQvJBBi.s 			page 6


 259:Generated_Source\PSoC6\pdl\drivers\peripheral\usbfs/cy_usbfs_dev_drv_io_dma.c **** * operation for internal configuration and data retention. The user must not 
 260:Generated_Source\PSoC6\pdl\drivers\peripheral\usbfs/cy_usbfs_dev_drv_io_dma.c **** * modify anything in this structure.
 261:Generated_Source\PSoC6\pdl\drivers\peripheral\usbfs/cy_usbfs_dev_drv_io_dma.c **** *
 262:Generated_Source\PSoC6\pdl\drivers\peripheral\usbfs/cy_usbfs_dev_drv_io_dma.c **** *******************************************************************************/
 263:Generated_Source\PSoC6\pdl\drivers\peripheral\usbfs/cy_usbfs_dev_drv_io_dma.c **** void DmaDisable(cy_stc_usbfs_dev_drv_context_t *context)
 264:Generated_Source\PSoC6\pdl\drivers\peripheral\usbfs/cy_usbfs_dev_drv_io_dma.c **** {
 265:Generated_Source\PSoC6\pdl\drivers\peripheral\usbfs/cy_usbfs_dev_drv_io_dma.c ****     uint32_t endpoint;
 266:Generated_Source\PSoC6\pdl\drivers\peripheral\usbfs/cy_usbfs_dev_drv_io_dma.c **** 
 267:Generated_Source\PSoC6\pdl\drivers\peripheral\usbfs/cy_usbfs_dev_drv_io_dma.c ****     /* Disable DMA channels for data endpoints */
 268:Generated_Source\PSoC6\pdl\drivers\peripheral\usbfs/cy_usbfs_dev_drv_io_dma.c ****     for (endpoint = 0UL; endpoint < CY_USBFS_DEV_DRV_NUM_EPS_MAX; ++endpoint)
 269:Generated_Source\PSoC6\pdl\drivers\peripheral\usbfs/cy_usbfs_dev_drv_io_dma.c ****     {
 270:Generated_Source\PSoC6\pdl\drivers\peripheral\usbfs/cy_usbfs_dev_drv_io_dma.c ****         /* Get pointer to endpoint data */
 271:Generated_Source\PSoC6\pdl\drivers\peripheral\usbfs/cy_usbfs_dev_drv_io_dma.c ****         cy_stc_usbfs_dev_drv_endpoint_data_t *endpointData = &context->epPool[endpoint];
 272:Generated_Source\PSoC6\pdl\drivers\peripheral\usbfs/cy_usbfs_dev_drv_io_dma.c **** 
 273:Generated_Source\PSoC6\pdl\drivers\peripheral\usbfs/cy_usbfs_dev_drv_io_dma.c ****         if (endpointData->chNum != DMA_INVALID_CHANNEL)
 274:Generated_Source\PSoC6\pdl\drivers\peripheral\usbfs/cy_usbfs_dev_drv_io_dma.c ****         {
 275:Generated_Source\PSoC6\pdl\drivers\peripheral\usbfs/cy_usbfs_dev_drv_io_dma.c ****             Cy_DMA_Channel_Disable(endpointData->base, endpointData->chNum);
 276:Generated_Source\PSoC6\pdl\drivers\peripheral\usbfs/cy_usbfs_dev_drv_io_dma.c ****         }
 277:Generated_Source\PSoC6\pdl\drivers\peripheral\usbfs/cy_usbfs_dev_drv_io_dma.c ****     }
 278:Generated_Source\PSoC6\pdl\drivers\peripheral\usbfs/cy_usbfs_dev_drv_io_dma.c **** }
 279:Generated_Source\PSoC6\pdl\drivers\peripheral\usbfs/cy_usbfs_dev_drv_io_dma.c **** 
 280:Generated_Source\PSoC6\pdl\drivers\peripheral\usbfs/cy_usbfs_dev_drv_io_dma.c **** 
 281:Generated_Source\PSoC6\pdl\drivers\peripheral\usbfs/cy_usbfs_dev_drv_io_dma.c **** /*******************************************************************************
 282:Generated_Source\PSoC6\pdl\drivers\peripheral\usbfs/cy_usbfs_dev_drv_io_dma.c **** * Function Name: DmaEndpointInit1D
 283:Generated_Source\PSoC6\pdl\drivers\peripheral\usbfs/cy_usbfs_dev_drv_io_dma.c **** ****************************************************************************//**
 284:Generated_Source\PSoC6\pdl\drivers\peripheral\usbfs/cy_usbfs_dev_drv_io_dma.c **** *
 285:Generated_Source\PSoC6\pdl\drivers\peripheral\usbfs/cy_usbfs_dev_drv_io_dma.c **** * Configures DMA 1D descriptor used in DMA modes.
 286:Generated_Source\PSoC6\pdl\drivers\peripheral\usbfs/cy_usbfs_dev_drv_io_dma.c **** *
 287:Generated_Source\PSoC6\pdl\drivers\peripheral\usbfs/cy_usbfs_dev_drv_io_dma.c **** * \param descr
 288:Generated_Source\PSoC6\pdl\drivers\peripheral\usbfs/cy_usbfs_dev_drv_io_dma.c **** * The pointer to the DMA descriptor.
 289:Generated_Source\PSoC6\pdl\drivers\peripheral\usbfs/cy_usbfs_dev_drv_io_dma.c **** *
 290:Generated_Source\PSoC6\pdl\drivers\peripheral\usbfs/cy_usbfs_dev_drv_io_dma.c **** * \param dataSize
 291:Generated_Source\PSoC6\pdl\drivers\peripheral\usbfs/cy_usbfs_dev_drv_io_dma.c **** * The DMA transfer data size \ref cy_en_dma_data_size_t.
 292:Generated_Source\PSoC6\pdl\drivers\peripheral\usbfs/cy_usbfs_dev_drv_io_dma.c **** *
 293:Generated_Source\PSoC6\pdl\drivers\peripheral\usbfs/cy_usbfs_dev_drv_io_dma.c **** * \param dataReg
 294:Generated_Source\PSoC6\pdl\drivers\peripheral\usbfs/cy_usbfs_dev_drv_io_dma.c **** * The pointer to the data endpoint data register.
 295:Generated_Source\PSoC6\pdl\drivers\peripheral\usbfs/cy_usbfs_dev_drv_io_dma.c **** *
 296:Generated_Source\PSoC6\pdl\drivers\peripheral\usbfs/cy_usbfs_dev_drv_io_dma.c **** *******************************************************************************/
 297:Generated_Source\PSoC6\pdl\drivers\peripheral\usbfs/cy_usbfs_dev_drv_io_dma.c **** static void DmaEndpointInit1D(cy_stc_dma_descriptor_t *descr, bool inDirection, 
 298:Generated_Source\PSoC6\pdl\drivers\peripheral\usbfs/cy_usbfs_dev_drv_io_dma.c ****                               cy_en_dma_data_size_t dataSize, volatile uint32_t const *dataReg)
 299:Generated_Source\PSoC6\pdl\drivers\peripheral\usbfs/cy_usbfs_dev_drv_io_dma.c **** {
  28              		.loc 1 299 0
  29              		.cfi_startproc
  30              		@ args = 0, pretend = 0, frame = 0
  31              		@ frame_needed = 0, uses_anonymous_args = 0
  32              	.LVL0:
  33 0000 F8B5     		push	{r3, r4, r5, r6, r7, lr}
  34              		.cfi_def_cfa_offset 24
  35              		.cfi_offset 3, -24
  36              		.cfi_offset 4, -20
  37              		.cfi_offset 5, -16
  38              		.cfi_offset 6, -12
  39              		.cfi_offset 7, -8
  40              		.cfi_offset 14, -4
  41 0002 0546     		mov	r5, r0
  42 0004 0F46     		mov	r7, r1
  43 0006 1446     		mov	r4, r2
ARM GAS  C:\Users\enes_\AppData\Local\Temp\ccQvJBBi.s 			page 7


  44 0008 1E46     		mov	r6, r3
  45              	.LVL1:
  46              	.LBB127:
  47              	.LBB128:
  48              		.file 2 "Generated_Source\\PSoC6\\pdl\\drivers/peripheral/dma/cy_dma.h"
   1:Generated_Source\PSoC6\pdl\drivers/peripheral/dma/cy_dma.h **** /***************************************************************************//**
   2:Generated_Source\PSoC6\pdl\drivers/peripheral/dma/cy_dma.h **** * \file cy_dma.h
   3:Generated_Source\PSoC6\pdl\drivers/peripheral/dma/cy_dma.h **** * \version 2.10
   4:Generated_Source\PSoC6\pdl\drivers/peripheral/dma/cy_dma.h **** *
   5:Generated_Source\PSoC6\pdl\drivers/peripheral/dma/cy_dma.h **** * \brief
   6:Generated_Source\PSoC6\pdl\drivers/peripheral/dma/cy_dma.h **** * The header file of the DMA driver.
   7:Generated_Source\PSoC6\pdl\drivers/peripheral/dma/cy_dma.h **** *
   8:Generated_Source\PSoC6\pdl\drivers/peripheral/dma/cy_dma.h **** ********************************************************************************
   9:Generated_Source\PSoC6\pdl\drivers/peripheral/dma/cy_dma.h **** * \copyright
  10:Generated_Source\PSoC6\pdl\drivers/peripheral/dma/cy_dma.h **** * Copyright 2016-2018, Cypress Semiconductor Corporation. All rights reserved.
  11:Generated_Source\PSoC6\pdl\drivers/peripheral/dma/cy_dma.h **** * You may use this file only in accordance with the license, terms, conditions,
  12:Generated_Source\PSoC6\pdl\drivers/peripheral/dma/cy_dma.h **** * disclaimers, and limitations in the end user license agreement accompanying
  13:Generated_Source\PSoC6\pdl\drivers/peripheral/dma/cy_dma.h **** * the software package with which this file was provided.
  14:Generated_Source\PSoC6\pdl\drivers/peripheral/dma/cy_dma.h **** *******************************************************************************/
  15:Generated_Source\PSoC6\pdl\drivers/peripheral/dma/cy_dma.h **** 
  16:Generated_Source\PSoC6\pdl\drivers/peripheral/dma/cy_dma.h **** /**
  17:Generated_Source\PSoC6\pdl\drivers/peripheral/dma/cy_dma.h **** * \addtogroup group_dma
  18:Generated_Source\PSoC6\pdl\drivers/peripheral/dma/cy_dma.h **** * \{
  19:Generated_Source\PSoC6\pdl\drivers/peripheral/dma/cy_dma.h **** * Configures a DMA channel and its descriptor(s).
  20:Generated_Source\PSoC6\pdl\drivers/peripheral/dma/cy_dma.h **** *
  21:Generated_Source\PSoC6\pdl\drivers/peripheral/dma/cy_dma.h **** * The functions and other declarations used in this driver are in cy_dma.h. 
  22:Generated_Source\PSoC6\pdl\drivers/peripheral/dma/cy_dma.h **** * You can include cy_pdl.h (ModusToolbox only) to get access to all functions 
  23:Generated_Source\PSoC6\pdl\drivers/peripheral/dma/cy_dma.h **** * and declarations in the PDL.
  24:Generated_Source\PSoC6\pdl\drivers/peripheral/dma/cy_dma.h **** *
  25:Generated_Source\PSoC6\pdl\drivers/peripheral/dma/cy_dma.h **** * The DMA channel can be used in any project to transfer data
  26:Generated_Source\PSoC6\pdl\drivers/peripheral/dma/cy_dma.h **** * without CPU intervention basing on a hardware trigger signal from another component.
  27:Generated_Source\PSoC6\pdl\drivers/peripheral/dma/cy_dma.h **** *
  28:Generated_Source\PSoC6\pdl\drivers/peripheral/dma/cy_dma.h **** * A device may support more than one DMA hardware block. Each block has a set of 
  29:Generated_Source\PSoC6\pdl\drivers/peripheral/dma/cy_dma.h **** * registers, a base hardware address, and supports multiple channels. 
  30:Generated_Source\PSoC6\pdl\drivers/peripheral/dma/cy_dma.h **** * Many API functions for the DMA driver require a base hardware address and  
  31:Generated_Source\PSoC6\pdl\drivers/peripheral/dma/cy_dma.h **** * channel number. Ensure that you use the correct hardware address for the DMA block in use.
  32:Generated_Source\PSoC6\pdl\drivers/peripheral/dma/cy_dma.h **** * 
  33:Generated_Source\PSoC6\pdl\drivers/peripheral/dma/cy_dma.h **** * Features:
  34:Generated_Source\PSoC6\pdl\drivers/peripheral/dma/cy_dma.h **** * * Multiple DW blocks (device specific)
  35:Generated_Source\PSoC6\pdl\drivers/peripheral/dma/cy_dma.h **** * * Multiple channels per each DW block (device specific)
  36:Generated_Source\PSoC6\pdl\drivers/peripheral/dma/cy_dma.h **** * * Four priority levels for each channel
  37:Generated_Source\PSoC6\pdl\drivers/peripheral/dma/cy_dma.h **** * * Byte, half-word (2-byte), and word (4-byte) transfers
  38:Generated_Source\PSoC6\pdl\drivers/peripheral/dma/cy_dma.h **** * * Configurable source and destination addresses
  39:Generated_Source\PSoC6\pdl\drivers/peripheral/dma/cy_dma.h **** * * CRC calculation support (only for CPUSS_ver2)
  40:Generated_Source\PSoC6\pdl\drivers/peripheral/dma/cy_dma.h **** *
  41:Generated_Source\PSoC6\pdl\drivers/peripheral/dma/cy_dma.h **** * \section group_dma_configuration Configuration Considerations
  42:Generated_Source\PSoC6\pdl\drivers/peripheral/dma/cy_dma.h **** *
  43:Generated_Source\PSoC6\pdl\drivers/peripheral/dma/cy_dma.h **** * To set up a DMA driver, initialize a descriptor,
  44:Generated_Source\PSoC6\pdl\drivers/peripheral/dma/cy_dma.h **** * initialize and enable a channel, and enable the DMA block.
  45:Generated_Source\PSoC6\pdl\drivers/peripheral/dma/cy_dma.h **** * 
  46:Generated_Source\PSoC6\pdl\drivers/peripheral/dma/cy_dma.h **** * To set up a descriptor, provide the configuration parameters for the 
  47:Generated_Source\PSoC6\pdl\drivers/peripheral/dma/cy_dma.h **** * descriptor in the \ref cy_stc_dma_descriptor_config_t structure. Then call the 
  48:Generated_Source\PSoC6\pdl\drivers/peripheral/dma/cy_dma.h **** * \ref Cy_DMA_Descriptor_Init function to initialize the descriptor in SRAM. You can 
  49:Generated_Source\PSoC6\pdl\drivers/peripheral/dma/cy_dma.h **** * modify the source and destination addresses dynamically by calling 
  50:Generated_Source\PSoC6\pdl\drivers/peripheral/dma/cy_dma.h **** * \ref Cy_DMA_Descriptor_SetSrcAddress and \ref Cy_DMA_Descriptor_SetDstAddress.
  51:Generated_Source\PSoC6\pdl\drivers/peripheral/dma/cy_dma.h **** * 
  52:Generated_Source\PSoC6\pdl\drivers/peripheral/dma/cy_dma.h **** * To set up a DMA channel, provide a filled \ref cy_stc_dma_channel_config_t 
ARM GAS  C:\Users\enes_\AppData\Local\Temp\ccQvJBBi.s 			page 8


  53:Generated_Source\PSoC6\pdl\drivers/peripheral/dma/cy_dma.h **** * structure. Call the \ref Cy_DMA_Channel_Init function, specifying the channel
  54:Generated_Source\PSoC6\pdl\drivers/peripheral/dma/cy_dma.h **** * number. Use \ref Cy_DMA_Channel_Enable to enable the configured DMA channel.
  55:Generated_Source\PSoC6\pdl\drivers/peripheral/dma/cy_dma.h **** *
  56:Generated_Source\PSoC6\pdl\drivers/peripheral/dma/cy_dma.h **** * Call \ref Cy_DMA_Channel_Enable for each DMA channel in use.
  57:Generated_Source\PSoC6\pdl\drivers/peripheral/dma/cy_dma.h **** *
  58:Generated_Source\PSoC6\pdl\drivers/peripheral/dma/cy_dma.h **** * When configured, another peripheral typically triggers the DMA. The trigger is
  59:Generated_Source\PSoC6\pdl\drivers/peripheral/dma/cy_dma.h **** * connected to the DMA using the trigger multiplexer. The trigger multiplexer
  60:Generated_Source\PSoC6\pdl\drivers/peripheral/dma/cy_dma.h **** * driver has a software trigger you can use in firmware to trigger the DMA. See the
  61:Generated_Source\PSoC6\pdl\drivers/peripheral/dma/cy_dma.h **** * <a href="group__group__trigmux.html">Trigger Multiplexer</a> documentation.
  62:Generated_Source\PSoC6\pdl\drivers/peripheral/dma/cy_dma.h **** *
  63:Generated_Source\PSoC6\pdl\drivers/peripheral/dma/cy_dma.h **** * The following is a simplified structure of the DMA driver API interdependencies
  64:Generated_Source\PSoC6\pdl\drivers/peripheral/dma/cy_dma.h **** * in a typical user application:
  65:Generated_Source\PSoC6\pdl\drivers/peripheral/dma/cy_dma.h **** * \image html dma.png
  66:Generated_Source\PSoC6\pdl\drivers/peripheral/dma/cy_dma.h **** *
  67:Generated_Source\PSoC6\pdl\drivers/peripheral/dma/cy_dma.h **** * <B>NOTE:</B> Even if a DMA channel is enabled, it is not operational until 
  68:Generated_Source\PSoC6\pdl\drivers/peripheral/dma/cy_dma.h **** * the DMA block is enabled using function \ref Cy_DMA_Enable.\n
  69:Generated_Source\PSoC6\pdl\drivers/peripheral/dma/cy_dma.h **** * <B>NOTE:</B> If the DMA descriptor is configured to generate an interrupt, 
  70:Generated_Source\PSoC6\pdl\drivers/peripheral/dma/cy_dma.h **** * the interrupt must be enabled using the \ref Cy_DMA_Channel_SetInterruptMask 
  71:Generated_Source\PSoC6\pdl\drivers/peripheral/dma/cy_dma.h **** * function for each DMA channel.
  72:Generated_Source\PSoC6\pdl\drivers/peripheral/dma/cy_dma.h **** *
  73:Generated_Source\PSoC6\pdl\drivers/peripheral/dma/cy_dma.h **** * For example:
  74:Generated_Source\PSoC6\pdl\drivers/peripheral/dma/cy_dma.h **** * \snippet dma\2.10\snippet\main.c snippet_Cy_DMA_Enable
  75:Generated_Source\PSoC6\pdl\drivers/peripheral/dma/cy_dma.h **** * 
  76:Generated_Source\PSoC6\pdl\drivers/peripheral/dma/cy_dma.h **** * \section group_dma_more_information More Information.
  77:Generated_Source\PSoC6\pdl\drivers/peripheral/dma/cy_dma.h **** * See: the DMA chapter of the device technical reference manual (TRM);
  78:Generated_Source\PSoC6\pdl\drivers/peripheral/dma/cy_dma.h **** *      the DMA Component datasheet;
  79:Generated_Source\PSoC6\pdl\drivers/peripheral/dma/cy_dma.h **** *      CE219940 - PSoC 6 MCU Multiple DMA Concatenation.
  80:Generated_Source\PSoC6\pdl\drivers/peripheral/dma/cy_dma.h **** *
  81:Generated_Source\PSoC6\pdl\drivers/peripheral/dma/cy_dma.h **** * \section group_dma_MISRA MISRA-C Compliance
  82:Generated_Source\PSoC6\pdl\drivers/peripheral/dma/cy_dma.h **** * The DMA driver has the following specific deviations:
  83:Generated_Source\PSoC6\pdl\drivers/peripheral/dma/cy_dma.h **** *
  84:Generated_Source\PSoC6\pdl\drivers/peripheral/dma/cy_dma.h **** * <table class="doxtable">
  85:Generated_Source\PSoC6\pdl\drivers/peripheral/dma/cy_dma.h **** *   <tr>
  86:Generated_Source\PSoC6\pdl\drivers/peripheral/dma/cy_dma.h **** *     <th>MISRA Rule</th>
  87:Generated_Source\PSoC6\pdl\drivers/peripheral/dma/cy_dma.h **** *     <th>Rule Class (Required/Advisory)</th>
  88:Generated_Source\PSoC6\pdl\drivers/peripheral/dma/cy_dma.h **** *     <th>Rule Description</th>
  89:Generated_Source\PSoC6\pdl\drivers/peripheral/dma/cy_dma.h **** *     <th>Description of Deviation(s)</th>
  90:Generated_Source\PSoC6\pdl\drivers/peripheral/dma/cy_dma.h **** *   </tr>
  91:Generated_Source\PSoC6\pdl\drivers/peripheral/dma/cy_dma.h **** *   <tr>
  92:Generated_Source\PSoC6\pdl\drivers/peripheral/dma/cy_dma.h **** *     <td>10.3</td>
  93:Generated_Source\PSoC6\pdl\drivers/peripheral/dma/cy_dma.h **** *     <td>R</td>
  94:Generated_Source\PSoC6\pdl\drivers/peripheral/dma/cy_dma.h **** *     <td>A composite expression of the "essentially unsigned" type is being
  95:Generated_Source\PSoC6\pdl\drivers/peripheral/dma/cy_dma.h **** *         cast to a different type category.</td>
  96:Generated_Source\PSoC6\pdl\drivers/peripheral/dma/cy_dma.h **** *     <td>The value got from the bitfield physically cannot exceed the enumeration
  97:Generated_Source\PSoC6\pdl\drivers/peripheral/dma/cy_dma.h **** *         that describes this bitfield. So, the code is safe by design.</td>
  98:Generated_Source\PSoC6\pdl\drivers/peripheral/dma/cy_dma.h **** *   </tr>
  99:Generated_Source\PSoC6\pdl\drivers/peripheral/dma/cy_dma.h **** *   <tr>
 100:Generated_Source\PSoC6\pdl\drivers/peripheral/dma/cy_dma.h **** *     <td>11.4</td>
 101:Generated_Source\PSoC6\pdl\drivers/peripheral/dma/cy_dma.h **** *     <td>A</td>
 102:Generated_Source\PSoC6\pdl\drivers/peripheral/dma/cy_dma.h **** *     <td>A cast should not be performed between a pointer to object type and
 103:Generated_Source\PSoC6\pdl\drivers/peripheral/dma/cy_dma.h **** *         a different pointer to object type.</td>
 104:Generated_Source\PSoC6\pdl\drivers/peripheral/dma/cy_dma.h **** *     <td>This piece of code is written for DW_V2_Type only and it will be never
 105:Generated_Source\PSoC6\pdl\drivers/peripheral/dma/cy_dma.h **** *         executed for DW_V1_Type (which is a default build option for DW_Type).</td>
 106:Generated_Source\PSoC6\pdl\drivers/peripheral/dma/cy_dma.h **** *   </tr>
 107:Generated_Source\PSoC6\pdl\drivers/peripheral/dma/cy_dma.h **** * </table>
 108:Generated_Source\PSoC6\pdl\drivers/peripheral/dma/cy_dma.h **** *
 109:Generated_Source\PSoC6\pdl\drivers/peripheral/dma/cy_dma.h **** * \section group_dma_changelog Changelog
ARM GAS  C:\Users\enes_\AppData\Local\Temp\ccQvJBBi.s 			page 9


 110:Generated_Source\PSoC6\pdl\drivers/peripheral/dma/cy_dma.h **** *
 111:Generated_Source\PSoC6\pdl\drivers/peripheral/dma/cy_dma.h **** * <table class="doxtable">
 112:Generated_Source\PSoC6\pdl\drivers/peripheral/dma/cy_dma.h **** *   <tr><th>Version</th><th>Changes</th><th>Reason for Change</th></tr>
 113:Generated_Source\PSoC6\pdl\drivers/peripheral/dma/cy_dma.h **** *   <tr>
 114:Generated_Source\PSoC6\pdl\drivers/peripheral/dma/cy_dma.h **** *     <td rowspan="3">2.10</td>
 115:Generated_Source\PSoC6\pdl\drivers/peripheral/dma/cy_dma.h **** *     <td>Flattened the organization of the driver source code into the single source directory and
 116:Generated_Source\PSoC6\pdl\drivers/peripheral/dma/cy_dma.h **** *     <td>Driver library directory-structure simplification.</td>
 117:Generated_Source\PSoC6\pdl\drivers/peripheral/dma/cy_dma.h **** *   </tr>
 118:Generated_Source\PSoC6\pdl\drivers/peripheral/dma/cy_dma.h **** *   <tr>
 119:Generated_Source\PSoC6\pdl\drivers/peripheral/dma/cy_dma.h **** *     <td>Added CRC mode and the CRC descriptor support. \n Added the \ref Cy_DMA_Crc_Init function
 120:Generated_Source\PSoC6\pdl\drivers/peripheral/dma/cy_dma.h **** *     <td>New devices support.</td>
 121:Generated_Source\PSoC6\pdl\drivers/peripheral/dma/cy_dma.h **** *   </tr>
 122:Generated_Source\PSoC6\pdl\drivers/peripheral/dma/cy_dma.h **** *   <tr>
 123:Generated_Source\PSoC6\pdl\drivers/peripheral/dma/cy_dma.h **** *     <td>Added register access layer. Use register access macros instead
 124:Generated_Source\PSoC6\pdl\drivers/peripheral/dma/cy_dma.h **** *         of direct register access using dereferenced pointers.</td>
 125:Generated_Source\PSoC6\pdl\drivers/peripheral/dma/cy_dma.h **** *     <td>Makes register access device-independent, so that the PDL does 
 126:Generated_Source\PSoC6\pdl\drivers/peripheral/dma/cy_dma.h **** *         not need to be recompiled for each supported part number.</td>
 127:Generated_Source\PSoC6\pdl\drivers/peripheral/dma/cy_dma.h **** *   </tr>
 128:Generated_Source\PSoC6\pdl\drivers/peripheral/dma/cy_dma.h **** *   <tr>
 129:Generated_Source\PSoC6\pdl\drivers/peripheral/dma/cy_dma.h **** *     <td>2.0.1</td>
 130:Generated_Source\PSoC6\pdl\drivers/peripheral/dma/cy_dma.h **** *     <td>Changed CY_DMA_BWC macro values from Boolean to numeric</td>
 131:Generated_Source\PSoC6\pdl\drivers/peripheral/dma/cy_dma.h **** *     <td>Improvements made based on usability feedback</td>
 132:Generated_Source\PSoC6\pdl\drivers/peripheral/dma/cy_dma.h **** *   </tr>
 133:Generated_Source\PSoC6\pdl\drivers/peripheral/dma/cy_dma.h **** *   <tr>
 134:Generated_Source\PSoC6\pdl\drivers/peripheral/dma/cy_dma.h **** *     <td>2.0</td>
 135:Generated_Source\PSoC6\pdl\drivers/peripheral/dma/cy_dma.h **** *     <td> * All the API is refactored to be consistent within itself and with the
 136:Generated_Source\PSoC6\pdl\drivers/peripheral/dma/cy_dma.h **** *            rest of the PDL content.
 137:Generated_Source\PSoC6\pdl\drivers/peripheral/dma/cy_dma.h **** *          * The descriptor API is updated as follows:
 138:Generated_Source\PSoC6\pdl\drivers/peripheral/dma/cy_dma.h **** *            The \ref Cy_DMA_Descriptor_Init function sets a full bunch of descriptor
 139:Generated_Source\PSoC6\pdl\drivers/peripheral/dma/cy_dma.h **** *            settings, and the rest of the descriptor API is a get/set interface
 140:Generated_Source\PSoC6\pdl\drivers/peripheral/dma/cy_dma.h **** *            to each of the descriptor settings.
 141:Generated_Source\PSoC6\pdl\drivers/peripheral/dma/cy_dma.h **** *          * There is a group of macros to support the backward compatibility with most 
 142:Generated_Source\PSoC6\pdl\drivers/peripheral/dma/cy_dma.h **** *            of the driver version 1.0 API. But, you should use
 143:Generated_Source\PSoC6\pdl\drivers/peripheral/dma/cy_dma.h **** *            the new v2.0 interface in new designs (do not just copy-paste from old
 144:Generated_Source\PSoC6\pdl\drivers/peripheral/dma/cy_dma.h **** *            projects). To enable the backward compatibility support, the CY_DMA_BWC 
 145:Generated_Source\PSoC6\pdl\drivers/peripheral/dma/cy_dma.h **** *            definition should be changed to "1".</td>
 146:Generated_Source\PSoC6\pdl\drivers/peripheral/dma/cy_dma.h **** *     <td></td>
 147:Generated_Source\PSoC6\pdl\drivers/peripheral/dma/cy_dma.h **** *   </tr>
 148:Generated_Source\PSoC6\pdl\drivers/peripheral/dma/cy_dma.h **** *   <tr>
 149:Generated_Source\PSoC6\pdl\drivers/peripheral/dma/cy_dma.h **** *     <td>1.0</td>
 150:Generated_Source\PSoC6\pdl\drivers/peripheral/dma/cy_dma.h **** *     <td>Initial version</td>
 151:Generated_Source\PSoC6\pdl\drivers/peripheral/dma/cy_dma.h **** *     <td></td>
 152:Generated_Source\PSoC6\pdl\drivers/peripheral/dma/cy_dma.h **** *   </tr>
 153:Generated_Source\PSoC6\pdl\drivers/peripheral/dma/cy_dma.h **** * </table>
 154:Generated_Source\PSoC6\pdl\drivers/peripheral/dma/cy_dma.h **** *
 155:Generated_Source\PSoC6\pdl\drivers/peripheral/dma/cy_dma.h **** 
 156:Generated_Source\PSoC6\pdl\drivers/peripheral/dma/cy_dma.h **** * \defgroup group_dma_macros Macros
 157:Generated_Source\PSoC6\pdl\drivers/peripheral/dma/cy_dma.h **** * \defgroup group_dma_functions Functions
 158:Generated_Source\PSoC6\pdl\drivers/peripheral/dma/cy_dma.h **** * \{
 159:Generated_Source\PSoC6\pdl\drivers/peripheral/dma/cy_dma.h **** * \defgroup group_dma_block_functions Block Functions
 160:Generated_Source\PSoC6\pdl\drivers/peripheral/dma/cy_dma.h **** * \defgroup group_dma_channel_functions Channel Functions
 161:Generated_Source\PSoC6\pdl\drivers/peripheral/dma/cy_dma.h **** * \defgroup group_dma_descriptor_functions Descriptor Functions
 162:Generated_Source\PSoC6\pdl\drivers/peripheral/dma/cy_dma.h **** * \}
 163:Generated_Source\PSoC6\pdl\drivers/peripheral/dma/cy_dma.h **** * \defgroup group_dma_data_structures Data Structures
 164:Generated_Source\PSoC6\pdl\drivers/peripheral/dma/cy_dma.h **** * \defgroup group_dma_enums Enumerated Types
 165:Generated_Source\PSoC6\pdl\drivers/peripheral/dma/cy_dma.h **** */
 166:Generated_Source\PSoC6\pdl\drivers/peripheral/dma/cy_dma.h **** 
ARM GAS  C:\Users\enes_\AppData\Local\Temp\ccQvJBBi.s 			page 10


 167:Generated_Source\PSoC6\pdl\drivers/peripheral/dma/cy_dma.h **** #if !defined(CY_DMA_H)
 168:Generated_Source\PSoC6\pdl\drivers/peripheral/dma/cy_dma.h **** #define CY_DMA_H
 169:Generated_Source\PSoC6\pdl\drivers/peripheral/dma/cy_dma.h **** 
 170:Generated_Source\PSoC6\pdl\drivers/peripheral/dma/cy_dma.h **** #include "cy_device.h"
 171:Generated_Source\PSoC6\pdl\drivers/peripheral/dma/cy_dma.h **** #include "cy_device_headers.h"
 172:Generated_Source\PSoC6\pdl\drivers/peripheral/dma/cy_dma.h **** #include "cy_syslib.h"
 173:Generated_Source\PSoC6\pdl\drivers/peripheral/dma/cy_dma.h **** #include <stdint.h>
 174:Generated_Source\PSoC6\pdl\drivers/peripheral/dma/cy_dma.h **** #include <stdbool.h>
 175:Generated_Source\PSoC6\pdl\drivers/peripheral/dma/cy_dma.h **** #include <stddef.h>
 176:Generated_Source\PSoC6\pdl\drivers/peripheral/dma/cy_dma.h **** 
 177:Generated_Source\PSoC6\pdl\drivers/peripheral/dma/cy_dma.h **** #ifdef CY_IP_M4CPUSS_DMA
 178:Generated_Source\PSoC6\pdl\drivers/peripheral/dma/cy_dma.h **** 
 179:Generated_Source\PSoC6\pdl\drivers/peripheral/dma/cy_dma.h **** #if defined(__cplusplus)
 180:Generated_Source\PSoC6\pdl\drivers/peripheral/dma/cy_dma.h **** extern "C" {
 181:Generated_Source\PSoC6\pdl\drivers/peripheral/dma/cy_dma.h **** #endif
 182:Generated_Source\PSoC6\pdl\drivers/peripheral/dma/cy_dma.h **** 
 183:Generated_Source\PSoC6\pdl\drivers/peripheral/dma/cy_dma.h **** /******************************************************************************
 184:Generated_Source\PSoC6\pdl\drivers/peripheral/dma/cy_dma.h ****  * Macro definitions                                                          *
 185:Generated_Source\PSoC6\pdl\drivers/peripheral/dma/cy_dma.h ****  ******************************************************************************/
 186:Generated_Source\PSoC6\pdl\drivers/peripheral/dma/cy_dma.h **** 
 187:Generated_Source\PSoC6\pdl\drivers/peripheral/dma/cy_dma.h **** /**
 188:Generated_Source\PSoC6\pdl\drivers/peripheral/dma/cy_dma.h **** * \addtogroup group_dma_macros
 189:Generated_Source\PSoC6\pdl\drivers/peripheral/dma/cy_dma.h **** * \{
 190:Generated_Source\PSoC6\pdl\drivers/peripheral/dma/cy_dma.h **** */
 191:Generated_Source\PSoC6\pdl\drivers/peripheral/dma/cy_dma.h **** 
 192:Generated_Source\PSoC6\pdl\drivers/peripheral/dma/cy_dma.h **** /** The driver major version */
 193:Generated_Source\PSoC6\pdl\drivers/peripheral/dma/cy_dma.h **** #define CY_DMA_DRV_VERSION_MAJOR       2
 194:Generated_Source\PSoC6\pdl\drivers/peripheral/dma/cy_dma.h **** 
 195:Generated_Source\PSoC6\pdl\drivers/peripheral/dma/cy_dma.h **** /** The driver minor version */
 196:Generated_Source\PSoC6\pdl\drivers/peripheral/dma/cy_dma.h **** #define CY_DMA_DRV_VERSION_MINOR       10
 197:Generated_Source\PSoC6\pdl\drivers/peripheral/dma/cy_dma.h **** 
 198:Generated_Source\PSoC6\pdl\drivers/peripheral/dma/cy_dma.h **** /** The DMA driver identifier */
 199:Generated_Source\PSoC6\pdl\drivers/peripheral/dma/cy_dma.h **** #define CY_DMA_ID                      (CY_PDL_DRV_ID(0x13U))
 200:Generated_Source\PSoC6\pdl\drivers/peripheral/dma/cy_dma.h ****  
 201:Generated_Source\PSoC6\pdl\drivers/peripheral/dma/cy_dma.h **** /** The DMA channel interrupt mask */
 202:Generated_Source\PSoC6\pdl\drivers/peripheral/dma/cy_dma.h **** #define CY_DMA_INTR_MASK               (0x01UL)
 203:Generated_Source\PSoC6\pdl\drivers/peripheral/dma/cy_dma.h **** 
 204:Generated_Source\PSoC6\pdl\drivers/peripheral/dma/cy_dma.h **** /** The minimum X/Y Count API parameters */
 205:Generated_Source\PSoC6\pdl\drivers/peripheral/dma/cy_dma.h **** #define CY_DMA_LOOP_COUNT_MIN          (1UL)
 206:Generated_Source\PSoC6\pdl\drivers/peripheral/dma/cy_dma.h **** /** The maximum X/Y Count API parameters */
 207:Generated_Source\PSoC6\pdl\drivers/peripheral/dma/cy_dma.h **** #define CY_DMA_LOOP_COUNT_MAX          (256UL)
 208:Generated_Source\PSoC6\pdl\drivers/peripheral/dma/cy_dma.h **** 
 209:Generated_Source\PSoC6\pdl\drivers/peripheral/dma/cy_dma.h **** /** The minimum X/Y Increment API parameters */
 210:Generated_Source\PSoC6\pdl\drivers/peripheral/dma/cy_dma.h **** #define CY_DMA_LOOP_INCREMENT_MIN      (-2048L)
 211:Generated_Source\PSoC6\pdl\drivers/peripheral/dma/cy_dma.h **** /** The maximum X/Y Increment API parameters */
 212:Generated_Source\PSoC6\pdl\drivers/peripheral/dma/cy_dma.h **** #define CY_DMA_LOOP_INCREMENT_MAX      (2047L)
 213:Generated_Source\PSoC6\pdl\drivers/peripheral/dma/cy_dma.h **** 
 214:Generated_Source\PSoC6\pdl\drivers/peripheral/dma/cy_dma.h **** /** The backward compatibility flag. Enables a group of macros which provide 
 215:Generated_Source\PSoC6\pdl\drivers/peripheral/dma/cy_dma.h **** * the backward compatibility with most of the DMA driver version 1.0 interface. */
 216:Generated_Source\PSoC6\pdl\drivers/peripheral/dma/cy_dma.h **** #ifndef CY_DMA_BWC
 217:Generated_Source\PSoC6\pdl\drivers/peripheral/dma/cy_dma.h ****     #define CY_DMA_BWC                 (0U) /* Disabled by default */
 218:Generated_Source\PSoC6\pdl\drivers/peripheral/dma/cy_dma.h **** #endif
 219:Generated_Source\PSoC6\pdl\drivers/peripheral/dma/cy_dma.h **** 
 220:Generated_Source\PSoC6\pdl\drivers/peripheral/dma/cy_dma.h **** /** \} group_dma_macros */
 221:Generated_Source\PSoC6\pdl\drivers/peripheral/dma/cy_dma.h **** 
 222:Generated_Source\PSoC6\pdl\drivers/peripheral/dma/cy_dma.h **** 
 223:Generated_Source\PSoC6\pdl\drivers/peripheral/dma/cy_dma.h **** /**
ARM GAS  C:\Users\enes_\AppData\Local\Temp\ccQvJBBi.s 			page 11


 224:Generated_Source\PSoC6\pdl\drivers/peripheral/dma/cy_dma.h **** * \addtogroup group_dma_enums
 225:Generated_Source\PSoC6\pdl\drivers/peripheral/dma/cy_dma.h **** * \{
 226:Generated_Source\PSoC6\pdl\drivers/peripheral/dma/cy_dma.h **** */
 227:Generated_Source\PSoC6\pdl\drivers/peripheral/dma/cy_dma.h **** 
 228:Generated_Source\PSoC6\pdl\drivers/peripheral/dma/cy_dma.h **** /** Contains the possible interrupt cause values */
 229:Generated_Source\PSoC6\pdl\drivers/peripheral/dma/cy_dma.h **** typedef enum
 230:Generated_Source\PSoC6\pdl\drivers/peripheral/dma/cy_dma.h **** {
 231:Generated_Source\PSoC6\pdl\drivers/peripheral/dma/cy_dma.h ****     CY_DMA_INTR_CAUSE_NO_INTR            = 0U, /**< No interrupt.                       */
 232:Generated_Source\PSoC6\pdl\drivers/peripheral/dma/cy_dma.h ****     CY_DMA_INTR_CAUSE_COMPLETION         = 1U, /**< Completion.                         */
 233:Generated_Source\PSoC6\pdl\drivers/peripheral/dma/cy_dma.h ****     CY_DMA_INTR_CAUSE_SRC_BUS_ERROR      = 2U, /**< Source bus error.                   */
 234:Generated_Source\PSoC6\pdl\drivers/peripheral/dma/cy_dma.h ****     CY_DMA_INTR_CAUSE_DST_BUS_ERROR      = 3U, /**< Destination bus error.              */
 235:Generated_Source\PSoC6\pdl\drivers/peripheral/dma/cy_dma.h ****     CY_DMA_INTR_CAUSE_SRC_MISAL          = 4U, /**< Source address is not aligned.       */
 236:Generated_Source\PSoC6\pdl\drivers/peripheral/dma/cy_dma.h ****     CY_DMA_INTR_CAUSE_DST_MISAL          = 5U, /**< Destination address is not aligned. */
 237:Generated_Source\PSoC6\pdl\drivers/peripheral/dma/cy_dma.h ****     CY_DMA_INTR_CAUSE_CURR_PTR_NULL      = 6U, /**< Current descriptor pointer is NULL. */
 238:Generated_Source\PSoC6\pdl\drivers/peripheral/dma/cy_dma.h ****     CY_DMA_INTR_CAUSE_ACTIVE_CH_DISABLED = 7U, /**< Active channel is disabled.         */
 239:Generated_Source\PSoC6\pdl\drivers/peripheral/dma/cy_dma.h ****     CY_DMA_INTR_CAUSE_DESCR_BUS_ERROR    = 8U  /**< Descriptor bus error.               */
 240:Generated_Source\PSoC6\pdl\drivers/peripheral/dma/cy_dma.h **** } cy_en_dma_intr_cause_t;
 241:Generated_Source\PSoC6\pdl\drivers/peripheral/dma/cy_dma.h **** 
 242:Generated_Source\PSoC6\pdl\drivers/peripheral/dma/cy_dma.h **** /** Contains the options for the descriptor type */
 243:Generated_Source\PSoC6\pdl\drivers/peripheral/dma/cy_dma.h **** typedef enum
 244:Generated_Source\PSoC6\pdl\drivers/peripheral/dma/cy_dma.h **** {
 245:Generated_Source\PSoC6\pdl\drivers/peripheral/dma/cy_dma.h ****     CY_DMA_SINGLE_TRANSFER = 0UL,          /**< Single transfer. */
 246:Generated_Source\PSoC6\pdl\drivers/peripheral/dma/cy_dma.h ****     CY_DMA_1D_TRANSFER     = 1UL,          /**< 1D transfer.     */
 247:Generated_Source\PSoC6\pdl\drivers/peripheral/dma/cy_dma.h ****     CY_DMA_2D_TRANSFER     = 2UL,          /**< 2D transfer.     */
 248:Generated_Source\PSoC6\pdl\drivers/peripheral/dma/cy_dma.h ****     CY_DMA_CRC_TRANSFER    = 3UL,          /**< CRC transfer. Supported by the CPUSS_ver2 only. */
 249:Generated_Source\PSoC6\pdl\drivers/peripheral/dma/cy_dma.h **** } cy_en_dma_descriptor_type_t;
 250:Generated_Source\PSoC6\pdl\drivers/peripheral/dma/cy_dma.h **** 
 251:Generated_Source\PSoC6\pdl\drivers/peripheral/dma/cy_dma.h **** /** Contains the options for the interrupt, trig-in and trig-out type parameters of the descriptor 
 252:Generated_Source\PSoC6\pdl\drivers/peripheral/dma/cy_dma.h **** typedef enum
 253:Generated_Source\PSoC6\pdl\drivers/peripheral/dma/cy_dma.h **** {
 254:Generated_Source\PSoC6\pdl\drivers/peripheral/dma/cy_dma.h ****     CY_DMA_1ELEMENT    = 0UL,              /**< One element transfer.             */
 255:Generated_Source\PSoC6\pdl\drivers/peripheral/dma/cy_dma.h ****     CY_DMA_X_LOOP      = 1UL,              /**< One X loop transfer.              */
 256:Generated_Source\PSoC6\pdl\drivers/peripheral/dma/cy_dma.h ****     CY_DMA_DESCR       = 2UL,              /**< One descriptor transfer.          */
 257:Generated_Source\PSoC6\pdl\drivers/peripheral/dma/cy_dma.h ****     CY_DMA_DESCR_CHAIN = 3UL               /**< Entire descriptor chain transfer. */
 258:Generated_Source\PSoC6\pdl\drivers/peripheral/dma/cy_dma.h **** } cy_en_dma_trigger_type_t;
 259:Generated_Source\PSoC6\pdl\drivers/peripheral/dma/cy_dma.h **** 
 260:Generated_Source\PSoC6\pdl\drivers/peripheral/dma/cy_dma.h **** /** Contains the options for the data size */
 261:Generated_Source\PSoC6\pdl\drivers/peripheral/dma/cy_dma.h **** typedef enum
 262:Generated_Source\PSoC6\pdl\drivers/peripheral/dma/cy_dma.h **** {
 263:Generated_Source\PSoC6\pdl\drivers/peripheral/dma/cy_dma.h ****     CY_DMA_BYTE     = 0UL,                 /**< One byte.               */
 264:Generated_Source\PSoC6\pdl\drivers/peripheral/dma/cy_dma.h ****     CY_DMA_HALFWORD = 1UL,                 /**< Half word (two bytes).  */
 265:Generated_Source\PSoC6\pdl\drivers/peripheral/dma/cy_dma.h ****     CY_DMA_WORD     = 2UL                  /**< Full word (four bytes). */
 266:Generated_Source\PSoC6\pdl\drivers/peripheral/dma/cy_dma.h **** } cy_en_dma_data_size_t;
 267:Generated_Source\PSoC6\pdl\drivers/peripheral/dma/cy_dma.h **** 
 268:Generated_Source\PSoC6\pdl\drivers/peripheral/dma/cy_dma.h **** /** Contains the options for descriptor retriggering */
 269:Generated_Source\PSoC6\pdl\drivers/peripheral/dma/cy_dma.h **** typedef enum
 270:Generated_Source\PSoC6\pdl\drivers/peripheral/dma/cy_dma.h **** {
 271:Generated_Source\PSoC6\pdl\drivers/peripheral/dma/cy_dma.h ****     CY_DMA_RETRIG_IM      = 0UL,           /**< Retrigger immediately.              */
 272:Generated_Source\PSoC6\pdl\drivers/peripheral/dma/cy_dma.h ****     CY_DMA_RETRIG_4CYC    = 1UL,           /**< Retrigger after 4 Clk_Slow cycles.  */
 273:Generated_Source\PSoC6\pdl\drivers/peripheral/dma/cy_dma.h ****     CY_DMA_RETRIG_16CYC   = 2UL,           /**< Retrigger after 16 Clk_Slow cycles. */
 274:Generated_Source\PSoC6\pdl\drivers/peripheral/dma/cy_dma.h ****     CY_DMA_WAIT_FOR_REACT = 3UL            /**< Wait for trigger reactivation.      */
 275:Generated_Source\PSoC6\pdl\drivers/peripheral/dma/cy_dma.h **** } cy_en_dma_retrigger_t;
 276:Generated_Source\PSoC6\pdl\drivers/peripheral/dma/cy_dma.h **** 
 277:Generated_Source\PSoC6\pdl\drivers/peripheral/dma/cy_dma.h **** /** Contains the options for the transfer size */
 278:Generated_Source\PSoC6\pdl\drivers/peripheral/dma/cy_dma.h **** typedef enum
 279:Generated_Source\PSoC6\pdl\drivers/peripheral/dma/cy_dma.h **** {
 280:Generated_Source\PSoC6\pdl\drivers/peripheral/dma/cy_dma.h ****     CY_DMA_TRANSFER_SIZE_DATA = 0UL,       /**< As specified by dataSize. */
ARM GAS  C:\Users\enes_\AppData\Local\Temp\ccQvJBBi.s 			page 12


 281:Generated_Source\PSoC6\pdl\drivers/peripheral/dma/cy_dma.h ****     CY_DMA_TRANSFER_SIZE_WORD = 1UL,       /**< A full word (four bytes). */
 282:Generated_Source\PSoC6\pdl\drivers/peripheral/dma/cy_dma.h **** } cy_en_dma_transfer_size_t;
 283:Generated_Source\PSoC6\pdl\drivers/peripheral/dma/cy_dma.h **** 
 284:Generated_Source\PSoC6\pdl\drivers/peripheral/dma/cy_dma.h **** /** Contains the options for the state of the channel when the descriptor is completed   */
 285:Generated_Source\PSoC6\pdl\drivers/peripheral/dma/cy_dma.h **** typedef enum
 286:Generated_Source\PSoC6\pdl\drivers/peripheral/dma/cy_dma.h **** {
 287:Generated_Source\PSoC6\pdl\drivers/peripheral/dma/cy_dma.h ****     CY_DMA_CHANNEL_ENABLED  = 0UL,         /**< Channel stays enabled. */
 288:Generated_Source\PSoC6\pdl\drivers/peripheral/dma/cy_dma.h ****     CY_DMA_CHANNEL_DISABLED = 1UL          /**< Channel is disabled.   */
 289:Generated_Source\PSoC6\pdl\drivers/peripheral/dma/cy_dma.h **** } cy_en_dma_channel_state_t;
 290:Generated_Source\PSoC6\pdl\drivers/peripheral/dma/cy_dma.h **** 
 291:Generated_Source\PSoC6\pdl\drivers/peripheral/dma/cy_dma.h **** /** Contains the return values of the DMA driver */
 292:Generated_Source\PSoC6\pdl\drivers/peripheral/dma/cy_dma.h **** typedef enum 
 293:Generated_Source\PSoC6\pdl\drivers/peripheral/dma/cy_dma.h **** {
 294:Generated_Source\PSoC6\pdl\drivers/peripheral/dma/cy_dma.h ****     CY_DMA_SUCCESS   = 0x00UL, /**< Success. */
 295:Generated_Source\PSoC6\pdl\drivers/peripheral/dma/cy_dma.h ****     CY_DMA_BAD_PARAM = CY_DMA_ID | CY_PDL_STATUS_ERROR | 0x01UL /**< The input parameters passed to
 296:Generated_Source\PSoC6\pdl\drivers/peripheral/dma/cy_dma.h **** } cy_en_dma_status_t;
 297:Generated_Source\PSoC6\pdl\drivers/peripheral/dma/cy_dma.h **** 
 298:Generated_Source\PSoC6\pdl\drivers/peripheral/dma/cy_dma.h **** /** \} group_dma_enums */
 299:Generated_Source\PSoC6\pdl\drivers/peripheral/dma/cy_dma.h **** 
 300:Generated_Source\PSoC6\pdl\drivers/peripheral/dma/cy_dma.h **** 
 301:Generated_Source\PSoC6\pdl\drivers/peripheral/dma/cy_dma.h **** /** \cond Internal */
 302:Generated_Source\PSoC6\pdl\drivers/peripheral/dma/cy_dma.h **** 
 303:Generated_Source\PSoC6\pdl\drivers/peripheral/dma/cy_dma.h **** /* Macros for the conditions used by CY_ASSERT calls */
 304:Generated_Source\PSoC6\pdl\drivers/peripheral/dma/cy_dma.h **** #define CY_DMA_IS_LOOP_COUNT_VALID(count)      (((count) >= CY_DMA_LOOP_COUNT_MIN) && ((count) <= C
 305:Generated_Source\PSoC6\pdl\drivers/peripheral/dma/cy_dma.h **** #define CY_DMA_IS_LOOP_INCR_VALID(incr)        (((incr) >= CY_DMA_LOOP_INCREMENT_MIN) && ((incr) <=
 306:Generated_Source\PSoC6\pdl\drivers/peripheral/dma/cy_dma.h **** #define CY_DMA_IS_PRIORITY_VALID(prio)         ((prio) <= 3UL)
 307:Generated_Source\PSoC6\pdl\drivers/peripheral/dma/cy_dma.h **** #define CY_DMA_IS_INTR_MASK_VALID(intr)        (0UL == ((intr) & ((uint32_t) ~CY_DMA_INTR_MASK)))
 308:Generated_Source\PSoC6\pdl\drivers/peripheral/dma/cy_dma.h **** 
 309:Generated_Source\PSoC6\pdl\drivers/peripheral/dma/cy_dma.h **** #define CY_DMA_IS_RETRIG_VALID(retrig)         ((CY_DMA_RETRIG_IM      == (retrig)) || \
 310:Generated_Source\PSoC6\pdl\drivers/peripheral/dma/cy_dma.h ****                                                 (CY_DMA_RETRIG_4CYC    == (retrig)) || \
 311:Generated_Source\PSoC6\pdl\drivers/peripheral/dma/cy_dma.h ****                                                 (CY_DMA_RETRIG_16CYC   == (retrig)) || \
 312:Generated_Source\PSoC6\pdl\drivers/peripheral/dma/cy_dma.h ****                                                 (CY_DMA_WAIT_FOR_REACT == (retrig)))
 313:Generated_Source\PSoC6\pdl\drivers/peripheral/dma/cy_dma.h **** 
 314:Generated_Source\PSoC6\pdl\drivers/peripheral/dma/cy_dma.h **** #define CY_DMA_IS_TRIG_TYPE_VALID(trigType)    ((CY_DMA_1ELEMENT    == (trigType)) || \
 315:Generated_Source\PSoC6\pdl\drivers/peripheral/dma/cy_dma.h ****                                                 (CY_DMA_X_LOOP      == (trigType)) || \
 316:Generated_Source\PSoC6\pdl\drivers/peripheral/dma/cy_dma.h ****                                                 (CY_DMA_DESCR       == (trigType)) || \
 317:Generated_Source\PSoC6\pdl\drivers/peripheral/dma/cy_dma.h ****                                                 (CY_DMA_DESCR_CHAIN == (trigType)))
 318:Generated_Source\PSoC6\pdl\drivers/peripheral/dma/cy_dma.h **** 
 319:Generated_Source\PSoC6\pdl\drivers/peripheral/dma/cy_dma.h **** #define CY_DMA_IS_XFER_SIZE_VALID(xferSize)    ((CY_DMA_TRANSFER_SIZE_DATA == (xferSize)) || \
 320:Generated_Source\PSoC6\pdl\drivers/peripheral/dma/cy_dma.h ****                                                 (CY_DMA_TRANSFER_SIZE_WORD == (xferSize)))
 321:Generated_Source\PSoC6\pdl\drivers/peripheral/dma/cy_dma.h **** 
 322:Generated_Source\PSoC6\pdl\drivers/peripheral/dma/cy_dma.h **** #define CY_DMA_IS_CHANNEL_STATE_VALID(state)   ((CY_DMA_CHANNEL_ENABLED  == (state)) || \
 323:Generated_Source\PSoC6\pdl\drivers/peripheral/dma/cy_dma.h ****                                                 (CY_DMA_CHANNEL_DISABLED == (state)))
 324:Generated_Source\PSoC6\pdl\drivers/peripheral/dma/cy_dma.h **** 
 325:Generated_Source\PSoC6\pdl\drivers/peripheral/dma/cy_dma.h **** #define CY_DMA_IS_DATA_SIZE_VALID(dataSize)    ((CY_DMA_BYTE     == (dataSize)) || \
 326:Generated_Source\PSoC6\pdl\drivers/peripheral/dma/cy_dma.h ****                                                 (CY_DMA_HALFWORD == (dataSize)) || \
 327:Generated_Source\PSoC6\pdl\drivers/peripheral/dma/cy_dma.h ****                                                 (CY_DMA_WORD     == (dataSize)))
 328:Generated_Source\PSoC6\pdl\drivers/peripheral/dma/cy_dma.h **** 
 329:Generated_Source\PSoC6\pdl\drivers/peripheral/dma/cy_dma.h **** #define CY_DMA_IS_TYPE_VALID(descrType)        ((CY_DMA_SINGLE_TRANSFER == (descrType)) || \
 330:Generated_Source\PSoC6\pdl\drivers/peripheral/dma/cy_dma.h ****                                                 (CY_DMA_1D_TRANSFER     == (descrType)) || \
 331:Generated_Source\PSoC6\pdl\drivers/peripheral/dma/cy_dma.h ****                                                 (CY_DMA_2D_TRANSFER     == (descrType)) || \
 332:Generated_Source\PSoC6\pdl\drivers/peripheral/dma/cy_dma.h ****                                                 (CY_DMA_CRC_TRANSFER    == (descrType)))
 333:Generated_Source\PSoC6\pdl\drivers/peripheral/dma/cy_dma.h **** 
 334:Generated_Source\PSoC6\pdl\drivers/peripheral/dma/cy_dma.h **** #define CY_DMA_IS_CH_NR_VALID(chNr)            ((chNr) < CY_DW_CH_NR)
 335:Generated_Source\PSoC6\pdl\drivers/peripheral/dma/cy_dma.h **** 
 336:Generated_Source\PSoC6\pdl\drivers/peripheral/dma/cy_dma.h **** 
 337:Generated_Source\PSoC6\pdl\drivers/peripheral/dma/cy_dma.h **** /* The descriptor structure bit field definitions */
ARM GAS  C:\Users\enes_\AppData\Local\Temp\ccQvJBBi.s 			page 13


 338:Generated_Source\PSoC6\pdl\drivers/peripheral/dma/cy_dma.h **** #define CY_DMA_CTL_RETRIG_Pos      (0UL)
 339:Generated_Source\PSoC6\pdl\drivers/peripheral/dma/cy_dma.h **** #define CY_DMA_CTL_RETRIG_Msk      ((uint32_t)0x3UL << CY_DMA_CTL_RETRIG_Pos)
 340:Generated_Source\PSoC6\pdl\drivers/peripheral/dma/cy_dma.h **** #define CY_DMA_CTL_INTR_TYPE_Pos   (2UL)
 341:Generated_Source\PSoC6\pdl\drivers/peripheral/dma/cy_dma.h **** #define CY_DMA_CTL_INTR_TYPE_Msk   ((uint32_t)0x3UL << CY_DMA_CTL_INTR_TYPE_Pos)
 342:Generated_Source\PSoC6\pdl\drivers/peripheral/dma/cy_dma.h **** #define CY_DMA_CTL_TR_OUT_TYPE_Pos (4UL)
 343:Generated_Source\PSoC6\pdl\drivers/peripheral/dma/cy_dma.h **** #define CY_DMA_CTL_TR_OUT_TYPE_Msk ((uint32_t)0x3UL << CY_DMA_CTL_TR_OUT_TYPE_Pos)
 344:Generated_Source\PSoC6\pdl\drivers/peripheral/dma/cy_dma.h **** #define CY_DMA_CTL_TR_IN_TYPE_Pos  (6UL)
 345:Generated_Source\PSoC6\pdl\drivers/peripheral/dma/cy_dma.h **** #define CY_DMA_CTL_TR_IN_TYPE_Msk  ((uint32_t)0x3UL << CY_DMA_CTL_TR_IN_TYPE_Pos)
 346:Generated_Source\PSoC6\pdl\drivers/peripheral/dma/cy_dma.h **** #define CY_DMA_CTL_CH_DISABLE_Pos  (24UL)
 347:Generated_Source\PSoC6\pdl\drivers/peripheral/dma/cy_dma.h **** #define CY_DMA_CTL_CH_DISABLE_Msk  ((uint32_t)0x1UL << CY_DMA_CTL_CH_DISABLE_Pos)
 348:Generated_Source\PSoC6\pdl\drivers/peripheral/dma/cy_dma.h **** #define CY_DMA_CTL_SRC_SIZE_Pos    (26UL)
 349:Generated_Source\PSoC6\pdl\drivers/peripheral/dma/cy_dma.h **** #define CY_DMA_CTL_SRC_SIZE_Msk    ((uint32_t)0x1UL << CY_DMA_CTL_SRC_SIZE_Pos)
 350:Generated_Source\PSoC6\pdl\drivers/peripheral/dma/cy_dma.h **** #define CY_DMA_CTL_DST_SIZE_Pos    (27UL)
 351:Generated_Source\PSoC6\pdl\drivers/peripheral/dma/cy_dma.h **** #define CY_DMA_CTL_DST_SIZE_Msk    ((uint32_t)0x1UL << CY_DMA_CTL_DST_SIZE_Pos)
 352:Generated_Source\PSoC6\pdl\drivers/peripheral/dma/cy_dma.h **** #define CY_DMA_CTL_DATA_SIZE_Pos   (28UL)
 353:Generated_Source\PSoC6\pdl\drivers/peripheral/dma/cy_dma.h **** #define CY_DMA_CTL_DATA_SIZE_Msk   ((uint32_t)0x3UL << CY_DMA_CTL_DATA_SIZE_Pos)
 354:Generated_Source\PSoC6\pdl\drivers/peripheral/dma/cy_dma.h **** #define CY_DMA_CTL_TYPE_Pos        (30UL)
 355:Generated_Source\PSoC6\pdl\drivers/peripheral/dma/cy_dma.h **** #define CY_DMA_CTL_TYPE_Msk        ((uint32_t)0x3UL << CY_DMA_CTL_TYPE_Pos)
 356:Generated_Source\PSoC6\pdl\drivers/peripheral/dma/cy_dma.h **** 
 357:Generated_Source\PSoC6\pdl\drivers/peripheral/dma/cy_dma.h **** #define CY_DMA_CTL_SRC_INCR_Pos    (0UL)
 358:Generated_Source\PSoC6\pdl\drivers/peripheral/dma/cy_dma.h **** #define CY_DMA_CTL_SRC_INCR_Msk    ((uint32_t)0xFFFUL << CY_DMA_CTL_SRC_INCR_Pos)
 359:Generated_Source\PSoC6\pdl\drivers/peripheral/dma/cy_dma.h **** #define CY_DMA_CTL_DST_INCR_Pos    (12UL)
 360:Generated_Source\PSoC6\pdl\drivers/peripheral/dma/cy_dma.h **** #define CY_DMA_CTL_DST_INCR_Msk    ((uint32_t)0xFFFUL << CY_DMA_CTL_DST_INCR_Pos)
 361:Generated_Source\PSoC6\pdl\drivers/peripheral/dma/cy_dma.h **** #define CY_DMA_CTL_COUNT_Pos       (24UL)
 362:Generated_Source\PSoC6\pdl\drivers/peripheral/dma/cy_dma.h **** #define CY_DMA_CTL_COUNT_Msk       ((uint32_t)0xFFUL << CY_DMA_CTL_COUNT_Pos)
 363:Generated_Source\PSoC6\pdl\drivers/peripheral/dma/cy_dma.h **** 
 364:Generated_Source\PSoC6\pdl\drivers/peripheral/dma/cy_dma.h **** /** \endcond */
 365:Generated_Source\PSoC6\pdl\drivers/peripheral/dma/cy_dma.h **** 
 366:Generated_Source\PSoC6\pdl\drivers/peripheral/dma/cy_dma.h **** 
 367:Generated_Source\PSoC6\pdl\drivers/peripheral/dma/cy_dma.h **** /**
 368:Generated_Source\PSoC6\pdl\drivers/peripheral/dma/cy_dma.h **** * \addtogroup group_dma_data_structures
 369:Generated_Source\PSoC6\pdl\drivers/peripheral/dma/cy_dma.h **** * \{
 370:Generated_Source\PSoC6\pdl\drivers/peripheral/dma/cy_dma.h **** */
 371:Generated_Source\PSoC6\pdl\drivers/peripheral/dma/cy_dma.h **** 
 372:Generated_Source\PSoC6\pdl\drivers/peripheral/dma/cy_dma.h **** /** 
 373:Generated_Source\PSoC6\pdl\drivers/peripheral/dma/cy_dma.h **** * DMA descriptor structure type. It is a user/component-declared structure 
 374:Generated_Source\PSoC6\pdl\drivers/peripheral/dma/cy_dma.h **** * allocated in RAM. The DMA HW requires a pointer to this structure to work with it.
 375:Generated_Source\PSoC6\pdl\drivers/peripheral/dma/cy_dma.h **** *
 376:Generated_Source\PSoC6\pdl\drivers/peripheral/dma/cy_dma.h **** * For advanced users: the descriptor can be allocated even in flash, then the user
 377:Generated_Source\PSoC6\pdl\drivers/peripheral/dma/cy_dma.h **** * manually predefines all the structure items with constants. This is 
 378:Generated_Source\PSoC6\pdl\drivers/peripheral/dma/cy_dma.h **** * because most of the driver's API (especially functions modifying
 379:Generated_Source\PSoC6\pdl\drivers/peripheral/dma/cy_dma.h **** * descriptors, including \ref Cy_DMA_Descriptor_Init()) can't work with 
 380:Generated_Source\PSoC6\pdl\drivers/peripheral/dma/cy_dma.h **** * read-only descriptors.
 381:Generated_Source\PSoC6\pdl\drivers/peripheral/dma/cy_dma.h **** */
 382:Generated_Source\PSoC6\pdl\drivers/peripheral/dma/cy_dma.h **** typedef struct
 383:Generated_Source\PSoC6\pdl\drivers/peripheral/dma/cy_dma.h **** {
 384:Generated_Source\PSoC6\pdl\drivers/peripheral/dma/cy_dma.h ****     uint32_t ctl;                    /*!< 0x00000000 Descriptor control */
 385:Generated_Source\PSoC6\pdl\drivers/peripheral/dma/cy_dma.h ****     uint32_t src;                    /*!< 0x00000004 Descriptor source */
 386:Generated_Source\PSoC6\pdl\drivers/peripheral/dma/cy_dma.h ****     uint32_t dst;                    /*!< 0x00000008 Descriptor destination */
 387:Generated_Source\PSoC6\pdl\drivers/peripheral/dma/cy_dma.h ****     uint32_t xCtl;                   /*!< 0x0000000C Descriptor X loop control */
 388:Generated_Source\PSoC6\pdl\drivers/peripheral/dma/cy_dma.h ****     uint32_t yCtl;                   /*!< 0x00000010 Descriptor Y loop control */
 389:Generated_Source\PSoC6\pdl\drivers/peripheral/dma/cy_dma.h ****     uint32_t nextPtr;                /*!< 0x00000014 Descriptor next pointer */
 390:Generated_Source\PSoC6\pdl\drivers/peripheral/dma/cy_dma.h **** } cy_stc_dma_descriptor_t;
 391:Generated_Source\PSoC6\pdl\drivers/peripheral/dma/cy_dma.h **** 
 392:Generated_Source\PSoC6\pdl\drivers/peripheral/dma/cy_dma.h **** /**
 393:Generated_Source\PSoC6\pdl\drivers/peripheral/dma/cy_dma.h **** * This structure is a configuration structure pre-initialized by the user and
 394:Generated_Source\PSoC6\pdl\drivers/peripheral/dma/cy_dma.h **** * passed as a parameter to the \ref Cy_DMA_Descriptor_Init().
ARM GAS  C:\Users\enes_\AppData\Local\Temp\ccQvJBBi.s 			page 14


 395:Generated_Source\PSoC6\pdl\drivers/peripheral/dma/cy_dma.h **** * It can be allocated in RAM/flash (the user's choice).
 396:Generated_Source\PSoC6\pdl\drivers/peripheral/dma/cy_dma.h **** * In case of flash allocation, there is a possibility to reinitialize the descriptor in runtime.
 397:Generated_Source\PSoC6\pdl\drivers/peripheral/dma/cy_dma.h **** * This structure has all the parameters of the descriptor as separate parameters.
 398:Generated_Source\PSoC6\pdl\drivers/peripheral/dma/cy_dma.h **** * Most of these parameters are represented in the \ref cy_stc_dma_descriptor_t structure as bitfiel
 399:Generated_Source\PSoC6\pdl\drivers/peripheral/dma/cy_dma.h **** */
 400:Generated_Source\PSoC6\pdl\drivers/peripheral/dma/cy_dma.h **** typedef struct
 401:Generated_Source\PSoC6\pdl\drivers/peripheral/dma/cy_dma.h **** {
 402:Generated_Source\PSoC6\pdl\drivers/peripheral/dma/cy_dma.h ****     cy_en_dma_retrigger_t       retrigger;       /**< Specifies whether the DW controller should wa
 403:Generated_Source\PSoC6\pdl\drivers/peripheral/dma/cy_dma.h ****     cy_en_dma_trigger_type_t    interruptType;   /**< Sets the event that triggers an interrupt. Se
 404:Generated_Source\PSoC6\pdl\drivers/peripheral/dma/cy_dma.h ****     cy_en_dma_trigger_type_t    triggerOutType;  /**< Sets the event that triggers an output. See \
 405:Generated_Source\PSoC6\pdl\drivers/peripheral/dma/cy_dma.h ****     cy_en_dma_channel_state_t   channelState;    /**< Specifies whether the channel is enabled or d
 406:Generated_Source\PSoC6\pdl\drivers/peripheral/dma/cy_dma.h ****     cy_en_dma_trigger_type_t    triggerInType;   /**< Sets what type of transfer is triggered. See 
 407:Generated_Source\PSoC6\pdl\drivers/peripheral/dma/cy_dma.h ****     cy_en_dma_data_size_t       dataSize;        /**< The size of the data bus for transfer. See \r
 408:Generated_Source\PSoC6\pdl\drivers/peripheral/dma/cy_dma.h ****     cy_en_dma_transfer_size_t   srcTransferSize; /**< The source transfer size. */
 409:Generated_Source\PSoC6\pdl\drivers/peripheral/dma/cy_dma.h ****     cy_en_dma_transfer_size_t   dstTransferSize; /**< The destination transfer size. */
 410:Generated_Source\PSoC6\pdl\drivers/peripheral/dma/cy_dma.h ****     cy_en_dma_descriptor_type_t descriptorType;  /**< The type of the descriptor. See \ref cy_en_dm
 411:Generated_Source\PSoC6\pdl\drivers/peripheral/dma/cy_dma.h ****     void *                      srcAddress;      /**< The source address of the transfer. */
 412:Generated_Source\PSoC6\pdl\drivers/peripheral/dma/cy_dma.h ****     void *                      dstAddress;      /**< The destination address of the transfer.
 413:Generated_Source\PSoC6\pdl\drivers/peripheral/dma/cy_dma.h ****                                                    *  For CPUSS_ver2 only: for CRC transfer, the CR
 414:Generated_Source\PSoC6\pdl\drivers/peripheral/dma/cy_dma.h ****                                                    *  (reversing and/or XORing, if used) is placed 
 415:Generated_Source\PSoC6\pdl\drivers/peripheral/dma/cy_dma.h ****                                                    */
 416:Generated_Source\PSoC6\pdl\drivers/peripheral/dma/cy_dma.h ****     int32_t                     srcXincrement;   /**< The address increment of the source after eac
 417:Generated_Source\PSoC6\pdl\drivers/peripheral/dma/cy_dma.h ****     int32_t                     dstXincrement;   /**< The address increment of the destination afte
 418:Generated_Source\PSoC6\pdl\drivers/peripheral/dma/cy_dma.h ****     uint32_t                    xCount;          /**< The number of transfers in an X-loop. Valid r
 419:Generated_Source\PSoC6\pdl\drivers/peripheral/dma/cy_dma.h ****     int32_t                     srcYincrement;   /**< The address increment of the source after eac
 420:Generated_Source\PSoC6\pdl\drivers/peripheral/dma/cy_dma.h ****     int32_t                     dstYincrement;   /**< The address increment of the destination afte
 421:Generated_Source\PSoC6\pdl\drivers/peripheral/dma/cy_dma.h ****     uint32_t                    yCount;          /**< The number of X-loops in the Y-loop. Valid ra
 422:Generated_Source\PSoC6\pdl\drivers/peripheral/dma/cy_dma.h ****     cy_stc_dma_descriptor_t *   nextDescriptor;  /**< The next descriptor to chain after completion
 423:Generated_Source\PSoC6\pdl\drivers/peripheral/dma/cy_dma.h **** } cy_stc_dma_descriptor_config_t;
 424:Generated_Source\PSoC6\pdl\drivers/peripheral/dma/cy_dma.h **** 
 425:Generated_Source\PSoC6\pdl\drivers/peripheral/dma/cy_dma.h **** /** This structure holds the initialization values for the DMA channel */
 426:Generated_Source\PSoC6\pdl\drivers/peripheral/dma/cy_dma.h **** typedef struct
 427:Generated_Source\PSoC6\pdl\drivers/peripheral/dma/cy_dma.h **** {
 428:Generated_Source\PSoC6\pdl\drivers/peripheral/dma/cy_dma.h ****     cy_stc_dma_descriptor_t * descriptor;      /**< The DMA descriptor associated with the channel 
 429:Generated_Source\PSoC6\pdl\drivers/peripheral/dma/cy_dma.h ****     bool     preemptable;                      /**< Specifies whether the channel is preemptable by
 430:Generated_Source\PSoC6\pdl\drivers/peripheral/dma/cy_dma.h ****     uint32_t priority;                         /**< This parameter specifies the channel's priority
 431:Generated_Source\PSoC6\pdl\drivers/peripheral/dma/cy_dma.h ****     bool     enable;                           /**< This parameter specifies whether the channel is
 432:Generated_Source\PSoC6\pdl\drivers/peripheral/dma/cy_dma.h ****     bool     bufferable;                       /**< This parameter specifies whether a write transa
 433:Generated_Source\PSoC6\pdl\drivers/peripheral/dma/cy_dma.h ****                                                     without waiting for the destination to accept t
 434:Generated_Source\PSoC6\pdl\drivers/peripheral/dma/cy_dma.h **** } cy_stc_dma_channel_config_t;
 435:Generated_Source\PSoC6\pdl\drivers/peripheral/dma/cy_dma.h **** 
 436:Generated_Source\PSoC6\pdl\drivers/peripheral/dma/cy_dma.h **** 
 437:Generated_Source\PSoC6\pdl\drivers/peripheral/dma/cy_dma.h **** /** This structure holds the initialization values for the CRC feature, only for CPUSS_ver2 */
 438:Generated_Source\PSoC6\pdl\drivers/peripheral/dma/cy_dma.h **** typedef struct
 439:Generated_Source\PSoC6\pdl\drivers/peripheral/dma/cy_dma.h **** {
 440:Generated_Source\PSoC6\pdl\drivers/peripheral/dma/cy_dma.h ****     bool     dataReverse;     /**< Specifies the bit order in which a data byte is processed (rever
 441:Generated_Source\PSoC6\pdl\drivers/peripheral/dma/cy_dma.h ****                                * 'false': Most significant bit (bit 1) first.
 442:Generated_Source\PSoC6\pdl\drivers/peripheral/dma/cy_dma.h ****                                * 'true': Least significant bit (bit 0) first.
 443:Generated_Source\PSoC6\pdl\drivers/peripheral/dma/cy_dma.h ****                                */
 444:Generated_Source\PSoC6\pdl\drivers/peripheral/dma/cy_dma.h ****     uint32_t dataXor;         /**< Specifies a byte mask with which each data byte is XORed. The XO
 445:Generated_Source\PSoC6\pdl\drivers/peripheral/dma/cy_dma.h ****     bool     reminderReverse; /**< Specifies whether the remainder is bit reversed (reversal is per
 446:Generated_Source\PSoC6\pdl\drivers/peripheral/dma/cy_dma.h ****                                *   Note: this parameter doesn't affect the CRC value stored into th
 447:Generated_Source\PSoC6\pdl\drivers/peripheral/dma/cy_dma.h ****                                *   The reversed value remains in the CRC_REM_RESULT register.
 448:Generated_Source\PSoC6\pdl\drivers/peripheral/dma/cy_dma.h ****                                */
 449:Generated_Source\PSoC6\pdl\drivers/peripheral/dma/cy_dma.h ****     uint32_t reminderXor;     /**< Specifies a mask with which the remainder is XORed. The XOR is p
 450:Generated_Source\PSoC6\pdl\drivers/peripheral/dma/cy_dma.h ****                                *   Note: this parameter doesn't affect the CRC value stored into th
 451:Generated_Source\PSoC6\pdl\drivers/peripheral/dma/cy_dma.h ****                                *   The XORed value remains in the CRC_REM_RESULT register.
ARM GAS  C:\Users\enes_\AppData\Local\Temp\ccQvJBBi.s 			page 15


 452:Generated_Source\PSoC6\pdl\drivers/peripheral/dma/cy_dma.h ****                                */
 453:Generated_Source\PSoC6\pdl\drivers/peripheral/dma/cy_dma.h ****     uint32_t polynomial;      /**< CRC polynomial. The polynomial is represented WITHOUT the high o
 454:Generated_Source\PSoC6\pdl\drivers/peripheral/dma/cy_dma.h ****                                * The polynomial should be aligned/shifted such that the more signif
 455:Generated_Source\PSoC6\pdl\drivers/peripheral/dma/cy_dma.h ****                                * and the less significant bits (bit 0 and up) contain padding '0's.
 456:Generated_Source\PSoC6\pdl\drivers/peripheral/dma/cy_dma.h ****                                * - CRC32: POLYNOMIAL is 0x04c11db7 (x^32 + x^26 + x^23 + x^22 + x^1
 457:Generated_Source\PSoC6\pdl\drivers/peripheral/dma/cy_dma.h ****                                * - CRC16: POLYNOMIAL is 0x80050000 (x^16 + x^15 + x^2 + 1, shifted 
 458:Generated_Source\PSoC6\pdl\drivers/peripheral/dma/cy_dma.h ****                                * - CRC16 CCITT: POLYNOMIAL is 0x10210000 (x^16 + x^12 + x^5 + 1, sh
 459:Generated_Source\PSoC6\pdl\drivers/peripheral/dma/cy_dma.h ****                                */
 460:Generated_Source\PSoC6\pdl\drivers/peripheral/dma/cy_dma.h ****     uint32_t lfsrInitVal;     /**< The initial value of the Linear Feedback Shift Register */
 461:Generated_Source\PSoC6\pdl\drivers/peripheral/dma/cy_dma.h **** } cy_stc_dma_crc_config_t;
 462:Generated_Source\PSoC6\pdl\drivers/peripheral/dma/cy_dma.h **** 
 463:Generated_Source\PSoC6\pdl\drivers/peripheral/dma/cy_dma.h **** /** \} group_dma_data_structures */
 464:Generated_Source\PSoC6\pdl\drivers/peripheral/dma/cy_dma.h **** 
 465:Generated_Source\PSoC6\pdl\drivers/peripheral/dma/cy_dma.h **** 
 466:Generated_Source\PSoC6\pdl\drivers/peripheral/dma/cy_dma.h **** /**
 467:Generated_Source\PSoC6\pdl\drivers/peripheral/dma/cy_dma.h **** * \addtogroup group_dma_functions
 468:Generated_Source\PSoC6\pdl\drivers/peripheral/dma/cy_dma.h **** * \{
 469:Generated_Source\PSoC6\pdl\drivers/peripheral/dma/cy_dma.h **** */
 470:Generated_Source\PSoC6\pdl\drivers/peripheral/dma/cy_dma.h **** 
 471:Generated_Source\PSoC6\pdl\drivers/peripheral/dma/cy_dma.h **** 
 472:Generated_Source\PSoC6\pdl\drivers/peripheral/dma/cy_dma.h **** /**
 473:Generated_Source\PSoC6\pdl\drivers/peripheral/dma/cy_dma.h **** * \addtogroup group_dma_block_functions
 474:Generated_Source\PSoC6\pdl\drivers/peripheral/dma/cy_dma.h **** * \{
 475:Generated_Source\PSoC6\pdl\drivers/peripheral/dma/cy_dma.h **** */
 476:Generated_Source\PSoC6\pdl\drivers/peripheral/dma/cy_dma.h **** 
 477:Generated_Source\PSoC6\pdl\drivers/peripheral/dma/cy_dma.h **** 
 478:Generated_Source\PSoC6\pdl\drivers/peripheral/dma/cy_dma.h **** __STATIC_INLINE void     Cy_DMA_Enable             (DW_Type * base);
 479:Generated_Source\PSoC6\pdl\drivers/peripheral/dma/cy_dma.h **** __STATIC_INLINE void     Cy_DMA_Disable            (DW_Type * base);
 480:Generated_Source\PSoC6\pdl\drivers/peripheral/dma/cy_dma.h **** __STATIC_INLINE uint32_t Cy_DMA_GetActiveChannel   (DW_Type const * base);
 481:Generated_Source\PSoC6\pdl\drivers/peripheral/dma/cy_dma.h **** __STATIC_INLINE void *   Cy_DMA_GetActiveSrcAddress(DW_Type * base);
 482:Generated_Source\PSoC6\pdl\drivers/peripheral/dma/cy_dma.h **** __STATIC_INLINE void *   Cy_DMA_GetActiveDstAddress(DW_Type * base);
 483:Generated_Source\PSoC6\pdl\drivers/peripheral/dma/cy_dma.h ****       cy_en_dma_status_t Cy_DMA_Crc_Init           (DW_Type * base, cy_stc_dma_crc_config_t const *
 484:Generated_Source\PSoC6\pdl\drivers/peripheral/dma/cy_dma.h **** 
 485:Generated_Source\PSoC6\pdl\drivers/peripheral/dma/cy_dma.h **** /** \} group_dma_block_functions */
 486:Generated_Source\PSoC6\pdl\drivers/peripheral/dma/cy_dma.h **** 
 487:Generated_Source\PSoC6\pdl\drivers/peripheral/dma/cy_dma.h **** 
 488:Generated_Source\PSoC6\pdl\drivers/peripheral/dma/cy_dma.h **** /**
 489:Generated_Source\PSoC6\pdl\drivers/peripheral/dma/cy_dma.h **** * \addtogroup group_dma_channel_functions
 490:Generated_Source\PSoC6\pdl\drivers/peripheral/dma/cy_dma.h **** * \{
 491:Generated_Source\PSoC6\pdl\drivers/peripheral/dma/cy_dma.h **** */
 492:Generated_Source\PSoC6\pdl\drivers/peripheral/dma/cy_dma.h ****       cy_en_dma_status_t Cy_DMA_Channel_Init                    (DW_Type       * base, uint32_t cha
 493:Generated_Source\PSoC6\pdl\drivers/peripheral/dma/cy_dma.h ****                 void     Cy_DMA_Channel_DeInit                  (DW_Type       * base, uint32_t cha
 494:Generated_Source\PSoC6\pdl\drivers/peripheral/dma/cy_dma.h **** __STATIC_INLINE void     Cy_DMA_Channel_SetDescriptor           (DW_Type       * base, uint32_t cha
 495:Generated_Source\PSoC6\pdl\drivers/peripheral/dma/cy_dma.h **** __STATIC_INLINE void     Cy_DMA_Channel_Enable                  (DW_Type       * base, uint32_t cha
 496:Generated_Source\PSoC6\pdl\drivers/peripheral/dma/cy_dma.h **** __STATIC_INLINE void     Cy_DMA_Channel_Disable                 (DW_Type       * base, uint32_t cha
 497:Generated_Source\PSoC6\pdl\drivers/peripheral/dma/cy_dma.h **** __STATIC_INLINE void     Cy_DMA_Channel_SetPriority             (DW_Type       * base, uint32_t cha
 498:Generated_Source\PSoC6\pdl\drivers/peripheral/dma/cy_dma.h **** __STATIC_INLINE uint32_t Cy_DMA_Channel_GetPriority             (DW_Type const * base, uint32_t cha
 499:Generated_Source\PSoC6\pdl\drivers/peripheral/dma/cy_dma.h **** __STATIC_INLINE
 500:Generated_Source\PSoC6\pdl\drivers/peripheral/dma/cy_dma.h ****   cy_en_dma_intr_cause_t Cy_DMA_Channel_GetStatus               (DW_Type const * base, uint32_t cha
 501:Generated_Source\PSoC6\pdl\drivers/peripheral/dma/cy_dma.h **** __STATIC_INLINE
 502:Generated_Source\PSoC6\pdl\drivers/peripheral/dma/cy_dma.h **** cy_stc_dma_descriptor_t * Cy_DMA_Channel_GetCurrentDescriptor   (DW_Type const * base, uint32_t cha
 503:Generated_Source\PSoC6\pdl\drivers/peripheral/dma/cy_dma.h **** 
 504:Generated_Source\PSoC6\pdl\drivers/peripheral/dma/cy_dma.h **** __STATIC_INLINE uint32_t Cy_DMA_Channel_GetInterruptStatus      (DW_Type const * base, uint32_t cha
 505:Generated_Source\PSoC6\pdl\drivers/peripheral/dma/cy_dma.h **** __STATIC_INLINE void     Cy_DMA_Channel_ClearInterrupt          (DW_Type       * base, uint32_t cha
 506:Generated_Source\PSoC6\pdl\drivers/peripheral/dma/cy_dma.h **** __STATIC_INLINE void     Cy_DMA_Channel_SetInterrupt            (DW_Type       * base, uint32_t cha
 507:Generated_Source\PSoC6\pdl\drivers/peripheral/dma/cy_dma.h **** __STATIC_INLINE uint32_t Cy_DMA_Channel_GetInterruptMask        (DW_Type const * base, uint32_t cha
 508:Generated_Source\PSoC6\pdl\drivers/peripheral/dma/cy_dma.h **** __STATIC_INLINE void     Cy_DMA_Channel_SetInterruptMask        (DW_Type       * base, uint32_t cha
ARM GAS  C:\Users\enes_\AppData\Local\Temp\ccQvJBBi.s 			page 16


 509:Generated_Source\PSoC6\pdl\drivers/peripheral/dma/cy_dma.h **** __STATIC_INLINE uint32_t Cy_DMA_Channel_GetInterruptStatusMasked(DW_Type const * base, uint32_t cha
 510:Generated_Source\PSoC6\pdl\drivers/peripheral/dma/cy_dma.h **** 
 511:Generated_Source\PSoC6\pdl\drivers/peripheral/dma/cy_dma.h **** /** \} group_dma_channel_functions */
 512:Generated_Source\PSoC6\pdl\drivers/peripheral/dma/cy_dma.h **** 
 513:Generated_Source\PSoC6\pdl\drivers/peripheral/dma/cy_dma.h **** 
 514:Generated_Source\PSoC6\pdl\drivers/peripheral/dma/cy_dma.h **** /**
 515:Generated_Source\PSoC6\pdl\drivers/peripheral/dma/cy_dma.h **** * \addtogroup group_dma_descriptor_functions
 516:Generated_Source\PSoC6\pdl\drivers/peripheral/dma/cy_dma.h **** * \{
 517:Generated_Source\PSoC6\pdl\drivers/peripheral/dma/cy_dma.h **** */
 518:Generated_Source\PSoC6\pdl\drivers/peripheral/dma/cy_dma.h **** 
 519:Generated_Source\PSoC6\pdl\drivers/peripheral/dma/cy_dma.h ****   cy_en_dma_status_t Cy_DMA_Descriptor_Init  (cy_stc_dma_descriptor_t * descriptor, cy_stc_dma_desc
 520:Generated_Source\PSoC6\pdl\drivers/peripheral/dma/cy_dma.h ****                 void Cy_DMA_Descriptor_DeInit(cy_stc_dma_descriptor_t * descriptor);
 521:Generated_Source\PSoC6\pdl\drivers/peripheral/dma/cy_dma.h ****                 
 522:Generated_Source\PSoC6\pdl\drivers/peripheral/dma/cy_dma.h ****                 void Cy_DMA_Descriptor_SetNextDescriptor   (cy_stc_dma_descriptor_t * descriptor, c
 523:Generated_Source\PSoC6\pdl\drivers/peripheral/dma/cy_dma.h ****                 void Cy_DMA_Descriptor_SetDescriptorType   (cy_stc_dma_descriptor_t * descriptor, c
 524:Generated_Source\PSoC6\pdl\drivers/peripheral/dma/cy_dma.h **** __STATIC_INLINE void Cy_DMA_Descriptor_SetSrcAddress       (cy_stc_dma_descriptor_t * descriptor, v
 525:Generated_Source\PSoC6\pdl\drivers/peripheral/dma/cy_dma.h **** __STATIC_INLINE void Cy_DMA_Descriptor_SetDstAddress       (cy_stc_dma_descriptor_t * descriptor, v
 526:Generated_Source\PSoC6\pdl\drivers/peripheral/dma/cy_dma.h **** __STATIC_INLINE void Cy_DMA_Descriptor_SetXloopDataCount   (cy_stc_dma_descriptor_t * descriptor, u
 527:Generated_Source\PSoC6\pdl\drivers/peripheral/dma/cy_dma.h **** __STATIC_INLINE void Cy_DMA_Descriptor_SetYloopDataCount   (cy_stc_dma_descriptor_t * descriptor, u
 528:Generated_Source\PSoC6\pdl\drivers/peripheral/dma/cy_dma.h **** __STATIC_INLINE void Cy_DMA_Descriptor_SetXloopSrcIncrement(cy_stc_dma_descriptor_t * descriptor, i
 529:Generated_Source\PSoC6\pdl\drivers/peripheral/dma/cy_dma.h **** __STATIC_INLINE void Cy_DMA_Descriptor_SetXloopDstIncrement(cy_stc_dma_descriptor_t * descriptor, i
 530:Generated_Source\PSoC6\pdl\drivers/peripheral/dma/cy_dma.h **** __STATIC_INLINE void Cy_DMA_Descriptor_SetYloopSrcIncrement(cy_stc_dma_descriptor_t * descriptor, i
 531:Generated_Source\PSoC6\pdl\drivers/peripheral/dma/cy_dma.h **** __STATIC_INLINE void Cy_DMA_Descriptor_SetYloopDstIncrement(cy_stc_dma_descriptor_t * descriptor, i
 532:Generated_Source\PSoC6\pdl\drivers/peripheral/dma/cy_dma.h **** __STATIC_INLINE void Cy_DMA_Descriptor_SetInterruptType    (cy_stc_dma_descriptor_t * descriptor, c
 533:Generated_Source\PSoC6\pdl\drivers/peripheral/dma/cy_dma.h **** __STATIC_INLINE void Cy_DMA_Descriptor_SetTriggerInType    (cy_stc_dma_descriptor_t * descriptor, c
 534:Generated_Source\PSoC6\pdl\drivers/peripheral/dma/cy_dma.h **** __STATIC_INLINE void Cy_DMA_Descriptor_SetTriggerOutType   (cy_stc_dma_descriptor_t * descriptor, c
 535:Generated_Source\PSoC6\pdl\drivers/peripheral/dma/cy_dma.h **** __STATIC_INLINE void Cy_DMA_Descriptor_SetDataSize         (cy_stc_dma_descriptor_t * descriptor, c
 536:Generated_Source\PSoC6\pdl\drivers/peripheral/dma/cy_dma.h **** __STATIC_INLINE void Cy_DMA_Descriptor_SetSrcTransferSize  (cy_stc_dma_descriptor_t * descriptor, c
 537:Generated_Source\PSoC6\pdl\drivers/peripheral/dma/cy_dma.h **** __STATIC_INLINE void Cy_DMA_Descriptor_SetDstTransferSize  (cy_stc_dma_descriptor_t * descriptor, c
 538:Generated_Source\PSoC6\pdl\drivers/peripheral/dma/cy_dma.h **** __STATIC_INLINE void Cy_DMA_Descriptor_SetRetrigger        (cy_stc_dma_descriptor_t * descriptor, c
 539:Generated_Source\PSoC6\pdl\drivers/peripheral/dma/cy_dma.h **** __STATIC_INLINE void Cy_DMA_Descriptor_SetChannelState     (cy_stc_dma_descriptor_t * descriptor, c
 540:Generated_Source\PSoC6\pdl\drivers/peripheral/dma/cy_dma.h **** 
 541:Generated_Source\PSoC6\pdl\drivers/peripheral/dma/cy_dma.h ****                 cy_stc_dma_descriptor_t *   Cy_DMA_Descriptor_GetNextDescriptor   (cy_stc_dma_descr
 542:Generated_Source\PSoC6\pdl\drivers/peripheral/dma/cy_dma.h **** __STATIC_INLINE cy_en_dma_descriptor_type_t Cy_DMA_Descriptor_GetDescriptorType   (cy_stc_dma_descr
 543:Generated_Source\PSoC6\pdl\drivers/peripheral/dma/cy_dma.h **** __STATIC_INLINE void *                      Cy_DMA_Descriptor_GetSrcAddress       (cy_stc_dma_descr
 544:Generated_Source\PSoC6\pdl\drivers/peripheral/dma/cy_dma.h **** __STATIC_INLINE void *                      Cy_DMA_Descriptor_GetDstAddress       (cy_stc_dma_descr
 545:Generated_Source\PSoC6\pdl\drivers/peripheral/dma/cy_dma.h **** __STATIC_INLINE uint32_t                    Cy_DMA_Descriptor_GetXloopDataCount   (cy_stc_dma_descr
 546:Generated_Source\PSoC6\pdl\drivers/peripheral/dma/cy_dma.h **** __STATIC_INLINE uint32_t                    Cy_DMA_Descriptor_GetYloopDataCount   (cy_stc_dma_descr
 547:Generated_Source\PSoC6\pdl\drivers/peripheral/dma/cy_dma.h **** __STATIC_INLINE int32_t                     Cy_DMA_Descriptor_GetXloopSrcIncrement(cy_stc_dma_descr
 548:Generated_Source\PSoC6\pdl\drivers/peripheral/dma/cy_dma.h **** __STATIC_INLINE int32_t                     Cy_DMA_Descriptor_GetXloopDstIncrement(cy_stc_dma_descr
 549:Generated_Source\PSoC6\pdl\drivers/peripheral/dma/cy_dma.h **** __STATIC_INLINE int32_t                     Cy_DMA_Descriptor_GetYloopSrcIncrement(cy_stc_dma_descr
 550:Generated_Source\PSoC6\pdl\drivers/peripheral/dma/cy_dma.h **** __STATIC_INLINE int32_t                     Cy_DMA_Descriptor_GetYloopDstIncrement(cy_stc_dma_descr
 551:Generated_Source\PSoC6\pdl\drivers/peripheral/dma/cy_dma.h **** __STATIC_INLINE cy_en_dma_trigger_type_t    Cy_DMA_Descriptor_GetInterruptType    (cy_stc_dma_descr
 552:Generated_Source\PSoC6\pdl\drivers/peripheral/dma/cy_dma.h **** __STATIC_INLINE cy_en_dma_trigger_type_t    Cy_DMA_Descriptor_GetTriggerInType    (cy_stc_dma_descr
 553:Generated_Source\PSoC6\pdl\drivers/peripheral/dma/cy_dma.h **** __STATIC_INLINE cy_en_dma_trigger_type_t    Cy_DMA_Descriptor_GetTriggerOutType   (cy_stc_dma_descr
 554:Generated_Source\PSoC6\pdl\drivers/peripheral/dma/cy_dma.h **** __STATIC_INLINE cy_en_dma_data_size_t       Cy_DMA_Descriptor_GetDataSize         (cy_stc_dma_descr
 555:Generated_Source\PSoC6\pdl\drivers/peripheral/dma/cy_dma.h **** __STATIC_INLINE cy_en_dma_transfer_size_t   Cy_DMA_Descriptor_GetSrcTransferSize  (cy_stc_dma_descr
 556:Generated_Source\PSoC6\pdl\drivers/peripheral/dma/cy_dma.h **** __STATIC_INLINE cy_en_dma_transfer_size_t   Cy_DMA_Descriptor_GetDstTransferSize  (cy_stc_dma_descr
 557:Generated_Source\PSoC6\pdl\drivers/peripheral/dma/cy_dma.h **** __STATIC_INLINE cy_en_dma_retrigger_t       Cy_DMA_Descriptor_GetRetrigger        (cy_stc_dma_descr
 558:Generated_Source\PSoC6\pdl\drivers/peripheral/dma/cy_dma.h **** __STATIC_INLINE cy_en_dma_channel_state_t   Cy_DMA_Descriptor_GetChannelState     (cy_stc_dma_descr
 559:Generated_Source\PSoC6\pdl\drivers/peripheral/dma/cy_dma.h **** 
 560:Generated_Source\PSoC6\pdl\drivers/peripheral/dma/cy_dma.h **** /** \} group_dma_descriptor_functions */
 561:Generated_Source\PSoC6\pdl\drivers/peripheral/dma/cy_dma.h **** 
 562:Generated_Source\PSoC6\pdl\drivers/peripheral/dma/cy_dma.h **** 
 563:Generated_Source\PSoC6\pdl\drivers/peripheral/dma/cy_dma.h **** 
 564:Generated_Source\PSoC6\pdl\drivers/peripheral/dma/cy_dma.h **** /***************************************
 565:Generated_Source\PSoC6\pdl\drivers/peripheral/dma/cy_dma.h **** *    In-line Function Implementation
ARM GAS  C:\Users\enes_\AppData\Local\Temp\ccQvJBBi.s 			page 17


 566:Generated_Source\PSoC6\pdl\drivers/peripheral/dma/cy_dma.h **** ***************************************/
 567:Generated_Source\PSoC6\pdl\drivers/peripheral/dma/cy_dma.h **** 
 568:Generated_Source\PSoC6\pdl\drivers/peripheral/dma/cy_dma.h **** 
 569:Generated_Source\PSoC6\pdl\drivers/peripheral/dma/cy_dma.h **** /**
 570:Generated_Source\PSoC6\pdl\drivers/peripheral/dma/cy_dma.h **** * \addtogroup group_dma_block_functions
 571:Generated_Source\PSoC6\pdl\drivers/peripheral/dma/cy_dma.h **** * \{
 572:Generated_Source\PSoC6\pdl\drivers/peripheral/dma/cy_dma.h **** */
 573:Generated_Source\PSoC6\pdl\drivers/peripheral/dma/cy_dma.h **** 
 574:Generated_Source\PSoC6\pdl\drivers/peripheral/dma/cy_dma.h **** 
 575:Generated_Source\PSoC6\pdl\drivers/peripheral/dma/cy_dma.h **** /*******************************************************************************
 576:Generated_Source\PSoC6\pdl\drivers/peripheral/dma/cy_dma.h **** * Function Name: Cy_DMA_Enable
 577:Generated_Source\PSoC6\pdl\drivers/peripheral/dma/cy_dma.h **** ****************************************************************************//**
 578:Generated_Source\PSoC6\pdl\drivers/peripheral/dma/cy_dma.h **** *
 579:Generated_Source\PSoC6\pdl\drivers/peripheral/dma/cy_dma.h **** * Enables the DMA block.
 580:Generated_Source\PSoC6\pdl\drivers/peripheral/dma/cy_dma.h **** *
 581:Generated_Source\PSoC6\pdl\drivers/peripheral/dma/cy_dma.h **** * \param base
 582:Generated_Source\PSoC6\pdl\drivers/peripheral/dma/cy_dma.h **** * The pointer to the hardware DMA block.
 583:Generated_Source\PSoC6\pdl\drivers/peripheral/dma/cy_dma.h **** *
 584:Generated_Source\PSoC6\pdl\drivers/peripheral/dma/cy_dma.h **** * \funcusage 
 585:Generated_Source\PSoC6\pdl\drivers/peripheral/dma/cy_dma.h **** * \snippet dma\2.10\snippet\main.c snippet_Cy_DMA_Enable
 586:Generated_Source\PSoC6\pdl\drivers/peripheral/dma/cy_dma.h **** *
 587:Generated_Source\PSoC6\pdl\drivers/peripheral/dma/cy_dma.h **** *******************************************************************************/
 588:Generated_Source\PSoC6\pdl\drivers/peripheral/dma/cy_dma.h **** __STATIC_INLINE void Cy_DMA_Enable(DW_Type * base)
 589:Generated_Source\PSoC6\pdl\drivers/peripheral/dma/cy_dma.h **** {
 590:Generated_Source\PSoC6\pdl\drivers/peripheral/dma/cy_dma.h ****     DW_CTL(base) |= DW_CTL_ENABLED_Msk;
 591:Generated_Source\PSoC6\pdl\drivers/peripheral/dma/cy_dma.h **** }
 592:Generated_Source\PSoC6\pdl\drivers/peripheral/dma/cy_dma.h **** 
 593:Generated_Source\PSoC6\pdl\drivers/peripheral/dma/cy_dma.h **** 
 594:Generated_Source\PSoC6\pdl\drivers/peripheral/dma/cy_dma.h **** /*******************************************************************************
 595:Generated_Source\PSoC6\pdl\drivers/peripheral/dma/cy_dma.h **** * Function Name: Cy_DMA_Disable
 596:Generated_Source\PSoC6\pdl\drivers/peripheral/dma/cy_dma.h **** ****************************************************************************//**
 597:Generated_Source\PSoC6\pdl\drivers/peripheral/dma/cy_dma.h **** *
 598:Generated_Source\PSoC6\pdl\drivers/peripheral/dma/cy_dma.h **** * Disables the DMA block.
 599:Generated_Source\PSoC6\pdl\drivers/peripheral/dma/cy_dma.h **** *
 600:Generated_Source\PSoC6\pdl\drivers/peripheral/dma/cy_dma.h **** * \param base
 601:Generated_Source\PSoC6\pdl\drivers/peripheral/dma/cy_dma.h **** * The pointer to the hardware DMA block.
 602:Generated_Source\PSoC6\pdl\drivers/peripheral/dma/cy_dma.h **** *
 603:Generated_Source\PSoC6\pdl\drivers/peripheral/dma/cy_dma.h **** * \funcusage 
 604:Generated_Source\PSoC6\pdl\drivers/peripheral/dma/cy_dma.h **** * \snippet dma\2.10\snippet\main.c snippet_Cy_DMA_Disable
 605:Generated_Source\PSoC6\pdl\drivers/peripheral/dma/cy_dma.h **** *
 606:Generated_Source\PSoC6\pdl\drivers/peripheral/dma/cy_dma.h **** *******************************************************************************/
 607:Generated_Source\PSoC6\pdl\drivers/peripheral/dma/cy_dma.h **** __STATIC_INLINE void Cy_DMA_Disable(DW_Type * base)
 608:Generated_Source\PSoC6\pdl\drivers/peripheral/dma/cy_dma.h **** {
 609:Generated_Source\PSoC6\pdl\drivers/peripheral/dma/cy_dma.h ****     DW_CTL(base) &= (uint32_t) ~DW_CTL_ENABLED_Msk;
 610:Generated_Source\PSoC6\pdl\drivers/peripheral/dma/cy_dma.h **** }
 611:Generated_Source\PSoC6\pdl\drivers/peripheral/dma/cy_dma.h **** 
 612:Generated_Source\PSoC6\pdl\drivers/peripheral/dma/cy_dma.h **** 
 613:Generated_Source\PSoC6\pdl\drivers/peripheral/dma/cy_dma.h **** /*******************************************************************************
 614:Generated_Source\PSoC6\pdl\drivers/peripheral/dma/cy_dma.h **** * Function Name: Cy_DMA_GetActiveChannel
 615:Generated_Source\PSoC6\pdl\drivers/peripheral/dma/cy_dma.h **** ****************************************************************************//**
 616:Generated_Source\PSoC6\pdl\drivers/peripheral/dma/cy_dma.h **** *
 617:Generated_Source\PSoC6\pdl\drivers/peripheral/dma/cy_dma.h **** * Returns the status of the active/pending channels.
 618:Generated_Source\PSoC6\pdl\drivers/peripheral/dma/cy_dma.h **** * the DMA block.
 619:Generated_Source\PSoC6\pdl\drivers/peripheral/dma/cy_dma.h **** *
 620:Generated_Source\PSoC6\pdl\drivers/peripheral/dma/cy_dma.h **** * \param base
 621:Generated_Source\PSoC6\pdl\drivers/peripheral/dma/cy_dma.h **** * The pointer to the hardware DMA block.
 622:Generated_Source\PSoC6\pdl\drivers/peripheral/dma/cy_dma.h **** *
ARM GAS  C:\Users\enes_\AppData\Local\Temp\ccQvJBBi.s 			page 18


 623:Generated_Source\PSoC6\pdl\drivers/peripheral/dma/cy_dma.h **** * \return
 624:Generated_Source\PSoC6\pdl\drivers/peripheral/dma/cy_dma.h **** * Returns a bit-field with all of the currently active/pending channels in the
 625:Generated_Source\PSoC6\pdl\drivers/peripheral/dma/cy_dma.h **** * DMA block.
 626:Generated_Source\PSoC6\pdl\drivers/peripheral/dma/cy_dma.h **** *
 627:Generated_Source\PSoC6\pdl\drivers/peripheral/dma/cy_dma.h **** * \funcusage 
 628:Generated_Source\PSoC6\pdl\drivers/peripheral/dma/cy_dma.h **** * \snippet dma\2.10\snippet\main.c snippet_Cy_DMA_Disable
 629:Generated_Source\PSoC6\pdl\drivers/peripheral/dma/cy_dma.h **** *
 630:Generated_Source\PSoC6\pdl\drivers/peripheral/dma/cy_dma.h **** *******************************************************************************/
 631:Generated_Source\PSoC6\pdl\drivers/peripheral/dma/cy_dma.h **** __STATIC_INLINE uint32_t Cy_DMA_GetActiveChannel(DW_Type const * base)
 632:Generated_Source\PSoC6\pdl\drivers/peripheral/dma/cy_dma.h **** {
 633:Generated_Source\PSoC6\pdl\drivers/peripheral/dma/cy_dma.h ****     return(_FLD2VAL(CY_DW_STATUS_CH_IDX, DW_STATUS(base)));
 634:Generated_Source\PSoC6\pdl\drivers/peripheral/dma/cy_dma.h **** }
 635:Generated_Source\PSoC6\pdl\drivers/peripheral/dma/cy_dma.h **** 
 636:Generated_Source\PSoC6\pdl\drivers/peripheral/dma/cy_dma.h **** 
 637:Generated_Source\PSoC6\pdl\drivers/peripheral/dma/cy_dma.h **** /*******************************************************************************
 638:Generated_Source\PSoC6\pdl\drivers/peripheral/dma/cy_dma.h **** * Function Name: Cy_DMA_GetActiveSrcAddress
 639:Generated_Source\PSoC6\pdl\drivers/peripheral/dma/cy_dma.h **** ****************************************************************************//**
 640:Generated_Source\PSoC6\pdl\drivers/peripheral/dma/cy_dma.h **** *
 641:Generated_Source\PSoC6\pdl\drivers/peripheral/dma/cy_dma.h **** * Returns the source address being used for the current transfer.
 642:Generated_Source\PSoC6\pdl\drivers/peripheral/dma/cy_dma.h **** *
 643:Generated_Source\PSoC6\pdl\drivers/peripheral/dma/cy_dma.h **** * \param base
 644:Generated_Source\PSoC6\pdl\drivers/peripheral/dma/cy_dma.h **** * The pointer to the hardware DMA block.
 645:Generated_Source\PSoC6\pdl\drivers/peripheral/dma/cy_dma.h **** *
 646:Generated_Source\PSoC6\pdl\drivers/peripheral/dma/cy_dma.h **** * \return
 647:Generated_Source\PSoC6\pdl\drivers/peripheral/dma/cy_dma.h **** * Returns the pointer to the source of transfer.
 648:Generated_Source\PSoC6\pdl\drivers/peripheral/dma/cy_dma.h **** *
 649:Generated_Source\PSoC6\pdl\drivers/peripheral/dma/cy_dma.h **** * \funcusage 
 650:Generated_Source\PSoC6\pdl\drivers/peripheral/dma/cy_dma.h **** * \snippet dma\2.10\snippet\main.c snippet_Cy_DMA_GetActiveSrcAddress
 651:Generated_Source\PSoC6\pdl\drivers/peripheral/dma/cy_dma.h **** *
 652:Generated_Source\PSoC6\pdl\drivers/peripheral/dma/cy_dma.h **** *******************************************************************************/
 653:Generated_Source\PSoC6\pdl\drivers/peripheral/dma/cy_dma.h **** __STATIC_INLINE void * Cy_DMA_GetActiveSrcAddress(DW_Type * base)
 654:Generated_Source\PSoC6\pdl\drivers/peripheral/dma/cy_dma.h **** {
 655:Generated_Source\PSoC6\pdl\drivers/peripheral/dma/cy_dma.h ****     return ((void *) DW_DESCR_SRC(base));
 656:Generated_Source\PSoC6\pdl\drivers/peripheral/dma/cy_dma.h **** }
 657:Generated_Source\PSoC6\pdl\drivers/peripheral/dma/cy_dma.h **** 
 658:Generated_Source\PSoC6\pdl\drivers/peripheral/dma/cy_dma.h **** 
 659:Generated_Source\PSoC6\pdl\drivers/peripheral/dma/cy_dma.h **** /*******************************************************************************
 660:Generated_Source\PSoC6\pdl\drivers/peripheral/dma/cy_dma.h **** * Function Name: Cy_DMA_GetActiveDstAddress
 661:Generated_Source\PSoC6\pdl\drivers/peripheral/dma/cy_dma.h **** ****************************************************************************//**
 662:Generated_Source\PSoC6\pdl\drivers/peripheral/dma/cy_dma.h **** *
 663:Generated_Source\PSoC6\pdl\drivers/peripheral/dma/cy_dma.h **** * Returns the destination address being used for the current transfer.
 664:Generated_Source\PSoC6\pdl\drivers/peripheral/dma/cy_dma.h **** *
 665:Generated_Source\PSoC6\pdl\drivers/peripheral/dma/cy_dma.h **** * \param base
 666:Generated_Source\PSoC6\pdl\drivers/peripheral/dma/cy_dma.h **** * The pointer to the hardware DMA block.
 667:Generated_Source\PSoC6\pdl\drivers/peripheral/dma/cy_dma.h **** *
 668:Generated_Source\PSoC6\pdl\drivers/peripheral/dma/cy_dma.h **** * \return
 669:Generated_Source\PSoC6\pdl\drivers/peripheral/dma/cy_dma.h **** * Returns the pointer to the destination of transfer.
 670:Generated_Source\PSoC6\pdl\drivers/peripheral/dma/cy_dma.h **** *
 671:Generated_Source\PSoC6\pdl\drivers/peripheral/dma/cy_dma.h **** * \funcusage 
 672:Generated_Source\PSoC6\pdl\drivers/peripheral/dma/cy_dma.h **** * \snippet dma\2.10\snippet\main.c snippet_Cy_DMA_GetActiveSrcAddress
 673:Generated_Source\PSoC6\pdl\drivers/peripheral/dma/cy_dma.h **** *
 674:Generated_Source\PSoC6\pdl\drivers/peripheral/dma/cy_dma.h **** *******************************************************************************/
 675:Generated_Source\PSoC6\pdl\drivers/peripheral/dma/cy_dma.h **** __STATIC_INLINE void * Cy_DMA_GetActiveDstAddress(DW_Type * base)
 676:Generated_Source\PSoC6\pdl\drivers/peripheral/dma/cy_dma.h **** {
 677:Generated_Source\PSoC6\pdl\drivers/peripheral/dma/cy_dma.h ****     return ((void *) DW_DESCR_DST(base));
 678:Generated_Source\PSoC6\pdl\drivers/peripheral/dma/cy_dma.h **** }
 679:Generated_Source\PSoC6\pdl\drivers/peripheral/dma/cy_dma.h **** 
ARM GAS  C:\Users\enes_\AppData\Local\Temp\ccQvJBBi.s 			page 19


 680:Generated_Source\PSoC6\pdl\drivers/peripheral/dma/cy_dma.h **** /** \} group_dma_block_functions */
 681:Generated_Source\PSoC6\pdl\drivers/peripheral/dma/cy_dma.h **** 
 682:Generated_Source\PSoC6\pdl\drivers/peripheral/dma/cy_dma.h **** /**
 683:Generated_Source\PSoC6\pdl\drivers/peripheral/dma/cy_dma.h **** * \addtogroup group_dma_descriptor_functions
 684:Generated_Source\PSoC6\pdl\drivers/peripheral/dma/cy_dma.h **** * \{
 685:Generated_Source\PSoC6\pdl\drivers/peripheral/dma/cy_dma.h **** */
 686:Generated_Source\PSoC6\pdl\drivers/peripheral/dma/cy_dma.h **** 
 687:Generated_Source\PSoC6\pdl\drivers/peripheral/dma/cy_dma.h **** 
 688:Generated_Source\PSoC6\pdl\drivers/peripheral/dma/cy_dma.h **** /*******************************************************************************
 689:Generated_Source\PSoC6\pdl\drivers/peripheral/dma/cy_dma.h **** * Function Name: Cy_DMA_Descriptor_SetSrcAddress
 690:Generated_Source\PSoC6\pdl\drivers/peripheral/dma/cy_dma.h **** ****************************************************************************//**
 691:Generated_Source\PSoC6\pdl\drivers/peripheral/dma/cy_dma.h **** *
 692:Generated_Source\PSoC6\pdl\drivers/peripheral/dma/cy_dma.h **** * Sets the source address for the specified descriptor.
 693:Generated_Source\PSoC6\pdl\drivers/peripheral/dma/cy_dma.h **** *
 694:Generated_Source\PSoC6\pdl\drivers/peripheral/dma/cy_dma.h **** * \param descriptor
 695:Generated_Source\PSoC6\pdl\drivers/peripheral/dma/cy_dma.h **** * The descriptor structure instance declared by the user/component.
 696:Generated_Source\PSoC6\pdl\drivers/peripheral/dma/cy_dma.h **** *
 697:Generated_Source\PSoC6\pdl\drivers/peripheral/dma/cy_dma.h **** * \param srcAddress
 698:Generated_Source\PSoC6\pdl\drivers/peripheral/dma/cy_dma.h **** * The source address value for the descriptor.
 699:Generated_Source\PSoC6\pdl\drivers/peripheral/dma/cy_dma.h **** *
 700:Generated_Source\PSoC6\pdl\drivers/peripheral/dma/cy_dma.h **** * \funcusage 
 701:Generated_Source\PSoC6\pdl\drivers/peripheral/dma/cy_dma.h **** * \snippet dma\2.10\snippet\main.c snippet_Cy_DMA_Descriptor_SetterFunctions
 702:Generated_Source\PSoC6\pdl\drivers/peripheral/dma/cy_dma.h **** *
 703:Generated_Source\PSoC6\pdl\drivers/peripheral/dma/cy_dma.h **** *******************************************************************************/
 704:Generated_Source\PSoC6\pdl\drivers/peripheral/dma/cy_dma.h **** __STATIC_INLINE void Cy_DMA_Descriptor_SetSrcAddress(cy_stc_dma_descriptor_t * descriptor, void con
 705:Generated_Source\PSoC6\pdl\drivers/peripheral/dma/cy_dma.h **** {
 706:Generated_Source\PSoC6\pdl\drivers/peripheral/dma/cy_dma.h ****     descriptor->src = (uint32_t) srcAddress;
 707:Generated_Source\PSoC6\pdl\drivers/peripheral/dma/cy_dma.h **** }
 708:Generated_Source\PSoC6\pdl\drivers/peripheral/dma/cy_dma.h **** 
 709:Generated_Source\PSoC6\pdl\drivers/peripheral/dma/cy_dma.h **** 
 710:Generated_Source\PSoC6\pdl\drivers/peripheral/dma/cy_dma.h **** /*******************************************************************************
 711:Generated_Source\PSoC6\pdl\drivers/peripheral/dma/cy_dma.h **** * Function Name: Cy_DMA_Descriptor_GetSrcAddress
 712:Generated_Source\PSoC6\pdl\drivers/peripheral/dma/cy_dma.h **** ****************************************************************************//**
 713:Generated_Source\PSoC6\pdl\drivers/peripheral/dma/cy_dma.h **** *
 714:Generated_Source\PSoC6\pdl\drivers/peripheral/dma/cy_dma.h **** * Returns the source address parameter of the specified descriptor.
 715:Generated_Source\PSoC6\pdl\drivers/peripheral/dma/cy_dma.h **** * 
 716:Generated_Source\PSoC6\pdl\drivers/peripheral/dma/cy_dma.h **** * \param descriptor
 717:Generated_Source\PSoC6\pdl\drivers/peripheral/dma/cy_dma.h **** * The descriptor structure instance declared by the user/component.
 718:Generated_Source\PSoC6\pdl\drivers/peripheral/dma/cy_dma.h **** *
 719:Generated_Source\PSoC6\pdl\drivers/peripheral/dma/cy_dma.h **** * \return
 720:Generated_Source\PSoC6\pdl\drivers/peripheral/dma/cy_dma.h **** * The source address value of the descriptor.
 721:Generated_Source\PSoC6\pdl\drivers/peripheral/dma/cy_dma.h **** *
 722:Generated_Source\PSoC6\pdl\drivers/peripheral/dma/cy_dma.h **** * \funcusage 
 723:Generated_Source\PSoC6\pdl\drivers/peripheral/dma/cy_dma.h **** * \snippet dma\2.10\snippet\main.c snippet_Cy_DMA_Descriptor_GetterFunctions
 724:Generated_Source\PSoC6\pdl\drivers/peripheral/dma/cy_dma.h **** *
 725:Generated_Source\PSoC6\pdl\drivers/peripheral/dma/cy_dma.h **** *******************************************************************************/
 726:Generated_Source\PSoC6\pdl\drivers/peripheral/dma/cy_dma.h **** __STATIC_INLINE void * Cy_DMA_Descriptor_GetSrcAddress(cy_stc_dma_descriptor_t const * descriptor)
 727:Generated_Source\PSoC6\pdl\drivers/peripheral/dma/cy_dma.h **** {
 728:Generated_Source\PSoC6\pdl\drivers/peripheral/dma/cy_dma.h ****     return ((void *) descriptor->src);
 729:Generated_Source\PSoC6\pdl\drivers/peripheral/dma/cy_dma.h **** }
 730:Generated_Source\PSoC6\pdl\drivers/peripheral/dma/cy_dma.h **** 
 731:Generated_Source\PSoC6\pdl\drivers/peripheral/dma/cy_dma.h **** 
 732:Generated_Source\PSoC6\pdl\drivers/peripheral/dma/cy_dma.h **** /*******************************************************************************
 733:Generated_Source\PSoC6\pdl\drivers/peripheral/dma/cy_dma.h **** * Function Name: Cy_DMA_Descriptor_SetDstAddress
 734:Generated_Source\PSoC6\pdl\drivers/peripheral/dma/cy_dma.h **** ****************************************************************************//**
 735:Generated_Source\PSoC6\pdl\drivers/peripheral/dma/cy_dma.h **** *
 736:Generated_Source\PSoC6\pdl\drivers/peripheral/dma/cy_dma.h **** * Sets the destination address for the specified descriptor.
ARM GAS  C:\Users\enes_\AppData\Local\Temp\ccQvJBBi.s 			page 20


 737:Generated_Source\PSoC6\pdl\drivers/peripheral/dma/cy_dma.h **** *
 738:Generated_Source\PSoC6\pdl\drivers/peripheral/dma/cy_dma.h **** * \param descriptor
 739:Generated_Source\PSoC6\pdl\drivers/peripheral/dma/cy_dma.h **** * The descriptor structure instance declared by the user/component.
 740:Generated_Source\PSoC6\pdl\drivers/peripheral/dma/cy_dma.h **** *
 741:Generated_Source\PSoC6\pdl\drivers/peripheral/dma/cy_dma.h **** * \param dstAddress
 742:Generated_Source\PSoC6\pdl\drivers/peripheral/dma/cy_dma.h **** * The destination address value for the descriptor.
 743:Generated_Source\PSoC6\pdl\drivers/peripheral/dma/cy_dma.h **** *
 744:Generated_Source\PSoC6\pdl\drivers/peripheral/dma/cy_dma.h **** * \funcusage 
 745:Generated_Source\PSoC6\pdl\drivers/peripheral/dma/cy_dma.h **** * \snippet dma\2.10\snippet\main.c snippet_Cy_DMA_Descriptor_SetterFunctions
 746:Generated_Source\PSoC6\pdl\drivers/peripheral/dma/cy_dma.h **** *
 747:Generated_Source\PSoC6\pdl\drivers/peripheral/dma/cy_dma.h **** *******************************************************************************/
 748:Generated_Source\PSoC6\pdl\drivers/peripheral/dma/cy_dma.h **** __STATIC_INLINE void Cy_DMA_Descriptor_SetDstAddress(cy_stc_dma_descriptor_t * descriptor, void con
 749:Generated_Source\PSoC6\pdl\drivers/peripheral/dma/cy_dma.h **** {
 750:Generated_Source\PSoC6\pdl\drivers/peripheral/dma/cy_dma.h ****     descriptor->dst = (uint32_t) dstAddress;
 751:Generated_Source\PSoC6\pdl\drivers/peripheral/dma/cy_dma.h **** }
 752:Generated_Source\PSoC6\pdl\drivers/peripheral/dma/cy_dma.h **** 
 753:Generated_Source\PSoC6\pdl\drivers/peripheral/dma/cy_dma.h **** 
 754:Generated_Source\PSoC6\pdl\drivers/peripheral/dma/cy_dma.h **** /*******************************************************************************
 755:Generated_Source\PSoC6\pdl\drivers/peripheral/dma/cy_dma.h **** * Function Name: Cy_DMA_Descriptor_GetDstAddress
 756:Generated_Source\PSoC6\pdl\drivers/peripheral/dma/cy_dma.h **** ****************************************************************************//**
 757:Generated_Source\PSoC6\pdl\drivers/peripheral/dma/cy_dma.h **** *
 758:Generated_Source\PSoC6\pdl\drivers/peripheral/dma/cy_dma.h **** * Returns the destination address parameter of the specified descriptor.
 759:Generated_Source\PSoC6\pdl\drivers/peripheral/dma/cy_dma.h **** * 
 760:Generated_Source\PSoC6\pdl\drivers/peripheral/dma/cy_dma.h **** * \param descriptor
 761:Generated_Source\PSoC6\pdl\drivers/peripheral/dma/cy_dma.h **** * The descriptor structure instance declared by the user/component.
 762:Generated_Source\PSoC6\pdl\drivers/peripheral/dma/cy_dma.h **** *
 763:Generated_Source\PSoC6\pdl\drivers/peripheral/dma/cy_dma.h **** * \return
 764:Generated_Source\PSoC6\pdl\drivers/peripheral/dma/cy_dma.h **** * The destination address value of the descriptor.
 765:Generated_Source\PSoC6\pdl\drivers/peripheral/dma/cy_dma.h **** *
 766:Generated_Source\PSoC6\pdl\drivers/peripheral/dma/cy_dma.h **** * \funcusage 
 767:Generated_Source\PSoC6\pdl\drivers/peripheral/dma/cy_dma.h **** * \snippet dma\2.10\snippet\main.c snippet_Cy_DMA_Descriptor_GetterFunctions
 768:Generated_Source\PSoC6\pdl\drivers/peripheral/dma/cy_dma.h **** *
 769:Generated_Source\PSoC6\pdl\drivers/peripheral/dma/cy_dma.h **** *******************************************************************************/
 770:Generated_Source\PSoC6\pdl\drivers/peripheral/dma/cy_dma.h **** __STATIC_INLINE void * Cy_DMA_Descriptor_GetDstAddress(cy_stc_dma_descriptor_t const * descriptor)
 771:Generated_Source\PSoC6\pdl\drivers/peripheral/dma/cy_dma.h **** {
 772:Generated_Source\PSoC6\pdl\drivers/peripheral/dma/cy_dma.h ****     return ((void *) descriptor->dst);
 773:Generated_Source\PSoC6\pdl\drivers/peripheral/dma/cy_dma.h **** }
 774:Generated_Source\PSoC6\pdl\drivers/peripheral/dma/cy_dma.h **** 
 775:Generated_Source\PSoC6\pdl\drivers/peripheral/dma/cy_dma.h **** 
 776:Generated_Source\PSoC6\pdl\drivers/peripheral/dma/cy_dma.h **** /*******************************************************************************
 777:Generated_Source\PSoC6\pdl\drivers/peripheral/dma/cy_dma.h **** * Function Name: Cy_DMA_Descriptor_SetInterruptType
 778:Generated_Source\PSoC6\pdl\drivers/peripheral/dma/cy_dma.h **** ****************************************************************************//**
 779:Generated_Source\PSoC6\pdl\drivers/peripheral/dma/cy_dma.h **** *
 780:Generated_Source\PSoC6\pdl\drivers/peripheral/dma/cy_dma.h **** * Sets the interrupt type for the specified descriptor.
 781:Generated_Source\PSoC6\pdl\drivers/peripheral/dma/cy_dma.h **** *
 782:Generated_Source\PSoC6\pdl\drivers/peripheral/dma/cy_dma.h **** * \param descriptor
 783:Generated_Source\PSoC6\pdl\drivers/peripheral/dma/cy_dma.h **** * The descriptor structure instance declared by the user/component.
 784:Generated_Source\PSoC6\pdl\drivers/peripheral/dma/cy_dma.h **** *
 785:Generated_Source\PSoC6\pdl\drivers/peripheral/dma/cy_dma.h **** * \param interruptType
 786:Generated_Source\PSoC6\pdl\drivers/peripheral/dma/cy_dma.h **** * The interrupt type set for the descriptor. \ref cy_en_dma_trigger_type_t
 787:Generated_Source\PSoC6\pdl\drivers/peripheral/dma/cy_dma.h **** *
 788:Generated_Source\PSoC6\pdl\drivers/peripheral/dma/cy_dma.h **** * \funcusage 
 789:Generated_Source\PSoC6\pdl\drivers/peripheral/dma/cy_dma.h **** * \snippet dma\2.10\snippet\main.c snippet_Cy_DMA_Descriptor_SetterFunctions
 790:Generated_Source\PSoC6\pdl\drivers/peripheral/dma/cy_dma.h **** *
 791:Generated_Source\PSoC6\pdl\drivers/peripheral/dma/cy_dma.h **** *******************************************************************************/
 792:Generated_Source\PSoC6\pdl\drivers/peripheral/dma/cy_dma.h **** __STATIC_INLINE void Cy_DMA_Descriptor_SetInterruptType(cy_stc_dma_descriptor_t * descriptor, cy_en
 793:Generated_Source\PSoC6\pdl\drivers/peripheral/dma/cy_dma.h **** {
ARM GAS  C:\Users\enes_\AppData\Local\Temp\ccQvJBBi.s 			page 21


 794:Generated_Source\PSoC6\pdl\drivers/peripheral/dma/cy_dma.h ****     CY_ASSERT_L3(CY_DMA_IS_TRIG_TYPE_VALID(interruptType));
 795:Generated_Source\PSoC6\pdl\drivers/peripheral/dma/cy_dma.h ****     
 796:Generated_Source\PSoC6\pdl\drivers/peripheral/dma/cy_dma.h ****     CY_REG32_CLR_SET(descriptor->ctl, CY_DMA_CTL_INTR_TYPE, interruptType);
 797:Generated_Source\PSoC6\pdl\drivers/peripheral/dma/cy_dma.h **** }
 798:Generated_Source\PSoC6\pdl\drivers/peripheral/dma/cy_dma.h **** 
 799:Generated_Source\PSoC6\pdl\drivers/peripheral/dma/cy_dma.h **** 
 800:Generated_Source\PSoC6\pdl\drivers/peripheral/dma/cy_dma.h **** /*******************************************************************************
 801:Generated_Source\PSoC6\pdl\drivers/peripheral/dma/cy_dma.h **** * Function Name: Cy_DMA_Descriptor_GetInterruptType
 802:Generated_Source\PSoC6\pdl\drivers/peripheral/dma/cy_dma.h **** ****************************************************************************//**
 803:Generated_Source\PSoC6\pdl\drivers/peripheral/dma/cy_dma.h **** *
 804:Generated_Source\PSoC6\pdl\drivers/peripheral/dma/cy_dma.h **** * Returns the Interrupt-Type of the specified descriptor.
 805:Generated_Source\PSoC6\pdl\drivers/peripheral/dma/cy_dma.h **** *
 806:Generated_Source\PSoC6\pdl\drivers/peripheral/dma/cy_dma.h **** * \param descriptor
 807:Generated_Source\PSoC6\pdl\drivers/peripheral/dma/cy_dma.h **** * The descriptor structure instance declared by the user/component.
 808:Generated_Source\PSoC6\pdl\drivers/peripheral/dma/cy_dma.h **** *
 809:Generated_Source\PSoC6\pdl\drivers/peripheral/dma/cy_dma.h **** * \return
 810:Generated_Source\PSoC6\pdl\drivers/peripheral/dma/cy_dma.h **** * The Interrupt-Type \ref cy_en_dma_trigger_type_t.
 811:Generated_Source\PSoC6\pdl\drivers/peripheral/dma/cy_dma.h **** *
 812:Generated_Source\PSoC6\pdl\drivers/peripheral/dma/cy_dma.h **** * \funcusage 
 813:Generated_Source\PSoC6\pdl\drivers/peripheral/dma/cy_dma.h **** * \snippet dma\2.10\snippet\main.c snippet_Cy_DMA_Descriptor_GetterFunctions
 814:Generated_Source\PSoC6\pdl\drivers/peripheral/dma/cy_dma.h **** *  
 815:Generated_Source\PSoC6\pdl\drivers/peripheral/dma/cy_dma.h **** *******************************************************************************/
 816:Generated_Source\PSoC6\pdl\drivers/peripheral/dma/cy_dma.h **** __STATIC_INLINE cy_en_dma_trigger_type_t Cy_DMA_Descriptor_GetInterruptType(cy_stc_dma_descriptor_t
 817:Generated_Source\PSoC6\pdl\drivers/peripheral/dma/cy_dma.h **** {
 818:Generated_Source\PSoC6\pdl\drivers/peripheral/dma/cy_dma.h ****     return((cy_en_dma_trigger_type_t) _FLD2VAL(CY_DMA_CTL_INTR_TYPE, descriptor->ctl));
 819:Generated_Source\PSoC6\pdl\drivers/peripheral/dma/cy_dma.h **** }
 820:Generated_Source\PSoC6\pdl\drivers/peripheral/dma/cy_dma.h **** 
 821:Generated_Source\PSoC6\pdl\drivers/peripheral/dma/cy_dma.h **** 
 822:Generated_Source\PSoC6\pdl\drivers/peripheral/dma/cy_dma.h **** /*******************************************************************************
 823:Generated_Source\PSoC6\pdl\drivers/peripheral/dma/cy_dma.h **** * Function Name: Cy_DMA_Descriptor_SetTriggerInType
 824:Generated_Source\PSoC6\pdl\drivers/peripheral/dma/cy_dma.h **** ****************************************************************************//**
 825:Generated_Source\PSoC6\pdl\drivers/peripheral/dma/cy_dma.h **** *
 826:Generated_Source\PSoC6\pdl\drivers/peripheral/dma/cy_dma.h **** * Sets the Trigger-In-Type for the specified descriptor.
 827:Generated_Source\PSoC6\pdl\drivers/peripheral/dma/cy_dma.h **** *
 828:Generated_Source\PSoC6\pdl\drivers/peripheral/dma/cy_dma.h **** * \param descriptor
 829:Generated_Source\PSoC6\pdl\drivers/peripheral/dma/cy_dma.h **** * The descriptor structure instance declared by the user/component.
 830:Generated_Source\PSoC6\pdl\drivers/peripheral/dma/cy_dma.h **** *
 831:Generated_Source\PSoC6\pdl\drivers/peripheral/dma/cy_dma.h **** * \param triggerInType
 832:Generated_Source\PSoC6\pdl\drivers/peripheral/dma/cy_dma.h **** * The Trigger In Type parameter \ref cy_en_dma_trigger_type_t
 833:Generated_Source\PSoC6\pdl\drivers/peripheral/dma/cy_dma.h **** *
 834:Generated_Source\PSoC6\pdl\drivers/peripheral/dma/cy_dma.h **** * \funcusage 
 835:Generated_Source\PSoC6\pdl\drivers/peripheral/dma/cy_dma.h **** * \snippet dma\2.10\snippet\main.c snippet_Cy_DMA_Descriptor_SetterFunctions
 836:Generated_Source\PSoC6\pdl\drivers/peripheral/dma/cy_dma.h **** *
 837:Generated_Source\PSoC6\pdl\drivers/peripheral/dma/cy_dma.h **** *******************************************************************************/
 838:Generated_Source\PSoC6\pdl\drivers/peripheral/dma/cy_dma.h **** __STATIC_INLINE void Cy_DMA_Descriptor_SetTriggerInType(cy_stc_dma_descriptor_t * descriptor, cy_en
 839:Generated_Source\PSoC6\pdl\drivers/peripheral/dma/cy_dma.h **** {
 840:Generated_Source\PSoC6\pdl\drivers/peripheral/dma/cy_dma.h ****     CY_ASSERT_L3(CY_DMA_IS_TRIG_TYPE_VALID(triggerInType));
 841:Generated_Source\PSoC6\pdl\drivers/peripheral/dma/cy_dma.h ****     
 842:Generated_Source\PSoC6\pdl\drivers/peripheral/dma/cy_dma.h ****     CY_REG32_CLR_SET(descriptor->ctl, CY_DMA_CTL_TR_IN_TYPE, triggerInType);
 843:Generated_Source\PSoC6\pdl\drivers/peripheral/dma/cy_dma.h **** }
 844:Generated_Source\PSoC6\pdl\drivers/peripheral/dma/cy_dma.h **** 
 845:Generated_Source\PSoC6\pdl\drivers/peripheral/dma/cy_dma.h **** 
 846:Generated_Source\PSoC6\pdl\drivers/peripheral/dma/cy_dma.h **** /*******************************************************************************
 847:Generated_Source\PSoC6\pdl\drivers/peripheral/dma/cy_dma.h **** * Function Name: Cy_DMA_Descriptor_GetTriggerInType
 848:Generated_Source\PSoC6\pdl\drivers/peripheral/dma/cy_dma.h **** ****************************************************************************//**
 849:Generated_Source\PSoC6\pdl\drivers/peripheral/dma/cy_dma.h **** *
 850:Generated_Source\PSoC6\pdl\drivers/peripheral/dma/cy_dma.h **** * Returns the Trigger-In-Type parameter of the specified descriptor.
ARM GAS  C:\Users\enes_\AppData\Local\Temp\ccQvJBBi.s 			page 22


 851:Generated_Source\PSoC6\pdl\drivers/peripheral/dma/cy_dma.h **** *
 852:Generated_Source\PSoC6\pdl\drivers/peripheral/dma/cy_dma.h **** * \param descriptor
 853:Generated_Source\PSoC6\pdl\drivers/peripheral/dma/cy_dma.h **** * The descriptor structure instance declared by the user/component.
 854:Generated_Source\PSoC6\pdl\drivers/peripheral/dma/cy_dma.h **** *
 855:Generated_Source\PSoC6\pdl\drivers/peripheral/dma/cy_dma.h **** * \return
 856:Generated_Source\PSoC6\pdl\drivers/peripheral/dma/cy_dma.h **** * The Trigger-In-Type \ref cy_en_dma_trigger_type_t
 857:Generated_Source\PSoC6\pdl\drivers/peripheral/dma/cy_dma.h **** *
 858:Generated_Source\PSoC6\pdl\drivers/peripheral/dma/cy_dma.h **** * \funcusage 
 859:Generated_Source\PSoC6\pdl\drivers/peripheral/dma/cy_dma.h **** * \snippet dma\2.10\snippet\main.c snippet_Cy_DMA_Descriptor_GetterFunctions
 860:Generated_Source\PSoC6\pdl\drivers/peripheral/dma/cy_dma.h **** *  
 861:Generated_Source\PSoC6\pdl\drivers/peripheral/dma/cy_dma.h **** *******************************************************************************/
 862:Generated_Source\PSoC6\pdl\drivers/peripheral/dma/cy_dma.h **** __STATIC_INLINE cy_en_dma_trigger_type_t Cy_DMA_Descriptor_GetTriggerInType(cy_stc_dma_descriptor_t
 863:Generated_Source\PSoC6\pdl\drivers/peripheral/dma/cy_dma.h **** {
 864:Generated_Source\PSoC6\pdl\drivers/peripheral/dma/cy_dma.h ****     return((cy_en_dma_trigger_type_t) _FLD2VAL(CY_DMA_CTL_TR_IN_TYPE, descriptor->ctl));
 865:Generated_Source\PSoC6\pdl\drivers/peripheral/dma/cy_dma.h **** }
 866:Generated_Source\PSoC6\pdl\drivers/peripheral/dma/cy_dma.h **** 
 867:Generated_Source\PSoC6\pdl\drivers/peripheral/dma/cy_dma.h **** 
 868:Generated_Source\PSoC6\pdl\drivers/peripheral/dma/cy_dma.h **** /*******************************************************************************
 869:Generated_Source\PSoC6\pdl\drivers/peripheral/dma/cy_dma.h **** * Function Name: Cy_DMA_Descriptor_SetTriggerOutType
 870:Generated_Source\PSoC6\pdl\drivers/peripheral/dma/cy_dma.h **** ****************************************************************************//**
 871:Generated_Source\PSoC6\pdl\drivers/peripheral/dma/cy_dma.h **** *
 872:Generated_Source\PSoC6\pdl\drivers/peripheral/dma/cy_dma.h **** * Sets the Trigger-Out-Type for the specified descriptor.
 873:Generated_Source\PSoC6\pdl\drivers/peripheral/dma/cy_dma.h **** *
 874:Generated_Source\PSoC6\pdl\drivers/peripheral/dma/cy_dma.h **** * \param descriptor
 875:Generated_Source\PSoC6\pdl\drivers/peripheral/dma/cy_dma.h **** * The descriptor structure instance declared by the user/component.
 876:Generated_Source\PSoC6\pdl\drivers/peripheral/dma/cy_dma.h **** *
 877:Generated_Source\PSoC6\pdl\drivers/peripheral/dma/cy_dma.h **** * \param triggerOutType
 878:Generated_Source\PSoC6\pdl\drivers/peripheral/dma/cy_dma.h **** * The Trigger-Out-Type set for the descriptor. \ref cy_en_dma_trigger_type_t
 879:Generated_Source\PSoC6\pdl\drivers/peripheral/dma/cy_dma.h **** *
 880:Generated_Source\PSoC6\pdl\drivers/peripheral/dma/cy_dma.h **** * \funcusage 
 881:Generated_Source\PSoC6\pdl\drivers/peripheral/dma/cy_dma.h **** * \snippet dma\2.10\snippet\main.c snippet_Cy_DMA_Descriptor_SetterFunctions
 882:Generated_Source\PSoC6\pdl\drivers/peripheral/dma/cy_dma.h **** *
 883:Generated_Source\PSoC6\pdl\drivers/peripheral/dma/cy_dma.h **** *******************************************************************************/
 884:Generated_Source\PSoC6\pdl\drivers/peripheral/dma/cy_dma.h **** __STATIC_INLINE void Cy_DMA_Descriptor_SetTriggerOutType(cy_stc_dma_descriptor_t * descriptor, cy_e
 885:Generated_Source\PSoC6\pdl\drivers/peripheral/dma/cy_dma.h **** {
 886:Generated_Source\PSoC6\pdl\drivers/peripheral/dma/cy_dma.h ****     CY_ASSERT_L3(CY_DMA_IS_TRIG_TYPE_VALID(triggerOutType));
 887:Generated_Source\PSoC6\pdl\drivers/peripheral/dma/cy_dma.h ****     
 888:Generated_Source\PSoC6\pdl\drivers/peripheral/dma/cy_dma.h ****     CY_REG32_CLR_SET(descriptor->ctl, CY_DMA_CTL_TR_OUT_TYPE, triggerOutType);
 889:Generated_Source\PSoC6\pdl\drivers/peripheral/dma/cy_dma.h **** }
 890:Generated_Source\PSoC6\pdl\drivers/peripheral/dma/cy_dma.h **** 
 891:Generated_Source\PSoC6\pdl\drivers/peripheral/dma/cy_dma.h **** 
 892:Generated_Source\PSoC6\pdl\drivers/peripheral/dma/cy_dma.h **** /*******************************************************************************
 893:Generated_Source\PSoC6\pdl\drivers/peripheral/dma/cy_dma.h **** * Function Name: Cy_DMA_Descriptor_GetTriggerOutType
 894:Generated_Source\PSoC6\pdl\drivers/peripheral/dma/cy_dma.h **** ****************************************************************************//**
 895:Generated_Source\PSoC6\pdl\drivers/peripheral/dma/cy_dma.h **** *
 896:Generated_Source\PSoC6\pdl\drivers/peripheral/dma/cy_dma.h **** * Returns the Trigger-Out-Type parameter of the specified descriptor.
 897:Generated_Source\PSoC6\pdl\drivers/peripheral/dma/cy_dma.h **** *
 898:Generated_Source\PSoC6\pdl\drivers/peripheral/dma/cy_dma.h **** * \param descriptor
 899:Generated_Source\PSoC6\pdl\drivers/peripheral/dma/cy_dma.h **** * The descriptor structure instance declared by the user/component.
 900:Generated_Source\PSoC6\pdl\drivers/peripheral/dma/cy_dma.h **** *
 901:Generated_Source\PSoC6\pdl\drivers/peripheral/dma/cy_dma.h **** * \return
 902:Generated_Source\PSoC6\pdl\drivers/peripheral/dma/cy_dma.h **** * The Trigger-Out-Type parameter \ref cy_en_dma_trigger_type_t.
 903:Generated_Source\PSoC6\pdl\drivers/peripheral/dma/cy_dma.h **** *
 904:Generated_Source\PSoC6\pdl\drivers/peripheral/dma/cy_dma.h **** * \funcusage 
 905:Generated_Source\PSoC6\pdl\drivers/peripheral/dma/cy_dma.h **** * \snippet dma\2.10\snippet\main.c snippet_Cy_DMA_Descriptor_GetterFunctions
 906:Generated_Source\PSoC6\pdl\drivers/peripheral/dma/cy_dma.h **** *  
 907:Generated_Source\PSoC6\pdl\drivers/peripheral/dma/cy_dma.h **** *******************************************************************************/
ARM GAS  C:\Users\enes_\AppData\Local\Temp\ccQvJBBi.s 			page 23


 908:Generated_Source\PSoC6\pdl\drivers/peripheral/dma/cy_dma.h **** __STATIC_INLINE cy_en_dma_trigger_type_t Cy_DMA_Descriptor_GetTriggerOutType(cy_stc_dma_descriptor_
 909:Generated_Source\PSoC6\pdl\drivers/peripheral/dma/cy_dma.h **** {
 910:Generated_Source\PSoC6\pdl\drivers/peripheral/dma/cy_dma.h ****     return((cy_en_dma_trigger_type_t) _FLD2VAL(CY_DMA_CTL_TR_OUT_TYPE, descriptor->ctl));
 911:Generated_Source\PSoC6\pdl\drivers/peripheral/dma/cy_dma.h **** }
 912:Generated_Source\PSoC6\pdl\drivers/peripheral/dma/cy_dma.h **** 
 913:Generated_Source\PSoC6\pdl\drivers/peripheral/dma/cy_dma.h **** 
 914:Generated_Source\PSoC6\pdl\drivers/peripheral/dma/cy_dma.h **** /*******************************************************************************
 915:Generated_Source\PSoC6\pdl\drivers/peripheral/dma/cy_dma.h **** * Function Name: Cy_DMA_Descriptor_SetDataSize
 916:Generated_Source\PSoC6\pdl\drivers/peripheral/dma/cy_dma.h **** ****************************************************************************//**
 917:Generated_Source\PSoC6\pdl\drivers/peripheral/dma/cy_dma.h **** *
 918:Generated_Source\PSoC6\pdl\drivers/peripheral/dma/cy_dma.h **** * Sets the Data Element Size for the specified descriptor.
 919:Generated_Source\PSoC6\pdl\drivers/peripheral/dma/cy_dma.h **** *
 920:Generated_Source\PSoC6\pdl\drivers/peripheral/dma/cy_dma.h **** * \param descriptor
 921:Generated_Source\PSoC6\pdl\drivers/peripheral/dma/cy_dma.h **** * The descriptor structure instance declared by the user/component.
 922:Generated_Source\PSoC6\pdl\drivers/peripheral/dma/cy_dma.h **** *
 923:Generated_Source\PSoC6\pdl\drivers/peripheral/dma/cy_dma.h **** * \param dataSize
 924:Generated_Source\PSoC6\pdl\drivers/peripheral/dma/cy_dma.h **** * The Data Element Size \ref cy_en_dma_data_size_t
 925:Generated_Source\PSoC6\pdl\drivers/peripheral/dma/cy_dma.h **** *
 926:Generated_Source\PSoC6\pdl\drivers/peripheral/dma/cy_dma.h **** * \funcusage 
 927:Generated_Source\PSoC6\pdl\drivers/peripheral/dma/cy_dma.h **** * \snippet dma\2.10\snippet\main.c snippet_Cy_DMA_Descriptor_SetterFunctions
 928:Generated_Source\PSoC6\pdl\drivers/peripheral/dma/cy_dma.h **** *  
 929:Generated_Source\PSoC6\pdl\drivers/peripheral/dma/cy_dma.h **** *******************************************************************************/
 930:Generated_Source\PSoC6\pdl\drivers/peripheral/dma/cy_dma.h **** __STATIC_INLINE void Cy_DMA_Descriptor_SetDataSize(cy_stc_dma_descriptor_t * descriptor, cy_en_dma_
 931:Generated_Source\PSoC6\pdl\drivers/peripheral/dma/cy_dma.h **** {
 932:Generated_Source\PSoC6\pdl\drivers/peripheral/dma/cy_dma.h ****     CY_ASSERT_L3(CY_DMA_IS_DATA_SIZE_VALID(dataSize));
  49              		.loc 2 932 0
  50 000a 022A     		cmp	r2, #2
  51 000c 04D9     		bls	.L2
  52 000e 4FF46971 		mov	r1, #932
  53              	.LVL2:
  54 0012 2C48     		ldr	r0, .L10
  55              	.LVL3:
  56 0014 FFF7FEFF 		bl	Cy_SysLib_AssertFailed
  57              	.LVL4:
  58              	.L2:
 933:Generated_Source\PSoC6\pdl\drivers/peripheral/dma/cy_dma.h ****     
 934:Generated_Source\PSoC6\pdl\drivers/peripheral/dma/cy_dma.h ****     CY_REG32_CLR_SET(descriptor->ctl, CY_DMA_CTL_DATA_SIZE, dataSize);
  59              		.loc 2 934 0
  60 0018 2B68     		ldr	r3, [r5]
  61 001a 23F04053 		bic	r3, r3, #805306368
  62 001e 2407     		lsls	r4, r4, #28
  63 0020 04F04054 		and	r4, r4, #805306368
  64 0024 1C43     		orrs	r4, r4, r3
  65 0026 2C60     		str	r4, [r5]
  66              	.LVL5:
  67              	.LBE128:
  68              	.LBE127:
 300:Generated_Source\PSoC6\pdl\drivers\peripheral\usbfs/cy_usbfs_dev_drv_io_dma.c ****     Cy_DMA_Descriptor_SetDataSize(descr, dataSize);
 301:Generated_Source\PSoC6\pdl\drivers\peripheral\usbfs/cy_usbfs_dev_drv_io_dma.c **** 
 302:Generated_Source\PSoC6\pdl\drivers\peripheral\usbfs/cy_usbfs_dev_drv_io_dma.c ****     if (inDirection)
  69              		.loc 1 302 0
  70 0028 1FB3     		cbz	r7, .L3
  71              	.LVL6:
  72              	.LBB129:
  73              	.LBB130:
 935:Generated_Source\PSoC6\pdl\drivers/peripheral/dma/cy_dma.h **** }
 936:Generated_Source\PSoC6\pdl\drivers/peripheral/dma/cy_dma.h **** 
ARM GAS  C:\Users\enes_\AppData\Local\Temp\ccQvJBBi.s 			page 24


 937:Generated_Source\PSoC6\pdl\drivers/peripheral/dma/cy_dma.h **** 
 938:Generated_Source\PSoC6\pdl\drivers/peripheral/dma/cy_dma.h **** /*******************************************************************************
 939:Generated_Source\PSoC6\pdl\drivers/peripheral/dma/cy_dma.h **** * Function Name: Cy_DMA_Descriptor_GetDataSize
 940:Generated_Source\PSoC6\pdl\drivers/peripheral/dma/cy_dma.h **** ****************************************************************************//**
 941:Generated_Source\PSoC6\pdl\drivers/peripheral/dma/cy_dma.h **** *
 942:Generated_Source\PSoC6\pdl\drivers/peripheral/dma/cy_dma.h **** * Returns the Data Element Size parameter of the specified descriptor.
 943:Generated_Source\PSoC6\pdl\drivers/peripheral/dma/cy_dma.h **** *
 944:Generated_Source\PSoC6\pdl\drivers/peripheral/dma/cy_dma.h **** * \param descriptor
 945:Generated_Source\PSoC6\pdl\drivers/peripheral/dma/cy_dma.h **** * The descriptor structure instance declared by the user/component.
 946:Generated_Source\PSoC6\pdl\drivers/peripheral/dma/cy_dma.h **** *
 947:Generated_Source\PSoC6\pdl\drivers/peripheral/dma/cy_dma.h **** * \return
 948:Generated_Source\PSoC6\pdl\drivers/peripheral/dma/cy_dma.h **** * The Data Element Size \ref cy_en_dma_data_size_t.
 949:Generated_Source\PSoC6\pdl\drivers/peripheral/dma/cy_dma.h **** *
 950:Generated_Source\PSoC6\pdl\drivers/peripheral/dma/cy_dma.h **** * \funcusage 
 951:Generated_Source\PSoC6\pdl\drivers/peripheral/dma/cy_dma.h **** * \snippet dma\2.10\snippet\main.c snippet_Cy_DMA_Descriptor_GetterFunctions
 952:Generated_Source\PSoC6\pdl\drivers/peripheral/dma/cy_dma.h **** *  
 953:Generated_Source\PSoC6\pdl\drivers/peripheral/dma/cy_dma.h **** *******************************************************************************/
 954:Generated_Source\PSoC6\pdl\drivers/peripheral/dma/cy_dma.h **** __STATIC_INLINE cy_en_dma_data_size_t Cy_DMA_Descriptor_GetDataSize(cy_stc_dma_descriptor_t const *
 955:Generated_Source\PSoC6\pdl\drivers/peripheral/dma/cy_dma.h **** {
 956:Generated_Source\PSoC6\pdl\drivers/peripheral/dma/cy_dma.h ****     return((cy_en_dma_data_size_t) _FLD2VAL(CY_DMA_CTL_DATA_SIZE, descriptor->ctl));
 957:Generated_Source\PSoC6\pdl\drivers/peripheral/dma/cy_dma.h **** }
 958:Generated_Source\PSoC6\pdl\drivers/peripheral/dma/cy_dma.h **** 
 959:Generated_Source\PSoC6\pdl\drivers/peripheral/dma/cy_dma.h **** 
 960:Generated_Source\PSoC6\pdl\drivers/peripheral/dma/cy_dma.h **** /*******************************************************************************
 961:Generated_Source\PSoC6\pdl\drivers/peripheral/dma/cy_dma.h **** * Function Name: Cy_DMA_Descriptor_SetSrcTransferSize
 962:Generated_Source\PSoC6\pdl\drivers/peripheral/dma/cy_dma.h **** ****************************************************************************//**
 963:Generated_Source\PSoC6\pdl\drivers/peripheral/dma/cy_dma.h **** *
 964:Generated_Source\PSoC6\pdl\drivers/peripheral/dma/cy_dma.h **** * Sets the Source Transfer Size for the specified descriptor.
 965:Generated_Source\PSoC6\pdl\drivers/peripheral/dma/cy_dma.h **** *
 966:Generated_Source\PSoC6\pdl\drivers/peripheral/dma/cy_dma.h **** * \param descriptor
 967:Generated_Source\PSoC6\pdl\drivers/peripheral/dma/cy_dma.h **** * The descriptor structure instance declared by the user/component.
 968:Generated_Source\PSoC6\pdl\drivers/peripheral/dma/cy_dma.h **** *
 969:Generated_Source\PSoC6\pdl\drivers/peripheral/dma/cy_dma.h **** * \param srcTransferSize
 970:Generated_Source\PSoC6\pdl\drivers/peripheral/dma/cy_dma.h **** * The Source Transfer Size \ref cy_en_dma_transfer_size_t.
 971:Generated_Source\PSoC6\pdl\drivers/peripheral/dma/cy_dma.h **** *
 972:Generated_Source\PSoC6\pdl\drivers/peripheral/dma/cy_dma.h **** * \funcusage 
 973:Generated_Source\PSoC6\pdl\drivers/peripheral/dma/cy_dma.h **** * \snippet dma\2.10\snippet\main.c snippet_Cy_DMA_Descriptor_SetterFunctions
 974:Generated_Source\PSoC6\pdl\drivers/peripheral/dma/cy_dma.h **** *
 975:Generated_Source\PSoC6\pdl\drivers/peripheral/dma/cy_dma.h **** *******************************************************************************/
 976:Generated_Source\PSoC6\pdl\drivers/peripheral/dma/cy_dma.h **** __STATIC_INLINE void Cy_DMA_Descriptor_SetSrcTransferSize(cy_stc_dma_descriptor_t * descriptor, cy_
 977:Generated_Source\PSoC6\pdl\drivers/peripheral/dma/cy_dma.h **** {
 978:Generated_Source\PSoC6\pdl\drivers/peripheral/dma/cy_dma.h ****     CY_ASSERT_L3(CY_DMA_IS_XFER_SIZE_VALID(srcTransferSize));
 979:Generated_Source\PSoC6\pdl\drivers/peripheral/dma/cy_dma.h **** 
 980:Generated_Source\PSoC6\pdl\drivers/peripheral/dma/cy_dma.h ****     CY_REG32_CLR_SET(descriptor->ctl, CY_DMA_CTL_SRC_SIZE, srcTransferSize);
 981:Generated_Source\PSoC6\pdl\drivers/peripheral/dma/cy_dma.h **** }
 982:Generated_Source\PSoC6\pdl\drivers/peripheral/dma/cy_dma.h **** 
 983:Generated_Source\PSoC6\pdl\drivers/peripheral/dma/cy_dma.h **** 
 984:Generated_Source\PSoC6\pdl\drivers/peripheral/dma/cy_dma.h **** /*******************************************************************************
 985:Generated_Source\PSoC6\pdl\drivers/peripheral/dma/cy_dma.h **** * Function Name: Cy_DMA_Descriptor_GetSrcTransferSize
 986:Generated_Source\PSoC6\pdl\drivers/peripheral/dma/cy_dma.h **** ****************************************************************************//**
 987:Generated_Source\PSoC6\pdl\drivers/peripheral/dma/cy_dma.h **** *
 988:Generated_Source\PSoC6\pdl\drivers/peripheral/dma/cy_dma.h **** * Returns the Source Transfer Size parameter of the specified descriptor.
 989:Generated_Source\PSoC6\pdl\drivers/peripheral/dma/cy_dma.h **** *
 990:Generated_Source\PSoC6\pdl\drivers/peripheral/dma/cy_dma.h **** * \param descriptor
 991:Generated_Source\PSoC6\pdl\drivers/peripheral/dma/cy_dma.h **** * The descriptor structure instance declared by the user/component.
 992:Generated_Source\PSoC6\pdl\drivers/peripheral/dma/cy_dma.h **** *
 993:Generated_Source\PSoC6\pdl\drivers/peripheral/dma/cy_dma.h **** * \return
ARM GAS  C:\Users\enes_\AppData\Local\Temp\ccQvJBBi.s 			page 25


 994:Generated_Source\PSoC6\pdl\drivers/peripheral/dma/cy_dma.h **** * The Source Transfer Size \ref cy_en_dma_transfer_size_t.
 995:Generated_Source\PSoC6\pdl\drivers/peripheral/dma/cy_dma.h **** *
 996:Generated_Source\PSoC6\pdl\drivers/peripheral/dma/cy_dma.h **** * \funcusage 
 997:Generated_Source\PSoC6\pdl\drivers/peripheral/dma/cy_dma.h **** * \snippet dma\2.10\snippet\main.c snippet_Cy_DMA_Descriptor_GetterFunctions
 998:Generated_Source\PSoC6\pdl\drivers/peripheral/dma/cy_dma.h **** *  
 999:Generated_Source\PSoC6\pdl\drivers/peripheral/dma/cy_dma.h **** *******************************************************************************/
1000:Generated_Source\PSoC6\pdl\drivers/peripheral/dma/cy_dma.h **** __STATIC_INLINE cy_en_dma_transfer_size_t Cy_DMA_Descriptor_GetSrcTransferSize(cy_stc_dma_descripto
1001:Generated_Source\PSoC6\pdl\drivers/peripheral/dma/cy_dma.h **** {
1002:Generated_Source\PSoC6\pdl\drivers/peripheral/dma/cy_dma.h ****     return((cy_en_dma_transfer_size_t) _FLD2VAL(CY_DMA_CTL_SRC_SIZE, descriptor->ctl));
1003:Generated_Source\PSoC6\pdl\drivers/peripheral/dma/cy_dma.h **** }
1004:Generated_Source\PSoC6\pdl\drivers/peripheral/dma/cy_dma.h **** 
1005:Generated_Source\PSoC6\pdl\drivers/peripheral/dma/cy_dma.h **** 
1006:Generated_Source\PSoC6\pdl\drivers/peripheral/dma/cy_dma.h **** /*******************************************************************************
1007:Generated_Source\PSoC6\pdl\drivers/peripheral/dma/cy_dma.h **** * Function Name: Cy_DMA_Descriptor_SetDstTransferSize
1008:Generated_Source\PSoC6\pdl\drivers/peripheral/dma/cy_dma.h **** ****************************************************************************//**
1009:Generated_Source\PSoC6\pdl\drivers/peripheral/dma/cy_dma.h **** *
1010:Generated_Source\PSoC6\pdl\drivers/peripheral/dma/cy_dma.h **** * Sets the Destination Transfer Size for the specified descriptor.
1011:Generated_Source\PSoC6\pdl\drivers/peripheral/dma/cy_dma.h **** *
1012:Generated_Source\PSoC6\pdl\drivers/peripheral/dma/cy_dma.h **** * \param descriptor
1013:Generated_Source\PSoC6\pdl\drivers/peripheral/dma/cy_dma.h **** * The descriptor structure instance declared by the user/component.
1014:Generated_Source\PSoC6\pdl\drivers/peripheral/dma/cy_dma.h **** *
1015:Generated_Source\PSoC6\pdl\drivers/peripheral/dma/cy_dma.h **** * \param dstTransferSize
1016:Generated_Source\PSoC6\pdl\drivers/peripheral/dma/cy_dma.h **** * The Destination Transfer Size \ref cy_en_dma_transfer_size_t.
1017:Generated_Source\PSoC6\pdl\drivers/peripheral/dma/cy_dma.h **** *
1018:Generated_Source\PSoC6\pdl\drivers/peripheral/dma/cy_dma.h **** * \funcusage 
1019:Generated_Source\PSoC6\pdl\drivers/peripheral/dma/cy_dma.h **** * \snippet dma\2.10\snippet\main.c snippet_Cy_DMA_Descriptor_SetterFunctions
1020:Generated_Source\PSoC6\pdl\drivers/peripheral/dma/cy_dma.h **** *
1021:Generated_Source\PSoC6\pdl\drivers/peripheral/dma/cy_dma.h **** *******************************************************************************/
1022:Generated_Source\PSoC6\pdl\drivers/peripheral/dma/cy_dma.h **** __STATIC_INLINE void Cy_DMA_Descriptor_SetDstTransferSize(cy_stc_dma_descriptor_t * descriptor, cy_
1023:Generated_Source\PSoC6\pdl\drivers/peripheral/dma/cy_dma.h **** {
1024:Generated_Source\PSoC6\pdl\drivers/peripheral/dma/cy_dma.h ****     CY_ASSERT_L3(CY_DMA_IS_XFER_SIZE_VALID(dstTransferSize));
1025:Generated_Source\PSoC6\pdl\drivers/peripheral/dma/cy_dma.h ****     
1026:Generated_Source\PSoC6\pdl\drivers/peripheral/dma/cy_dma.h ****     CY_REG32_CLR_SET(descriptor->ctl, CY_DMA_CTL_DST_SIZE, dstTransferSize);
  74              		.loc 2 1026 0
  75 002a 24F04064 		bic	r4, r4, #201326592
  76 002e 44F00064 		orr	r4, r4, #134217728
  77 0032 2C60     		str	r4, [r5]
  78              	.LVL7:
  79              	.LBE130:
  80              	.LBE129:
  81              	.LBB131:
  82              	.LBB132:
1027:Generated_Source\PSoC6\pdl\drivers/peripheral/dma/cy_dma.h **** }
1028:Generated_Source\PSoC6\pdl\drivers/peripheral/dma/cy_dma.h **** 
1029:Generated_Source\PSoC6\pdl\drivers/peripheral/dma/cy_dma.h **** 
1030:Generated_Source\PSoC6\pdl\drivers/peripheral/dma/cy_dma.h **** /*******************************************************************************
1031:Generated_Source\PSoC6\pdl\drivers/peripheral/dma/cy_dma.h **** * Function Name: Cy_DMA_Descriptor_GetDstTransferSize
1032:Generated_Source\PSoC6\pdl\drivers/peripheral/dma/cy_dma.h **** ****************************************************************************//**
1033:Generated_Source\PSoC6\pdl\drivers/peripheral/dma/cy_dma.h **** *
1034:Generated_Source\PSoC6\pdl\drivers/peripheral/dma/cy_dma.h **** * Returns the Destination Transfer Size parameter of the specified descriptor.
1035:Generated_Source\PSoC6\pdl\drivers/peripheral/dma/cy_dma.h **** *
1036:Generated_Source\PSoC6\pdl\drivers/peripheral/dma/cy_dma.h **** * \param descriptor
1037:Generated_Source\PSoC6\pdl\drivers/peripheral/dma/cy_dma.h **** * The descriptor structure instance declared by the user/component.
1038:Generated_Source\PSoC6\pdl\drivers/peripheral/dma/cy_dma.h **** *
1039:Generated_Source\PSoC6\pdl\drivers/peripheral/dma/cy_dma.h **** * \return
1040:Generated_Source\PSoC6\pdl\drivers/peripheral/dma/cy_dma.h **** * The Destination Transfer Size \ref cy_en_dma_transfer_size_t.
1041:Generated_Source\PSoC6\pdl\drivers/peripheral/dma/cy_dma.h **** *
ARM GAS  C:\Users\enes_\AppData\Local\Temp\ccQvJBBi.s 			page 26


1042:Generated_Source\PSoC6\pdl\drivers/peripheral/dma/cy_dma.h **** * \funcusage 
1043:Generated_Source\PSoC6\pdl\drivers/peripheral/dma/cy_dma.h **** * \snippet dma\2.10\snippet\main.c snippet_Cy_DMA_Descriptor_GetterFunctions
1044:Generated_Source\PSoC6\pdl\drivers/peripheral/dma/cy_dma.h **** *  
1045:Generated_Source\PSoC6\pdl\drivers/peripheral/dma/cy_dma.h **** *******************************************************************************/
1046:Generated_Source\PSoC6\pdl\drivers/peripheral/dma/cy_dma.h **** __STATIC_INLINE cy_en_dma_transfer_size_t Cy_DMA_Descriptor_GetDstTransferSize(cy_stc_dma_descripto
1047:Generated_Source\PSoC6\pdl\drivers/peripheral/dma/cy_dma.h **** {
1048:Generated_Source\PSoC6\pdl\drivers/peripheral/dma/cy_dma.h ****     return((cy_en_dma_transfer_size_t) _FLD2VAL(CY_DMA_CTL_DST_SIZE, descriptor->ctl));
1049:Generated_Source\PSoC6\pdl\drivers/peripheral/dma/cy_dma.h **** }
1050:Generated_Source\PSoC6\pdl\drivers/peripheral/dma/cy_dma.h **** 
1051:Generated_Source\PSoC6\pdl\drivers/peripheral/dma/cy_dma.h **** 
1052:Generated_Source\PSoC6\pdl\drivers/peripheral/dma/cy_dma.h **** /*******************************************************************************
1053:Generated_Source\PSoC6\pdl\drivers/peripheral/dma/cy_dma.h **** * Function Name: Cy_DMA_Descriptor_SetRetrigger
1054:Generated_Source\PSoC6\pdl\drivers/peripheral/dma/cy_dma.h **** ****************************************************************************//**
1055:Generated_Source\PSoC6\pdl\drivers/peripheral/dma/cy_dma.h **** *
1056:Generated_Source\PSoC6\pdl\drivers/peripheral/dma/cy_dma.h **** * Sets the retrigger value that specifies whether the controller should 
1057:Generated_Source\PSoC6\pdl\drivers/peripheral/dma/cy_dma.h **** * wait for the input trigger to be deactivated.
1058:Generated_Source\PSoC6\pdl\drivers/peripheral/dma/cy_dma.h **** *
1059:Generated_Source\PSoC6\pdl\drivers/peripheral/dma/cy_dma.h **** * \param descriptor
1060:Generated_Source\PSoC6\pdl\drivers/peripheral/dma/cy_dma.h **** * The descriptor structure instance declared by the user/component.
1061:Generated_Source\PSoC6\pdl\drivers/peripheral/dma/cy_dma.h **** *
1062:Generated_Source\PSoC6\pdl\drivers/peripheral/dma/cy_dma.h **** * \param retrigger 
1063:Generated_Source\PSoC6\pdl\drivers/peripheral/dma/cy_dma.h **** * The \ref cy_en_dma_retrigger_t parameter specifies whether the controller
1064:Generated_Source\PSoC6\pdl\drivers/peripheral/dma/cy_dma.h **** * should wait for the input trigger to be deactivated.
1065:Generated_Source\PSoC6\pdl\drivers/peripheral/dma/cy_dma.h **** *
1066:Generated_Source\PSoC6\pdl\drivers/peripheral/dma/cy_dma.h **** * \funcusage 
1067:Generated_Source\PSoC6\pdl\drivers/peripheral/dma/cy_dma.h **** * \snippet dma\2.10\snippet\main.c snippet_Cy_DMA_Descriptor_SetterFunctions
1068:Generated_Source\PSoC6\pdl\drivers/peripheral/dma/cy_dma.h **** *
1069:Generated_Source\PSoC6\pdl\drivers/peripheral/dma/cy_dma.h **** *******************************************************************************/
1070:Generated_Source\PSoC6\pdl\drivers/peripheral/dma/cy_dma.h **** __STATIC_INLINE void Cy_DMA_Descriptor_SetRetrigger(cy_stc_dma_descriptor_t * descriptor, cy_en_dma
1071:Generated_Source\PSoC6\pdl\drivers/peripheral/dma/cy_dma.h **** {
1072:Generated_Source\PSoC6\pdl\drivers/peripheral/dma/cy_dma.h ****     CY_ASSERT_L3(CY_DMA_IS_RETRIG_VALID(retrigger));
1073:Generated_Source\PSoC6\pdl\drivers/peripheral/dma/cy_dma.h ****     
1074:Generated_Source\PSoC6\pdl\drivers/peripheral/dma/cy_dma.h ****     CY_REG32_CLR_SET(descriptor->ctl, CY_DMA_CTL_RETRIG, retrigger);
1075:Generated_Source\PSoC6\pdl\drivers/peripheral/dma/cy_dma.h **** }
1076:Generated_Source\PSoC6\pdl\drivers/peripheral/dma/cy_dma.h **** 
1077:Generated_Source\PSoC6\pdl\drivers/peripheral/dma/cy_dma.h **** 
1078:Generated_Source\PSoC6\pdl\drivers/peripheral/dma/cy_dma.h **** /*******************************************************************************
1079:Generated_Source\PSoC6\pdl\drivers/peripheral/dma/cy_dma.h **** * Function Name: Cy_DMA_Descriptor_GetRetrigger
1080:Generated_Source\PSoC6\pdl\drivers/peripheral/dma/cy_dma.h **** ****************************************************************************//**
1081:Generated_Source\PSoC6\pdl\drivers/peripheral/dma/cy_dma.h **** *
1082:Generated_Source\PSoC6\pdl\drivers/peripheral/dma/cy_dma.h **** * Returns a value that specifies whether the controller should 
1083:Generated_Source\PSoC6\pdl\drivers/peripheral/dma/cy_dma.h **** * wait for the input trigger to be deactivated.
1084:Generated_Source\PSoC6\pdl\drivers/peripheral/dma/cy_dma.h **** *
1085:Generated_Source\PSoC6\pdl\drivers/peripheral/dma/cy_dma.h **** * \param descriptor
1086:Generated_Source\PSoC6\pdl\drivers/peripheral/dma/cy_dma.h **** * The descriptor structure instance declared by the user/component.
1087:Generated_Source\PSoC6\pdl\drivers/peripheral/dma/cy_dma.h **** *
1088:Generated_Source\PSoC6\pdl\drivers/peripheral/dma/cy_dma.h **** * \return
1089:Generated_Source\PSoC6\pdl\drivers/peripheral/dma/cy_dma.h **** * The Retrigger setting \ref cy_en_dma_retrigger_t.
1090:Generated_Source\PSoC6\pdl\drivers/peripheral/dma/cy_dma.h **** *
1091:Generated_Source\PSoC6\pdl\drivers/peripheral/dma/cy_dma.h **** * \funcusage 
1092:Generated_Source\PSoC6\pdl\drivers/peripheral/dma/cy_dma.h **** * \snippet dma\2.10\snippet\main.c snippet_Cy_DMA_Descriptor_GetterFunctions
1093:Generated_Source\PSoC6\pdl\drivers/peripheral/dma/cy_dma.h **** *  
1094:Generated_Source\PSoC6\pdl\drivers/peripheral/dma/cy_dma.h **** *******************************************************************************/
1095:Generated_Source\PSoC6\pdl\drivers/peripheral/dma/cy_dma.h **** __STATIC_INLINE cy_en_dma_retrigger_t Cy_DMA_Descriptor_GetRetrigger(cy_stc_dma_descriptor_t const 
1096:Generated_Source\PSoC6\pdl\drivers/peripheral/dma/cy_dma.h **** {
1097:Generated_Source\PSoC6\pdl\drivers/peripheral/dma/cy_dma.h ****     return((cy_en_dma_retrigger_t) _FLD2VAL(CY_DMA_CTL_RETRIG, descriptor->ctl));
1098:Generated_Source\PSoC6\pdl\drivers/peripheral/dma/cy_dma.h **** }
ARM GAS  C:\Users\enes_\AppData\Local\Temp\ccQvJBBi.s 			page 27


1099:Generated_Source\PSoC6\pdl\drivers/peripheral/dma/cy_dma.h **** 
1100:Generated_Source\PSoC6\pdl\drivers/peripheral/dma/cy_dma.h **** 
1101:Generated_Source\PSoC6\pdl\drivers/peripheral/dma/cy_dma.h **** /*******************************************************************************
1102:Generated_Source\PSoC6\pdl\drivers/peripheral/dma/cy_dma.h **** * Function Name: Cy_DMA_Descriptor_GetDescriptorType
1103:Generated_Source\PSoC6\pdl\drivers/peripheral/dma/cy_dma.h **** ****************************************************************************//**
1104:Generated_Source\PSoC6\pdl\drivers/peripheral/dma/cy_dma.h **** *
1105:Generated_Source\PSoC6\pdl\drivers/peripheral/dma/cy_dma.h **** * Returns the descriptor's type of the specified descriptor.
1106:Generated_Source\PSoC6\pdl\drivers/peripheral/dma/cy_dma.h **** *
1107:Generated_Source\PSoC6\pdl\drivers/peripheral/dma/cy_dma.h **** * \param descriptor
1108:Generated_Source\PSoC6\pdl\drivers/peripheral/dma/cy_dma.h **** * The descriptor structure instance declared by the user/component.
1109:Generated_Source\PSoC6\pdl\drivers/peripheral/dma/cy_dma.h **** *
1110:Generated_Source\PSoC6\pdl\drivers/peripheral/dma/cy_dma.h **** * \return
1111:Generated_Source\PSoC6\pdl\drivers/peripheral/dma/cy_dma.h **** * The descriptor type \ref cy_en_dma_descriptor_type_t.
1112:Generated_Source\PSoC6\pdl\drivers/peripheral/dma/cy_dma.h **** *
1113:Generated_Source\PSoC6\pdl\drivers/peripheral/dma/cy_dma.h **** * \funcusage 
1114:Generated_Source\PSoC6\pdl\drivers/peripheral/dma/cy_dma.h **** * \snippet dma\2.10\snippet\main.c snippet_Cy_DMA_Descriptor_GetterFunctions
1115:Generated_Source\PSoC6\pdl\drivers/peripheral/dma/cy_dma.h **** *  
1116:Generated_Source\PSoC6\pdl\drivers/peripheral/dma/cy_dma.h **** *******************************************************************************/
1117:Generated_Source\PSoC6\pdl\drivers/peripheral/dma/cy_dma.h **** __STATIC_INLINE cy_en_dma_descriptor_type_t Cy_DMA_Descriptor_GetDescriptorType(cy_stc_dma_descript
1118:Generated_Source\PSoC6\pdl\drivers/peripheral/dma/cy_dma.h **** {
1119:Generated_Source\PSoC6\pdl\drivers/peripheral/dma/cy_dma.h ****     return((cy_en_dma_descriptor_type_t) _FLD2VAL(CY_DMA_CTL_TYPE, descriptor->ctl));
1120:Generated_Source\PSoC6\pdl\drivers/peripheral/dma/cy_dma.h **** }
1121:Generated_Source\PSoC6\pdl\drivers/peripheral/dma/cy_dma.h **** 
1122:Generated_Source\PSoC6\pdl\drivers/peripheral/dma/cy_dma.h **** 
1123:Generated_Source\PSoC6\pdl\drivers/peripheral/dma/cy_dma.h **** /*******************************************************************************
1124:Generated_Source\PSoC6\pdl\drivers/peripheral/dma/cy_dma.h **** * Function Name: Cy_DMA_Descriptor_SetChannelState
1125:Generated_Source\PSoC6\pdl\drivers/peripheral/dma/cy_dma.h **** ****************************************************************************//**
1126:Generated_Source\PSoC6\pdl\drivers/peripheral/dma/cy_dma.h **** *
1127:Generated_Source\PSoC6\pdl\drivers/peripheral/dma/cy_dma.h **** * Sets the channel state on completion of the specified descriptor.
1128:Generated_Source\PSoC6\pdl\drivers/peripheral/dma/cy_dma.h **** *
1129:Generated_Source\PSoC6\pdl\drivers/peripheral/dma/cy_dma.h **** * \param descriptor
1130:Generated_Source\PSoC6\pdl\drivers/peripheral/dma/cy_dma.h **** * The descriptor structure instance declared by the user/component.
1131:Generated_Source\PSoC6\pdl\drivers/peripheral/dma/cy_dma.h **** *
1132:Generated_Source\PSoC6\pdl\drivers/peripheral/dma/cy_dma.h **** * \param channelState 
1133:Generated_Source\PSoC6\pdl\drivers/peripheral/dma/cy_dma.h **** * The channel state \ref cy_en_dma_channel_state_t.
1134:Generated_Source\PSoC6\pdl\drivers/peripheral/dma/cy_dma.h **** *
1135:Generated_Source\PSoC6\pdl\drivers/peripheral/dma/cy_dma.h **** * \funcusage 
1136:Generated_Source\PSoC6\pdl\drivers/peripheral/dma/cy_dma.h **** * \snippet dma\2.10\snippet\main.c snippet_Cy_DMA_Descriptor_SetterFunctions
1137:Generated_Source\PSoC6\pdl\drivers/peripheral/dma/cy_dma.h **** *
1138:Generated_Source\PSoC6\pdl\drivers/peripheral/dma/cy_dma.h **** *******************************************************************************/
1139:Generated_Source\PSoC6\pdl\drivers/peripheral/dma/cy_dma.h **** __STATIC_INLINE void Cy_DMA_Descriptor_SetChannelState(cy_stc_dma_descriptor_t * descriptor, cy_en_
1140:Generated_Source\PSoC6\pdl\drivers/peripheral/dma/cy_dma.h **** {
1141:Generated_Source\PSoC6\pdl\drivers/peripheral/dma/cy_dma.h ****     CY_ASSERT_L3(CY_DMA_IS_CHANNEL_STATE_VALID(channelState));
1142:Generated_Source\PSoC6\pdl\drivers/peripheral/dma/cy_dma.h ****     
1143:Generated_Source\PSoC6\pdl\drivers/peripheral/dma/cy_dma.h ****     CY_REG32_CLR_SET(descriptor->ctl, CY_DMA_CTL_CH_DISABLE, channelState);
1144:Generated_Source\PSoC6\pdl\drivers/peripheral/dma/cy_dma.h **** }
1145:Generated_Source\PSoC6\pdl\drivers/peripheral/dma/cy_dma.h **** 
1146:Generated_Source\PSoC6\pdl\drivers/peripheral/dma/cy_dma.h **** 
1147:Generated_Source\PSoC6\pdl\drivers/peripheral/dma/cy_dma.h **** /*******************************************************************************
1148:Generated_Source\PSoC6\pdl\drivers/peripheral/dma/cy_dma.h **** * Function Name: Cy_DMA_Descriptor_GetChannelState
1149:Generated_Source\PSoC6\pdl\drivers/peripheral/dma/cy_dma.h **** ****************************************************************************//**
1150:Generated_Source\PSoC6\pdl\drivers/peripheral/dma/cy_dma.h **** *
1151:Generated_Source\PSoC6\pdl\drivers/peripheral/dma/cy_dma.h **** * Returns the channel state on completion of the specified descriptor.
1152:Generated_Source\PSoC6\pdl\drivers/peripheral/dma/cy_dma.h **** *
1153:Generated_Source\PSoC6\pdl\drivers/peripheral/dma/cy_dma.h **** * \param descriptor
1154:Generated_Source\PSoC6\pdl\drivers/peripheral/dma/cy_dma.h **** * The descriptor structure instance declared by the user/component.
1155:Generated_Source\PSoC6\pdl\drivers/peripheral/dma/cy_dma.h **** *
ARM GAS  C:\Users\enes_\AppData\Local\Temp\ccQvJBBi.s 			page 28


1156:Generated_Source\PSoC6\pdl\drivers/peripheral/dma/cy_dma.h **** * \return
1157:Generated_Source\PSoC6\pdl\drivers/peripheral/dma/cy_dma.h **** * The Channel State setting \ref cy_en_dma_channel_state_t.
1158:Generated_Source\PSoC6\pdl\drivers/peripheral/dma/cy_dma.h **** *
1159:Generated_Source\PSoC6\pdl\drivers/peripheral/dma/cy_dma.h **** * \funcusage 
1160:Generated_Source\PSoC6\pdl\drivers/peripheral/dma/cy_dma.h **** * \snippet dma\2.10\snippet\main.c snippet_Cy_DMA_Descriptor_GetterFunctions
1161:Generated_Source\PSoC6\pdl\drivers/peripheral/dma/cy_dma.h **** *  
1162:Generated_Source\PSoC6\pdl\drivers/peripheral/dma/cy_dma.h **** *******************************************************************************/
1163:Generated_Source\PSoC6\pdl\drivers/peripheral/dma/cy_dma.h **** __STATIC_INLINE cy_en_dma_channel_state_t Cy_DMA_Descriptor_GetChannelState(cy_stc_dma_descriptor_t
1164:Generated_Source\PSoC6\pdl\drivers/peripheral/dma/cy_dma.h **** {
1165:Generated_Source\PSoC6\pdl\drivers/peripheral/dma/cy_dma.h ****     return((cy_en_dma_channel_state_t) _FLD2VAL(CY_DMA_CTL_CH_DISABLE, descriptor->ctl));
1166:Generated_Source\PSoC6\pdl\drivers/peripheral/dma/cy_dma.h **** }
1167:Generated_Source\PSoC6\pdl\drivers/peripheral/dma/cy_dma.h **** 
1168:Generated_Source\PSoC6\pdl\drivers/peripheral/dma/cy_dma.h **** 
1169:Generated_Source\PSoC6\pdl\drivers/peripheral/dma/cy_dma.h **** /*******************************************************************************
1170:Generated_Source\PSoC6\pdl\drivers/peripheral/dma/cy_dma.h **** * Function Name: Cy_DMA_Descriptor_SetXloopDataCount
1171:Generated_Source\PSoC6\pdl\drivers/peripheral/dma/cy_dma.h **** ****************************************************************************//**
1172:Generated_Source\PSoC6\pdl\drivers/peripheral/dma/cy_dma.h **** *
1173:Generated_Source\PSoC6\pdl\drivers/peripheral/dma/cy_dma.h **** * Sets the number of data elements to transfer in the X loop
1174:Generated_Source\PSoC6\pdl\drivers/peripheral/dma/cy_dma.h **** * for the specified descriptor (for 1D or 2D descriptors only).
1175:Generated_Source\PSoC6\pdl\drivers/peripheral/dma/cy_dma.h **** *
1176:Generated_Source\PSoC6\pdl\drivers/peripheral/dma/cy_dma.h **** * \param descriptor
1177:Generated_Source\PSoC6\pdl\drivers/peripheral/dma/cy_dma.h **** * The descriptor structure instance declared by the user/component.
1178:Generated_Source\PSoC6\pdl\drivers/peripheral/dma/cy_dma.h **** *
1179:Generated_Source\PSoC6\pdl\drivers/peripheral/dma/cy_dma.h **** * \param xCount
1180:Generated_Source\PSoC6\pdl\drivers/peripheral/dma/cy_dma.h **** * The number of data elements to transfer in the X loop. Valid range is 1 ... 256.
1181:Generated_Source\PSoC6\pdl\drivers/peripheral/dma/cy_dma.h **** *
1182:Generated_Source\PSoC6\pdl\drivers/peripheral/dma/cy_dma.h **** * \funcusage 
1183:Generated_Source\PSoC6\pdl\drivers/peripheral/dma/cy_dma.h **** * \snippet dma\2.10\snippet\main.c snippet_Cy_DMA_Descriptor_SetterFunctions
1184:Generated_Source\PSoC6\pdl\drivers/peripheral/dma/cy_dma.h **** *  
1185:Generated_Source\PSoC6\pdl\drivers/peripheral/dma/cy_dma.h **** *******************************************************************************/
1186:Generated_Source\PSoC6\pdl\drivers/peripheral/dma/cy_dma.h **** __STATIC_INLINE void Cy_DMA_Descriptor_SetXloopDataCount(cy_stc_dma_descriptor_t * descriptor, uint
1187:Generated_Source\PSoC6\pdl\drivers/peripheral/dma/cy_dma.h **** {
1188:Generated_Source\PSoC6\pdl\drivers/peripheral/dma/cy_dma.h ****     CY_ASSERT_L1(CY_DMA_SINGLE_TRANSFER != Cy_DMA_Descriptor_GetDescriptorType(descriptor));
1189:Generated_Source\PSoC6\pdl\drivers/peripheral/dma/cy_dma.h ****     CY_ASSERT_L2(CY_DMA_IS_LOOP_COUNT_VALID(xCount));
1190:Generated_Source\PSoC6\pdl\drivers/peripheral/dma/cy_dma.h ****     /* Convert the data count from the user's range (1-256) into the machine range (0-255). */
1191:Generated_Source\PSoC6\pdl\drivers/peripheral/dma/cy_dma.h ****     CY_REG32_CLR_SET(descriptor->xCtl, CY_DMA_CTL_COUNT, xCount - 1UL);
1192:Generated_Source\PSoC6\pdl\drivers/peripheral/dma/cy_dma.h **** }
1193:Generated_Source\PSoC6\pdl\drivers/peripheral/dma/cy_dma.h **** 
1194:Generated_Source\PSoC6\pdl\drivers/peripheral/dma/cy_dma.h **** 
1195:Generated_Source\PSoC6\pdl\drivers/peripheral/dma/cy_dma.h **** /*******************************************************************************
1196:Generated_Source\PSoC6\pdl\drivers/peripheral/dma/cy_dma.h **** * Function Name: Cy_DMA_Descriptor_GetXloopDataCount
1197:Generated_Source\PSoC6\pdl\drivers/peripheral/dma/cy_dma.h **** ****************************************************************************//**
1198:Generated_Source\PSoC6\pdl\drivers/peripheral/dma/cy_dma.h **** *
1199:Generated_Source\PSoC6\pdl\drivers/peripheral/dma/cy_dma.h **** * Returns the number of data elements for the X loop of the specified
1200:Generated_Source\PSoC6\pdl\drivers/peripheral/dma/cy_dma.h **** * descriptor (for 1D or 2D descriptors only).
1201:Generated_Source\PSoC6\pdl\drivers/peripheral/dma/cy_dma.h **** *
1202:Generated_Source\PSoC6\pdl\drivers/peripheral/dma/cy_dma.h **** * \param descriptor
1203:Generated_Source\PSoC6\pdl\drivers/peripheral/dma/cy_dma.h **** * The descriptor structure instance declared by the user/component.
1204:Generated_Source\PSoC6\pdl\drivers/peripheral/dma/cy_dma.h **** *
1205:Generated_Source\PSoC6\pdl\drivers/peripheral/dma/cy_dma.h **** * \return
1206:Generated_Source\PSoC6\pdl\drivers/peripheral/dma/cy_dma.h **** * The number of data elements to transfer in the X loop. The range is 1 ... 256.
1207:Generated_Source\PSoC6\pdl\drivers/peripheral/dma/cy_dma.h **** *
1208:Generated_Source\PSoC6\pdl\drivers/peripheral/dma/cy_dma.h **** * \funcusage 
1209:Generated_Source\PSoC6\pdl\drivers/peripheral/dma/cy_dma.h **** * \snippet dma\2.10\snippet\main.c snippet_Cy_DMA_Descriptor_GetterFunctions
1210:Generated_Source\PSoC6\pdl\drivers/peripheral/dma/cy_dma.h **** *  
1211:Generated_Source\PSoC6\pdl\drivers/peripheral/dma/cy_dma.h **** *******************************************************************************/
1212:Generated_Source\PSoC6\pdl\drivers/peripheral/dma/cy_dma.h **** __STATIC_INLINE uint32_t Cy_DMA_Descriptor_GetXloopDataCount(cy_stc_dma_descriptor_t const * descri
ARM GAS  C:\Users\enes_\AppData\Local\Temp\ccQvJBBi.s 			page 29


1213:Generated_Source\PSoC6\pdl\drivers/peripheral/dma/cy_dma.h **** {
1214:Generated_Source\PSoC6\pdl\drivers/peripheral/dma/cy_dma.h ****     CY_ASSERT_L1(CY_DMA_SINGLE_TRANSFER != Cy_DMA_Descriptor_GetDescriptorType(descriptor));
1215:Generated_Source\PSoC6\pdl\drivers/peripheral/dma/cy_dma.h ****     /* Convert the data count from the machine range (0-255) into the user's range (1-256). */
1216:Generated_Source\PSoC6\pdl\drivers/peripheral/dma/cy_dma.h ****     return (_FLD2VAL(CY_DMA_CTL_COUNT, descriptor->xCtl) + 1UL);
1217:Generated_Source\PSoC6\pdl\drivers/peripheral/dma/cy_dma.h **** }
1218:Generated_Source\PSoC6\pdl\drivers/peripheral/dma/cy_dma.h **** 
1219:Generated_Source\PSoC6\pdl\drivers/peripheral/dma/cy_dma.h **** 
1220:Generated_Source\PSoC6\pdl\drivers/peripheral/dma/cy_dma.h **** /*******************************************************************************
1221:Generated_Source\PSoC6\pdl\drivers/peripheral/dma/cy_dma.h **** * Function Name: Cy_DMA_Descriptor_SetXloopSrcIncrement
1222:Generated_Source\PSoC6\pdl\drivers/peripheral/dma/cy_dma.h **** ****************************************************************************//**
1223:Generated_Source\PSoC6\pdl\drivers/peripheral/dma/cy_dma.h **** *
1224:Generated_Source\PSoC6\pdl\drivers/peripheral/dma/cy_dma.h **** * Sets the source increment parameter for the X loop of the specified
1225:Generated_Source\PSoC6\pdl\drivers/peripheral/dma/cy_dma.h **** * descriptor (for 1D or 2D descriptors only).
1226:Generated_Source\PSoC6\pdl\drivers/peripheral/dma/cy_dma.h **** *
1227:Generated_Source\PSoC6\pdl\drivers/peripheral/dma/cy_dma.h **** * \param descriptor
1228:Generated_Source\PSoC6\pdl\drivers/peripheral/dma/cy_dma.h **** * The descriptor structure instance declared by the user/component.
1229:Generated_Source\PSoC6\pdl\drivers/peripheral/dma/cy_dma.h **** *
1230:Generated_Source\PSoC6\pdl\drivers/peripheral/dma/cy_dma.h **** * \param srcXincrement
1231:Generated_Source\PSoC6\pdl\drivers/peripheral/dma/cy_dma.h **** * The value of the source increment. The valid range is -2048 ... 2047.
1232:Generated_Source\PSoC6\pdl\drivers/peripheral/dma/cy_dma.h **** *
1233:Generated_Source\PSoC6\pdl\drivers/peripheral/dma/cy_dma.h **** * \funcusage 
1234:Generated_Source\PSoC6\pdl\drivers/peripheral/dma/cy_dma.h **** * \snippet dma\2.10\snippet\main.c snippet_Cy_DMA_Descriptor_SetterFunctions
1235:Generated_Source\PSoC6\pdl\drivers/peripheral/dma/cy_dma.h **** *
1236:Generated_Source\PSoC6\pdl\drivers/peripheral/dma/cy_dma.h **** *******************************************************************************/
1237:Generated_Source\PSoC6\pdl\drivers/peripheral/dma/cy_dma.h **** __STATIC_INLINE void Cy_DMA_Descriptor_SetXloopSrcIncrement(cy_stc_dma_descriptor_t * descriptor, i
1238:Generated_Source\PSoC6\pdl\drivers/peripheral/dma/cy_dma.h **** {
1239:Generated_Source\PSoC6\pdl\drivers/peripheral/dma/cy_dma.h ****     CY_ASSERT_L1(CY_DMA_SINGLE_TRANSFER != Cy_DMA_Descriptor_GetDescriptorType(descriptor));
  83              		.loc 2 1239 0
  84 0034 A30F     		lsrs	r3, r4, #30
  85 0036 04D1     		bne	.L4
  86 0038 40F2D741 		movw	r1, #1239
  87 003c 2148     		ldr	r0, .L10
  88 003e FFF7FEFF 		bl	Cy_SysLib_AssertFailed
  89              	.LVL8:
  90              	.L4:
1240:Generated_Source\PSoC6\pdl\drivers/peripheral/dma/cy_dma.h ****     CY_ASSERT_L2(CY_DMA_IS_LOOP_INCR_VALID(srcXincrement));
1241:Generated_Source\PSoC6\pdl\drivers/peripheral/dma/cy_dma.h ****     
1242:Generated_Source\PSoC6\pdl\drivers/peripheral/dma/cy_dma.h ****     CY_REG32_CLR_SET(descriptor->xCtl, CY_DMA_CTL_SRC_INCR, srcXincrement);
  91              		.loc 2 1242 0
  92 0042 EB68     		ldr	r3, [r5, #12]
  93 0044 23F47F63 		bic	r3, r3, #4080
  94 0048 23F00F03 		bic	r3, r3, #15
  95 004c 43F00103 		orr	r3, r3, #1
  96 0050 EB60     		str	r3, [r5, #12]
  97              	.LVL9:
  98              	.LBE132:
  99              	.LBE131:
 100              	.LBB133:
 101              	.LBB134:
 102              	.LBB135:
 103              	.LBB136:
1119:Generated_Source\PSoC6\pdl\drivers/peripheral/dma/cy_dma.h **** }
 104              		.loc 2 1119 0
 105 0052 2B68     		ldr	r3, [r5]
 106              	.LVL10:
 107              	.LBE136:
 108              	.LBE135:
ARM GAS  C:\Users\enes_\AppData\Local\Temp\ccQvJBBi.s 			page 30


1243:Generated_Source\PSoC6\pdl\drivers/peripheral/dma/cy_dma.h **** }
1244:Generated_Source\PSoC6\pdl\drivers/peripheral/dma/cy_dma.h **** 
1245:Generated_Source\PSoC6\pdl\drivers/peripheral/dma/cy_dma.h **** 
1246:Generated_Source\PSoC6\pdl\drivers/peripheral/dma/cy_dma.h **** /*******************************************************************************
1247:Generated_Source\PSoC6\pdl\drivers/peripheral/dma/cy_dma.h **** * Function Name: Cy_DMA_Descriptor_GetXloopSrcIncrement
1248:Generated_Source\PSoC6\pdl\drivers/peripheral/dma/cy_dma.h **** ****************************************************************************//**
1249:Generated_Source\PSoC6\pdl\drivers/peripheral/dma/cy_dma.h **** *
1250:Generated_Source\PSoC6\pdl\drivers/peripheral/dma/cy_dma.h **** * Returns the source increment parameter for the X loop of the specified
1251:Generated_Source\PSoC6\pdl\drivers/peripheral/dma/cy_dma.h **** * descriptor (for 1D or 2D descriptors only).
1252:Generated_Source\PSoC6\pdl\drivers/peripheral/dma/cy_dma.h **** *
1253:Generated_Source\PSoC6\pdl\drivers/peripheral/dma/cy_dma.h **** * \param descriptor
1254:Generated_Source\PSoC6\pdl\drivers/peripheral/dma/cy_dma.h **** * The descriptor structure instance declared by the user/component.
1255:Generated_Source\PSoC6\pdl\drivers/peripheral/dma/cy_dma.h **** *
1256:Generated_Source\PSoC6\pdl\drivers/peripheral/dma/cy_dma.h **** * \return
1257:Generated_Source\PSoC6\pdl\drivers/peripheral/dma/cy_dma.h **** * The value of the source increment. The range is -2048 ... 2047.
1258:Generated_Source\PSoC6\pdl\drivers/peripheral/dma/cy_dma.h **** *
1259:Generated_Source\PSoC6\pdl\drivers/peripheral/dma/cy_dma.h **** * \funcusage 
1260:Generated_Source\PSoC6\pdl\drivers/peripheral/dma/cy_dma.h **** * \snippet dma\2.10\snippet\main.c snippet_Cy_DMA_Descriptor_GetterFunctions
1261:Generated_Source\PSoC6\pdl\drivers/peripheral/dma/cy_dma.h **** *  
1262:Generated_Source\PSoC6\pdl\drivers/peripheral/dma/cy_dma.h **** *******************************************************************************/
1263:Generated_Source\PSoC6\pdl\drivers/peripheral/dma/cy_dma.h **** __STATIC_INLINE int32_t Cy_DMA_Descriptor_GetXloopSrcIncrement(cy_stc_dma_descriptor_t const * desc
1264:Generated_Source\PSoC6\pdl\drivers/peripheral/dma/cy_dma.h **** {
1265:Generated_Source\PSoC6\pdl\drivers/peripheral/dma/cy_dma.h ****     CY_ASSERT_L1(CY_DMA_SINGLE_TRANSFER != Cy_DMA_Descriptor_GetDescriptorType(descriptor));
1266:Generated_Source\PSoC6\pdl\drivers/peripheral/dma/cy_dma.h ****     
1267:Generated_Source\PSoC6\pdl\drivers/peripheral/dma/cy_dma.h ****     return ((int32_t) _FLD2VAL(CY_DMA_CTL_SRC_INCR, descriptor->xCtl));
1268:Generated_Source\PSoC6\pdl\drivers/peripheral/dma/cy_dma.h **** }
1269:Generated_Source\PSoC6\pdl\drivers/peripheral/dma/cy_dma.h **** 
1270:Generated_Source\PSoC6\pdl\drivers/peripheral/dma/cy_dma.h **** 
1271:Generated_Source\PSoC6\pdl\drivers/peripheral/dma/cy_dma.h **** /*******************************************************************************
1272:Generated_Source\PSoC6\pdl\drivers/peripheral/dma/cy_dma.h **** * Function Name: Cy_DMA_Descriptor_SetXloopDstIncrement
1273:Generated_Source\PSoC6\pdl\drivers/peripheral/dma/cy_dma.h **** ****************************************************************************//**
1274:Generated_Source\PSoC6\pdl\drivers/peripheral/dma/cy_dma.h **** *
1275:Generated_Source\PSoC6\pdl\drivers/peripheral/dma/cy_dma.h **** * Sets the destination increment parameter for the X loop for the specified
1276:Generated_Source\PSoC6\pdl\drivers/peripheral/dma/cy_dma.h **** * descriptor (for 1D or 2D descriptors only).
1277:Generated_Source\PSoC6\pdl\drivers/peripheral/dma/cy_dma.h **** *
1278:Generated_Source\PSoC6\pdl\drivers/peripheral/dma/cy_dma.h **** * \param descriptor
1279:Generated_Source\PSoC6\pdl\drivers/peripheral/dma/cy_dma.h **** * The descriptor structure instance declared by the user/component.
1280:Generated_Source\PSoC6\pdl\drivers/peripheral/dma/cy_dma.h **** *
1281:Generated_Source\PSoC6\pdl\drivers/peripheral/dma/cy_dma.h **** * \param dstXincrement
1282:Generated_Source\PSoC6\pdl\drivers/peripheral/dma/cy_dma.h **** * The value of the destination increment. The valid range is -2048 ... 2047.
1283:Generated_Source\PSoC6\pdl\drivers/peripheral/dma/cy_dma.h **** *
1284:Generated_Source\PSoC6\pdl\drivers/peripheral/dma/cy_dma.h **** * \funcusage 
1285:Generated_Source\PSoC6\pdl\drivers/peripheral/dma/cy_dma.h **** * \snippet dma\2.10\snippet\main.c snippet_Cy_DMA_Descriptor_SetterFunctions
1286:Generated_Source\PSoC6\pdl\drivers/peripheral/dma/cy_dma.h **** *  
1287:Generated_Source\PSoC6\pdl\drivers/peripheral/dma/cy_dma.h **** *******************************************************************************/
1288:Generated_Source\PSoC6\pdl\drivers/peripheral/dma/cy_dma.h **** __STATIC_INLINE void Cy_DMA_Descriptor_SetXloopDstIncrement(cy_stc_dma_descriptor_t * descriptor, i
1289:Generated_Source\PSoC6\pdl\drivers/peripheral/dma/cy_dma.h **** {
1290:Generated_Source\PSoC6\pdl\drivers/peripheral/dma/cy_dma.h ****     CY_ASSERT_L1(CY_DMA_SINGLE_TRANSFER != Cy_DMA_Descriptor_GetDescriptorType(descriptor));
 109              		.loc 2 1290 0
 110 0054 9B0F     		lsrs	r3, r3, #30
 111 0056 04D1     		bne	.L5
 112 0058 40F20A51 		movw	r1, #1290
 113 005c 1948     		ldr	r0, .L10
 114 005e FFF7FEFF 		bl	Cy_SysLib_AssertFailed
 115              	.LVL11:
 116              	.L5:
1291:Generated_Source\PSoC6\pdl\drivers/peripheral/dma/cy_dma.h ****     CY_ASSERT_L2(CY_DMA_IS_LOOP_INCR_VALID(dstXincrement));
ARM GAS  C:\Users\enes_\AppData\Local\Temp\ccQvJBBi.s 			page 31


1292:Generated_Source\PSoC6\pdl\drivers/peripheral/dma/cy_dma.h ****     
1293:Generated_Source\PSoC6\pdl\drivers/peripheral/dma/cy_dma.h ****     CY_REG32_CLR_SET(descriptor->xCtl, CY_DMA_CTL_DST_INCR, dstXincrement);
 117              		.loc 2 1293 0
 118 0062 EB68     		ldr	r3, [r5, #12]
 119 0064 23F47F03 		bic	r3, r3, #16711680
 120 0068 23F47043 		bic	r3, r3, #61440
 121 006c EB60     		str	r3, [r5, #12]
 122              	.LVL12:
 123              	.LBE134:
 124              	.LBE133:
 125              	.LBB137:
 126              	.LBB138:
 750:Generated_Source\PSoC6\pdl\drivers/peripheral/dma/cy_dma.h **** }
 127              		.loc 2 750 0
 128 006e AE60     		str	r6, [r5, #8]
 129 0070 22E0     		b	.L6
 130              	.LVL13:
 131              	.L3:
 132              	.LBE138:
 133              	.LBE137:
 134              	.LBB139:
 135              	.LBB140:
 980:Generated_Source\PSoC6\pdl\drivers/peripheral/dma/cy_dma.h **** }
 136              		.loc 2 980 0
 137 0072 44F08064 		orr	r4, r4, #67108864
 138              	.LVL14:
 139              	.LBE140:
 140              	.LBE139:
 141              	.LBB141:
 142              	.LBB142:
1026:Generated_Source\PSoC6\pdl\drivers/peripheral/dma/cy_dma.h **** }
 143              		.loc 2 1026 0
 144 0076 24F00064 		bic	r4, r4, #134217728
 145 007a 2C60     		str	r4, [r5]
 146              	.LVL15:
 147              	.LBE142:
 148              	.LBE141:
 149              	.LBB143:
 150              	.LBB144:
1239:Generated_Source\PSoC6\pdl\drivers/peripheral/dma/cy_dma.h ****     CY_ASSERT_L2(CY_DMA_IS_LOOP_INCR_VALID(srcXincrement));
 151              		.loc 2 1239 0
 152 007c A30F     		lsrs	r3, r4, #30
 153 007e 04D1     		bne	.L7
 154 0080 40F2D741 		movw	r1, #1239
 155 0084 0F48     		ldr	r0, .L10
 156 0086 FFF7FEFF 		bl	Cy_SysLib_AssertFailed
 157              	.LVL16:
 158              	.L7:
1242:Generated_Source\PSoC6\pdl\drivers/peripheral/dma/cy_dma.h **** }
 159              		.loc 2 1242 0
 160 008a EB68     		ldr	r3, [r5, #12]
 161 008c 23F47F63 		bic	r3, r3, #4080
 162 0090 23F00F03 		bic	r3, r3, #15
 163 0094 EB60     		str	r3, [r5, #12]
 164              	.LVL17:
 165              	.LBE144:
 166              	.LBE143:
ARM GAS  C:\Users\enes_\AppData\Local\Temp\ccQvJBBi.s 			page 32


 167              	.LBB145:
 168              	.LBB146:
 169              	.LBB147:
 170              	.LBB148:
1119:Generated_Source\PSoC6\pdl\drivers/peripheral/dma/cy_dma.h **** }
 171              		.loc 2 1119 0
 172 0096 2B68     		ldr	r3, [r5]
 173              	.LVL18:
 174              	.LBE148:
 175              	.LBE147:
1290:Generated_Source\PSoC6\pdl\drivers/peripheral/dma/cy_dma.h ****     CY_ASSERT_L2(CY_DMA_IS_LOOP_INCR_VALID(dstXincrement));
 176              		.loc 2 1290 0
 177 0098 9B0F     		lsrs	r3, r3, #30
 178 009a 04D1     		bne	.L8
 179 009c 40F20A51 		movw	r1, #1290
 180 00a0 0848     		ldr	r0, .L10
 181 00a2 FFF7FEFF 		bl	Cy_SysLib_AssertFailed
 182              	.LVL19:
 183              	.L8:
 184              		.loc 2 1293 0
 185 00a6 EB68     		ldr	r3, [r5, #12]
 186 00a8 23F47F03 		bic	r3, r3, #16711680
 187 00ac 23F47043 		bic	r3, r3, #61440
 188 00b0 43F48053 		orr	r3, r3, #4096
 189 00b4 EB60     		str	r3, [r5, #12]
 190              	.LVL20:
 191              	.LBE146:
 192              	.LBE145:
 193              	.LBB149:
 194              	.LBB150:
 706:Generated_Source\PSoC6\pdl\drivers/peripheral/dma/cy_dma.h **** }
 195              		.loc 2 706 0
 196 00b6 6E60     		str	r6, [r5, #4]
 197              	.LVL21:
 198              	.L6:
 199              	.LBE150:
 200              	.LBE149:
 303:Generated_Source\PSoC6\pdl\drivers\peripheral\usbfs/cy_usbfs_dev_drv_io_dma.c ****     {
 304:Generated_Source\PSoC6\pdl\drivers\peripheral\usbfs/cy_usbfs_dev_drv_io_dma.c ****         Cy_DMA_Descriptor_SetSrcTransferSize(descr, CY_DMA_TRANSFER_SIZE_DATA);
 305:Generated_Source\PSoC6\pdl\drivers\peripheral\usbfs/cy_usbfs_dev_drv_io_dma.c ****         Cy_DMA_Descriptor_SetDstTransferSize(descr, CY_DMA_TRANSFER_SIZE_WORD);
 306:Generated_Source\PSoC6\pdl\drivers\peripheral\usbfs/cy_usbfs_dev_drv_io_dma.c **** 
 307:Generated_Source\PSoC6\pdl\drivers\peripheral\usbfs/cy_usbfs_dev_drv_io_dma.c ****         Cy_DMA_Descriptor_SetXloopSrcIncrement(descr, DMA_XLOOP_INCREMENT);
 308:Generated_Source\PSoC6\pdl\drivers\peripheral\usbfs/cy_usbfs_dev_drv_io_dma.c ****         Cy_DMA_Descriptor_SetXloopDstIncrement(descr, DMA_NO_INCREMENT);
 309:Generated_Source\PSoC6\pdl\drivers\peripheral\usbfs/cy_usbfs_dev_drv_io_dma.c **** 
 310:Generated_Source\PSoC6\pdl\drivers\peripheral\usbfs/cy_usbfs_dev_drv_io_dma.c ****         Cy_DMA_Descriptor_SetDstAddress(descr, (void const *) dataReg);
 311:Generated_Source\PSoC6\pdl\drivers\peripheral\usbfs/cy_usbfs_dev_drv_io_dma.c ****     }
 312:Generated_Source\PSoC6\pdl\drivers\peripheral\usbfs/cy_usbfs_dev_drv_io_dma.c ****     else
 313:Generated_Source\PSoC6\pdl\drivers\peripheral\usbfs/cy_usbfs_dev_drv_io_dma.c ****     {
 314:Generated_Source\PSoC6\pdl\drivers\peripheral\usbfs/cy_usbfs_dev_drv_io_dma.c ****         Cy_DMA_Descriptor_SetSrcTransferSize(descr, CY_DMA_TRANSFER_SIZE_WORD);
 315:Generated_Source\PSoC6\pdl\drivers\peripheral\usbfs/cy_usbfs_dev_drv_io_dma.c ****         Cy_DMA_Descriptor_SetDstTransferSize(descr, CY_DMA_TRANSFER_SIZE_DATA);
 316:Generated_Source\PSoC6\pdl\drivers\peripheral\usbfs/cy_usbfs_dev_drv_io_dma.c **** 
 317:Generated_Source\PSoC6\pdl\drivers\peripheral\usbfs/cy_usbfs_dev_drv_io_dma.c ****         Cy_DMA_Descriptor_SetXloopSrcIncrement(descr, DMA_NO_INCREMENT);
 318:Generated_Source\PSoC6\pdl\drivers\peripheral\usbfs/cy_usbfs_dev_drv_io_dma.c ****         Cy_DMA_Descriptor_SetXloopDstIncrement(descr, DMA_XLOOP_INCREMENT);
 319:Generated_Source\PSoC6\pdl\drivers\peripheral\usbfs/cy_usbfs_dev_drv_io_dma.c **** 
 320:Generated_Source\PSoC6\pdl\drivers\peripheral\usbfs/cy_usbfs_dev_drv_io_dma.c ****         Cy_DMA_Descriptor_SetSrcAddress(descr, (void const *) dataReg);
 321:Generated_Source\PSoC6\pdl\drivers\peripheral\usbfs/cy_usbfs_dev_drv_io_dma.c ****     }
 322:Generated_Source\PSoC6\pdl\drivers\peripheral\usbfs/cy_usbfs_dev_drv_io_dma.c **** 
ARM GAS  C:\Users\enes_\AppData\Local\Temp\ccQvJBBi.s 			page 33


 323:Generated_Source\PSoC6\pdl\drivers\peripheral\usbfs/cy_usbfs_dev_drv_io_dma.c ****     /* Link descriptor to itself */
 324:Generated_Source\PSoC6\pdl\drivers\peripheral\usbfs/cy_usbfs_dev_drv_io_dma.c ****     Cy_DMA_Descriptor_SetNextDescriptor(descr, descr);    
 201              		.loc 1 324 0
 202 00b8 2946     		mov	r1, r5
 203 00ba 2846     		mov	r0, r5
 204 00bc FFF7FEFF 		bl	Cy_DMA_Descriptor_SetNextDescriptor
 205              	.LVL22:
 206 00c0 F8BD     		pop	{r3, r4, r5, r6, r7, pc}
 207              	.LVL23:
 208              	.L11:
 209 00c2 00BF     		.align	2
 210              	.L10:
 211 00c4 00000000 		.word	.LC2
 212              		.cfi_endproc
 213              	.LFE259:
 214              		.size	DmaEndpointInit1D, .-DmaEndpointInit1D
 215              		.section	.text.DmaEndpointInit2D,"ax",%progbits
 216              		.align	2
 217              		.thumb
 218              		.thumb_func
 219              		.type	DmaEndpointInit2D, %function
 220              	DmaEndpointInit2D:
 221              	.LFB260:
 325:Generated_Source\PSoC6\pdl\drivers\peripheral\usbfs/cy_usbfs_dev_drv_io_dma.c **** }
 326:Generated_Source\PSoC6\pdl\drivers\peripheral\usbfs/cy_usbfs_dev_drv_io_dma.c **** 
 327:Generated_Source\PSoC6\pdl\drivers\peripheral\usbfs/cy_usbfs_dev_drv_io_dma.c **** 
 328:Generated_Source\PSoC6\pdl\drivers\peripheral\usbfs/cy_usbfs_dev_drv_io_dma.c **** /*******************************************************************************
 329:Generated_Source\PSoC6\pdl\drivers\peripheral\usbfs/cy_usbfs_dev_drv_io_dma.c **** * Function Name: DmaEndpointInit2D
 330:Generated_Source\PSoC6\pdl\drivers\peripheral\usbfs/cy_usbfs_dev_drv_io_dma.c **** ****************************************************************************//**
 331:Generated_Source\PSoC6\pdl\drivers\peripheral\usbfs/cy_usbfs_dev_drv_io_dma.c **** *
 332:Generated_Source\PSoC6\pdl\drivers\peripheral\usbfs/cy_usbfs_dev_drv_io_dma.c **** * Configures DMA 2D descriptor used in the DMA Automatic mode.
 333:Generated_Source\PSoC6\pdl\drivers\peripheral\usbfs/cy_usbfs_dev_drv_io_dma.c **** *
 334:Generated_Source\PSoC6\pdl\drivers\peripheral\usbfs/cy_usbfs_dev_drv_io_dma.c **** * \param descr
 335:Generated_Source\PSoC6\pdl\drivers\peripheral\usbfs/cy_usbfs_dev_drv_io_dma.c **** * The pointer to the DMA descriptor.
 336:Generated_Source\PSoC6\pdl\drivers\peripheral\usbfs/cy_usbfs_dev_drv_io_dma.c **** *
 337:Generated_Source\PSoC6\pdl\drivers\peripheral\usbfs/cy_usbfs_dev_drv_io_dma.c **** * \param inDirection
 338:Generated_Source\PSoC6\pdl\drivers\peripheral\usbfs/cy_usbfs_dev_drv_io_dma.c **** * Endpoint direction associated with DMA descriptor.
 339:Generated_Source\PSoC6\pdl\drivers\peripheral\usbfs/cy_usbfs_dev_drv_io_dma.c **** *
 340:Generated_Source\PSoC6\pdl\drivers\peripheral\usbfs/cy_usbfs_dev_drv_io_dma.c **** * \param numElements
 341:Generated_Source\PSoC6\pdl\drivers\peripheral\usbfs/cy_usbfs_dev_drv_io_dma.c **** * Number of elements to transfer.
 342:Generated_Source\PSoC6\pdl\drivers\peripheral\usbfs/cy_usbfs_dev_drv_io_dma.c **** *
 343:Generated_Source\PSoC6\pdl\drivers\peripheral\usbfs/cy_usbfs_dev_drv_io_dma.c **** *******************************************************************************/
 344:Generated_Source\PSoC6\pdl\drivers\peripheral\usbfs/cy_usbfs_dev_drv_io_dma.c **** static void DmaEndpointInit2D(cy_stc_dma_descriptor_t *descr, bool inDirection, 
 345:Generated_Source\PSoC6\pdl\drivers\peripheral\usbfs/cy_usbfs_dev_drv_io_dma.c ****                               int32_t numElements)
 346:Generated_Source\PSoC6\pdl\drivers\peripheral\usbfs/cy_usbfs_dev_drv_io_dma.c **** {
 222              		.loc 1 346 0
 223              		.cfi_startproc
 224              		@ args = 0, pretend = 0, frame = 0
 225              		@ frame_needed = 0, uses_anonymous_args = 0
 226              	.LVL24:
 227 0000 F8B5     		push	{r3, r4, r5, r6, r7, lr}
 228              		.cfi_def_cfa_offset 24
 229              		.cfi_offset 3, -24
 230              		.cfi_offset 4, -20
 231              		.cfi_offset 5, -16
 232              		.cfi_offset 6, -12
 233              		.cfi_offset 7, -8
ARM GAS  C:\Users\enes_\AppData\Local\Temp\ccQvJBBi.s 			page 34


 234              		.cfi_offset 14, -4
 235 0002 0446     		mov	r4, r0
 236 0004 0F46     		mov	r7, r1
 237 0006 1546     		mov	r5, r2
 238              	.LVL25:
 239              	.LBB171:
 240              	.LBB172:
 241              	.LBB173:
 242              	.LBB174:
1119:Generated_Source\PSoC6\pdl\drivers/peripheral/dma/cy_dma.h **** }
 243              		.loc 2 1119 0
 244 0008 0368     		ldr	r3, [r0]
 245              	.LVL26:
 246              	.LBE174:
 247              	.LBE173:
1188:Generated_Source\PSoC6\pdl\drivers/peripheral/dma/cy_dma.h ****     CY_ASSERT_L2(CY_DMA_IS_LOOP_COUNT_VALID(xCount));
 248              		.loc 2 1188 0
 249 000a 9B0F     		lsrs	r3, r3, #30
 250 000c 04D1     		bne	.L13
 251 000e 40F2A441 		movw	r1, #1188
 252              	.LVL27:
 253 0012 3548     		ldr	r0, .L24
 254              	.LVL28:
 255 0014 FFF7FEFF 		bl	Cy_SysLib_AssertFailed
 256              	.LVL29:
 257              	.L13:
1189:Generated_Source\PSoC6\pdl\drivers/peripheral/dma/cy_dma.h ****     /* Convert the data count from the user's range (1-256) into the machine range (0-255). */
 258              		.loc 2 1189 0
 259 0018 6E1E     		subs	r6, r5, #1
 260 001a FF2E     		cmp	r6, #255
 261 001c 04D9     		bls	.L14
 262 001e 40F2A541 		movw	r1, #1189
 263 0022 3148     		ldr	r0, .L24
 264 0024 FFF7FEFF 		bl	Cy_SysLib_AssertFailed
 265              	.LVL30:
 266              	.L14:
1191:Generated_Source\PSoC6\pdl\drivers/peripheral/dma/cy_dma.h **** }
 267              		.loc 2 1191 0
 268 0028 E368     		ldr	r3, [r4, #12]
 269 002a 23F07F43 		bic	r3, r3, #-16777216
 270 002e 43EA0663 		orr	r3, r3, r6, lsl #24
 271 0032 E360     		str	r3, [r4, #12]
 272              	.LVL31:
 273              	.LBE172:
 274              	.LBE171:
 347:Generated_Source\PSoC6\pdl\drivers\peripheral\usbfs/cy_usbfs_dev_drv_io_dma.c ****     /* Descriptor 0 (2D): it transfers number of data elements (X loop count) 
 348:Generated_Source\PSoC6\pdl\drivers\peripheral\usbfs/cy_usbfs_dev_drv_io_dma.c ****     * and increments source/destination (depends on direction) by this amount 
 349:Generated_Source\PSoC6\pdl\drivers\peripheral\usbfs/cy_usbfs_dev_drv_io_dma.c ****     * (Y loop increment).
 350:Generated_Source\PSoC6\pdl\drivers\peripheral\usbfs/cy_usbfs_dev_drv_io_dma.c ****     */
 351:Generated_Source\PSoC6\pdl\drivers\peripheral\usbfs/cy_usbfs_dev_drv_io_dma.c ****     Cy_DMA_Descriptor_SetXloopDataCount(descr, (uint32_t) numElements);
 352:Generated_Source\PSoC6\pdl\drivers\peripheral\usbfs/cy_usbfs_dev_drv_io_dma.c **** 
 353:Generated_Source\PSoC6\pdl\drivers\peripheral\usbfs/cy_usbfs_dev_drv_io_dma.c ****     if (inDirection)
 275              		.loc 1 353 0
 276 0034 5FB3     		cbz	r7, .L15
 277              	.LVL32:
 278              	.LBB175:
 279              	.LBB176:
ARM GAS  C:\Users\enes_\AppData\Local\Temp\ccQvJBBi.s 			page 35


 280              	.LBB177:
 281              	.LBB178:
1119:Generated_Source\PSoC6\pdl\drivers/peripheral/dma/cy_dma.h **** }
 282              		.loc 2 1119 0
 283 0036 2368     		ldr	r3, [r4]
 284 0038 9B0F     		lsrs	r3, r3, #30
 285              	.LVL33:
 286              	.LBE178:
 287              	.LBE177:
1294:Generated_Source\PSoC6\pdl\drivers/peripheral/dma/cy_dma.h **** }
1295:Generated_Source\PSoC6\pdl\drivers/peripheral/dma/cy_dma.h **** 
1296:Generated_Source\PSoC6\pdl\drivers/peripheral/dma/cy_dma.h **** 
1297:Generated_Source\PSoC6\pdl\drivers/peripheral/dma/cy_dma.h **** /*******************************************************************************
1298:Generated_Source\PSoC6\pdl\drivers/peripheral/dma/cy_dma.h **** * Function Name: Cy_DMA_Descriptor_GetXloopDstIncrement
1299:Generated_Source\PSoC6\pdl\drivers/peripheral/dma/cy_dma.h **** ****************************************************************************//**
1300:Generated_Source\PSoC6\pdl\drivers/peripheral/dma/cy_dma.h **** *
1301:Generated_Source\PSoC6\pdl\drivers/peripheral/dma/cy_dma.h **** * Returns the destination increment parameter for the X loop of the specified
1302:Generated_Source\PSoC6\pdl\drivers/peripheral/dma/cy_dma.h **** * descriptor (for 1D or 2D descriptors only).
1303:Generated_Source\PSoC6\pdl\drivers/peripheral/dma/cy_dma.h **** *
1304:Generated_Source\PSoC6\pdl\drivers/peripheral/dma/cy_dma.h **** * \param descriptor
1305:Generated_Source\PSoC6\pdl\drivers/peripheral/dma/cy_dma.h **** * The descriptor structure instance declared by the user/component.
1306:Generated_Source\PSoC6\pdl\drivers/peripheral/dma/cy_dma.h **** *
1307:Generated_Source\PSoC6\pdl\drivers/peripheral/dma/cy_dma.h **** * \return
1308:Generated_Source\PSoC6\pdl\drivers/peripheral/dma/cy_dma.h **** * The value of the destination increment. The range is -2048 ... 2047.
1309:Generated_Source\PSoC6\pdl\drivers/peripheral/dma/cy_dma.h **** *
1310:Generated_Source\PSoC6\pdl\drivers/peripheral/dma/cy_dma.h **** * \funcusage 
1311:Generated_Source\PSoC6\pdl\drivers/peripheral/dma/cy_dma.h **** * \snippet dma\2.10\snippet\main.c snippet_Cy_DMA_Descriptor_GetterFunctions
1312:Generated_Source\PSoC6\pdl\drivers/peripheral/dma/cy_dma.h **** *  
1313:Generated_Source\PSoC6\pdl\drivers/peripheral/dma/cy_dma.h **** *******************************************************************************/
1314:Generated_Source\PSoC6\pdl\drivers/peripheral/dma/cy_dma.h **** __STATIC_INLINE int32_t Cy_DMA_Descriptor_GetXloopDstIncrement(cy_stc_dma_descriptor_t const * desc
1315:Generated_Source\PSoC6\pdl\drivers/peripheral/dma/cy_dma.h **** {
1316:Generated_Source\PSoC6\pdl\drivers/peripheral/dma/cy_dma.h ****     CY_ASSERT_L1(CY_DMA_SINGLE_TRANSFER != Cy_DMA_Descriptor_GetDescriptorType(descriptor));
1317:Generated_Source\PSoC6\pdl\drivers/peripheral/dma/cy_dma.h ****     
1318:Generated_Source\PSoC6\pdl\drivers/peripheral/dma/cy_dma.h ****     return ((int32_t) _FLD2VAL(CY_DMA_CTL_DST_INCR, descriptor->xCtl));
1319:Generated_Source\PSoC6\pdl\drivers/peripheral/dma/cy_dma.h **** }
1320:Generated_Source\PSoC6\pdl\drivers/peripheral/dma/cy_dma.h **** 
1321:Generated_Source\PSoC6\pdl\drivers/peripheral/dma/cy_dma.h **** 
1322:Generated_Source\PSoC6\pdl\drivers/peripheral/dma/cy_dma.h **** /*******************************************************************************
1323:Generated_Source\PSoC6\pdl\drivers/peripheral/dma/cy_dma.h **** * Function Name: Cy_DMA_Descriptor_SetYloopDataCount
1324:Generated_Source\PSoC6\pdl\drivers/peripheral/dma/cy_dma.h **** ****************************************************************************//**
1325:Generated_Source\PSoC6\pdl\drivers/peripheral/dma/cy_dma.h **** *
1326:Generated_Source\PSoC6\pdl\drivers/peripheral/dma/cy_dma.h **** * Sets the number of data elements for the Y loop of the specified descriptor
1327:Generated_Source\PSoC6\pdl\drivers/peripheral/dma/cy_dma.h **** * (for 2D descriptors only).
1328:Generated_Source\PSoC6\pdl\drivers/peripheral/dma/cy_dma.h **** *
1329:Generated_Source\PSoC6\pdl\drivers/peripheral/dma/cy_dma.h **** * \param descriptor
1330:Generated_Source\PSoC6\pdl\drivers/peripheral/dma/cy_dma.h **** * The descriptor structure instance declared by the user/component.
1331:Generated_Source\PSoC6\pdl\drivers/peripheral/dma/cy_dma.h **** *
1332:Generated_Source\PSoC6\pdl\drivers/peripheral/dma/cy_dma.h **** * \param yCount
1333:Generated_Source\PSoC6\pdl\drivers/peripheral/dma/cy_dma.h **** * The number of X loops to execute in the Y loop. The valid range is 1 ... 256.
1334:Generated_Source\PSoC6\pdl\drivers/peripheral/dma/cy_dma.h **** *
1335:Generated_Source\PSoC6\pdl\drivers/peripheral/dma/cy_dma.h **** * \funcusage 
1336:Generated_Source\PSoC6\pdl\drivers/peripheral/dma/cy_dma.h **** * \snippet dma\2.10\snippet\main.c snippet_Cy_DMA_Descriptor_SetterFunctions
1337:Generated_Source\PSoC6\pdl\drivers/peripheral/dma/cy_dma.h **** *  
1338:Generated_Source\PSoC6\pdl\drivers/peripheral/dma/cy_dma.h **** *******************************************************************************/
1339:Generated_Source\PSoC6\pdl\drivers/peripheral/dma/cy_dma.h **** __STATIC_INLINE void Cy_DMA_Descriptor_SetYloopDataCount(cy_stc_dma_descriptor_t * descriptor, uint
1340:Generated_Source\PSoC6\pdl\drivers/peripheral/dma/cy_dma.h **** {
1341:Generated_Source\PSoC6\pdl\drivers/peripheral/dma/cy_dma.h ****     CY_ASSERT_L1(CY_DMA_2D_TRANSFER == Cy_DMA_Descriptor_GetDescriptorType(descriptor));
ARM GAS  C:\Users\enes_\AppData\Local\Temp\ccQvJBBi.s 			page 36


1342:Generated_Source\PSoC6\pdl\drivers/peripheral/dma/cy_dma.h ****     CY_ASSERT_L2(CY_DMA_IS_LOOP_COUNT_VALID(yCount));
1343:Generated_Source\PSoC6\pdl\drivers/peripheral/dma/cy_dma.h ****     /* Convert the data count from the user's range (1-256) into the machine range (0-255). */
1344:Generated_Source\PSoC6\pdl\drivers/peripheral/dma/cy_dma.h ****     CY_REG32_CLR_SET(descriptor->yCtl, CY_DMA_CTL_COUNT, yCount - 1UL);
1345:Generated_Source\PSoC6\pdl\drivers/peripheral/dma/cy_dma.h **** }
1346:Generated_Source\PSoC6\pdl\drivers/peripheral/dma/cy_dma.h **** 
1347:Generated_Source\PSoC6\pdl\drivers/peripheral/dma/cy_dma.h **** 
1348:Generated_Source\PSoC6\pdl\drivers/peripheral/dma/cy_dma.h **** /*******************************************************************************
1349:Generated_Source\PSoC6\pdl\drivers/peripheral/dma/cy_dma.h **** * Function Name: Cy_DMA_Descriptor_GetYloopDataCount
1350:Generated_Source\PSoC6\pdl\drivers/peripheral/dma/cy_dma.h **** ****************************************************************************//**
1351:Generated_Source\PSoC6\pdl\drivers/peripheral/dma/cy_dma.h **** *
1352:Generated_Source\PSoC6\pdl\drivers/peripheral/dma/cy_dma.h **** * Returns the number of X loops to execute in the Y loop of the specified
1353:Generated_Source\PSoC6\pdl\drivers/peripheral/dma/cy_dma.h **** * descriptor (for 2D descriptors only).
1354:Generated_Source\PSoC6\pdl\drivers/peripheral/dma/cy_dma.h **** *
1355:Generated_Source\PSoC6\pdl\drivers/peripheral/dma/cy_dma.h **** * \param descriptor
1356:Generated_Source\PSoC6\pdl\drivers/peripheral/dma/cy_dma.h **** * The descriptor structure instance declared by the user/component.
1357:Generated_Source\PSoC6\pdl\drivers/peripheral/dma/cy_dma.h **** *
1358:Generated_Source\PSoC6\pdl\drivers/peripheral/dma/cy_dma.h **** * \return
1359:Generated_Source\PSoC6\pdl\drivers/peripheral/dma/cy_dma.h **** * The number of X loops to execute in the Y loop. The range is 1 ... 256.
1360:Generated_Source\PSoC6\pdl\drivers/peripheral/dma/cy_dma.h **** *
1361:Generated_Source\PSoC6\pdl\drivers/peripheral/dma/cy_dma.h **** * \funcusage 
1362:Generated_Source\PSoC6\pdl\drivers/peripheral/dma/cy_dma.h **** * \snippet dma\2.10\snippet\main.c snippet_Cy_DMA_Descriptor_GetterFunctions
1363:Generated_Source\PSoC6\pdl\drivers/peripheral/dma/cy_dma.h **** *  
1364:Generated_Source\PSoC6\pdl\drivers/peripheral/dma/cy_dma.h **** *******************************************************************************/
1365:Generated_Source\PSoC6\pdl\drivers/peripheral/dma/cy_dma.h **** __STATIC_INLINE uint32_t Cy_DMA_Descriptor_GetYloopDataCount(cy_stc_dma_descriptor_t const * descri
1366:Generated_Source\PSoC6\pdl\drivers/peripheral/dma/cy_dma.h **** {
1367:Generated_Source\PSoC6\pdl\drivers/peripheral/dma/cy_dma.h ****     CY_ASSERT_L1(CY_DMA_2D_TRANSFER == Cy_DMA_Descriptor_GetDescriptorType(descriptor));
1368:Generated_Source\PSoC6\pdl\drivers/peripheral/dma/cy_dma.h ****     /* Convert the data count from the machine range (0-255) into the user's range (1-256). */
1369:Generated_Source\PSoC6\pdl\drivers/peripheral/dma/cy_dma.h ****     return (_FLD2VAL(CY_DMA_CTL_COUNT, descriptor->yCtl) + 1UL);
1370:Generated_Source\PSoC6\pdl\drivers/peripheral/dma/cy_dma.h **** }
1371:Generated_Source\PSoC6\pdl\drivers/peripheral/dma/cy_dma.h **** 
1372:Generated_Source\PSoC6\pdl\drivers/peripheral/dma/cy_dma.h **** 
1373:Generated_Source\PSoC6\pdl\drivers/peripheral/dma/cy_dma.h **** /*******************************************************************************
1374:Generated_Source\PSoC6\pdl\drivers/peripheral/dma/cy_dma.h **** * Function Name: Cy_DMA_Descriptor_SetYloopSrcIncrement
1375:Generated_Source\PSoC6\pdl\drivers/peripheral/dma/cy_dma.h **** ****************************************************************************//**
1376:Generated_Source\PSoC6\pdl\drivers/peripheral/dma/cy_dma.h **** *
1377:Generated_Source\PSoC6\pdl\drivers/peripheral/dma/cy_dma.h **** * Sets the source increment parameter for the Y loop for the specified
1378:Generated_Source\PSoC6\pdl\drivers/peripheral/dma/cy_dma.h **** * descriptor (for 2D descriptors only).
1379:Generated_Source\PSoC6\pdl\drivers/peripheral/dma/cy_dma.h **** *
1380:Generated_Source\PSoC6\pdl\drivers/peripheral/dma/cy_dma.h **** * \param descriptor
1381:Generated_Source\PSoC6\pdl\drivers/peripheral/dma/cy_dma.h **** * The descriptor structure instance declared by the user/component.
1382:Generated_Source\PSoC6\pdl\drivers/peripheral/dma/cy_dma.h **** *
1383:Generated_Source\PSoC6\pdl\drivers/peripheral/dma/cy_dma.h **** * \param srcYincrement
1384:Generated_Source\PSoC6\pdl\drivers/peripheral/dma/cy_dma.h **** * The value of the source increment. The valid range is -2048 ... 2047.
1385:Generated_Source\PSoC6\pdl\drivers/peripheral/dma/cy_dma.h **** *
1386:Generated_Source\PSoC6\pdl\drivers/peripheral/dma/cy_dma.h **** * \funcusage 
1387:Generated_Source\PSoC6\pdl\drivers/peripheral/dma/cy_dma.h **** * \snippet dma\2.10\snippet\main.c snippet_Cy_DMA_Descriptor_SetterFunctions
1388:Generated_Source\PSoC6\pdl\drivers/peripheral/dma/cy_dma.h **** *  
1389:Generated_Source\PSoC6\pdl\drivers/peripheral/dma/cy_dma.h **** *******************************************************************************/
1390:Generated_Source\PSoC6\pdl\drivers/peripheral/dma/cy_dma.h **** __STATIC_INLINE void Cy_DMA_Descriptor_SetYloopSrcIncrement(cy_stc_dma_descriptor_t * descriptor, i
1391:Generated_Source\PSoC6\pdl\drivers/peripheral/dma/cy_dma.h **** {
1392:Generated_Source\PSoC6\pdl\drivers/peripheral/dma/cy_dma.h ****     CY_ASSERT_L1(CY_DMA_2D_TRANSFER == Cy_DMA_Descriptor_GetDescriptorType(descriptor));
 288              		.loc 2 1392 0
 289 003a 022B     		cmp	r3, #2
 290 003c 04D0     		beq	.L16
 291 003e 4FF4AE61 		mov	r1, #1392
 292 0042 2948     		ldr	r0, .L24
 293 0044 FFF7FEFF 		bl	Cy_SysLib_AssertFailed
ARM GAS  C:\Users\enes_\AppData\Local\Temp\ccQvJBBi.s 			page 37


 294              	.LVL34:
 295              	.L16:
1393:Generated_Source\PSoC6\pdl\drivers/peripheral/dma/cy_dma.h ****     CY_ASSERT_L2(CY_DMA_IS_LOOP_INCR_VALID(srcYincrement));
 296              		.loc 2 1393 0
 297 0048 05F50063 		add	r3, r5, #2048
 298 004c B3F5805F 		cmp	r3, #4096
 299 0050 04D3     		bcc	.L17
 300 0052 40F27151 		movw	r1, #1393
 301 0056 2448     		ldr	r0, .L24
 302 0058 FFF7FEFF 		bl	Cy_SysLib_AssertFailed
 303              	.LVL35:
 304              	.L17:
1394:Generated_Source\PSoC6\pdl\drivers/peripheral/dma/cy_dma.h ****     
1395:Generated_Source\PSoC6\pdl\drivers/peripheral/dma/cy_dma.h ****     CY_REG32_CLR_SET(descriptor->yCtl, CY_DMA_CTL_SRC_INCR, srcYincrement);
 305              		.loc 2 1395 0
 306 005c 2369     		ldr	r3, [r4, #16]
 307 005e 23F47F63 		bic	r3, r3, #4080
 308 0062 23F00F03 		bic	r3, r3, #15
 309 0066 C5F30B05 		ubfx	r5, r5, #0, #12
 310              	.LVL36:
 311 006a 2B43     		orrs	r3, r3, r5
 312 006c 2361     		str	r3, [r4, #16]
 313              	.LVL37:
 314              	.LBE176:
 315              	.LBE175:
 316              	.LBB179:
 317              	.LBB180:
 318              	.LBB181:
 319              	.LBB182:
1119:Generated_Source\PSoC6\pdl\drivers/peripheral/dma/cy_dma.h **** }
 320              		.loc 2 1119 0
 321 006e 2368     		ldr	r3, [r4]
 322 0070 9B0F     		lsrs	r3, r3, #30
 323              	.LVL38:
 324              	.LBE182:
 325              	.LBE181:
1396:Generated_Source\PSoC6\pdl\drivers/peripheral/dma/cy_dma.h **** }
1397:Generated_Source\PSoC6\pdl\drivers/peripheral/dma/cy_dma.h **** 
1398:Generated_Source\PSoC6\pdl\drivers/peripheral/dma/cy_dma.h **** 
1399:Generated_Source\PSoC6\pdl\drivers/peripheral/dma/cy_dma.h **** /*******************************************************************************
1400:Generated_Source\PSoC6\pdl\drivers/peripheral/dma/cy_dma.h **** * Function Name: Cy_DMA_Descriptor_GetYloopSrcIncrement
1401:Generated_Source\PSoC6\pdl\drivers/peripheral/dma/cy_dma.h **** ****************************************************************************//**
1402:Generated_Source\PSoC6\pdl\drivers/peripheral/dma/cy_dma.h **** *
1403:Generated_Source\PSoC6\pdl\drivers/peripheral/dma/cy_dma.h **** * Returns the source increment parameter for the outer Y of the specified
1404:Generated_Source\PSoC6\pdl\drivers/peripheral/dma/cy_dma.h **** * descriptor (for 2D descriptors only).
1405:Generated_Source\PSoC6\pdl\drivers/peripheral/dma/cy_dma.h **** *
1406:Generated_Source\PSoC6\pdl\drivers/peripheral/dma/cy_dma.h **** * \param descriptor
1407:Generated_Source\PSoC6\pdl\drivers/peripheral/dma/cy_dma.h **** * The descriptor structure instance declared by the user/component.
1408:Generated_Source\PSoC6\pdl\drivers/peripheral/dma/cy_dma.h **** *
1409:Generated_Source\PSoC6\pdl\drivers/peripheral/dma/cy_dma.h **** * \return
1410:Generated_Source\PSoC6\pdl\drivers/peripheral/dma/cy_dma.h **** * The value of the source increment. The range is -2048 ... 2047.
1411:Generated_Source\PSoC6\pdl\drivers/peripheral/dma/cy_dma.h **** *
1412:Generated_Source\PSoC6\pdl\drivers/peripheral/dma/cy_dma.h **** * \funcusage 
1413:Generated_Source\PSoC6\pdl\drivers/peripheral/dma/cy_dma.h **** * \snippet dma\2.10\snippet\main.c snippet_Cy_DMA_Descriptor_GetterFunctions
1414:Generated_Source\PSoC6\pdl\drivers/peripheral/dma/cy_dma.h **** *  
1415:Generated_Source\PSoC6\pdl\drivers/peripheral/dma/cy_dma.h **** *******************************************************************************/
1416:Generated_Source\PSoC6\pdl\drivers/peripheral/dma/cy_dma.h **** __STATIC_INLINE int32_t Cy_DMA_Descriptor_GetYloopSrcIncrement(cy_stc_dma_descriptor_t const * desc
ARM GAS  C:\Users\enes_\AppData\Local\Temp\ccQvJBBi.s 			page 38


1417:Generated_Source\PSoC6\pdl\drivers/peripheral/dma/cy_dma.h **** {
1418:Generated_Source\PSoC6\pdl\drivers/peripheral/dma/cy_dma.h ****     CY_ASSERT_L1(CY_DMA_2D_TRANSFER == Cy_DMA_Descriptor_GetDescriptorType(descriptor));
1419:Generated_Source\PSoC6\pdl\drivers/peripheral/dma/cy_dma.h ****     
1420:Generated_Source\PSoC6\pdl\drivers/peripheral/dma/cy_dma.h ****     return ((int32_t) _FLD2VAL(CY_DMA_CTL_SRC_INCR, descriptor->yCtl));
1421:Generated_Source\PSoC6\pdl\drivers/peripheral/dma/cy_dma.h **** }
1422:Generated_Source\PSoC6\pdl\drivers/peripheral/dma/cy_dma.h **** 
1423:Generated_Source\PSoC6\pdl\drivers/peripheral/dma/cy_dma.h **** 
1424:Generated_Source\PSoC6\pdl\drivers/peripheral/dma/cy_dma.h **** /*******************************************************************************
1425:Generated_Source\PSoC6\pdl\drivers/peripheral/dma/cy_dma.h **** * Function Name: Cy_DMA_Descriptor_SetYloopDstIncrement
1426:Generated_Source\PSoC6\pdl\drivers/peripheral/dma/cy_dma.h **** ****************************************************************************//**
1427:Generated_Source\PSoC6\pdl\drivers/peripheral/dma/cy_dma.h **** *
1428:Generated_Source\PSoC6\pdl\drivers/peripheral/dma/cy_dma.h **** * Sets the destination increment parameter for the Y loop of the specified
1429:Generated_Source\PSoC6\pdl\drivers/peripheral/dma/cy_dma.h **** * descriptor (for 2D descriptors only).
1430:Generated_Source\PSoC6\pdl\drivers/peripheral/dma/cy_dma.h **** *
1431:Generated_Source\PSoC6\pdl\drivers/peripheral/dma/cy_dma.h **** * \param descriptor
1432:Generated_Source\PSoC6\pdl\drivers/peripheral/dma/cy_dma.h **** * The descriptor structure instance declared by the user/component.
1433:Generated_Source\PSoC6\pdl\drivers/peripheral/dma/cy_dma.h **** *
1434:Generated_Source\PSoC6\pdl\drivers/peripheral/dma/cy_dma.h **** * \param dstYincrement
1435:Generated_Source\PSoC6\pdl\drivers/peripheral/dma/cy_dma.h **** * The value of the destination increment. The valid range is -2048 ... 2047.
1436:Generated_Source\PSoC6\pdl\drivers/peripheral/dma/cy_dma.h **** *
1437:Generated_Source\PSoC6\pdl\drivers/peripheral/dma/cy_dma.h **** * \funcusage 
1438:Generated_Source\PSoC6\pdl\drivers/peripheral/dma/cy_dma.h **** * \snippet dma\2.10\snippet\main.c snippet_Cy_DMA_Descriptor_SetterFunctions
1439:Generated_Source\PSoC6\pdl\drivers/peripheral/dma/cy_dma.h **** *
1440:Generated_Source\PSoC6\pdl\drivers/peripheral/dma/cy_dma.h **** *******************************************************************************/
1441:Generated_Source\PSoC6\pdl\drivers/peripheral/dma/cy_dma.h **** __STATIC_INLINE void Cy_DMA_Descriptor_SetYloopDstIncrement(cy_stc_dma_descriptor_t * descriptor, i
1442:Generated_Source\PSoC6\pdl\drivers/peripheral/dma/cy_dma.h **** {
1443:Generated_Source\PSoC6\pdl\drivers/peripheral/dma/cy_dma.h ****     CY_ASSERT_L1(CY_DMA_2D_TRANSFER == Cy_DMA_Descriptor_GetDescriptorType(descriptor));
 326              		.loc 2 1443 0
 327 0072 022B     		cmp	r3, #2
 328 0074 04D0     		beq	.L18
 329 0076 40F2A351 		movw	r1, #1443
 330 007a 1B48     		ldr	r0, .L24
 331 007c FFF7FEFF 		bl	Cy_SysLib_AssertFailed
 332              	.LVL39:
 333              	.L18:
1444:Generated_Source\PSoC6\pdl\drivers/peripheral/dma/cy_dma.h ****     CY_ASSERT_L2(CY_DMA_IS_LOOP_INCR_VALID(dstYincrement));
1445:Generated_Source\PSoC6\pdl\drivers/peripheral/dma/cy_dma.h ****     
1446:Generated_Source\PSoC6\pdl\drivers/peripheral/dma/cy_dma.h ****     CY_REG32_CLR_SET(descriptor->yCtl, CY_DMA_CTL_DST_INCR, dstYincrement);
 334              		.loc 2 1446 0
 335 0080 2369     		ldr	r3, [r4, #16]
 336 0082 23F47F03 		bic	r3, r3, #16711680
 337 0086 23F47043 		bic	r3, r3, #61440
 338 008a 2361     		str	r3, [r4, #16]
 339 008c F8BD     		pop	{r3, r4, r5, r6, r7, pc}
 340              	.LVL40:
 341              	.L15:
 342              	.LBE180:
 343              	.LBE179:
 344              	.LBB183:
 345              	.LBB184:
 346              	.LBB185:
 347              	.LBB186:
1119:Generated_Source\PSoC6\pdl\drivers/peripheral/dma/cy_dma.h **** }
 348              		.loc 2 1119 0
 349 008e 2368     		ldr	r3, [r4]
 350 0090 9B0F     		lsrs	r3, r3, #30
 351              	.LVL41:
ARM GAS  C:\Users\enes_\AppData\Local\Temp\ccQvJBBi.s 			page 39


 352              	.LBE186:
 353              	.LBE185:
1392:Generated_Source\PSoC6\pdl\drivers/peripheral/dma/cy_dma.h ****     CY_ASSERT_L2(CY_DMA_IS_LOOP_INCR_VALID(srcYincrement));
 354              		.loc 2 1392 0
 355 0092 022B     		cmp	r3, #2
 356 0094 04D0     		beq	.L20
 357 0096 4FF4AE61 		mov	r1, #1392
 358 009a 1348     		ldr	r0, .L24
 359 009c FFF7FEFF 		bl	Cy_SysLib_AssertFailed
 360              	.LVL42:
 361              	.L20:
1395:Generated_Source\PSoC6\pdl\drivers/peripheral/dma/cy_dma.h **** }
 362              		.loc 2 1395 0
 363 00a0 2369     		ldr	r3, [r4, #16]
 364 00a2 23F47F63 		bic	r3, r3, #4080
 365 00a6 23F00F03 		bic	r3, r3, #15
 366 00aa 2361     		str	r3, [r4, #16]
 367              	.LVL43:
 368              	.LBE184:
 369              	.LBE183:
 370              	.LBB187:
 371              	.LBB188:
 372              	.LBB189:
 373              	.LBB190:
1119:Generated_Source\PSoC6\pdl\drivers/peripheral/dma/cy_dma.h **** }
 374              		.loc 2 1119 0
 375 00ac 2368     		ldr	r3, [r4]
 376 00ae 9B0F     		lsrs	r3, r3, #30
 377              	.LVL44:
 378              	.LBE190:
 379              	.LBE189:
1443:Generated_Source\PSoC6\pdl\drivers/peripheral/dma/cy_dma.h ****     CY_ASSERT_L2(CY_DMA_IS_LOOP_INCR_VALID(dstYincrement));
 380              		.loc 2 1443 0
 381 00b0 022B     		cmp	r3, #2
 382 00b2 04D0     		beq	.L21
 383 00b4 40F2A351 		movw	r1, #1443
 384 00b8 0B48     		ldr	r0, .L24
 385 00ba FFF7FEFF 		bl	Cy_SysLib_AssertFailed
 386              	.LVL45:
 387              	.L21:
1444:Generated_Source\PSoC6\pdl\drivers/peripheral/dma/cy_dma.h ****     
 388              		.loc 2 1444 0
 389 00be 05F50063 		add	r3, r5, #2048
 390 00c2 B3F5805F 		cmp	r3, #4096
 391 00c6 04D3     		bcc	.L22
 392 00c8 40F2A451 		movw	r1, #1444
 393 00cc 0648     		ldr	r0, .L24
 394 00ce FFF7FEFF 		bl	Cy_SysLib_AssertFailed
 395              	.LVL46:
 396              	.L22:
 397              		.loc 2 1446 0
 398 00d2 2269     		ldr	r2, [r4, #16]
 399 00d4 22F47F02 		bic	r2, r2, #16711680
 400 00d8 22F47042 		bic	r2, r2, #61440
 401 00dc 034B     		ldr	r3, .L24+4
 402 00de 03EA0535 		and	r5, r3, r5, lsl #12
 403              	.LVL47:
ARM GAS  C:\Users\enes_\AppData\Local\Temp\ccQvJBBi.s 			page 40


 404 00e2 1543     		orrs	r5, r5, r2
 405 00e4 2561     		str	r5, [r4, #16]
 406 00e6 F8BD     		pop	{r3, r4, r5, r6, r7, pc}
 407              	.LVL48:
 408              	.L25:
 409              		.align	2
 410              	.L24:
 411 00e8 00000000 		.word	.LC2
 412 00ec 00F0FF00 		.word	16773120
 413              	.LBE188:
 414              	.LBE187:
 415              		.cfi_endproc
 416              	.LFE260:
 417              		.size	DmaEndpointInit2D, .-DmaEndpointInit2D
 418              		.section	.text.DmaEndpointSetLength,"ax",%progbits
 419              		.align	2
 420              		.thumb
 421              		.thumb_func
 422              		.type	DmaEndpointSetLength, %function
 423              	DmaEndpointSetLength:
 424              	.LFB261:
 354:Generated_Source\PSoC6\pdl\drivers\peripheral\usbfs/cy_usbfs_dev_drv_io_dma.c ****     {
 355:Generated_Source\PSoC6\pdl\drivers\peripheral\usbfs/cy_usbfs_dev_drv_io_dma.c ****         Cy_DMA_Descriptor_SetYloopSrcIncrement(descr, numElements);
 356:Generated_Source\PSoC6\pdl\drivers\peripheral\usbfs/cy_usbfs_dev_drv_io_dma.c ****         Cy_DMA_Descriptor_SetYloopDstIncrement(descr, DMA_NO_INCREMENT);
 357:Generated_Source\PSoC6\pdl\drivers\peripheral\usbfs/cy_usbfs_dev_drv_io_dma.c ****     }
 358:Generated_Source\PSoC6\pdl\drivers\peripheral\usbfs/cy_usbfs_dev_drv_io_dma.c ****     else
 359:Generated_Source\PSoC6\pdl\drivers\peripheral\usbfs/cy_usbfs_dev_drv_io_dma.c ****     {
 360:Generated_Source\PSoC6\pdl\drivers\peripheral\usbfs/cy_usbfs_dev_drv_io_dma.c ****         Cy_DMA_Descriptor_SetYloopSrcIncrement(descr, DMA_NO_INCREMENT);
 361:Generated_Source\PSoC6\pdl\drivers\peripheral\usbfs/cy_usbfs_dev_drv_io_dma.c ****         Cy_DMA_Descriptor_SetYloopDstIncrement(descr, numElements);
 362:Generated_Source\PSoC6\pdl\drivers\peripheral\usbfs/cy_usbfs_dev_drv_io_dma.c ****     }
 363:Generated_Source\PSoC6\pdl\drivers\peripheral\usbfs/cy_usbfs_dev_drv_io_dma.c **** }
 364:Generated_Source\PSoC6\pdl\drivers\peripheral\usbfs/cy_usbfs_dev_drv_io_dma.c **** 
 365:Generated_Source\PSoC6\pdl\drivers\peripheral\usbfs/cy_usbfs_dev_drv_io_dma.c **** 
 366:Generated_Source\PSoC6\pdl\drivers\peripheral\usbfs/cy_usbfs_dev_drv_io_dma.c **** /*******************************************************************************
 367:Generated_Source\PSoC6\pdl\drivers\peripheral\usbfs/cy_usbfs_dev_drv_io_dma.c **** * Function Name: DmaEndpointSetLength
 368:Generated_Source\PSoC6\pdl\drivers\peripheral\usbfs/cy_usbfs_dev_drv_io_dma.c **** ****************************************************************************//**
 369:Generated_Source\PSoC6\pdl\drivers\peripheral\usbfs/cy_usbfs_dev_drv_io_dma.c **** *
 370:Generated_Source\PSoC6\pdl\drivers\peripheral\usbfs/cy_usbfs_dev_drv_io_dma.c **** * Completes DMA initialization for the OUT data endpoint.
 371:Generated_Source\PSoC6\pdl\drivers\peripheral\usbfs/cy_usbfs_dev_drv_io_dma.c **** * Applicable only when mode is \ref CY_USBFS_DEV_DRV_EP_MANAGEMENT_DMA_AUTO.
 372:Generated_Source\PSoC6\pdl\drivers\peripheral\usbfs/cy_usbfs_dev_drv_io_dma.c **** *
 373:Generated_Source\PSoC6\pdl\drivers\peripheral\usbfs/cy_usbfs_dev_drv_io_dma.c **** * \param endpoint
 374:Generated_Source\PSoC6\pdl\drivers\peripheral\usbfs/cy_usbfs_dev_drv_io_dma.c **** * The pointer to the structure that stores endpoint information.
 375:Generated_Source\PSoC6\pdl\drivers\peripheral\usbfs/cy_usbfs_dev_drv_io_dma.c **** *
 376:Generated_Source\PSoC6\pdl\drivers\peripheral\usbfs/cy_usbfs_dev_drv_io_dma.c **** *******************************************************************************/
 377:Generated_Source\PSoC6\pdl\drivers\peripheral\usbfs/cy_usbfs_dev_drv_io_dma.c **** static void DmaEndpointSetLength(bool inDirection, uint32_t size, 
 378:Generated_Source\PSoC6\pdl\drivers\peripheral\usbfs/cy_usbfs_dev_drv_io_dma.c ****                                  cy_stc_usbfs_dev_drv_endpoint_data_t *endpoint)
 379:Generated_Source\PSoC6\pdl\drivers\peripheral\usbfs/cy_usbfs_dev_drv_io_dma.c **** {
 425              		.loc 1 379 0
 426              		.cfi_startproc
 427              		@ args = 0, pretend = 0, frame = 0
 428              		@ frame_needed = 0, uses_anonymous_args = 0
 429              	.LVL49:
 430 0000 2DE9F041 		push	{r4, r5, r6, r7, r8, lr}
 431              		.cfi_def_cfa_offset 24
 432              		.cfi_offset 4, -24
 433              		.cfi_offset 5, -20
 434              		.cfi_offset 6, -16
ARM GAS  C:\Users\enes_\AppData\Local\Temp\ccQvJBBi.s 			page 41


 435              		.cfi_offset 7, -12
 436              		.cfi_offset 8, -8
 437              		.cfi_offset 14, -4
 438 0004 1446     		mov	r4, r2
 380:Generated_Source\PSoC6\pdl\drivers\peripheral\usbfs/cy_usbfs_dev_drv_io_dma.c ****     uint8_t *buf = endpoint->buffer;
 439              		.loc 1 380 0
 440 0006 5268     		ldr	r2, [r2, #4]
 441              	.LVL50:
 381:Generated_Source\PSoC6\pdl\drivers\peripheral\usbfs/cy_usbfs_dev_drv_io_dma.c ****     
 382:Generated_Source\PSoC6\pdl\drivers\peripheral\usbfs/cy_usbfs_dev_drv_io_dma.c ****     /*
 383:Generated_Source\PSoC6\pdl\drivers\peripheral\usbfs/cy_usbfs_dev_drv_io_dma.c ****     * Descriptor 0: get number of Y loops. It transfers data in multiples of 32 bytes.
 384:Generated_Source\PSoC6\pdl\drivers\peripheral\usbfs/cy_usbfs_dev_drv_io_dma.c ****     * Descriptor 1: get number of X loops. It transfers data what was left 1-31 bytes.
 385:Generated_Source\PSoC6\pdl\drivers\peripheral\usbfs/cy_usbfs_dev_drv_io_dma.c ****     */
 386:Generated_Source\PSoC6\pdl\drivers\peripheral\usbfs/cy_usbfs_dev_drv_io_dma.c ****     uint32_t numYloops = size / (uint32_t) DMA_YLOOP_INCREMENT;
 442              		.loc 1 386 0
 443 0008 4D09     		lsrs	r5, r1, #5
 444              	.LVL51:
 387:Generated_Source\PSoC6\pdl\drivers\peripheral\usbfs/cy_usbfs_dev_drv_io_dma.c ****     uint32_t numXloops = size % (uint32_t) DMA_YLOOP_INCREMENT;
 445              		.loc 1 387 0
 446 000a 01F01F06 		and	r6, r1, #31
 447              	.LVL52:
 388:Generated_Source\PSoC6\pdl\drivers\peripheral\usbfs/cy_usbfs_dev_drv_io_dma.c **** 
 389:Generated_Source\PSoC6\pdl\drivers\peripheral\usbfs/cy_usbfs_dev_drv_io_dma.c ****     /* Configure */
 390:Generated_Source\PSoC6\pdl\drivers\peripheral\usbfs/cy_usbfs_dev_drv_io_dma.c ****     if (inDirection)
 448              		.loc 1 390 0
 449 000e 40B1     		cbz	r0, .L27
 391:Generated_Source\PSoC6\pdl\drivers\peripheral\usbfs/cy_usbfs_dev_drv_io_dma.c ****     {
 392:Generated_Source\PSoC6\pdl\drivers\peripheral\usbfs/cy_usbfs_dev_drv_io_dma.c ****         endpoint->startBuf = (uint16_t) size;  /* Store DMA transfer size */
 450              		.loc 1 392 0
 451 0010 8BB2     		uxth	r3, r1
 452 0012 6381     		strh	r3, [r4, #10]	@ movhi
 393:Generated_Source\PSoC6\pdl\drivers\peripheral\usbfs/cy_usbfs_dev_drv_io_dma.c ****         Cy_DMA_Descriptor_SetSrcAddress(endpoint->descr0, buf);
 453              		.loc 1 393 0
 454 0014 236A     		ldr	r3, [r4, #32]
 455              	.LVL53:
 456              	.LBB213:
 457              	.LBB214:
 706:Generated_Source\PSoC6\pdl\drivers/peripheral/dma/cy_dma.h **** }
 458              		.loc 2 706 0
 459 0016 5A60     		str	r2, [r3, #4]
 460              	.LVL54:
 461              	.LBE214:
 462              	.LBE213:
 394:Generated_Source\PSoC6\pdl\drivers\peripheral\usbfs/cy_usbfs_dev_drv_io_dma.c ****         Cy_DMA_Descriptor_SetSrcAddress(endpoint->descr1, &buf[size - numXloops]);
 463              		.loc 1 394 0
 464 0018 606A     		ldr	r0, [r4, #36]
 465              	.LVL55:
 466 001a 8B1B     		subs	r3, r1, r6
 467 001c D118     		adds	r1, r2, r3
 468              	.LVL56:
 469              	.LBB215:
 470              	.LBB216:
 706:Generated_Source\PSoC6\pdl\drivers/peripheral/dma/cy_dma.h **** }
 471              		.loc 2 706 0
 472 001e 4160     		str	r1, [r0, #4]
 473 0020 0AE0     		b	.L28
 474              	.LVL57:
ARM GAS  C:\Users\enes_\AppData\Local\Temp\ccQvJBBi.s 			page 42


 475              	.L27:
 476              	.LBE216:
 477              	.LBE215:
 395:Generated_Source\PSoC6\pdl\drivers\peripheral\usbfs/cy_usbfs_dev_drv_io_dma.c ****     }
 396:Generated_Source\PSoC6\pdl\drivers\peripheral\usbfs/cy_usbfs_dev_drv_io_dma.c ****     else
 397:Generated_Source\PSoC6\pdl\drivers\peripheral\usbfs/cy_usbfs_dev_drv_io_dma.c ****     {
 398:Generated_Source\PSoC6\pdl\drivers\peripheral\usbfs/cy_usbfs_dev_drv_io_dma.c ****         endpoint->startBuf = (numYloops > 0U) ? 1U : 0U; /* Store 1st DMA descriptor to execute */
 478              		.loc 1 398 0
 479 0022 0DB1     		cbz	r5, .L45
 480 0024 0123     		movs	r3, #1
 481 0026 00E0     		b	.L29
 482              	.L45:
 483 0028 0023     		movs	r3, #0
 484              	.L29:
 485              		.loc 1 398 0 is_stmt 0 discriminator 4
 486 002a 6381     		strh	r3, [r4, #10]	@ movhi
 399:Generated_Source\PSoC6\pdl\drivers\peripheral\usbfs/cy_usbfs_dev_drv_io_dma.c ****         Cy_DMA_Descriptor_SetDstAddress(endpoint->descr0, buf);
 487              		.loc 1 399 0 is_stmt 1 discriminator 4
 488 002c 236A     		ldr	r3, [r4, #32]
 489              	.LVL58:
 490              	.LBB217:
 491              	.LBB218:
 750:Generated_Source\PSoC6\pdl\drivers/peripheral/dma/cy_dma.h **** }
 492              		.loc 2 750 0 discriminator 4
 493 002e 9A60     		str	r2, [r3, #8]
 494              	.LVL59:
 495              	.LBE218:
 496              	.LBE217:
 400:Generated_Source\PSoC6\pdl\drivers\peripheral\usbfs/cy_usbfs_dev_drv_io_dma.c ****         Cy_DMA_Descriptor_SetDstAddress(endpoint->descr1, &buf[size - numXloops]);
 497              		.loc 1 400 0 discriminator 4
 498 0030 636A     		ldr	r3, [r4, #36]
 499 0032 891B     		subs	r1, r1, r6
 500              	.LVL60:
 501 0034 1144     		add	r1, r1, r2
 502              	.LVL61:
 503              	.LBB219:
 504              	.LBB220:
 750:Generated_Source\PSoC6\pdl\drivers/peripheral/dma/cy_dma.h **** }
 505              		.loc 2 750 0 discriminator 4
 506 0036 9960     		str	r1, [r3, #8]
 507              	.LVL62:
 508              	.L28:
 509              	.LBE220:
 510              	.LBE219:
 401:Generated_Source\PSoC6\pdl\drivers\peripheral\usbfs/cy_usbfs_dev_drv_io_dma.c ****     }
 402:Generated_Source\PSoC6\pdl\drivers\peripheral\usbfs/cy_usbfs_dev_drv_io_dma.c **** 
 403:Generated_Source\PSoC6\pdl\drivers\peripheral\usbfs/cy_usbfs_dev_drv_io_dma.c ****     /* Configure loop length */
 404:Generated_Source\PSoC6\pdl\drivers\peripheral\usbfs/cy_usbfs_dev_drv_io_dma.c ****     if (numYloops > 0UL)
 511              		.loc 1 404 0
 512 0038 CDB1     		cbz	r5, .L30
 405:Generated_Source\PSoC6\pdl\drivers\peripheral\usbfs/cy_usbfs_dev_drv_io_dma.c ****     {
 406:Generated_Source\PSoC6\pdl\drivers\peripheral\usbfs/cy_usbfs_dev_drv_io_dma.c ****         Cy_DMA_Descriptor_SetYloopDataCount(endpoint->descr0, numYloops);
 513              		.loc 1 406 0
 514 003a 276A     		ldr	r7, [r4, #32]
 515              	.LVL63:
 516              	.LBB221:
 517              	.LBB222:
ARM GAS  C:\Users\enes_\AppData\Local\Temp\ccQvJBBi.s 			page 43


 518              	.LBB223:
 519              	.LBB224:
1119:Generated_Source\PSoC6\pdl\drivers/peripheral/dma/cy_dma.h **** }
 520              		.loc 2 1119 0
 521 003c 3B68     		ldr	r3, [r7]
 522 003e 9B0F     		lsrs	r3, r3, #30
 523              	.LVL64:
 524              	.LBE224:
 525              	.LBE223:
1341:Generated_Source\PSoC6\pdl\drivers/peripheral/dma/cy_dma.h ****     CY_ASSERT_L2(CY_DMA_IS_LOOP_COUNT_VALID(yCount));
 526              		.loc 2 1341 0
 527 0040 022B     		cmp	r3, #2
 528 0042 04D0     		beq	.L31
 529 0044 40F23D51 		movw	r1, #1341
 530 0048 4748     		ldr	r0, .L49
 531 004a FFF7FEFF 		bl	Cy_SysLib_AssertFailed
 532              	.LVL65:
 533              	.L31:
1342:Generated_Source\PSoC6\pdl\drivers/peripheral/dma/cy_dma.h ****     /* Convert the data count from the user's range (1-256) into the machine range (0-255). */
 534              		.loc 2 1342 0
 535 004e 05F1FF38 		add	r8, r5, #-1
 536 0052 B8F1FF0F 		cmp	r8, #255
 537 0056 04D9     		bls	.L32
 538 0058 40F23E51 		movw	r1, #1342
 539 005c 4248     		ldr	r0, .L49
 540 005e FFF7FEFF 		bl	Cy_SysLib_AssertFailed
 541              	.LVL66:
 542              	.L32:
1344:Generated_Source\PSoC6\pdl\drivers/peripheral/dma/cy_dma.h **** }
 543              		.loc 2 1344 0
 544 0062 3B69     		ldr	r3, [r7, #16]
 545 0064 23F07F43 		bic	r3, r3, #-16777216
 546 0068 43EA0863 		orr	r3, r3, r8, lsl #24
 547 006c 3B61     		str	r3, [r7, #16]
 548              	.LVL67:
 549              	.L30:
 550              	.LBE222:
 551              	.LBE221:
 407:Generated_Source\PSoC6\pdl\drivers\peripheral\usbfs/cy_usbfs_dev_drv_io_dma.c ****     }
 408:Generated_Source\PSoC6\pdl\drivers\peripheral\usbfs/cy_usbfs_dev_drv_io_dma.c **** 
 409:Generated_Source\PSoC6\pdl\drivers\peripheral\usbfs/cy_usbfs_dev_drv_io_dma.c ****     if (numXloops > 0UL)
 552              		.loc 1 409 0
 553 006e C6B1     		cbz	r6, .L33
 410:Generated_Source\PSoC6\pdl\drivers\peripheral\usbfs/cy_usbfs_dev_drv_io_dma.c ****     {        
 411:Generated_Source\PSoC6\pdl\drivers\peripheral\usbfs/cy_usbfs_dev_drv_io_dma.c ****         Cy_DMA_Descriptor_SetXloopDataCount(endpoint->descr1, numXloops);
 554              		.loc 1 411 0
 555 0070 676A     		ldr	r7, [r4, #36]
 556              	.LVL68:
 557              	.LBB225:
 558              	.LBB226:
 559              	.LBB227:
 560              	.LBB228:
1119:Generated_Source\PSoC6\pdl\drivers/peripheral/dma/cy_dma.h **** }
 561              		.loc 2 1119 0
 562 0072 3B68     		ldr	r3, [r7]
 563              	.LVL69:
 564              	.LBE228:
ARM GAS  C:\Users\enes_\AppData\Local\Temp\ccQvJBBi.s 			page 44


 565              	.LBE227:
1188:Generated_Source\PSoC6\pdl\drivers/peripheral/dma/cy_dma.h ****     CY_ASSERT_L2(CY_DMA_IS_LOOP_COUNT_VALID(xCount));
 566              		.loc 2 1188 0
 567 0074 9B0F     		lsrs	r3, r3, #30
 568 0076 04D1     		bne	.L34
 569 0078 40F2A441 		movw	r1, #1188
 570 007c 3A48     		ldr	r0, .L49
 571 007e FFF7FEFF 		bl	Cy_SysLib_AssertFailed
 572              	.LVL70:
 573              	.L34:
1189:Generated_Source\PSoC6\pdl\drivers/peripheral/dma/cy_dma.h ****     /* Convert the data count from the user's range (1-256) into the machine range (0-255). */
 574              		.loc 2 1189 0
 575 0082 06F1FF38 		add	r8, r6, #-1
 576 0086 B8F1FF0F 		cmp	r8, #255
 577 008a 04D9     		bls	.L35
 578 008c 40F2A541 		movw	r1, #1189
 579 0090 3548     		ldr	r0, .L49
 580 0092 FFF7FEFF 		bl	Cy_SysLib_AssertFailed
 581              	.LVL71:
 582              	.L35:
1191:Generated_Source\PSoC6\pdl\drivers/peripheral/dma/cy_dma.h **** }
 583              		.loc 2 1191 0
 584 0096 FB68     		ldr	r3, [r7, #12]
 585 0098 23F07F43 		bic	r3, r3, #-16777216
 586 009c 43EA0863 		orr	r3, r3, r8, lsl #24
 587 00a0 FB60     		str	r3, [r7, #12]
 588              	.LVL72:
 589              	.L33:
 590              	.LBE226:
 591              	.LBE225:
 412:Generated_Source\PSoC6\pdl\drivers\peripheral\usbfs/cy_usbfs_dev_drv_io_dma.c ****     }
 413:Generated_Source\PSoC6\pdl\drivers\peripheral\usbfs/cy_usbfs_dev_drv_io_dma.c **** 
 414:Generated_Source\PSoC6\pdl\drivers\peripheral\usbfs/cy_usbfs_dev_drv_io_dma.c ****     /* Chain descriptors to operate */
 415:Generated_Source\PSoC6\pdl\drivers\peripheral\usbfs/cy_usbfs_dev_drv_io_dma.c ****     if (numYloops == 0UL)
 592              		.loc 1 415 0
 593 00a2 25B9     		cbnz	r5, .L36
 416:Generated_Source\PSoC6\pdl\drivers\peripheral\usbfs/cy_usbfs_dev_drv_io_dma.c ****     {
 417:Generated_Source\PSoC6\pdl\drivers\peripheral\usbfs/cy_usbfs_dev_drv_io_dma.c ****         /* (Size < 32): only Descriptor 1 transfers data */
 418:Generated_Source\PSoC6\pdl\drivers\peripheral\usbfs/cy_usbfs_dev_drv_io_dma.c ****         Cy_DMA_Descriptor_SetNextDescriptor(endpoint->descr1, endpoint->descr1);
 594              		.loc 1 418 0
 595 00a4 616A     		ldr	r1, [r4, #36]
 596 00a6 0846     		mov	r0, r1
 597 00a8 FFF7FEFF 		bl	Cy_DMA_Descriptor_SetNextDescriptor
 598              	.LVL73:
 599 00ac 0DE0     		b	.L37
 600              	.L36:
 419:Generated_Source\PSoC6\pdl\drivers\peripheral\usbfs/cy_usbfs_dev_drv_io_dma.c ****     }
 420:Generated_Source\PSoC6\pdl\drivers\peripheral\usbfs/cy_usbfs_dev_drv_io_dma.c ****     else if (numXloops == 0UL)
 601              		.loc 1 420 0
 602 00ae 26B9     		cbnz	r6, .L38
 421:Generated_Source\PSoC6\pdl\drivers\peripheral\usbfs/cy_usbfs_dev_drv_io_dma.c ****     {
 422:Generated_Source\PSoC6\pdl\drivers\peripheral\usbfs/cy_usbfs_dev_drv_io_dma.c ****         /* Size multiple of 32: only Descriptor 0 transfers data */
 423:Generated_Source\PSoC6\pdl\drivers\peripheral\usbfs/cy_usbfs_dev_drv_io_dma.c ****         Cy_DMA_Descriptor_SetNextDescriptor(endpoint->descr0, endpoint->descr0);
 603              		.loc 1 423 0
 604 00b0 216A     		ldr	r1, [r4, #32]
 605 00b2 0846     		mov	r0, r1
 606 00b4 FFF7FEFF 		bl	Cy_DMA_Descriptor_SetNextDescriptor
ARM GAS  C:\Users\enes_\AppData\Local\Temp\ccQvJBBi.s 			page 45


 607              	.LVL74:
 608 00b8 07E0     		b	.L37
 609              	.L38:
 424:Generated_Source\PSoC6\pdl\drivers\peripheral\usbfs/cy_usbfs_dev_drv_io_dma.c ****     }
 425:Generated_Source\PSoC6\pdl\drivers\peripheral\usbfs/cy_usbfs_dev_drv_io_dma.c ****     else
 426:Generated_Source\PSoC6\pdl\drivers\peripheral\usbfs/cy_usbfs_dev_drv_io_dma.c ****     {
 427:Generated_Source\PSoC6\pdl\drivers\peripheral\usbfs/cy_usbfs_dev_drv_io_dma.c ****         /* (Size > 32): both Descriptor 0 and 1 transfer data */
 428:Generated_Source\PSoC6\pdl\drivers\peripheral\usbfs/cy_usbfs_dev_drv_io_dma.c ****         Cy_DMA_Descriptor_SetNextDescriptor(endpoint->descr0, endpoint->descr1);
 610              		.loc 1 428 0
 611 00ba 616A     		ldr	r1, [r4, #36]
 612 00bc 206A     		ldr	r0, [r4, #32]
 613 00be FFF7FEFF 		bl	Cy_DMA_Descriptor_SetNextDescriptor
 614              	.LVL75:
 429:Generated_Source\PSoC6\pdl\drivers\peripheral\usbfs/cy_usbfs_dev_drv_io_dma.c ****         Cy_DMA_Descriptor_SetNextDescriptor(endpoint->descr1, endpoint->descr0);
 615              		.loc 1 429 0
 616 00c2 216A     		ldr	r1, [r4, #32]
 617 00c4 606A     		ldr	r0, [r4, #36]
 618 00c6 FFF7FEFF 		bl	Cy_DMA_Descriptor_SetNextDescriptor
 619              	.LVL76:
 620              	.L37:
 430:Generated_Source\PSoC6\pdl\drivers\peripheral\usbfs/cy_usbfs_dev_drv_io_dma.c ****     }
 431:Generated_Source\PSoC6\pdl\drivers\peripheral\usbfs/cy_usbfs_dev_drv_io_dma.c ****     
 432:Generated_Source\PSoC6\pdl\drivers\peripheral\usbfs/cy_usbfs_dev_drv_io_dma.c ****     /* Keep channel enabled after execution of Descriptor 0 to execute Descriptor 1 */
 433:Generated_Source\PSoC6\pdl\drivers\peripheral\usbfs/cy_usbfs_dev_drv_io_dma.c ****     Cy_DMA_Descriptor_SetChannelState(endpoint->descr0,
 621              		.loc 1 433 0
 622 00ca 226A     		ldr	r2, [r4, #32]
 434:Generated_Source\PSoC6\pdl\drivers\peripheral\usbfs/cy_usbfs_dev_drv_io_dma.c ****                                         ((numYloops > 0UL) && (numXloops > 0UL)) ?
 435:Generated_Source\PSoC6\pdl\drivers\peripheral\usbfs/cy_usbfs_dev_drv_io_dma.c ****                                             CY_DMA_CHANNEL_ENABLED : CY_DMA_CHANNEL_DISABLED);
 623              		.loc 1 435 0
 624 00cc 15B1     		cbz	r5, .L46
 625              		.loc 1 435 0 is_stmt 0 discriminator 2
 626 00ce 1EB9     		cbnz	r6, .L47
 627              		.loc 1 435 0
 628 00d0 0121     		movs	r1, #1
 629 00d2 02E0     		b	.L40
 630              	.L46:
 631 00d4 0121     		movs	r1, #1
 632 00d6 00E0     		b	.L40
 633              	.L47:
 634 00d8 0021     		movs	r1, #0
 635              	.LVL77:
 636              	.L40:
 637              	.LBB229:
 638              	.LBB230:
1143:Generated_Source\PSoC6\pdl\drivers/peripheral/dma/cy_dma.h **** }
 639              		.loc 2 1143 0 is_stmt 1
 640 00da 1368     		ldr	r3, [r2]
 641 00dc 23F08073 		bic	r3, r3, #16777216
 642 00e0 43EA0163 		orr	r3, r3, r1, lsl #24
 643 00e4 1360     		str	r3, [r2]
 644              	.LBE230:
 645              	.LBE229:
 436:Generated_Source\PSoC6\pdl\drivers\peripheral\usbfs/cy_usbfs_dev_drv_io_dma.c ****     
 437:Generated_Source\PSoC6\pdl\drivers\peripheral\usbfs/cy_usbfs_dev_drv_io_dma.c ****     /* Start execution from Descriptor 0 (length >= 32) or Descriptor 1 (length < 32) */
 438:Generated_Source\PSoC6\pdl\drivers\peripheral\usbfs/cy_usbfs_dev_drv_io_dma.c ****     Cy_DMA_Channel_SetDescriptor(endpoint->base, endpoint->chNum,
 646              		.loc 1 438 0
 647 00e6 6669     		ldr	r6, [r4, #20]
ARM GAS  C:\Users\enes_\AppData\Local\Temp\ccQvJBBi.s 			page 46


 648              	.LVL78:
 649 00e8 A769     		ldr	r7, [r4, #24]
 650 00ea 0DB1     		cbz	r5, .L41
 651              		.loc 1 438 0 is_stmt 0 discriminator 1
 652 00ec 256A     		ldr	r5, [r4, #32]
 653              	.LVL79:
 654 00ee 00E0     		b	.L42
 655              	.LVL80:
 656              	.L41:
 657              		.loc 1 438 0 discriminator 2
 658 00f0 656A     		ldr	r5, [r4, #36]
 659              	.LVL81:
 660              	.L42:
 661              	.LBB231:
 662              	.LBB232:
1447:Generated_Source\PSoC6\pdl\drivers/peripheral/dma/cy_dma.h **** }
1448:Generated_Source\PSoC6\pdl\drivers/peripheral/dma/cy_dma.h **** 
1449:Generated_Source\PSoC6\pdl\drivers/peripheral/dma/cy_dma.h **** 
1450:Generated_Source\PSoC6\pdl\drivers/peripheral/dma/cy_dma.h **** /*******************************************************************************
1451:Generated_Source\PSoC6\pdl\drivers/peripheral/dma/cy_dma.h **** * Function Name: Cy_DMA_Descriptor_GetYloopDstIncrement
1452:Generated_Source\PSoC6\pdl\drivers/peripheral/dma/cy_dma.h **** ****************************************************************************//**
1453:Generated_Source\PSoC6\pdl\drivers/peripheral/dma/cy_dma.h **** *
1454:Generated_Source\PSoC6\pdl\drivers/peripheral/dma/cy_dma.h **** * Returns the destination increment parameter for the Y loop of the specified
1455:Generated_Source\PSoC6\pdl\drivers/peripheral/dma/cy_dma.h **** * descriptor (for 2D descriptors only). 
1456:Generated_Source\PSoC6\pdl\drivers/peripheral/dma/cy_dma.h **** *
1457:Generated_Source\PSoC6\pdl\drivers/peripheral/dma/cy_dma.h **** * \param descriptor
1458:Generated_Source\PSoC6\pdl\drivers/peripheral/dma/cy_dma.h **** * The descriptor structure instance declared by the user/component.
1459:Generated_Source\PSoC6\pdl\drivers/peripheral/dma/cy_dma.h **** *
1460:Generated_Source\PSoC6\pdl\drivers/peripheral/dma/cy_dma.h **** * \return
1461:Generated_Source\PSoC6\pdl\drivers/peripheral/dma/cy_dma.h **** * The value of the destination increment. The range is -2048 ... 2047.
1462:Generated_Source\PSoC6\pdl\drivers/peripheral/dma/cy_dma.h **** *
1463:Generated_Source\PSoC6\pdl\drivers/peripheral/dma/cy_dma.h **** * \funcusage 
1464:Generated_Source\PSoC6\pdl\drivers/peripheral/dma/cy_dma.h **** * \snippet dma\2.10\snippet\main.c snippet_Cy_DMA_Descriptor_GetterFunctions
1465:Generated_Source\PSoC6\pdl\drivers/peripheral/dma/cy_dma.h **** *  
1466:Generated_Source\PSoC6\pdl\drivers/peripheral/dma/cy_dma.h **** *******************************************************************************/
1467:Generated_Source\PSoC6\pdl\drivers/peripheral/dma/cy_dma.h **** __STATIC_INLINE int32_t Cy_DMA_Descriptor_GetYloopDstIncrement(cy_stc_dma_descriptor_t const * desc
1468:Generated_Source\PSoC6\pdl\drivers/peripheral/dma/cy_dma.h **** {
1469:Generated_Source\PSoC6\pdl\drivers/peripheral/dma/cy_dma.h ****     CY_ASSERT_L1(CY_DMA_2D_TRANSFER == Cy_DMA_Descriptor_GetDescriptorType(descriptor));
1470:Generated_Source\PSoC6\pdl\drivers/peripheral/dma/cy_dma.h ****     
1471:Generated_Source\PSoC6\pdl\drivers/peripheral/dma/cy_dma.h ****     return ((int32_t) _FLD2VAL(CY_DMA_CTL_DST_INCR, descriptor->yCtl));
1472:Generated_Source\PSoC6\pdl\drivers/peripheral/dma/cy_dma.h **** }
1473:Generated_Source\PSoC6\pdl\drivers/peripheral/dma/cy_dma.h **** 
1474:Generated_Source\PSoC6\pdl\drivers/peripheral/dma/cy_dma.h **** 
1475:Generated_Source\PSoC6\pdl\drivers/peripheral/dma/cy_dma.h **** /** \} group_dma_descriptor_functions */
1476:Generated_Source\PSoC6\pdl\drivers/peripheral/dma/cy_dma.h **** 
1477:Generated_Source\PSoC6\pdl\drivers/peripheral/dma/cy_dma.h **** 
1478:Generated_Source\PSoC6\pdl\drivers/peripheral/dma/cy_dma.h **** /**
1479:Generated_Source\PSoC6\pdl\drivers/peripheral/dma/cy_dma.h **** * \addtogroup group_dma_channel_functions
1480:Generated_Source\PSoC6\pdl\drivers/peripheral/dma/cy_dma.h **** * \{
1481:Generated_Source\PSoC6\pdl\drivers/peripheral/dma/cy_dma.h **** */
1482:Generated_Source\PSoC6\pdl\drivers/peripheral/dma/cy_dma.h **** 
1483:Generated_Source\PSoC6\pdl\drivers/peripheral/dma/cy_dma.h **** 
1484:Generated_Source\PSoC6\pdl\drivers/peripheral/dma/cy_dma.h **** /*******************************************************************************
1485:Generated_Source\PSoC6\pdl\drivers/peripheral/dma/cy_dma.h **** * Function Name: Cy_DMA_Channel_SetDescriptor
1486:Generated_Source\PSoC6\pdl\drivers/peripheral/dma/cy_dma.h **** ****************************************************************************//**
1487:Generated_Source\PSoC6\pdl\drivers/peripheral/dma/cy_dma.h **** *
1488:Generated_Source\PSoC6\pdl\drivers/peripheral/dma/cy_dma.h **** * Sets a descriptor as current for the specified DMA channel.
ARM GAS  C:\Users\enes_\AppData\Local\Temp\ccQvJBBi.s 			page 47


1489:Generated_Source\PSoC6\pdl\drivers/peripheral/dma/cy_dma.h **** *
1490:Generated_Source\PSoC6\pdl\drivers/peripheral/dma/cy_dma.h **** * \param base
1491:Generated_Source\PSoC6\pdl\drivers/peripheral/dma/cy_dma.h **** * The pointer to the hardware DMA block.
1492:Generated_Source\PSoC6\pdl\drivers/peripheral/dma/cy_dma.h **** *
1493:Generated_Source\PSoC6\pdl\drivers/peripheral/dma/cy_dma.h **** * \param channel
1494:Generated_Source\PSoC6\pdl\drivers/peripheral/dma/cy_dma.h **** * The channel number.
1495:Generated_Source\PSoC6\pdl\drivers/peripheral/dma/cy_dma.h **** *
1496:Generated_Source\PSoC6\pdl\drivers/peripheral/dma/cy_dma.h **** * \param descriptor
1497:Generated_Source\PSoC6\pdl\drivers/peripheral/dma/cy_dma.h **** * This is the descriptor to be associated with the channel.
1498:Generated_Source\PSoC6\pdl\drivers/peripheral/dma/cy_dma.h **** *
1499:Generated_Source\PSoC6\pdl\drivers/peripheral/dma/cy_dma.h **** * \funcusage 
