ARM GAS  C:\Users\enes_\AppData\Local\Temp\cc97b4k1.s 			page 1


   1              		.syntax unified
   2              		.cpu cortex-m4
   3              		.eabi_attribute 27, 1
   4              		.fpu fpv4-sp-d16
   5              		.eabi_attribute 20, 1
   6              		.eabi_attribute 21, 1
   7              		.eabi_attribute 23, 3
   8              		.eabi_attribute 24, 1
   9              		.eabi_attribute 25, 1
  10              		.eabi_attribute 26, 1
  11              		.eabi_attribute 30, 1
  12              		.eabi_attribute 34, 1
  13              		.eabi_attribute 18, 4
  14              		.thumb
  15              		.syntax unified
  16              		.file	"cy_usbfs_dev_drv_io.c"
  17              		.text
  18              	.Ltext0:
  19              		.cfi_sections	.debug_frame
  20              		.section	.text.DisableEndpoint,"ax",%progbits
  21              		.align	2
  22              		.thumb
  23              		.thumb_func
  24              		.type	DisableEndpoint, %function
  25              	DisableEndpoint:
  26              	.LFB257:
  27              		.file 1 "Generated_Source\\PSoC6\\pdl\\drivers\\peripheral\\usbfs\\cy_usbfs_dev_drv_io.c"
   1:Generated_Source\PSoC6\pdl\drivers\peripheral\usbfs/cy_usbfs_dev_drv_io.c **** /***************************************************************************//**
   2:Generated_Source\PSoC6\pdl\drivers\peripheral\usbfs/cy_usbfs_dev_drv_io.c **** * \file cy_usbfs_dev_drv_io.c
   3:Generated_Source\PSoC6\pdl\drivers\peripheral\usbfs/cy_usbfs_dev_drv_io.c **** * \version 1.0
   4:Generated_Source\PSoC6\pdl\drivers\peripheral\usbfs/cy_usbfs_dev_drv_io.c **** *
   5:Generated_Source\PSoC6\pdl\drivers\peripheral\usbfs/cy_usbfs_dev_drv_io.c **** * Provides data transfer API implementation of the USBFS driver.
   6:Generated_Source\PSoC6\pdl\drivers\peripheral\usbfs/cy_usbfs_dev_drv_io.c **** *
   7:Generated_Source\PSoC6\pdl\drivers\peripheral\usbfs/cy_usbfs_dev_drv_io.c **** ********************************************************************************
   8:Generated_Source\PSoC6\pdl\drivers\peripheral\usbfs/cy_usbfs_dev_drv_io.c **** * \copyright
   9:Generated_Source\PSoC6\pdl\drivers\peripheral\usbfs/cy_usbfs_dev_drv_io.c **** * Copyright 2018, Cypress Semiconductor Corporation. All rights reserved.
  10:Generated_Source\PSoC6\pdl\drivers\peripheral\usbfs/cy_usbfs_dev_drv_io.c **** * You may use this file only in accordance with the license, terms, conditions,
  11:Generated_Source\PSoC6\pdl\drivers\peripheral\usbfs/cy_usbfs_dev_drv_io.c **** * disclaimers, and limitations in the end user license agreement accompanying
  12:Generated_Source\PSoC6\pdl\drivers\peripheral\usbfs/cy_usbfs_dev_drv_io.c **** * the software package with which this file was provided.
  13:Generated_Source\PSoC6\pdl\drivers\peripheral\usbfs/cy_usbfs_dev_drv_io.c **** *******************************************************************************/
  14:Generated_Source\PSoC6\pdl\drivers\peripheral\usbfs/cy_usbfs_dev_drv_io.c **** 
  15:Generated_Source\PSoC6\pdl\drivers\peripheral\usbfs/cy_usbfs_dev_drv_io.c **** #include <string.h>
  16:Generated_Source\PSoC6\pdl\drivers\peripheral\usbfs/cy_usbfs_dev_drv_io.c **** #include "cy_usbfs_dev_drv_pvt.h"
  17:Generated_Source\PSoC6\pdl\drivers\peripheral\usbfs/cy_usbfs_dev_drv_io.c **** 
  18:Generated_Source\PSoC6\pdl\drivers\peripheral\usbfs/cy_usbfs_dev_drv_io.c **** #ifdef CY_IP_MXUSBFS
  19:Generated_Source\PSoC6\pdl\drivers\peripheral\usbfs/cy_usbfs_dev_drv_io.c **** 
  20:Generated_Source\PSoC6\pdl\drivers\peripheral\usbfs/cy_usbfs_dev_drv_io.c **** #if defined(__cplusplus)
  21:Generated_Source\PSoC6\pdl\drivers\peripheral\usbfs/cy_usbfs_dev_drv_io.c **** extern "C" {
  22:Generated_Source\PSoC6\pdl\drivers\peripheral\usbfs/cy_usbfs_dev_drv_io.c **** #endif
  23:Generated_Source\PSoC6\pdl\drivers\peripheral\usbfs/cy_usbfs_dev_drv_io.c **** 
  24:Generated_Source\PSoC6\pdl\drivers\peripheral\usbfs/cy_usbfs_dev_drv_io.c **** /*******************************************************************************
  25:Generated_Source\PSoC6\pdl\drivers\peripheral\usbfs/cy_usbfs_dev_drv_io.c **** *                        Internal Constants
  26:Generated_Source\PSoC6\pdl\drivers\peripheral\usbfs/cy_usbfs_dev_drv_io.c **** *******************************************************************************/
  27:Generated_Source\PSoC6\pdl\drivers\peripheral\usbfs/cy_usbfs_dev_drv_io.c **** 
  28:Generated_Source\PSoC6\pdl\drivers\peripheral\usbfs/cy_usbfs_dev_drv_io.c **** /* Dedicated IN and OUT endpoints buffer: 32 bytes (2^5) */
  29:Generated_Source\PSoC6\pdl\drivers\peripheral\usbfs/cy_usbfs_dev_drv_io.c **** #define ENDPOINTS_BUFFER_SIZE   (0x55UL)
  30:Generated_Source\PSoC6\pdl\drivers\peripheral\usbfs/cy_usbfs_dev_drv_io.c **** 
ARM GAS  C:\Users\enes_\AppData\Local\Temp\cc97b4k1.s 			page 2


  31:Generated_Source\PSoC6\pdl\drivers\peripheral\usbfs/cy_usbfs_dev_drv_io.c **** /* Number of bytes transferred by 1 Y-loop */
  32:Generated_Source\PSoC6\pdl\drivers\peripheral\usbfs/cy_usbfs_dev_drv_io.c **** #define DMA_YLOOP_INCREMENT     (32UL)
  33:Generated_Source\PSoC6\pdl\drivers\peripheral\usbfs/cy_usbfs_dev_drv_io.c **** 
  34:Generated_Source\PSoC6\pdl\drivers\peripheral\usbfs/cy_usbfs_dev_drv_io.c **** /* All arbiter interrupt sources */
  35:Generated_Source\PSoC6\pdl\drivers\peripheral\usbfs/cy_usbfs_dev_drv_io.c **** #define ENDPOINT_ARB_INTR_SOURCES_ALL    (USBFS_USBDEV_ARB_EP_IN_BUF_FULL_Msk | \
  36:Generated_Source\PSoC6\pdl\drivers\peripheral\usbfs/cy_usbfs_dev_drv_io.c ****                                           USBFS_USBDEV_ARB_EP_DMA_GNT_Msk     | \
  37:Generated_Source\PSoC6\pdl\drivers\peripheral\usbfs/cy_usbfs_dev_drv_io.c ****                                           USBFS_USBDEV_ARB_EP_BUF_OVER_Msk    | \
  38:Generated_Source\PSoC6\pdl\drivers\peripheral\usbfs/cy_usbfs_dev_drv_io.c ****                                           USBFS_USBDEV_ARB_EP_BUF_UNDER_Msk   | \
  39:Generated_Source\PSoC6\pdl\drivers\peripheral\usbfs/cy_usbfs_dev_drv_io.c ****                                           USBFS_USBDEV_ARB_EP_ERR_Msk         | \
  40:Generated_Source\PSoC6\pdl\drivers\peripheral\usbfs/cy_usbfs_dev_drv_io.c ****                                           USBFS_USBDEV_ARB_EP_DMA_TERMIN_Msk)
  41:Generated_Source\PSoC6\pdl\drivers\peripheral\usbfs/cy_usbfs_dev_drv_io.c **** 
  42:Generated_Source\PSoC6\pdl\drivers\peripheral\usbfs/cy_usbfs_dev_drv_io.c **** /* Arbiter interrupt sources for OUT and IN endpoints when mode is
  43:Generated_Source\PSoC6\pdl\drivers\peripheral\usbfs/cy_usbfs_dev_drv_io.c **** * CY_USBFS_DEV_DRV_EP_MANAGEMENT_DMA_AUTO.
  44:Generated_Source\PSoC6\pdl\drivers\peripheral\usbfs/cy_usbfs_dev_drv_io.c **** */
  45:Generated_Source\PSoC6\pdl\drivers\peripheral\usbfs/cy_usbfs_dev_drv_io.c **** #define ENDPOINT_ARB_INTR_SOURCES_CPU       (USBFS_USBDEV_ARB_EP_ERR_Msk)
  46:Generated_Source\PSoC6\pdl\drivers\peripheral\usbfs/cy_usbfs_dev_drv_io.c **** 
  47:Generated_Source\PSoC6\pdl\drivers\peripheral\usbfs/cy_usbfs_dev_drv_io.c **** #define OUT_ENDPOINT_ARB_INTR_SOURCES_CPU   (USBFS_USBDEV_ARB_EP_ERR_Msk)
  48:Generated_Source\PSoC6\pdl\drivers\peripheral\usbfs/cy_usbfs_dev_drv_io.c **** 
  49:Generated_Source\PSoC6\pdl\drivers\peripheral\usbfs/cy_usbfs_dev_drv_io.c **** #define IN_ENDPOINT_ARB_INTR_SOURCES_DMA    (USBFS_USBDEV_ARB_EP_IN_BUF_FULL_Msk | \
  50:Generated_Source\PSoC6\pdl\drivers\peripheral\usbfs/cy_usbfs_dev_drv_io.c ****                                              USBFS_USBDEV_ARB_EP_ERR_Msk)
  51:Generated_Source\PSoC6\pdl\drivers\peripheral\usbfs/cy_usbfs_dev_drv_io.c **** 
  52:Generated_Source\PSoC6\pdl\drivers\peripheral\usbfs/cy_usbfs_dev_drv_io.c **** #define OUT_ENDPOINT_ARB_INTR_SOURCES_DMA   (USBFS_USBDEV_ARB_EP_DMA_GNT_Msk | \
  53:Generated_Source\PSoC6\pdl\drivers\peripheral\usbfs/cy_usbfs_dev_drv_io.c ****                                              USBFS_USBDEV_ARB_EP_ERR_Msk)
  54:Generated_Source\PSoC6\pdl\drivers\peripheral\usbfs/cy_usbfs_dev_drv_io.c **** 
  55:Generated_Source\PSoC6\pdl\drivers\peripheral\usbfs/cy_usbfs_dev_drv_io.c **** 
  56:Generated_Source\PSoC6\pdl\drivers\peripheral\usbfs/cy_usbfs_dev_drv_io.c **** /*******************************************************************************
  57:Generated_Source\PSoC6\pdl\drivers\peripheral\usbfs/cy_usbfs_dev_drv_io.c **** *                        Internal Functions Prototypes
  58:Generated_Source\PSoC6\pdl\drivers\peripheral\usbfs/cy_usbfs_dev_drv_io.c **** *******************************************************************************/
  59:Generated_Source\PSoC6\pdl\drivers\peripheral\usbfs/cy_usbfs_dev_drv_io.c **** static void DisableEndpoint(USBFS_Type *base, uint32_t endpoint, cy_stc_usbfs_dev_drv_context_t *co
  60:Generated_Source\PSoC6\pdl\drivers\peripheral\usbfs/cy_usbfs_dev_drv_io.c **** 
  61:Generated_Source\PSoC6\pdl\drivers\peripheral\usbfs/cy_usbfs_dev_drv_io.c **** 
  62:Generated_Source\PSoC6\pdl\drivers\peripheral\usbfs/cy_usbfs_dev_drv_io.c **** /*******************************************************************************
  63:Generated_Source\PSoC6\pdl\drivers\peripheral\usbfs/cy_usbfs_dev_drv_io.c **** * Function Name: DisableEndpoint
  64:Generated_Source\PSoC6\pdl\drivers\peripheral\usbfs/cy_usbfs_dev_drv_io.c **** ****************************************************************************//**
  65:Generated_Source\PSoC6\pdl\drivers\peripheral\usbfs/cy_usbfs_dev_drv_io.c **** *
  66:Generated_Source\PSoC6\pdl\drivers\peripheral\usbfs/cy_usbfs_dev_drv_io.c **** * Disables endpoint operation.
  67:Generated_Source\PSoC6\pdl\drivers\peripheral\usbfs/cy_usbfs_dev_drv_io.c **** *
  68:Generated_Source\PSoC6\pdl\drivers\peripheral\usbfs/cy_usbfs_dev_drv_io.c **** * \param base
  69:Generated_Source\PSoC6\pdl\drivers\peripheral\usbfs/cy_usbfs_dev_drv_io.c **** * The pointer to the USBFS instance.
  70:Generated_Source\PSoC6\pdl\drivers\peripheral\usbfs/cy_usbfs_dev_drv_io.c **** *
  71:Generated_Source\PSoC6\pdl\drivers\peripheral\usbfs/cy_usbfs_dev_drv_io.c **** * \param endpoint
  72:Generated_Source\PSoC6\pdl\drivers\peripheral\usbfs/cy_usbfs_dev_drv_io.c **** * The data endpoint number.
  73:Generated_Source\PSoC6\pdl\drivers\peripheral\usbfs/cy_usbfs_dev_drv_io.c **** *
  74:Generated_Source\PSoC6\pdl\drivers\peripheral\usbfs/cy_usbfs_dev_drv_io.c **** * \param context
  75:Generated_Source\PSoC6\pdl\drivers\peripheral\usbfs/cy_usbfs_dev_drv_io.c **** * The pointer to the context structure \ref cy_stc_usbfs_dev_drv_context_t
  76:Generated_Source\PSoC6\pdl\drivers\peripheral\usbfs/cy_usbfs_dev_drv_io.c **** * allocated by the user. The structure is used during the USBFS Device 
  77:Generated_Source\PSoC6\pdl\drivers\peripheral\usbfs/cy_usbfs_dev_drv_io.c **** * operation for internal configuration and data retention. The user must not 
  78:Generated_Source\PSoC6\pdl\drivers\peripheral\usbfs/cy_usbfs_dev_drv_io.c **** * modify anything in this structure.
  79:Generated_Source\PSoC6\pdl\drivers\peripheral\usbfs/cy_usbfs_dev_drv_io.c **** *
  80:Generated_Source\PSoC6\pdl\drivers\peripheral\usbfs/cy_usbfs_dev_drv_io.c **** *******************************************************************************/
  81:Generated_Source\PSoC6\pdl\drivers\peripheral\usbfs/cy_usbfs_dev_drv_io.c **** static void DisableEndpoint(USBFS_Type *base, uint32_t endpoint, cy_stc_usbfs_dev_drv_context_t *co
  82:Generated_Source\PSoC6\pdl\drivers\peripheral\usbfs/cy_usbfs_dev_drv_io.c **** {
  28              		.loc 1 82 0
  29              		.cfi_startproc
  30              		@ args = 0, pretend = 0, frame = 0
  31              		@ frame_needed = 0, uses_anonymous_args = 0
  32              		@ link register save eliminated.
ARM GAS  C:\Users\enes_\AppData\Local\Temp\cc97b4k1.s 			page 3


  33              	.LVL0:
  34              	.LBB107:
  35              	.LBB108:
  36              		.file 2 "Generated_Source\\PSoC6\\pdl\\drivers\\peripheral\\usbfs\\cy_usbfs_dev_drv_reg.h"
   1:Generated_Source\PSoC6\pdl\drivers\peripheral\usbfs/cy_usbfs_dev_drv_reg.h **** /***************************************************************************//**
   2:Generated_Source\PSoC6\pdl\drivers\peripheral\usbfs/cy_usbfs_dev_drv_reg.h **** * \file cy_usbfs_dev_drv_reg.h
   3:Generated_Source\PSoC6\pdl\drivers\peripheral\usbfs/cy_usbfs_dev_drv_reg.h **** * \version 1.0
   4:Generated_Source\PSoC6\pdl\drivers\peripheral\usbfs/cy_usbfs_dev_drv_reg.h **** *
   5:Generated_Source\PSoC6\pdl\drivers\peripheral\usbfs/cy_usbfs_dev_drv_reg.h **** * Provides register access API implementation of the USBFS driver.
   6:Generated_Source\PSoC6\pdl\drivers\peripheral\usbfs/cy_usbfs_dev_drv_reg.h **** *
   7:Generated_Source\PSoC6\pdl\drivers\peripheral\usbfs/cy_usbfs_dev_drv_reg.h **** ********************************************************************************
   8:Generated_Source\PSoC6\pdl\drivers\peripheral\usbfs/cy_usbfs_dev_drv_reg.h **** * \copyright
   9:Generated_Source\PSoC6\pdl\drivers\peripheral\usbfs/cy_usbfs_dev_drv_reg.h **** * Copyright 2018, Cypress Semiconductor Corporation.  All rights reserved.
  10:Generated_Source\PSoC6\pdl\drivers\peripheral\usbfs/cy_usbfs_dev_drv_reg.h **** * You may use this file only in accordance with the license, terms, conditions,
  11:Generated_Source\PSoC6\pdl\drivers\peripheral\usbfs/cy_usbfs_dev_drv_reg.h **** * disclaimers, and limitations in the end user license agreement accompanying
  12:Generated_Source\PSoC6\pdl\drivers\peripheral\usbfs/cy_usbfs_dev_drv_reg.h **** * the software package with which this file was provided.
  13:Generated_Source\PSoC6\pdl\drivers\peripheral\usbfs/cy_usbfs_dev_drv_reg.h **** *******************************************************************************/
  14:Generated_Source\PSoC6\pdl\drivers\peripheral\usbfs/cy_usbfs_dev_drv_reg.h **** 
  15:Generated_Source\PSoC6\pdl\drivers\peripheral\usbfs/cy_usbfs_dev_drv_reg.h **** 
  16:Generated_Source\PSoC6\pdl\drivers\peripheral\usbfs/cy_usbfs_dev_drv_reg.h **** /** \cond INTERNAL */
  17:Generated_Source\PSoC6\pdl\drivers\peripheral\usbfs/cy_usbfs_dev_drv_reg.h **** 
  18:Generated_Source\PSoC6\pdl\drivers\peripheral\usbfs/cy_usbfs_dev_drv_reg.h **** /**
  19:Generated_Source\PSoC6\pdl\drivers\peripheral\usbfs/cy_usbfs_dev_drv_reg.h **** * \addtogroup group_usbfs_dev_drv_reg
  20:Generated_Source\PSoC6\pdl\drivers\peripheral\usbfs/cy_usbfs_dev_drv_reg.h **** * \{
  21:Generated_Source\PSoC6\pdl\drivers\peripheral\usbfs/cy_usbfs_dev_drv_reg.h **** *
  22:Generated_Source\PSoC6\pdl\drivers\peripheral\usbfs/cy_usbfs_dev_drv_reg.h **** * Register access API for the USBFS Device block.
  23:Generated_Source\PSoC6\pdl\drivers\peripheral\usbfs/cy_usbfs_dev_drv_reg.h **** *
  24:Generated_Source\PSoC6\pdl\drivers\peripheral\usbfs/cy_usbfs_dev_drv_reg.h **** * This is the API that provides an interface to the USBFS Device hardware.
  25:Generated_Source\PSoC6\pdl\drivers\peripheral\usbfs/cy_usbfs_dev_drv_reg.h **** * These API are intended to be used by the USBFS Device driver to access
  26:Generated_Source\PSoC6\pdl\drivers\peripheral\usbfs/cy_usbfs_dev_drv_reg.h **** * hardware. You can use these API to implement a custom driver based on
  27:Generated_Source\PSoC6\pdl\drivers\peripheral\usbfs/cy_usbfs_dev_drv_reg.h **** * the USBFS Device hardware.
  28:Generated_Source\PSoC6\pdl\drivers\peripheral\usbfs/cy_usbfs_dev_drv_reg.h **** *
  29:Generated_Source\PSoC6\pdl\drivers\peripheral\usbfs/cy_usbfs_dev_drv_reg.h **** * \defgroup group_usbfs_dev_drv_reg_macros Macros
  30:Generated_Source\PSoC6\pdl\drivers\peripheral\usbfs/cy_usbfs_dev_drv_reg.h **** * \{
  31:Generated_Source\PSoC6\pdl\drivers\peripheral\usbfs/cy_usbfs_dev_drv_reg.h **** *   \defgroup group_usbfs_dev_drv_reg_macros_hardware       Hardware-specific Constants
  32:Generated_Source\PSoC6\pdl\drivers\peripheral\usbfs/cy_usbfs_dev_drv_reg.h **** *   \defgroup group_usbfs_dev_drv_reg_macros_sie_intr       SIE Interrupt Sources
  33:Generated_Source\PSoC6\pdl\drivers\peripheral\usbfs/cy_usbfs_dev_drv_reg.h **** *   \defgroup group_usbfs_dev_drv_reg_macros_sie_mode       SIE Endpoint Modes
  34:Generated_Source\PSoC6\pdl\drivers\peripheral\usbfs/cy_usbfs_dev_drv_reg.h **** *   \defgroup group_usbfs_dev_drv_reg_macros_arb_ep_intr    Arbiter Endpoint Interrupt Sources
  35:Generated_Source\PSoC6\pdl\drivers\peripheral\usbfs/cy_usbfs_dev_drv_reg.h **** * \}
  36:Generated_Source\PSoC6\pdl\drivers\peripheral\usbfs/cy_usbfs_dev_drv_reg.h **** *
  37:Generated_Source\PSoC6\pdl\drivers\peripheral\usbfs/cy_usbfs_dev_drv_reg.h **** * \defgroup group_usbfs_drv_drv_reg_functions Functions
  38:Generated_Source\PSoC6\pdl\drivers\peripheral\usbfs/cy_usbfs_dev_drv_reg.h **** * \{
  39:Generated_Source\PSoC6\pdl\drivers\peripheral\usbfs/cy_usbfs_dev_drv_reg.h **** *   \defgroup group_usbfs_drv_drv_reg_interrupt_sources SIE Interrupt Sources Registers Access
  40:Generated_Source\PSoC6\pdl\drivers\peripheral\usbfs/cy_usbfs_dev_drv_reg.h **** *   \defgroup group_usbfs_drv_drv_reg_sie_access        SIE Data Endpoint Registers Access
  41:Generated_Source\PSoC6\pdl\drivers\peripheral\usbfs/cy_usbfs_dev_drv_reg.h **** *   \defgroup group_usbfs_drv_drv_reg_arbiter           Arbiter Endpoint Registers Access
  42:Generated_Source\PSoC6\pdl\drivers\peripheral\usbfs/cy_usbfs_dev_drv_reg.h **** *   \defgroup group_usbfs_drv_drv_reg_arbiter_data      Arbiter Endpoint Data Registers Access
  43:Generated_Source\PSoC6\pdl\drivers\peripheral\usbfs/cy_usbfs_dev_drv_reg.h **** *   \defgroup group_usbfs_drv_drv_reg_misc              Miscellaneous Functions       
  44:Generated_Source\PSoC6\pdl\drivers\peripheral\usbfs/cy_usbfs_dev_drv_reg.h **** * \}
  45:Generated_Source\PSoC6\pdl\drivers\peripheral\usbfs/cy_usbfs_dev_drv_reg.h **** *
  46:Generated_Source\PSoC6\pdl\drivers\peripheral\usbfs/cy_usbfs_dev_drv_reg.h **** * \}
  47:Generated_Source\PSoC6\pdl\drivers\peripheral\usbfs/cy_usbfs_dev_drv_reg.h **** */
  48:Generated_Source\PSoC6\pdl\drivers\peripheral\usbfs/cy_usbfs_dev_drv_reg.h **** 
  49:Generated_Source\PSoC6\pdl\drivers\peripheral\usbfs/cy_usbfs_dev_drv_reg.h **** 
  50:Generated_Source\PSoC6\pdl\drivers\peripheral\usbfs/cy_usbfs_dev_drv_reg.h **** #if !defined(CY_USBFS_DEV_DRV_REG_H)
  51:Generated_Source\PSoC6\pdl\drivers\peripheral\usbfs/cy_usbfs_dev_drv_reg.h **** #define CY_USBFS_DEV_DRV_REG_H
  52:Generated_Source\PSoC6\pdl\drivers\peripheral\usbfs/cy_usbfs_dev_drv_reg.h **** 
  53:Generated_Source\PSoC6\pdl\drivers\peripheral\usbfs/cy_usbfs_dev_drv_reg.h **** #include <stdint.h>
ARM GAS  C:\Users\enes_\AppData\Local\Temp\cc97b4k1.s 			page 4


  54:Generated_Source\PSoC6\pdl\drivers\peripheral\usbfs/cy_usbfs_dev_drv_reg.h **** #include <stddef.h>
  55:Generated_Source\PSoC6\pdl\drivers\peripheral\usbfs/cy_usbfs_dev_drv_reg.h **** #include <stdbool.h>
  56:Generated_Source\PSoC6\pdl\drivers\peripheral\usbfs/cy_usbfs_dev_drv_reg.h **** 
  57:Generated_Source\PSoC6\pdl\drivers\peripheral\usbfs/cy_usbfs_dev_drv_reg.h **** #include "cy_device.h"
  58:Generated_Source\PSoC6\pdl\drivers\peripheral\usbfs/cy_usbfs_dev_drv_reg.h **** #include "cy_device_headers.h"
  59:Generated_Source\PSoC6\pdl\drivers\peripheral\usbfs/cy_usbfs_dev_drv_reg.h **** #include "cy_syslib.h"
  60:Generated_Source\PSoC6\pdl\drivers\peripheral\usbfs/cy_usbfs_dev_drv_reg.h **** 
  61:Generated_Source\PSoC6\pdl\drivers\peripheral\usbfs/cy_usbfs_dev_drv_reg.h **** #ifdef CY_IP_MXUSBFS
  62:Generated_Source\PSoC6\pdl\drivers\peripheral\usbfs/cy_usbfs_dev_drv_reg.h **** 
  63:Generated_Source\PSoC6\pdl\drivers\peripheral\usbfs/cy_usbfs_dev_drv_reg.h **** #if defined(__cplusplus)
  64:Generated_Source\PSoC6\pdl\drivers\peripheral\usbfs/cy_usbfs_dev_drv_reg.h **** extern "C" {
  65:Generated_Source\PSoC6\pdl\drivers\peripheral\usbfs/cy_usbfs_dev_drv_reg.h **** #endif
  66:Generated_Source\PSoC6\pdl\drivers\peripheral\usbfs/cy_usbfs_dev_drv_reg.h **** 
  67:Generated_Source\PSoC6\pdl\drivers\peripheral\usbfs/cy_usbfs_dev_drv_reg.h **** /*******************************************************************************
  68:Generated_Source\PSoC6\pdl\drivers\peripheral\usbfs/cy_usbfs_dev_drv_reg.h **** *                       Hardware-specific Constants
  69:Generated_Source\PSoC6\pdl\drivers\peripheral\usbfs/cy_usbfs_dev_drv_reg.h **** *******************************************************************************/
  70:Generated_Source\PSoC6\pdl\drivers\peripheral\usbfs/cy_usbfs_dev_drv_reg.h **** 
  71:Generated_Source\PSoC6\pdl\drivers\peripheral\usbfs/cy_usbfs_dev_drv_reg.h **** /**
  72:Generated_Source\PSoC6\pdl\drivers\peripheral\usbfs/cy_usbfs_dev_drv_reg.h **** * \addtogroup group_usbfs_dev_drv_reg_macros_hardware
  73:Generated_Source\PSoC6\pdl\drivers\peripheral\usbfs/cy_usbfs_dev_drv_reg.h **** * \{
  74:Generated_Source\PSoC6\pdl\drivers\peripheral\usbfs/cy_usbfs_dev_drv_reg.h **** */
  75:Generated_Source\PSoC6\pdl\drivers\peripheral\usbfs/cy_usbfs_dev_drv_reg.h **** /** Number of data endpoints supported by the hardware */
  76:Generated_Source\PSoC6\pdl\drivers\peripheral\usbfs/cy_usbfs_dev_drv_reg.h **** #define CY_USBFS_DEV_DRV_NUM_EPS_MAX        (8U)
  77:Generated_Source\PSoC6\pdl\drivers\peripheral\usbfs/cy_usbfs_dev_drv_reg.h **** 
  78:Generated_Source\PSoC6\pdl\drivers\peripheral\usbfs/cy_usbfs_dev_drv_reg.h **** /** The hardware buffer size used for data endpoint buffers */
  79:Generated_Source\PSoC6\pdl\drivers\peripheral\usbfs/cy_usbfs_dev_drv_reg.h **** #define CY_USBFS_DEV_DRV_HW_BUFFER_SIZE     (512U)
  80:Generated_Source\PSoC6\pdl\drivers\peripheral\usbfs/cy_usbfs_dev_drv_reg.h **** 
  81:Generated_Source\PSoC6\pdl\drivers\peripheral\usbfs/cy_usbfs_dev_drv_reg.h **** /** The hardware buffer for endpoint 0 */
  82:Generated_Source\PSoC6\pdl\drivers\peripheral\usbfs/cy_usbfs_dev_drv_reg.h **** #define CY_USBFS_DEV_DRV_EP0_BUFFER_SIZE    (8U)
  83:Generated_Source\PSoC6\pdl\drivers\peripheral\usbfs/cy_usbfs_dev_drv_reg.h **** /** \} group_usbfs_dev_drv_reg_macros_hardware */
  84:Generated_Source\PSoC6\pdl\drivers\peripheral\usbfs/cy_usbfs_dev_drv_reg.h **** 
  85:Generated_Source\PSoC6\pdl\drivers\peripheral\usbfs/cy_usbfs_dev_drv_reg.h **** 
  86:Generated_Source\PSoC6\pdl\drivers\peripheral\usbfs/cy_usbfs_dev_drv_reg.h **** /*******************************************************************************
  87:Generated_Source\PSoC6\pdl\drivers\peripheral\usbfs/cy_usbfs_dev_drv_reg.h **** *                          Functions
  88:Generated_Source\PSoC6\pdl\drivers\peripheral\usbfs/cy_usbfs_dev_drv_reg.h **** *******************************************************************************/
  89:Generated_Source\PSoC6\pdl\drivers\peripheral\usbfs/cy_usbfs_dev_drv_reg.h **** 
  90:Generated_Source\PSoC6\pdl\drivers\peripheral\usbfs/cy_usbfs_dev_drv_reg.h **** /**
  91:Generated_Source\PSoC6\pdl\drivers\peripheral\usbfs/cy_usbfs_dev_drv_reg.h **** * \addtogroup group_usbfs_drv_drv_reg_interrupt_sources
  92:Generated_Source\PSoC6\pdl\drivers\peripheral\usbfs/cy_usbfs_dev_drv_reg.h **** * \{
  93:Generated_Source\PSoC6\pdl\drivers\peripheral\usbfs/cy_usbfs_dev_drv_reg.h **** */
  94:Generated_Source\PSoC6\pdl\drivers\peripheral\usbfs/cy_usbfs_dev_drv_reg.h **** /* Access to LPM SIE interrupt sources */
  95:Generated_Source\PSoC6\pdl\drivers\peripheral\usbfs/cy_usbfs_dev_drv_reg.h **** __STATIC_INLINE uint32_t Cy_USBFS_Dev_Drv_GetSieInterruptStatus(USBFS_Type const *base);
  96:Generated_Source\PSoC6\pdl\drivers\peripheral\usbfs/cy_usbfs_dev_drv_reg.h **** __STATIC_INLINE     void Cy_USBFS_Dev_Drv_SetSieInterruptMask  (USBFS_Type *base, uint32_t mask);
  97:Generated_Source\PSoC6\pdl\drivers\peripheral\usbfs/cy_usbfs_dev_drv_reg.h **** __STATIC_INLINE uint32_t Cy_USBFS_Dev_Drv_GetSieInterruptMask  (USBFS_Type const *base);
  98:Generated_Source\PSoC6\pdl\drivers\peripheral\usbfs/cy_usbfs_dev_drv_reg.h **** __STATIC_INLINE uint32_t Cy_USBFS_Dev_Drv_GetSieInterruptStatusMasked(USBFS_Type const *base);
  99:Generated_Source\PSoC6\pdl\drivers\peripheral\usbfs/cy_usbfs_dev_drv_reg.h **** __STATIC_INLINE     void Cy_USBFS_Dev_Drv_ClearSieInterrupt    (USBFS_Type *base, uint32_t mask);
 100:Generated_Source\PSoC6\pdl\drivers\peripheral\usbfs/cy_usbfs_dev_drv_reg.h **** __STATIC_INLINE     void Cy_USBFS_Dev_Drv_SetSieInterrupt      (USBFS_Type *base, uint32_t mask);
 101:Generated_Source\PSoC6\pdl\drivers\peripheral\usbfs/cy_usbfs_dev_drv_reg.h **** /** \} group_usbfs_drv_drv_reg_interrupt_sources */
 102:Generated_Source\PSoC6\pdl\drivers\peripheral\usbfs/cy_usbfs_dev_drv_reg.h **** 
 103:Generated_Source\PSoC6\pdl\drivers\peripheral\usbfs/cy_usbfs_dev_drv_reg.h **** /**
 104:Generated_Source\PSoC6\pdl\drivers\peripheral\usbfs/cy_usbfs_dev_drv_reg.h **** * \addtogroup group_usbfs_drv_drv_reg_sie_access
 105:Generated_Source\PSoC6\pdl\drivers\peripheral\usbfs/cy_usbfs_dev_drv_reg.h **** * \{
 106:Generated_Source\PSoC6\pdl\drivers\peripheral\usbfs/cy_usbfs_dev_drv_reg.h **** */
 107:Generated_Source\PSoC6\pdl\drivers\peripheral\usbfs/cy_usbfs_dev_drv_reg.h **** /* Access SIE data endpoints CR0.Mode registers */
 108:Generated_Source\PSoC6\pdl\drivers\peripheral\usbfs/cy_usbfs_dev_drv_reg.h **** __STATIC_INLINE void     Cy_USBFS_Dev_Drv_SetSieEpMode   (USBFS_Type *base, uint32_t endpoint, uint
 109:Generated_Source\PSoC6\pdl\drivers\peripheral\usbfs/cy_usbfs_dev_drv_reg.h **** __STATIC_INLINE uint32_t Cy_USBFS_Dev_Drv_GetSieEpMode   (USBFS_Type const *base, uint32_t endpoint
 110:Generated_Source\PSoC6\pdl\drivers\peripheral\usbfs/cy_usbfs_dev_drv_reg.h **** __STATIC_INLINE void     Cy_USBFS_Dev_Drv_SetSieEpStall  (USBFS_Type *base, bool inDirection, uint3
ARM GAS  C:\Users\enes_\AppData\Local\Temp\cc97b4k1.s 			page 5


 111:Generated_Source\PSoC6\pdl\drivers\peripheral\usbfs/cy_usbfs_dev_drv_reg.h **** __STATIC_INLINE void     Cy_USBFS_Dev_Drv_ClearSieEpStall(USBFS_Type *base, uint32_t endpoint, uint
 112:Generated_Source\PSoC6\pdl\drivers\peripheral\usbfs/cy_usbfs_dev_drv_reg.h **** __STATIC_INLINE uint32_t Cy_USBFS_Dev_Drv_GetSieEpError  (USBFS_Type const *base, uint32_t endpoint
 113:Generated_Source\PSoC6\pdl\drivers\peripheral\usbfs/cy_usbfs_dev_drv_reg.h **** 
 114:Generated_Source\PSoC6\pdl\drivers\peripheral\usbfs/cy_usbfs_dev_drv_reg.h **** /* Access SIE data endpoints CNT0 and CNT1 registers */
 115:Generated_Source\PSoC6\pdl\drivers\peripheral\usbfs/cy_usbfs_dev_drv_reg.h **** __STATIC_INLINE uint32_t Cy_USBFS_Dev_Drv_GetSieEpToggle  (USBFS_Type const *base, uint32_t endpoin
 116:Generated_Source\PSoC6\pdl\drivers\peripheral\usbfs/cy_usbfs_dev_drv_reg.h **** __STATIC_INLINE void     Cy_USBFS_Dev_Drv_ClearSieEpToggle(USBFS_Type *base, uint32_t endpoint);
 117:Generated_Source\PSoC6\pdl\drivers\peripheral\usbfs/cy_usbfs_dev_drv_reg.h **** __STATIC_INLINE uint32_t Cy_USBFS_Dev_Drv_GetSieEpCount(USBFS_Type const *base, uint32_t endpoint);
 118:Generated_Source\PSoC6\pdl\drivers\peripheral\usbfs/cy_usbfs_dev_drv_reg.h **** __STATIC_INLINE void     Cy_USBFS_Dev_Drv_SetSieEpCount(USBFS_Type *base, uint32_t endpoint, uint32
 119:Generated_Source\PSoC6\pdl\drivers\peripheral\usbfs/cy_usbfs_dev_drv_reg.h **** 
 120:Generated_Source\PSoC6\pdl\drivers\peripheral\usbfs/cy_usbfs_dev_drv_reg.h **** /* Access SIE data endpoints interrupt source registers */
 121:Generated_Source\PSoC6\pdl\drivers\peripheral\usbfs/cy_usbfs_dev_drv_reg.h **** __STATIC_INLINE uint32_t Cy_USBFS_Dev_Drv_GetSieAllEpsInterruptStatus(USBFS_Type const *base);
 122:Generated_Source\PSoC6\pdl\drivers\peripheral\usbfs/cy_usbfs_dev_drv_reg.h **** __STATIC_INLINE void     Cy_USBFS_Dev_Drv_EnableSieEpInterrupt (USBFS_Type *base, uint32_t endpoint
 123:Generated_Source\PSoC6\pdl\drivers\peripheral\usbfs/cy_usbfs_dev_drv_reg.h **** __STATIC_INLINE void     Cy_USBFS_Dev_Drv_DisableSieEpInterrupt(USBFS_Type *base, uint32_t endpoint
 124:Generated_Source\PSoC6\pdl\drivers\peripheral\usbfs/cy_usbfs_dev_drv_reg.h **** __STATIC_INLINE void     Cy_USBFS_Dev_Drv_ClearSieEpInterrupt  (USBFS_Type *base, uint32_t endpoint
 125:Generated_Source\PSoC6\pdl\drivers\peripheral\usbfs/cy_usbfs_dev_drv_reg.h **** /** \} group_usbfs_drv_drv_reg_sie_access */
 126:Generated_Source\PSoC6\pdl\drivers\peripheral\usbfs/cy_usbfs_dev_drv_reg.h **** 
 127:Generated_Source\PSoC6\pdl\drivers\peripheral\usbfs/cy_usbfs_dev_drv_reg.h **** /**
 128:Generated_Source\PSoC6\pdl\drivers\peripheral\usbfs/cy_usbfs_dev_drv_reg.h **** * \addtogroup group_usbfs_drv_drv_reg_arbiter
 129:Generated_Source\PSoC6\pdl\drivers\peripheral\usbfs/cy_usbfs_dev_drv_reg.h **** * \{
 130:Generated_Source\PSoC6\pdl\drivers\peripheral\usbfs/cy_usbfs_dev_drv_reg.h **** */
 131:Generated_Source\PSoC6\pdl\drivers\peripheral\usbfs/cy_usbfs_dev_drv_reg.h **** /* Access Arbiter data endpoints interrupt sources registers */
 132:Generated_Source\PSoC6\pdl\drivers\peripheral\usbfs/cy_usbfs_dev_drv_reg.h **** __STATIC_INLINE uint32_t Cy_USBFS_Dev_Drv_GetArbAllEpsInterruptStatus(USBFS_Type const *base);
 133:Generated_Source\PSoC6\pdl\drivers\peripheral\usbfs/cy_usbfs_dev_drv_reg.h **** __STATIC_INLINE void     Cy_USBFS_Dev_Drv_EnableArbEpInterrupt (USBFS_Type *base, uint32_t endpoint
 134:Generated_Source\PSoC6\pdl\drivers\peripheral\usbfs/cy_usbfs_dev_drv_reg.h **** __STATIC_INLINE void     Cy_USBFS_Dev_Drv_DisableArbEpInterrupt(USBFS_Type *base, uint32_t endpoint
 135:Generated_Source\PSoC6\pdl\drivers\peripheral\usbfs/cy_usbfs_dev_drv_reg.h **** __STATIC_INLINE void     Cy_USBFS_Dev_Drv_SetArbEpInterruptMask(USBFS_Type *base, uint32_t endpoint
 136:Generated_Source\PSoC6\pdl\drivers\peripheral\usbfs/cy_usbfs_dev_drv_reg.h **** __STATIC_INLINE uint32_t Cy_USBFS_Dev_Drv_GetArbEpInterruptMask(USBFS_Type const *base, uint32_t en
 137:Generated_Source\PSoC6\pdl\drivers\peripheral\usbfs/cy_usbfs_dev_drv_reg.h **** __STATIC_INLINE uint32_t Cy_USBFS_Dev_Drv_GetArbEpInterruptStatusMasked(USBFS_Type const *base, uin
 138:Generated_Source\PSoC6\pdl\drivers\peripheral\usbfs/cy_usbfs_dev_drv_reg.h **** __STATIC_INLINE void     Cy_USBFS_Dev_Drv_ClearArbEpInterrupt(USBFS_Type *base, uint32_t endpoint, 
 139:Generated_Source\PSoC6\pdl\drivers\peripheral\usbfs/cy_usbfs_dev_drv_reg.h **** 
 140:Generated_Source\PSoC6\pdl\drivers\peripheral\usbfs/cy_usbfs_dev_drv_reg.h **** /* Access Arbiter data endpoints configuration register */
 141:Generated_Source\PSoC6\pdl\drivers\peripheral\usbfs/cy_usbfs_dev_drv_reg.h **** __STATIC_INLINE void Cy_USBFS_Dev_Drv_SetArbEpConfig       (USBFS_Type *base, uint32_t endpoint, ui
 142:Generated_Source\PSoC6\pdl\drivers\peripheral\usbfs/cy_usbfs_dev_drv_reg.h **** __STATIC_INLINE void Cy_USBFS_Dev_Drv_SetArbCfgEpInReady   (USBFS_Type *base, uint32_t endpoint);
 143:Generated_Source\PSoC6\pdl\drivers\peripheral\usbfs/cy_usbfs_dev_drv_reg.h **** __STATIC_INLINE void Cy_USBFS_Dev_Drv_ClearArbCfgEpInReady (USBFS_Type *base, uint32_t endpoint);
 144:Generated_Source\PSoC6\pdl\drivers\peripheral\usbfs/cy_usbfs_dev_drv_reg.h **** __STATIC_INLINE void Cy_USBFS_Dev_Drv_TriggerArbCfgEpDmaReq(USBFS_Type *base, uint32_t endpoint);
 145:Generated_Source\PSoC6\pdl\drivers\peripheral\usbfs/cy_usbfs_dev_drv_reg.h **** 
 146:Generated_Source\PSoC6\pdl\drivers\peripheral\usbfs/cy_usbfs_dev_drv_reg.h **** /* Access Arbiter data endpoints WA (Write Address and RA(Read Address) registers */
 147:Generated_Source\PSoC6\pdl\drivers\peripheral\usbfs/cy_usbfs_dev_drv_reg.h **** __STATIC_INLINE void     Cy_USBFS_Dev_Drv_SetArbWriteAddr (USBFS_Type *base, uint32_t endpoint, uin
 148:Generated_Source\PSoC6\pdl\drivers\peripheral\usbfs/cy_usbfs_dev_drv_reg.h **** __STATIC_INLINE void     Cy_USBFS_Dev_Drv_SetArbReadAddr  (USBFS_Type *base, uint32_t endpoint, uin
 149:Generated_Source\PSoC6\pdl\drivers\peripheral\usbfs/cy_usbfs_dev_drv_reg.h **** __STATIC_INLINE uint32_t Cy_USBFS_Dev_Drv_GetArbWriteAddr (USBFS_Type const *base, uint32_t endpoin
 150:Generated_Source\PSoC6\pdl\drivers\peripheral\usbfs/cy_usbfs_dev_drv_reg.h **** __STATIC_INLINE uint32_t Cy_USBFS_Dev_Drv_GetArbReadAddr  (USBFS_Type const *base, uint32_t endpoin
 151:Generated_Source\PSoC6\pdl\drivers\peripheral\usbfs/cy_usbfs_dev_drv_reg.h **** /** \} group_usbfs_drv_drv_reg_arbiter */
 152:Generated_Source\PSoC6\pdl\drivers\peripheral\usbfs/cy_usbfs_dev_drv_reg.h **** 
 153:Generated_Source\PSoC6\pdl\drivers\peripheral\usbfs/cy_usbfs_dev_drv_reg.h **** /**
 154:Generated_Source\PSoC6\pdl\drivers\peripheral\usbfs/cy_usbfs_dev_drv_reg.h **** * \addtogroup group_usbfs_drv_drv_reg_arbiter_data 
 155:Generated_Source\PSoC6\pdl\drivers\peripheral\usbfs/cy_usbfs_dev_drv_reg.h **** * \{
 156:Generated_Source\PSoC6\pdl\drivers\peripheral\usbfs/cy_usbfs_dev_drv_reg.h **** */
 157:Generated_Source\PSoC6\pdl\drivers\peripheral\usbfs/cy_usbfs_dev_drv_reg.h **** /* Access data endpoints data registers. Used to get/put data into endpoint buffer. */
 158:Generated_Source\PSoC6\pdl\drivers\peripheral\usbfs/cy_usbfs_dev_drv_reg.h **** __STATIC_INLINE void     Cy_USBFS_Dev_Drv_WriteData  (USBFS_Type *base, uint32_t endpoint, uint8_t 
 159:Generated_Source\PSoC6\pdl\drivers\peripheral\usbfs/cy_usbfs_dev_drv_reg.h **** __STATIC_INLINE void     Cy_USBFS_Dev_Drv_WriteData16(USBFS_Type *base, uint32_t endpoint, uint16_t
 160:Generated_Source\PSoC6\pdl\drivers\peripheral\usbfs/cy_usbfs_dev_drv_reg.h **** __STATIC_INLINE uint8_t  Cy_USBFS_Dev_Drv_ReadData   (USBFS_Type const *base, uint32_t endpoint);
 161:Generated_Source\PSoC6\pdl\drivers\peripheral\usbfs/cy_usbfs_dev_drv_reg.h **** __STATIC_INLINE uint16_t Cy_USBFS_Dev_Drv_ReadData16 (USBFS_Type const *base, uint32_t endpoint);
 162:Generated_Source\PSoC6\pdl\drivers\peripheral\usbfs/cy_usbfs_dev_drv_reg.h **** __STATIC_INLINE volatile uint32_t * Cy_USBFS_Dev_Drv_GetDataRegAddr  (USBFS_Type *base, uint32_t en
 163:Generated_Source\PSoC6\pdl\drivers\peripheral\usbfs/cy_usbfs_dev_drv_reg.h **** __STATIC_INLINE volatile uint32_t * Cy_USBFS_Dev_Drv_GetDataReg16Addr(USBFS_Type *base, uint32_t en
 164:Generated_Source\PSoC6\pdl\drivers\peripheral\usbfs/cy_usbfs_dev_drv_reg.h **** __STATIC_INLINE void     Cy_USBFS_Dev_Drv_FlushInBuffer (USBFS_Type *base, uint32_t endpoint);
 165:Generated_Source\PSoC6\pdl\drivers\peripheral\usbfs/cy_usbfs_dev_drv_reg.h **** /** \} group_usbfs_drv_drv_reg_arbiter_data */
 166:Generated_Source\PSoC6\pdl\drivers\peripheral\usbfs/cy_usbfs_dev_drv_reg.h **** 
 167:Generated_Source\PSoC6\pdl\drivers\peripheral\usbfs/cy_usbfs_dev_drv_reg.h **** /**
ARM GAS  C:\Users\enes_\AppData\Local\Temp\cc97b4k1.s 			page 6


 168:Generated_Source\PSoC6\pdl\drivers\peripheral\usbfs/cy_usbfs_dev_drv_reg.h **** * \addtogroup group_usbfs_drv_drv_reg_misc
 169:Generated_Source\PSoC6\pdl\drivers\peripheral\usbfs/cy_usbfs_dev_drv_reg.h **** * \{
 170:Generated_Source\PSoC6\pdl\drivers\peripheral\usbfs/cy_usbfs_dev_drv_reg.h **** */
 171:Generated_Source\PSoC6\pdl\drivers\peripheral\usbfs/cy_usbfs_dev_drv_reg.h **** __STATIC_INLINE uint32_t Cy_USBFS_Dev_Drv_GetEp0Count(USBFS_Type const *base);
 172:Generated_Source\PSoC6\pdl\drivers\peripheral\usbfs/cy_usbfs_dev_drv_reg.h **** __STATIC_INLINE void     Cy_USBFS_Dev_Drv_SetEpType  (USBFS_Type *base, bool inDirection, uint32_t 
 173:Generated_Source\PSoC6\pdl\drivers\peripheral\usbfs/cy_usbfs_dev_drv_reg.h **** /** \} group_usbfs_drv_drv_reg_misc */
 174:Generated_Source\PSoC6\pdl\drivers\peripheral\usbfs/cy_usbfs_dev_drv_reg.h **** 
 175:Generated_Source\PSoC6\pdl\drivers\peripheral\usbfs/cy_usbfs_dev_drv_reg.h **** 
 176:Generated_Source\PSoC6\pdl\drivers\peripheral\usbfs/cy_usbfs_dev_drv_reg.h **** /*******************************************************************************
 177:Generated_Source\PSoC6\pdl\drivers\peripheral\usbfs/cy_usbfs_dev_drv_reg.h **** *                       API Constants
 178:Generated_Source\PSoC6\pdl\drivers\peripheral\usbfs/cy_usbfs_dev_drv_reg.h **** *******************************************************************************/
 179:Generated_Source\PSoC6\pdl\drivers\peripheral\usbfs/cy_usbfs_dev_drv_reg.h **** 
 180:Generated_Source\PSoC6\pdl\drivers\peripheral\usbfs/cy_usbfs_dev_drv_reg.h **** /** /cond INTERNAL */
 181:Generated_Source\PSoC6\pdl\drivers\peripheral\usbfs/cy_usbfs_dev_drv_reg.h **** /* Macro to access ODD offset registers: Cypress ID# 299773 */
 182:Generated_Source\PSoC6\pdl\drivers\peripheral\usbfs/cy_usbfs_dev_drv_reg.h **** #define CY_USBFS_DEV_DRV_WRITE_ODD(val)  ( (val) | ((uint32_t) (val) << 8U) )
 183:Generated_Source\PSoC6\pdl\drivers\peripheral\usbfs/cy_usbfs_dev_drv_reg.h **** #define CY_USBFS_DEV_READ_ODD(reg)       ( (uint32_t) (CY_LO8((reg) | ((reg) >> 8U))) )
 184:Generated_Source\PSoC6\pdl\drivers\peripheral\usbfs/cy_usbfs_dev_drv_reg.h **** /** /endcond */
 185:Generated_Source\PSoC6\pdl\drivers\peripheral\usbfs/cy_usbfs_dev_drv_reg.h **** 
 186:Generated_Source\PSoC6\pdl\drivers\peripheral\usbfs/cy_usbfs_dev_drv_reg.h **** /**
 187:Generated_Source\PSoC6\pdl\drivers\peripheral\usbfs/cy_usbfs_dev_drv_reg.h **** * \addtogroup group_usbfs_dev_drv_reg_macros_sie_intr
 188:Generated_Source\PSoC6\pdl\drivers\peripheral\usbfs/cy_usbfs_dev_drv_reg.h **** * \{
 189:Generated_Source\PSoC6\pdl\drivers\peripheral\usbfs/cy_usbfs_dev_drv_reg.h **** */
 190:Generated_Source\PSoC6\pdl\drivers\peripheral\usbfs/cy_usbfs_dev_drv_reg.h **** #define CY_USBFS_DEV_DRV_INTR_SIE_SOF       USBFS_USBLPM_INTR_SIE_SOF_INTR_Msk        /**< SOF fram
 191:Generated_Source\PSoC6\pdl\drivers\peripheral\usbfs/cy_usbfs_dev_drv_reg.h **** #define CY_USBFS_DEV_DRV_INTR_SIE_BUS_RESET USBFS_USBLPM_INTR_SIE_BUS_RESET_INTR_Msk  /**< Bus Rese
 192:Generated_Source\PSoC6\pdl\drivers\peripheral\usbfs/cy_usbfs_dev_drv_reg.h **** #define CY_USBFS_DEV_DRV_INTR_SIE_EP0       USBFS_USBLPM_INTR_SIE_EP0_INTR_Msk        /**< EP0 acce
 193:Generated_Source\PSoC6\pdl\drivers\peripheral\usbfs/cy_usbfs_dev_drv_reg.h **** #define CY_USBFS_DEV_DRV_INTR_SIE_LPM       USBFS_USBLPM_INTR_SIE_LPM_INTR_Msk        /**< Link Pow
 194:Generated_Source\PSoC6\pdl\drivers\peripheral\usbfs/cy_usbfs_dev_drv_reg.h **** #define CY_USBFS_DEV_DRV_INTR_SIE_RESUME    USBFS_USBLPM_INTR_SIE_RESUME_INTR_Msk     /**< Resume c
 195:Generated_Source\PSoC6\pdl\drivers\peripheral\usbfs/cy_usbfs_dev_drv_reg.h **** /** \} group_usbfs_dev_drv_reg_macros_sie_intr */
 196:Generated_Source\PSoC6\pdl\drivers\peripheral\usbfs/cy_usbfs_dev_drv_reg.h **** 
 197:Generated_Source\PSoC6\pdl\drivers\peripheral\usbfs/cy_usbfs_dev_drv_reg.h **** /**
 198:Generated_Source\PSoC6\pdl\drivers\peripheral\usbfs/cy_usbfs_dev_drv_reg.h **** * \addtogroup group_usbfs_dev_drv_reg_macros_sie_mode
 199:Generated_Source\PSoC6\pdl\drivers\peripheral\usbfs/cy_usbfs_dev_drv_reg.h **** * \{
 200:Generated_Source\PSoC6\pdl\drivers\peripheral\usbfs/cy_usbfs_dev_drv_reg.h **** */
 201:Generated_Source\PSoC6\pdl\drivers\peripheral\usbfs/cy_usbfs_dev_drv_reg.h **** /* Modes for endpoint 0 (control endpoint) */
 202:Generated_Source\PSoC6\pdl\drivers\peripheral\usbfs/cy_usbfs_dev_drv_reg.h **** #define CY_USBFS_DEV_DRV_EP_CR_DISABLE           (0U)  /**< Data endpoint disabled */
 203:Generated_Source\PSoC6\pdl\drivers\peripheral\usbfs/cy_usbfs_dev_drv_reg.h **** #define CY_USBFS_DEV_DRV_EP_CR_NAK_INOUT         (1U)  /**< Data endpoint NAK IN and OUT requests *
 204:Generated_Source\PSoC6\pdl\drivers\peripheral\usbfs/cy_usbfs_dev_drv_reg.h **** #define CY_USBFS_DEV_DRV_EP_CR_STALL_INOUT       (3U)  /**< Data endpoint STALL IN and OUT requests
 205:Generated_Source\PSoC6\pdl\drivers\peripheral\usbfs/cy_usbfs_dev_drv_reg.h **** #define CY_USBFS_DEV_DRV_EP_CR_STATUS_OUT_ONLY   (2U)  /**< Data endpoint ACK only Status OUT reque
 206:Generated_Source\PSoC6\pdl\drivers\peripheral\usbfs/cy_usbfs_dev_drv_reg.h **** #define CY_USBFS_DEV_DRV_EP_CR_STATUS_IN_ONLY    (6U)  /**< Data endpoint ACK only Status IN reques
 207:Generated_Source\PSoC6\pdl\drivers\peripheral\usbfs/cy_usbfs_dev_drv_reg.h **** #define CY_USBFS_DEV_DRV_EP_CR_ACK_OUT_STATUS_IN (11U) /**< Data endpoint ACK only Data and Status 
 208:Generated_Source\PSoC6\pdl\drivers\peripheral\usbfs/cy_usbfs_dev_drv_reg.h **** #define CY_USBFS_DEV_DRV_EP_CR_ACK_IN_STATUS_OUT (15U) /**< Data endpoint ACK only Data and Status 
 209:Generated_Source\PSoC6\pdl\drivers\peripheral\usbfs/cy_usbfs_dev_drv_reg.h **** 
 210:Generated_Source\PSoC6\pdl\drivers\peripheral\usbfs/cy_usbfs_dev_drv_reg.h **** /* Modes for ISO data endpoints */
 211:Generated_Source\PSoC6\pdl\drivers\peripheral\usbfs/cy_usbfs_dev_drv_reg.h **** #define CY_USBFS_DEV_DRV_EP_CR_ISO_OUT          (5U)   /**< Data endpoint is ISO OUT */
 212:Generated_Source\PSoC6\pdl\drivers\peripheral\usbfs/cy_usbfs_dev_drv_reg.h **** #define CY_USBFS_DEV_DRV_EP_CR_ISO_IN           (7U)   /**< Data endpoint is ISO IN */
 213:Generated_Source\PSoC6\pdl\drivers\peripheral\usbfs/cy_usbfs_dev_drv_reg.h **** 
 214:Generated_Source\PSoC6\pdl\drivers\peripheral\usbfs/cy_usbfs_dev_drv_reg.h **** /* Modes for Control/Bulk/Interrupt OUT data endpoints */
 215:Generated_Source\PSoC6\pdl\drivers\peripheral\usbfs/cy_usbfs_dev_drv_reg.h **** #define CY_USBFS_DEV_DRV_EP_CR_NAK_OUT          (8U)   /**< Data endpoint NAK OUT requests */
 216:Generated_Source\PSoC6\pdl\drivers\peripheral\usbfs/cy_usbfs_dev_drv_reg.h **** #define CY_USBFS_DEV_DRV_EP_CR_ACK_OUT          (9U)   /**< Data endpoint ACK OUT requests */
 217:Generated_Source\PSoC6\pdl\drivers\peripheral\usbfs/cy_usbfs_dev_drv_reg.h **** 
 218:Generated_Source\PSoC6\pdl\drivers\peripheral\usbfs/cy_usbfs_dev_drv_reg.h **** /* Modes for Control/Bulk/Interrupt IN data endpoints */
 219:Generated_Source\PSoC6\pdl\drivers\peripheral\usbfs/cy_usbfs_dev_drv_reg.h **** #define CY_USBFS_DEV_DRV_EP_CR_NAK_IN           (12U)   /**< Data endpoint NAK IN requests */
 220:Generated_Source\PSoC6\pdl\drivers\peripheral\usbfs/cy_usbfs_dev_drv_reg.h **** #define CY_USBFS_DEV_DRV_EP_CR_ACK_IN           (13U)   /**< Data endpoint ACK IN requests */
 221:Generated_Source\PSoC6\pdl\drivers\peripheral\usbfs/cy_usbfs_dev_drv_reg.h **** /** \} group_usbfs_dev_drv_reg_macros_sie_mode */
 222:Generated_Source\PSoC6\pdl\drivers\peripheral\usbfs/cy_usbfs_dev_drv_reg.h **** 
 223:Generated_Source\PSoC6\pdl\drivers\peripheral\usbfs/cy_usbfs_dev_drv_reg.h **** /**
 224:Generated_Source\PSoC6\pdl\drivers\peripheral\usbfs/cy_usbfs_dev_drv_reg.h **** * \addtogroup group_usbfs_dev_drv_reg_macros_arb_ep_intr ARB_EP_SR/INT_EN 1-8 registers
ARM GAS  C:\Users\enes_\AppData\Local\Temp\cc97b4k1.s 			page 7


 225:Generated_Source\PSoC6\pdl\drivers\peripheral\usbfs/cy_usbfs_dev_drv_reg.h **** * \{
 226:Generated_Source\PSoC6\pdl\drivers\peripheral\usbfs/cy_usbfs_dev_drv_reg.h **** */
 227:Generated_Source\PSoC6\pdl\drivers\peripheral\usbfs/cy_usbfs_dev_drv_reg.h **** 
 228:Generated_Source\PSoC6\pdl\drivers\peripheral\usbfs/cy_usbfs_dev_drv_reg.h **** /** Data endpoint IN buffer full interrupt source */
 229:Generated_Source\PSoC6\pdl\drivers\peripheral\usbfs/cy_usbfs_dev_drv_reg.h **** #define USBFS_USBDEV_ARB_EP_IN_BUF_FULL_Msk USBFS_USBDEV_ARB_EP1_INT_EN_IN_BUF_FULL_EN_Msk 
 230:Generated_Source\PSoC6\pdl\drivers\peripheral\usbfs/cy_usbfs_dev_drv_reg.h **** /** Data endpoint grant interrupt source (DMA complete read/write) */
 231:Generated_Source\PSoC6\pdl\drivers\peripheral\usbfs/cy_usbfs_dev_drv_reg.h **** #define USBFS_USBDEV_ARB_EP_DMA_GNT_Msk     USBFS_USBDEV_ARB_EP1_INT_EN_DMA_GNT_EN_Msk
 232:Generated_Source\PSoC6\pdl\drivers\peripheral\usbfs/cy_usbfs_dev_drv_reg.h **** /** Data endpoint overflow interrupt source (applicable only for Automatic DMA mode) */
 233:Generated_Source\PSoC6\pdl\drivers\peripheral\usbfs/cy_usbfs_dev_drv_reg.h **** #define USBFS_USBDEV_ARB_EP_BUF_OVER_Msk    USBFS_USBDEV_ARB_EP1_INT_EN_BUF_OVER_EN_Msk
 234:Generated_Source\PSoC6\pdl\drivers\peripheral\usbfs/cy_usbfs_dev_drv_reg.h **** /** Data endpoint underflow interrupt source (applicable only for Automatic DMA mode) */
 235:Generated_Source\PSoC6\pdl\drivers\peripheral\usbfs/cy_usbfs_dev_drv_reg.h **** #define USBFS_USBDEV_ARB_EP_BUF_UNDER_Msk   USBFS_USBDEV_ARB_EP1_INT_EN_BUF_UNDER_EN_Msk
 236:Generated_Source\PSoC6\pdl\drivers\peripheral\usbfs/cy_usbfs_dev_drv_reg.h **** /** Endpoint Error in Transaction interrupt source */
 237:Generated_Source\PSoC6\pdl\drivers\peripheral\usbfs/cy_usbfs_dev_drv_reg.h **** #define USBFS_USBDEV_ARB_EP_ERR_Msk         USBFS_USBDEV_ARB_EP1_INT_EN_ERR_INT_EN_Msk
 238:Generated_Source\PSoC6\pdl\drivers\peripheral\usbfs/cy_usbfs_dev_drv_reg.h **** /** Data endpoint terminate interrupt source (DMA complete reading) */
 239:Generated_Source\PSoC6\pdl\drivers\peripheral\usbfs/cy_usbfs_dev_drv_reg.h **** #define USBFS_USBDEV_ARB_EP_DMA_TERMIN_Msk  USBFS_USBDEV_ARB_EP1_SR_DMA_TERMIN_Msk
 240:Generated_Source\PSoC6\pdl\drivers\peripheral\usbfs/cy_usbfs_dev_drv_reg.h **** /** \} group_usbfs_dev_drv_reg_macros_arb_ep_intr */
 241:Generated_Source\PSoC6\pdl\drivers\peripheral\usbfs/cy_usbfs_dev_drv_reg.h **** 
 242:Generated_Source\PSoC6\pdl\drivers\peripheral\usbfs/cy_usbfs_dev_drv_reg.h **** /**
 243:Generated_Source\PSoC6\pdl\drivers\peripheral\usbfs/cy_usbfs_dev_drv_reg.h **** * \addtogroup group_usbfs_dev_drv_reg_macros
 244:Generated_Source\PSoC6\pdl\drivers\peripheral\usbfs/cy_usbfs_dev_drv_reg.h **** * \{
 245:Generated_Source\PSoC6\pdl\drivers\peripheral\usbfs/cy_usbfs_dev_drv_reg.h **** */
 246:Generated_Source\PSoC6\pdl\drivers\peripheral\usbfs/cy_usbfs_dev_drv_reg.h **** /** Data toggle mask in CNT0 register */
 247:Generated_Source\PSoC6\pdl\drivers\peripheral\usbfs/cy_usbfs_dev_drv_reg.h **** #define USBFS_USBDEV_SIE_EP_DATA_TOGGLE_Msk USBFS_USBDEV_SIE_EP1_CNT0_DATA_TOGGLE_Msk
 248:Generated_Source\PSoC6\pdl\drivers\peripheral\usbfs/cy_usbfs_dev_drv_reg.h **** /** \} group_usbfs_dev_drv_reg_macros */
 249:Generated_Source\PSoC6\pdl\drivers\peripheral\usbfs/cy_usbfs_dev_drv_reg.h **** 
 250:Generated_Source\PSoC6\pdl\drivers\peripheral\usbfs/cy_usbfs_dev_drv_reg.h **** /** /cond INTERNAL */
 251:Generated_Source\PSoC6\pdl\drivers\peripheral\usbfs/cy_usbfs_dev_drv_reg.h **** 
 252:Generated_Source\PSoC6\pdl\drivers\peripheral\usbfs/cy_usbfs_dev_drv_reg.h **** /* Extended cyip_usbfs.h */
 253:Generated_Source\PSoC6\pdl\drivers\peripheral\usbfs/cy_usbfs_dev_drv_reg.h **** 
 254:Generated_Source\PSoC6\pdl\drivers\peripheral\usbfs/cy_usbfs_dev_drv_reg.h **** /* Count registers includes CRC size (2 bytes) */
 255:Generated_Source\PSoC6\pdl\drivers\peripheral\usbfs/cy_usbfs_dev_drv_reg.h **** #define CY_USBFS_DEV_DRV_EP_CRC_SIZE        (2U)
 256:Generated_Source\PSoC6\pdl\drivers\peripheral\usbfs/cy_usbfs_dev_drv_reg.h **** 
 257:Generated_Source\PSoC6\pdl\drivers\peripheral\usbfs/cy_usbfs_dev_drv_reg.h **** /* DYN_RECONFIG register */
 258:Generated_Source\PSoC6\pdl\drivers\peripheral\usbfs/cy_usbfs_dev_drv_reg.h **** #define USBFS_USBDEV_DYN_RECONFIG_EN_Msk       USBFS_USBDEV_DYN_RECONFIG_DYN_CONFIG_EN_Msk
 259:Generated_Source\PSoC6\pdl\drivers\peripheral\usbfs/cy_usbfs_dev_drv_reg.h **** #define USBFS_USBDEV_DYN_RECONFIG_EPNO_Pos     USBFS_USBDEV_DYN_RECONFIG_DYN_RECONFIG_EPNO_Pos
 260:Generated_Source\PSoC6\pdl\drivers\peripheral\usbfs/cy_usbfs_dev_drv_reg.h **** #define USBFS_USBDEV_DYN_RECONFIG_EPNO_Msk     USBFS_USBDEV_DYN_RECONFIG_DYN_RECONFIG_EPNO_Msk
 261:Generated_Source\PSoC6\pdl\drivers\peripheral\usbfs/cy_usbfs_dev_drv_reg.h **** #define USBFS_USBDEV_DYN_RECONFIG_RDY_STS_Msk  USBFS_USBDEV_DYN_RECONFIG_DYN_RECONFIG_RDY_STS_Msk
 262:Generated_Source\PSoC6\pdl\drivers\peripheral\usbfs/cy_usbfs_dev_drv_reg.h **** 
 263:Generated_Source\PSoC6\pdl\drivers\peripheral\usbfs/cy_usbfs_dev_drv_reg.h **** /* LPM_CTL register */
 264:Generated_Source\PSoC6\pdl\drivers\peripheral\usbfs/cy_usbfs_dev_drv_reg.h **** #define USBFS_USBLPM_LPM_CTL_LPM_RESP_Pos   (USBFS_USBLPM_LPM_CTL_LPM_ACK_RESP_Pos)
 265:Generated_Source\PSoC6\pdl\drivers\peripheral\usbfs/cy_usbfs_dev_drv_reg.h **** #define USBFS_USBLPM_LPM_CTL_LPM_RESP_Msk   (USBFS_USBLPM_LPM_CTL_LPM_ACK_RESP_Msk | \
 266:Generated_Source\PSoC6\pdl\drivers\peripheral\usbfs/cy_usbfs_dev_drv_reg.h ****                                              USBFS_USBLPM_LPM_CTL_NYET_EN_Msk)
 267:Generated_Source\PSoC6\pdl\drivers\peripheral\usbfs/cy_usbfs_dev_drv_reg.h **** 
 268:Generated_Source\PSoC6\pdl\drivers\peripheral\usbfs/cy_usbfs_dev_drv_reg.h **** /* ARB_EP_CFG 1-8 registers (default configuration) */
 269:Generated_Source\PSoC6\pdl\drivers\peripheral\usbfs/cy_usbfs_dev_drv_reg.h **** #define USBFS_USBDEV_ARB_EP_CFG_CRC_BYPASS_Msk USBFS_USBDEV_ARB_EP1_CFG_CRC_BYPASS_Msk
 270:Generated_Source\PSoC6\pdl\drivers\peripheral\usbfs/cy_usbfs_dev_drv_reg.h **** #define USBFS_USBDEV_ARB_EP_CFG_RESET_PTR_Msk  USBFS_USBDEV_ARB_EP1_CFG_CRC_BYPASS_Msk
 271:Generated_Source\PSoC6\pdl\drivers\peripheral\usbfs/cy_usbfs_dev_drv_reg.h **** /** /endcond */
 272:Generated_Source\PSoC6\pdl\drivers\peripheral\usbfs/cy_usbfs_dev_drv_reg.h **** 
 273:Generated_Source\PSoC6\pdl\drivers\peripheral\usbfs/cy_usbfs_dev_drv_reg.h **** 
 274:Generated_Source\PSoC6\pdl\drivers\peripheral\usbfs/cy_usbfs_dev_drv_reg.h **** /*******************************************************************************
 275:Generated_Source\PSoC6\pdl\drivers\peripheral\usbfs/cy_usbfs_dev_drv_reg.h **** *                         In-line Function Implementation
 276:Generated_Source\PSoC6\pdl\drivers\peripheral\usbfs/cy_usbfs_dev_drv_reg.h **** *******************************************************************************/
 277:Generated_Source\PSoC6\pdl\drivers\peripheral\usbfs/cy_usbfs_dev_drv_reg.h **** 
 278:Generated_Source\PSoC6\pdl\drivers\peripheral\usbfs/cy_usbfs_dev_drv_reg.h **** /**
 279:Generated_Source\PSoC6\pdl\drivers\peripheral\usbfs/cy_usbfs_dev_drv_reg.h **** * \addtogroup group_usbfs_drv_drv_reg_interrupt_sources
 280:Generated_Source\PSoC6\pdl\drivers\peripheral\usbfs/cy_usbfs_dev_drv_reg.h **** * \{
 281:Generated_Source\PSoC6\pdl\drivers\peripheral\usbfs/cy_usbfs_dev_drv_reg.h **** */
ARM GAS  C:\Users\enes_\AppData\Local\Temp\cc97b4k1.s 			page 8


 282:Generated_Source\PSoC6\pdl\drivers\peripheral\usbfs/cy_usbfs_dev_drv_reg.h **** 
 283:Generated_Source\PSoC6\pdl\drivers\peripheral\usbfs/cy_usbfs_dev_drv_reg.h **** /*******************************************************************************
 284:Generated_Source\PSoC6\pdl\drivers\peripheral\usbfs/cy_usbfs_dev_drv_reg.h **** * Function Name: Cy_USBFS_Dev_Drv_GetSieInterruptStatus
 285:Generated_Source\PSoC6\pdl\drivers\peripheral\usbfs/cy_usbfs_dev_drv_reg.h **** ****************************************************************************//**
 286:Generated_Source\PSoC6\pdl\drivers\peripheral\usbfs/cy_usbfs_dev_drv_reg.h **** *
 287:Generated_Source\PSoC6\pdl\drivers\peripheral\usbfs/cy_usbfs_dev_drv_reg.h **** * Returns the SIE interrupt request register.
 288:Generated_Source\PSoC6\pdl\drivers\peripheral\usbfs/cy_usbfs_dev_drv_reg.h **** * This register contains the current status of the SIE interrupt sources.
 289:Generated_Source\PSoC6\pdl\drivers\peripheral\usbfs/cy_usbfs_dev_drv_reg.h **** *
 290:Generated_Source\PSoC6\pdl\drivers\peripheral\usbfs/cy_usbfs_dev_drv_reg.h **** * \param base
 291:Generated_Source\PSoC6\pdl\drivers\peripheral\usbfs/cy_usbfs_dev_drv_reg.h **** * The pointer to the USBFS instance.
 292:Generated_Source\PSoC6\pdl\drivers\peripheral\usbfs/cy_usbfs_dev_drv_reg.h **** *
 293:Generated_Source\PSoC6\pdl\drivers\peripheral\usbfs/cy_usbfs_dev_drv_reg.h **** * \return
 294:Generated_Source\PSoC6\pdl\drivers\peripheral\usbfs/cy_usbfs_dev_drv_reg.h **** * The current status of the SIE interrupt sources.
 295:Generated_Source\PSoC6\pdl\drivers\peripheral\usbfs/cy_usbfs_dev_drv_reg.h **** * Each constant is a bit field value. The value returned may have multiple
 296:Generated_Source\PSoC6\pdl\drivers\peripheral\usbfs/cy_usbfs_dev_drv_reg.h **** * bits set to indicate the current status.
 297:Generated_Source\PSoC6\pdl\drivers\peripheral\usbfs/cy_usbfs_dev_drv_reg.h **** * See \ref group_usbfs_dev_drv_reg_macros_sie_intr for the set of constants.
 298:Generated_Source\PSoC6\pdl\drivers\peripheral\usbfs/cy_usbfs_dev_drv_reg.h **** *
 299:Generated_Source\PSoC6\pdl\drivers\peripheral\usbfs/cy_usbfs_dev_drv_reg.h **** *******************************************************************************/
 300:Generated_Source\PSoC6\pdl\drivers\peripheral\usbfs/cy_usbfs_dev_drv_reg.h **** __STATIC_INLINE uint32_t Cy_USBFS_Dev_Drv_GetSieInterruptStatus(USBFS_Type const *base)
 301:Generated_Source\PSoC6\pdl\drivers\peripheral\usbfs/cy_usbfs_dev_drv_reg.h **** {
 302:Generated_Source\PSoC6\pdl\drivers\peripheral\usbfs/cy_usbfs_dev_drv_reg.h ****     return USBFS_DEV_LPM_INTR_SIE(base);
 303:Generated_Source\PSoC6\pdl\drivers\peripheral\usbfs/cy_usbfs_dev_drv_reg.h **** }
 304:Generated_Source\PSoC6\pdl\drivers\peripheral\usbfs/cy_usbfs_dev_drv_reg.h **** 
 305:Generated_Source\PSoC6\pdl\drivers\peripheral\usbfs/cy_usbfs_dev_drv_reg.h **** 
 306:Generated_Source\PSoC6\pdl\drivers\peripheral\usbfs/cy_usbfs_dev_drv_reg.h **** /*******************************************************************************
 307:Generated_Source\PSoC6\pdl\drivers\peripheral\usbfs/cy_usbfs_dev_drv_reg.h **** * Function Name: Cy_USBFS_Dev_Drv_SetSieInterruptMask
 308:Generated_Source\PSoC6\pdl\drivers\peripheral\usbfs/cy_usbfs_dev_drv_reg.h **** ****************************************************************************//**
 309:Generated_Source\PSoC6\pdl\drivers\peripheral\usbfs/cy_usbfs_dev_drv_reg.h **** *
 310:Generated_Source\PSoC6\pdl\drivers\peripheral\usbfs/cy_usbfs_dev_drv_reg.h **** * Writes the SIE interrupt mask register.
 311:Generated_Source\PSoC6\pdl\drivers\peripheral\usbfs/cy_usbfs_dev_drv_reg.h **** * This register configures which bits from the SIE interrupt request register
 312:Generated_Source\PSoC6\pdl\drivers\peripheral\usbfs/cy_usbfs_dev_drv_reg.h **** * can trigger an interrupt event.
 313:Generated_Source\PSoC6\pdl\drivers\peripheral\usbfs/cy_usbfs_dev_drv_reg.h **** *
 314:Generated_Source\PSoC6\pdl\drivers\peripheral\usbfs/cy_usbfs_dev_drv_reg.h **** * \param base
 315:Generated_Source\PSoC6\pdl\drivers\peripheral\usbfs/cy_usbfs_dev_drv_reg.h **** * The pointer to the USBFS instance.
 316:Generated_Source\PSoC6\pdl\drivers\peripheral\usbfs/cy_usbfs_dev_drv_reg.h **** *
 317:Generated_Source\PSoC6\pdl\drivers\peripheral\usbfs/cy_usbfs_dev_drv_reg.h **** * \param mask
 318:Generated_Source\PSoC6\pdl\drivers\peripheral\usbfs/cy_usbfs_dev_drv_reg.h **** * Enabled SIE interrupt sources.
 319:Generated_Source\PSoC6\pdl\drivers\peripheral\usbfs/cy_usbfs_dev_drv_reg.h **** * See \ref group_usbfs_dev_drv_reg_macros_sie_intr for the set of constants.
 320:Generated_Source\PSoC6\pdl\drivers\peripheral\usbfs/cy_usbfs_dev_drv_reg.h **** *
 321:Generated_Source\PSoC6\pdl\drivers\peripheral\usbfs/cy_usbfs_dev_drv_reg.h **** *******************************************************************************/
 322:Generated_Source\PSoC6\pdl\drivers\peripheral\usbfs/cy_usbfs_dev_drv_reg.h **** __STATIC_INLINE void Cy_USBFS_Dev_Drv_SetSieInterruptMask(USBFS_Type *base, uint32_t mask)
 323:Generated_Source\PSoC6\pdl\drivers\peripheral\usbfs/cy_usbfs_dev_drv_reg.h **** {
 324:Generated_Source\PSoC6\pdl\drivers\peripheral\usbfs/cy_usbfs_dev_drv_reg.h ****     USBFS_DEV_LPM_INTR_SIE_MASK(base) = mask;
 325:Generated_Source\PSoC6\pdl\drivers\peripheral\usbfs/cy_usbfs_dev_drv_reg.h **** }
 326:Generated_Source\PSoC6\pdl\drivers\peripheral\usbfs/cy_usbfs_dev_drv_reg.h **** 
 327:Generated_Source\PSoC6\pdl\drivers\peripheral\usbfs/cy_usbfs_dev_drv_reg.h **** 
 328:Generated_Source\PSoC6\pdl\drivers\peripheral\usbfs/cy_usbfs_dev_drv_reg.h **** /*******************************************************************************
 329:Generated_Source\PSoC6\pdl\drivers\peripheral\usbfs/cy_usbfs_dev_drv_reg.h **** * Function Name: Cy_USBFS_Dev_Drv_GetSieInterruptMask
 330:Generated_Source\PSoC6\pdl\drivers\peripheral\usbfs/cy_usbfs_dev_drv_reg.h **** ****************************************************************************//**
 331:Generated_Source\PSoC6\pdl\drivers\peripheral\usbfs/cy_usbfs_dev_drv_reg.h **** *
 332:Generated_Source\PSoC6\pdl\drivers\peripheral\usbfs/cy_usbfs_dev_drv_reg.h **** * Returns the SIE interrupt mask register.
 333:Generated_Source\PSoC6\pdl\drivers\peripheral\usbfs/cy_usbfs_dev_drv_reg.h **** * This register specifies which bits from the SIE interrupt request register
 334:Generated_Source\PSoC6\pdl\drivers\peripheral\usbfs/cy_usbfs_dev_drv_reg.h **** * trigger can an interrupt event.
 335:Generated_Source\PSoC6\pdl\drivers\peripheral\usbfs/cy_usbfs_dev_drv_reg.h **** *
 336:Generated_Source\PSoC6\pdl\drivers\peripheral\usbfs/cy_usbfs_dev_drv_reg.h **** * \param base
 337:Generated_Source\PSoC6\pdl\drivers\peripheral\usbfs/cy_usbfs_dev_drv_reg.h **** * The pointer to the USBFS instance.
 338:Generated_Source\PSoC6\pdl\drivers\peripheral\usbfs/cy_usbfs_dev_drv_reg.h **** *
ARM GAS  C:\Users\enes_\AppData\Local\Temp\cc97b4k1.s 			page 9


 339:Generated_Source\PSoC6\pdl\drivers\peripheral\usbfs/cy_usbfs_dev_drv_reg.h **** * \return
 340:Generated_Source\PSoC6\pdl\drivers\peripheral\usbfs/cy_usbfs_dev_drv_reg.h **** * Enabled SIE interrupt sources.
 341:Generated_Source\PSoC6\pdl\drivers\peripheral\usbfs/cy_usbfs_dev_drv_reg.h **** * See \ref group_usbfs_dev_drv_reg_macros_sie_intr for the set of constants.
 342:Generated_Source\PSoC6\pdl\drivers\peripheral\usbfs/cy_usbfs_dev_drv_reg.h **** *
 343:Generated_Source\PSoC6\pdl\drivers\peripheral\usbfs/cy_usbfs_dev_drv_reg.h **** *******************************************************************************/
 344:Generated_Source\PSoC6\pdl\drivers\peripheral\usbfs/cy_usbfs_dev_drv_reg.h **** __STATIC_INLINE uint32_t Cy_USBFS_Dev_Drv_GetSieInterruptMask(USBFS_Type const *base)
 345:Generated_Source\PSoC6\pdl\drivers\peripheral\usbfs/cy_usbfs_dev_drv_reg.h **** {
 346:Generated_Source\PSoC6\pdl\drivers\peripheral\usbfs/cy_usbfs_dev_drv_reg.h ****     return USBFS_DEV_LPM_INTR_SIE_MASK(base);
 347:Generated_Source\PSoC6\pdl\drivers\peripheral\usbfs/cy_usbfs_dev_drv_reg.h **** }
 348:Generated_Source\PSoC6\pdl\drivers\peripheral\usbfs/cy_usbfs_dev_drv_reg.h **** 
 349:Generated_Source\PSoC6\pdl\drivers\peripheral\usbfs/cy_usbfs_dev_drv_reg.h **** 
 350:Generated_Source\PSoC6\pdl\drivers\peripheral\usbfs/cy_usbfs_dev_drv_reg.h **** /*******************************************************************************
 351:Generated_Source\PSoC6\pdl\drivers\peripheral\usbfs/cy_usbfs_dev_drv_reg.h **** * Function Name: Cy_USBFS_Dev_Drv_GetSieInterruptStatusMasked
 352:Generated_Source\PSoC6\pdl\drivers\peripheral\usbfs/cy_usbfs_dev_drv_reg.h **** ****************************************************************************//**
 353:Generated_Source\PSoC6\pdl\drivers\peripheral\usbfs/cy_usbfs_dev_drv_reg.h **** *
 354:Generated_Source\PSoC6\pdl\drivers\peripheral\usbfs/cy_usbfs_dev_drv_reg.h **** * Returns the SIE interrupt masked request register.
 355:Generated_Source\PSoC6\pdl\drivers\peripheral\usbfs/cy_usbfs_dev_drv_reg.h **** * This register contains a logical AND of corresponding bits from the SIE
 356:Generated_Source\PSoC6\pdl\drivers\peripheral\usbfs/cy_usbfs_dev_drv_reg.h **** * interrupt request and mask registers.
 357:Generated_Source\PSoC6\pdl\drivers\peripheral\usbfs/cy_usbfs_dev_drv_reg.h **** * This function is intended to be used in the interrupt service routine to
 358:Generated_Source\PSoC6\pdl\drivers\peripheral\usbfs/cy_usbfs_dev_drv_reg.h **** * identify which of the enabled SIE interrupt sources caused the interrupt
 359:Generated_Source\PSoC6\pdl\drivers\peripheral\usbfs/cy_usbfs_dev_drv_reg.h **** * event.
 360:Generated_Source\PSoC6\pdl\drivers\peripheral\usbfs/cy_usbfs_dev_drv_reg.h **** *
 361:Generated_Source\PSoC6\pdl\drivers\peripheral\usbfs/cy_usbfs_dev_drv_reg.h **** * \param base
 362:Generated_Source\PSoC6\pdl\drivers\peripheral\usbfs/cy_usbfs_dev_drv_reg.h **** * The pointer to the USBFS instance.
 363:Generated_Source\PSoC6\pdl\drivers\peripheral\usbfs/cy_usbfs_dev_drv_reg.h **** *
 364:Generated_Source\PSoC6\pdl\drivers\peripheral\usbfs/cy_usbfs_dev_drv_reg.h **** * \return
 365:Generated_Source\PSoC6\pdl\drivers\peripheral\usbfs/cy_usbfs_dev_drv_reg.h **** * The current status of enabled SIE interrupt sources.
 366:Generated_Source\PSoC6\pdl\drivers\peripheral\usbfs/cy_usbfs_dev_drv_reg.h **** * See \ref group_usbfs_dev_drv_reg_macros_sie_intr for the set of constants.
 367:Generated_Source\PSoC6\pdl\drivers\peripheral\usbfs/cy_usbfs_dev_drv_reg.h **** *
 368:Generated_Source\PSoC6\pdl\drivers\peripheral\usbfs/cy_usbfs_dev_drv_reg.h **** *******************************************************************************/
 369:Generated_Source\PSoC6\pdl\drivers\peripheral\usbfs/cy_usbfs_dev_drv_reg.h **** __STATIC_INLINE uint32_t Cy_USBFS_Dev_Drv_GetSieInterruptStatusMasked(USBFS_Type const *base)
 370:Generated_Source\PSoC6\pdl\drivers\peripheral\usbfs/cy_usbfs_dev_drv_reg.h **** {
 371:Generated_Source\PSoC6\pdl\drivers\peripheral\usbfs/cy_usbfs_dev_drv_reg.h ****     return USBFS_DEV_LPM_INTR_SIE_MASKED(base);
 372:Generated_Source\PSoC6\pdl\drivers\peripheral\usbfs/cy_usbfs_dev_drv_reg.h **** }
 373:Generated_Source\PSoC6\pdl\drivers\peripheral\usbfs/cy_usbfs_dev_drv_reg.h **** 
 374:Generated_Source\PSoC6\pdl\drivers\peripheral\usbfs/cy_usbfs_dev_drv_reg.h **** 
 375:Generated_Source\PSoC6\pdl\drivers\peripheral\usbfs/cy_usbfs_dev_drv_reg.h **** /*******************************************************************************
 376:Generated_Source\PSoC6\pdl\drivers\peripheral\usbfs/cy_usbfs_dev_drv_reg.h **** * Function Name: Cy_USBFS_Dev_Drv_ClearSieInterrupt
 377:Generated_Source\PSoC6\pdl\drivers\peripheral\usbfs/cy_usbfs_dev_drv_reg.h **** ****************************************************************************//**
 378:Generated_Source\PSoC6\pdl\drivers\peripheral\usbfs/cy_usbfs_dev_drv_reg.h **** *
 379:Generated_Source\PSoC6\pdl\drivers\peripheral\usbfs/cy_usbfs_dev_drv_reg.h **** * Clears the SIE interrupt sources in the interrupt request register.
 380:Generated_Source\PSoC6\pdl\drivers\peripheral\usbfs/cy_usbfs_dev_drv_reg.h **** *
 381:Generated_Source\PSoC6\pdl\drivers\peripheral\usbfs/cy_usbfs_dev_drv_reg.h **** * \param base
 382:Generated_Source\PSoC6\pdl\drivers\peripheral\usbfs/cy_usbfs_dev_drv_reg.h **** * The pointer to the USBFS instance.
 383:Generated_Source\PSoC6\pdl\drivers\peripheral\usbfs/cy_usbfs_dev_drv_reg.h **** *
 384:Generated_Source\PSoC6\pdl\drivers\peripheral\usbfs/cy_usbfs_dev_drv_reg.h **** * \param mask
 385:Generated_Source\PSoC6\pdl\drivers\peripheral\usbfs/cy_usbfs_dev_drv_reg.h **** * The SIE interrupt sources to be cleared.
 386:Generated_Source\PSoC6\pdl\drivers\peripheral\usbfs/cy_usbfs_dev_drv_reg.h **** * See \ref group_usbfs_dev_drv_reg_macros_sie_intr for the set of constants.
 387:Generated_Source\PSoC6\pdl\drivers\peripheral\usbfs/cy_usbfs_dev_drv_reg.h **** *
 388:Generated_Source\PSoC6\pdl\drivers\peripheral\usbfs/cy_usbfs_dev_drv_reg.h **** *******************************************************************************/
 389:Generated_Source\PSoC6\pdl\drivers\peripheral\usbfs/cy_usbfs_dev_drv_reg.h **** __STATIC_INLINE void Cy_USBFS_Dev_Drv_ClearSieInterrupt(USBFS_Type *base, uint32_t mask)
 390:Generated_Source\PSoC6\pdl\drivers\peripheral\usbfs/cy_usbfs_dev_drv_reg.h **** {
 391:Generated_Source\PSoC6\pdl\drivers\peripheral\usbfs/cy_usbfs_dev_drv_reg.h ****     USBFS_DEV_LPM_INTR_SIE(base) = mask;
 392:Generated_Source\PSoC6\pdl\drivers\peripheral\usbfs/cy_usbfs_dev_drv_reg.h ****     (void) USBFS_DEV_LPM_INTR_SIE(base);
 393:Generated_Source\PSoC6\pdl\drivers\peripheral\usbfs/cy_usbfs_dev_drv_reg.h **** }
 394:Generated_Source\PSoC6\pdl\drivers\peripheral\usbfs/cy_usbfs_dev_drv_reg.h **** 
 395:Generated_Source\PSoC6\pdl\drivers\peripheral\usbfs/cy_usbfs_dev_drv_reg.h **** 
ARM GAS  C:\Users\enes_\AppData\Local\Temp\cc97b4k1.s 			page 10


 396:Generated_Source\PSoC6\pdl\drivers\peripheral\usbfs/cy_usbfs_dev_drv_reg.h **** /*******************************************************************************
 397:Generated_Source\PSoC6\pdl\drivers\peripheral\usbfs/cy_usbfs_dev_drv_reg.h **** * Function Name: Cy_USBFS_Dev_Drv_SetSieInterrupt
 398:Generated_Source\PSoC6\pdl\drivers\peripheral\usbfs/cy_usbfs_dev_drv_reg.h **** ****************************************************************************//**
 399:Generated_Source\PSoC6\pdl\drivers\peripheral\usbfs/cy_usbfs_dev_drv_reg.h **** *
 400:Generated_Source\PSoC6\pdl\drivers\peripheral\usbfs/cy_usbfs_dev_drv_reg.h **** * Sets the SIE interrupt sources in the interrupt request register.
 401:Generated_Source\PSoC6\pdl\drivers\peripheral\usbfs/cy_usbfs_dev_drv_reg.h **** *
 402:Generated_Source\PSoC6\pdl\drivers\peripheral\usbfs/cy_usbfs_dev_drv_reg.h **** * \param base
 403:Generated_Source\PSoC6\pdl\drivers\peripheral\usbfs/cy_usbfs_dev_drv_reg.h **** * The pointer to the USBFS instance.
 404:Generated_Source\PSoC6\pdl\drivers\peripheral\usbfs/cy_usbfs_dev_drv_reg.h **** *
 405:Generated_Source\PSoC6\pdl\drivers\peripheral\usbfs/cy_usbfs_dev_drv_reg.h **** * \param mask
 406:Generated_Source\PSoC6\pdl\drivers\peripheral\usbfs/cy_usbfs_dev_drv_reg.h **** * The SIE interrupt sources to be set in the SIE interrupt request register.
 407:Generated_Source\PSoC6\pdl\drivers\peripheral\usbfs/cy_usbfs_dev_drv_reg.h **** * See \ref group_usbfs_dev_drv_reg_macros_sie_intr for the set of constants.
 408:Generated_Source\PSoC6\pdl\drivers\peripheral\usbfs/cy_usbfs_dev_drv_reg.h **** *
 409:Generated_Source\PSoC6\pdl\drivers\peripheral\usbfs/cy_usbfs_dev_drv_reg.h **** *******************************************************************************/
 410:Generated_Source\PSoC6\pdl\drivers\peripheral\usbfs/cy_usbfs_dev_drv_reg.h **** __STATIC_INLINE void Cy_USBFS_Dev_Drv_SetSieInterrupt(USBFS_Type *base, uint32_t mask)
 411:Generated_Source\PSoC6\pdl\drivers\peripheral\usbfs/cy_usbfs_dev_drv_reg.h **** {
 412:Generated_Source\PSoC6\pdl\drivers\peripheral\usbfs/cy_usbfs_dev_drv_reg.h ****     USBFS_DEV_LPM_INTR_SIE_SET(base) = mask;
 413:Generated_Source\PSoC6\pdl\drivers\peripheral\usbfs/cy_usbfs_dev_drv_reg.h **** }
 414:Generated_Source\PSoC6\pdl\drivers\peripheral\usbfs/cy_usbfs_dev_drv_reg.h **** /** \} group_usbfs_drv_drv_reg_interrupt_sources */
 415:Generated_Source\PSoC6\pdl\drivers\peripheral\usbfs/cy_usbfs_dev_drv_reg.h **** 
 416:Generated_Source\PSoC6\pdl\drivers\peripheral\usbfs/cy_usbfs_dev_drv_reg.h **** 
 417:Generated_Source\PSoC6\pdl\drivers\peripheral\usbfs/cy_usbfs_dev_drv_reg.h **** /**
 418:Generated_Source\PSoC6\pdl\drivers\peripheral\usbfs/cy_usbfs_dev_drv_reg.h **** * \addtogroup group_usbfs_drv_drv_reg_sie_access
 419:Generated_Source\PSoC6\pdl\drivers\peripheral\usbfs/cy_usbfs_dev_drv_reg.h **** * \{
 420:Generated_Source\PSoC6\pdl\drivers\peripheral\usbfs/cy_usbfs_dev_drv_reg.h **** */
 421:Generated_Source\PSoC6\pdl\drivers\peripheral\usbfs/cy_usbfs_dev_drv_reg.h **** 
 422:Generated_Source\PSoC6\pdl\drivers\peripheral\usbfs/cy_usbfs_dev_drv_reg.h **** /*******************************************************************************
 423:Generated_Source\PSoC6\pdl\drivers\peripheral\usbfs/cy_usbfs_dev_drv_reg.h **** * Function Name: Cy_USBFS_Dev_Drv_SetSieEpMode
 424:Generated_Source\PSoC6\pdl\drivers\peripheral\usbfs/cy_usbfs_dev_drv_reg.h **** ****************************************************************************//**
 425:Generated_Source\PSoC6\pdl\drivers\peripheral\usbfs/cy_usbfs_dev_drv_reg.h **** *
 426:Generated_Source\PSoC6\pdl\drivers\peripheral\usbfs/cy_usbfs_dev_drv_reg.h **** * Sets SIE mode in the CR0 register of the endpoint (does not touch other bits). 
 427:Generated_Source\PSoC6\pdl\drivers\peripheral\usbfs/cy_usbfs_dev_drv_reg.h **** * All other bits except NAK_INT_EN are cleared by the hardware on any write 
 428:Generated_Source\PSoC6\pdl\drivers\peripheral\usbfs/cy_usbfs_dev_drv_reg.h **** * in the register.
 429:Generated_Source\PSoC6\pdl\drivers\peripheral\usbfs/cy_usbfs_dev_drv_reg.h **** *
 430:Generated_Source\PSoC6\pdl\drivers\peripheral\usbfs/cy_usbfs_dev_drv_reg.h **** * \param base
 431:Generated_Source\PSoC6\pdl\drivers\peripheral\usbfs/cy_usbfs_dev_drv_reg.h **** * The pointer to the USBFS instance.
 432:Generated_Source\PSoC6\pdl\drivers\peripheral\usbfs/cy_usbfs_dev_drv_reg.h **** *
 433:Generated_Source\PSoC6\pdl\drivers\peripheral\usbfs/cy_usbfs_dev_drv_reg.h **** * \param endpoint
 434:Generated_Source\PSoC6\pdl\drivers\peripheral\usbfs/cy_usbfs_dev_drv_reg.h **** * Physical endpoint number. 
 435:Generated_Source\PSoC6\pdl\drivers\peripheral\usbfs/cy_usbfs_dev_drv_reg.h **** * Valid range: 0 - ( \ref CY_USBFS_DEV_DRV_NUM_EPS_MAX - 1 ).
 436:Generated_Source\PSoC6\pdl\drivers\peripheral\usbfs/cy_usbfs_dev_drv_reg.h **** *
 437:Generated_Source\PSoC6\pdl\drivers\peripheral\usbfs/cy_usbfs_dev_drv_reg.h **** * \param mode
 438:Generated_Source\PSoC6\pdl\drivers\peripheral\usbfs/cy_usbfs_dev_drv_reg.h **** * SIE mode defines data endpoint response to Host request.
 439:Generated_Source\PSoC6\pdl\drivers\peripheral\usbfs/cy_usbfs_dev_drv_reg.h **** * See \ref group_usbfs_dev_drv_reg_macros_sie_mode for the set of constants.
 440:Generated_Source\PSoC6\pdl\drivers\peripheral\usbfs/cy_usbfs_dev_drv_reg.h **** *
 441:Generated_Source\PSoC6\pdl\drivers\peripheral\usbfs/cy_usbfs_dev_drv_reg.h **** *******************************************************************************/
 442:Generated_Source\PSoC6\pdl\drivers\peripheral\usbfs/cy_usbfs_dev_drv_reg.h **** __STATIC_INLINE void Cy_USBFS_Dev_Drv_SetSieEpMode(USBFS_Type *base, uint32_t endpoint, uint32_t mo
 443:Generated_Source\PSoC6\pdl\drivers\peripheral\usbfs/cy_usbfs_dev_drv_reg.h **** {
 444:Generated_Source\PSoC6\pdl\drivers\peripheral\usbfs/cy_usbfs_dev_drv_reg.h ****     USBFS_DEV_SIE_EP_CR0(base, endpoint) = _CLR_SET_FLD32U(USBFS_DEV_SIE_EP_CR0(base, endpoint),
  37              		.loc 2 444 0
  38 0000 00EB8110 		add	r0, r0, r1, lsl #6
  39              	.LVL1:
  40 0004 836B     		ldr	r3, [r0, #56]
  41 0006 23F00F03 		bic	r3, r3, #15
  42 000a 8363     		str	r3, [r0, #56]
 445:Generated_Source\PSoC6\pdl\drivers\peripheral\usbfs/cy_usbfs_dev_drv_reg.h ****                                                             USBFS_USBDEV_SIE_EP1_CR0_MODE, mode);
 446:Generated_Source\PSoC6\pdl\drivers\peripheral\usbfs/cy_usbfs_dev_drv_reg.h ****     (void) USBFS_DEV_SIE_EP_CR0(base, endpoint);
ARM GAS  C:\Users\enes_\AppData\Local\Temp\cc97b4k1.s 			page 11


  43              		.loc 2 446 0
  44 000c 836B     		ldr	r3, [r0, #56]
  45              	.LVL2:
  46              	.LBE108:
  47              	.LBE107:
  83:Generated_Source\PSoC6\pdl\drivers\peripheral\usbfs/cy_usbfs_dev_drv_io.c ****     /* Disable endpoint SIE mode and set appropriate state */
  84:Generated_Source\PSoC6\pdl\drivers\peripheral\usbfs/cy_usbfs_dev_drv_io.c ****     Cy_USBFS_Dev_Drv_SetSieEpMode(base, endpoint, CY_USBFS_DEV_DRV_EP_CR_DISABLE);
  85:Generated_Source\PSoC6\pdl\drivers\peripheral\usbfs/cy_usbfs_dev_drv_io.c ****     context->epPool[endpoint].state = CY_USB_DEV_EP_DISABLED;
  48              		.loc 1 85 0
  49 000e 2C23     		movs	r3, #44
  50 0010 03FB0122 		mla	r2, r3, r1, r2
  51              	.LVL3:
  52 0014 0423     		movs	r3, #4
  53 0016 82F84530 		strb	r3, [r2, #69]
  54 001a 7047     		bx	lr
  55              		.cfi_endproc
  56              	.LFE257:
  57              		.size	DisableEndpoint, .-DisableEndpoint
  58              		.section	.text.Cy_USBFS_Dev_Drv_ConfigDevice,"ax",%progbits
  59              		.align	2
  60              		.global	Cy_USBFS_Dev_Drv_ConfigDevice
  61              		.thumb
  62              		.thumb_func
  63              		.type	Cy_USBFS_Dev_Drv_ConfigDevice, %function
  64              	Cy_USBFS_Dev_Drv_ConfigDevice:
  65              	.LFB258:
  86:Generated_Source\PSoC6\pdl\drivers\peripheral\usbfs/cy_usbfs_dev_drv_io.c **** }
  87:Generated_Source\PSoC6\pdl\drivers\peripheral\usbfs/cy_usbfs_dev_drv_io.c **** 
  88:Generated_Source\PSoC6\pdl\drivers\peripheral\usbfs/cy_usbfs_dev_drv_io.c **** 
  89:Generated_Source\PSoC6\pdl\drivers\peripheral\usbfs/cy_usbfs_dev_drv_io.c **** /*******************************************************************************
  90:Generated_Source\PSoC6\pdl\drivers\peripheral\usbfs/cy_usbfs_dev_drv_io.c **** * Function Name: Cy_USBFS_Dev_Drv_ConfigDevice
  91:Generated_Source\PSoC6\pdl\drivers\peripheral\usbfs/cy_usbfs_dev_drv_io.c **** ****************************************************************************//**
  92:Generated_Source\PSoC6\pdl\drivers\peripheral\usbfs/cy_usbfs_dev_drv_io.c **** *
  93:Generated_Source\PSoC6\pdl\drivers\peripheral\usbfs/cy_usbfs_dev_drv_io.c **** * Set basic device configuration (clears previous configuration). 
  94:Generated_Source\PSoC6\pdl\drivers\peripheral\usbfs/cy_usbfs_dev_drv_io.c **** * Call this function before configuring endpoints for operation.
  95:Generated_Source\PSoC6\pdl\drivers\peripheral\usbfs/cy_usbfs_dev_drv_io.c **** *
  96:Generated_Source\PSoC6\pdl\drivers\peripheral\usbfs/cy_usbfs_dev_drv_io.c **** * \param base
  97:Generated_Source\PSoC6\pdl\drivers\peripheral\usbfs/cy_usbfs_dev_drv_io.c **** * The pointer to the USBFS instance.
  98:Generated_Source\PSoC6\pdl\drivers\peripheral\usbfs/cy_usbfs_dev_drv_io.c **** *
  99:Generated_Source\PSoC6\pdl\drivers\peripheral\usbfs/cy_usbfs_dev_drv_io.c **** * \param context
 100:Generated_Source\PSoC6\pdl\drivers\peripheral\usbfs/cy_usbfs_dev_drv_io.c **** * The pointer to the context structure \ref cy_stc_usbfs_dev_drv_context_t
 101:Generated_Source\PSoC6\pdl\drivers\peripheral\usbfs/cy_usbfs_dev_drv_io.c **** * allocated by the user. The structure is used during the USBFS Device 
 102:Generated_Source\PSoC6\pdl\drivers\peripheral\usbfs/cy_usbfs_dev_drv_io.c **** * operation for internal configuration and data retention. The user must not 
 103:Generated_Source\PSoC6\pdl\drivers\peripheral\usbfs/cy_usbfs_dev_drv_io.c **** * modify anything in this structure.
 104:Generated_Source\PSoC6\pdl\drivers\peripheral\usbfs/cy_usbfs_dev_drv_io.c **** *
 105:Generated_Source\PSoC6\pdl\drivers\peripheral\usbfs/cy_usbfs_dev_drv_io.c **** *******************************************************************************/
 106:Generated_Source\PSoC6\pdl\drivers\peripheral\usbfs/cy_usbfs_dev_drv_io.c **** void Cy_USBFS_Dev_Drv_ConfigDevice(USBFS_Type *base, cy_stc_usbfs_dev_drv_context_t *context)
 107:Generated_Source\PSoC6\pdl\drivers\peripheral\usbfs/cy_usbfs_dev_drv_io.c **** {
  66              		.loc 1 107 0
  67              		.cfi_startproc
  68              		@ args = 0, pretend = 0, frame = 0
  69              		@ frame_needed = 0, uses_anonymous_args = 0
  70              	.LVL4:
  71 0000 70B5     		push	{r4, r5, r6, lr}
  72              		.cfi_def_cfa_offset 16
  73              		.cfi_offset 4, -16
  74              		.cfi_offset 5, -12
ARM GAS  C:\Users\enes_\AppData\Local\Temp\cc97b4k1.s 			page 12


  75              		.cfi_offset 6, -8
  76              		.cfi_offset 14, -4
  77 0002 0546     		mov	r5, r0
  78 0004 0E46     		mov	r6, r1
 108:Generated_Source\PSoC6\pdl\drivers\peripheral\usbfs/cy_usbfs_dev_drv_io.c ****     uint32_t endpoint;
 109:Generated_Source\PSoC6\pdl\drivers\peripheral\usbfs/cy_usbfs_dev_drv_io.c **** 
 110:Generated_Source\PSoC6\pdl\drivers\peripheral\usbfs/cy_usbfs_dev_drv_io.c ****     /* Clear buffer pointer */
 111:Generated_Source\PSoC6\pdl\drivers\peripheral\usbfs/cy_usbfs_dev_drv_io.c ****     context->curBufAddr = 0U;
  79              		.loc 1 111 0
  80 0006 0024     		movs	r4, #0
  81 0008 CC86     		strh	r4, [r1, #54]	@ movhi
 112:Generated_Source\PSoC6\pdl\drivers\peripheral\usbfs/cy_usbfs_dev_drv_io.c **** 
 113:Generated_Source\PSoC6\pdl\drivers\peripheral\usbfs/cy_usbfs_dev_drv_io.c ****     /* Disable SIE and Arbiter interrupts */
 114:Generated_Source\PSoC6\pdl\drivers\peripheral\usbfs/cy_usbfs_dev_drv_io.c ****     USBFS_DEV_SIE_EP_INT_EN(base) = 0UL;
  82              		.loc 1 114 0
  83 000a 8462     		str	r4, [r0, #40]
 115:Generated_Source\PSoC6\pdl\drivers\peripheral\usbfs/cy_usbfs_dev_drv_io.c ****     USBFS_DEV_ARB_INT_EN(base)    = 0UL;
  84              		.loc 1 115 0
  85 000c C0F87842 		str	r4, [r0, #632]
  86              	.LVL5:
 116:Generated_Source\PSoC6\pdl\drivers\peripheral\usbfs/cy_usbfs_dev_drv_io.c **** 
 117:Generated_Source\PSoC6\pdl\drivers\peripheral\usbfs/cy_usbfs_dev_drv_io.c ****     /* Prepare endpoints for configuration */
 118:Generated_Source\PSoC6\pdl\drivers\peripheral\usbfs/cy_usbfs_dev_drv_io.c ****     for (endpoint = 0U; endpoint <  CY_USBFS_DEV_DRV_NUM_EPS_MAX; ++endpoint)
  87              		.loc 1 118 0
  88 0010 0AE0     		b	.L3
  89              	.LVL6:
  90              	.L4:
 119:Generated_Source\PSoC6\pdl\drivers\peripheral\usbfs/cy_usbfs_dev_drv_io.c ****     {
 120:Generated_Source\PSoC6\pdl\drivers\peripheral\usbfs/cy_usbfs_dev_drv_io.c ****         /* Disable endpoint operation */
 121:Generated_Source\PSoC6\pdl\drivers\peripheral\usbfs/cy_usbfs_dev_drv_io.c ****         DisableEndpoint(base, endpoint, context);
  91              		.loc 1 121 0 discriminator 3
  92 0012 3246     		mov	r2, r6
  93 0014 2146     		mov	r1, r4
  94 0016 2846     		mov	r0, r5
  95 0018 FFF7FEFF 		bl	DisableEndpoint
  96              	.LVL7:
  97              	.LBB109:
  98              	.LBB110:
 447:Generated_Source\PSoC6\pdl\drivers\peripheral\usbfs/cy_usbfs_dev_drv_reg.h **** }
 448:Generated_Source\PSoC6\pdl\drivers\peripheral\usbfs/cy_usbfs_dev_drv_reg.h **** 
 449:Generated_Source\PSoC6\pdl\drivers\peripheral\usbfs/cy_usbfs_dev_drv_reg.h **** 
 450:Generated_Source\PSoC6\pdl\drivers\peripheral\usbfs/cy_usbfs_dev_drv_reg.h **** /*******************************************************************************
 451:Generated_Source\PSoC6\pdl\drivers\peripheral\usbfs/cy_usbfs_dev_drv_reg.h **** * Function Name: Cy_USBFS_Dev_Drv_GetSieEpMode
 452:Generated_Source\PSoC6\pdl\drivers\peripheral\usbfs/cy_usbfs_dev_drv_reg.h **** ****************************************************************************//**
 453:Generated_Source\PSoC6\pdl\drivers\peripheral\usbfs/cy_usbfs_dev_drv_reg.h **** *
 454:Generated_Source\PSoC6\pdl\drivers\peripheral\usbfs/cy_usbfs_dev_drv_reg.h **** * Returns SIE mode in the CR0 register of the endpoint.
 455:Generated_Source\PSoC6\pdl\drivers\peripheral\usbfs/cy_usbfs_dev_drv_reg.h **** *
 456:Generated_Source\PSoC6\pdl\drivers\peripheral\usbfs/cy_usbfs_dev_drv_reg.h **** * \param base
 457:Generated_Source\PSoC6\pdl\drivers\peripheral\usbfs/cy_usbfs_dev_drv_reg.h **** * The pointer to the USBFS instance.
 458:Generated_Source\PSoC6\pdl\drivers\peripheral\usbfs/cy_usbfs_dev_drv_reg.h **** *
 459:Generated_Source\PSoC6\pdl\drivers\peripheral\usbfs/cy_usbfs_dev_drv_reg.h **** * \param endpoint
 460:Generated_Source\PSoC6\pdl\drivers\peripheral\usbfs/cy_usbfs_dev_drv_reg.h **** * Physical endpoint number. 
 461:Generated_Source\PSoC6\pdl\drivers\peripheral\usbfs/cy_usbfs_dev_drv_reg.h **** * Valid range: 0 - ( \ref CY_USBFS_DEV_DRV_NUM_EPS_MAX - 1 ).
 462:Generated_Source\PSoC6\pdl\drivers\peripheral\usbfs/cy_usbfs_dev_drv_reg.h **** *
 463:Generated_Source\PSoC6\pdl\drivers\peripheral\usbfs/cy_usbfs_dev_drv_reg.h **** * \return
 464:Generated_Source\PSoC6\pdl\drivers\peripheral\usbfs/cy_usbfs_dev_drv_reg.h **** * SIE mode (defines data endpoint response to host request).
 465:Generated_Source\PSoC6\pdl\drivers\peripheral\usbfs/cy_usbfs_dev_drv_reg.h **** * See \ref group_usbfs_dev_drv_reg_macros_sie_mode for the set of constants.
ARM GAS  C:\Users\enes_\AppData\Local\Temp\cc97b4k1.s 			page 13


 466:Generated_Source\PSoC6\pdl\drivers\peripheral\usbfs/cy_usbfs_dev_drv_reg.h **** *
 467:Generated_Source\PSoC6\pdl\drivers\peripheral\usbfs/cy_usbfs_dev_drv_reg.h **** *******************************************************************************/
 468:Generated_Source\PSoC6\pdl\drivers\peripheral\usbfs/cy_usbfs_dev_drv_reg.h **** __STATIC_INLINE uint32_t Cy_USBFS_Dev_Drv_GetSieEpMode(USBFS_Type const *base, uint32_t endpoint)
 469:Generated_Source\PSoC6\pdl\drivers\peripheral\usbfs/cy_usbfs_dev_drv_reg.h **** {
 470:Generated_Source\PSoC6\pdl\drivers\peripheral\usbfs/cy_usbfs_dev_drv_reg.h ****     return (USBFS_DEV_SIE_EP_CR0(base, endpoint) & USBFS_USBDEV_SIE_EP1_CR0_MODE_Msk);
 471:Generated_Source\PSoC6\pdl\drivers\peripheral\usbfs/cy_usbfs_dev_drv_reg.h **** }
 472:Generated_Source\PSoC6\pdl\drivers\peripheral\usbfs/cy_usbfs_dev_drv_reg.h **** 
 473:Generated_Source\PSoC6\pdl\drivers\peripheral\usbfs/cy_usbfs_dev_drv_reg.h **** 
 474:Generated_Source\PSoC6\pdl\drivers\peripheral\usbfs/cy_usbfs_dev_drv_reg.h **** /*******************************************************************************
 475:Generated_Source\PSoC6\pdl\drivers\peripheral\usbfs/cy_usbfs_dev_drv_reg.h **** * Function Name: Cy_USBFS_Dev_Drv_SetSieEpStall
 476:Generated_Source\PSoC6\pdl\drivers\peripheral\usbfs/cy_usbfs_dev_drv_reg.h **** ****************************************************************************//**
 477:Generated_Source\PSoC6\pdl\drivers\peripheral\usbfs/cy_usbfs_dev_drv_reg.h **** *
 478:Generated_Source\PSoC6\pdl\drivers\peripheral\usbfs/cy_usbfs_dev_drv_reg.h **** * Configures endpoint to STALL requests.
 479:Generated_Source\PSoC6\pdl\drivers\peripheral\usbfs/cy_usbfs_dev_drv_reg.h **** *
 480:Generated_Source\PSoC6\pdl\drivers\peripheral\usbfs/cy_usbfs_dev_drv_reg.h **** * \param base
 481:Generated_Source\PSoC6\pdl\drivers\peripheral\usbfs/cy_usbfs_dev_drv_reg.h **** * The pointer to the USBFS instance.
 482:Generated_Source\PSoC6\pdl\drivers\peripheral\usbfs/cy_usbfs_dev_drv_reg.h **** *
 483:Generated_Source\PSoC6\pdl\drivers\peripheral\usbfs/cy_usbfs_dev_drv_reg.h **** * \param inDirection
 484:Generated_Source\PSoC6\pdl\drivers\peripheral\usbfs/cy_usbfs_dev_drv_reg.h **** *  Defines whether endpoint direction is IN (true) or OUT (false).
 485:Generated_Source\PSoC6\pdl\drivers\peripheral\usbfs/cy_usbfs_dev_drv_reg.h **** *
 486:Generated_Source\PSoC6\pdl\drivers\peripheral\usbfs/cy_usbfs_dev_drv_reg.h **** * \param endpoint
 487:Generated_Source\PSoC6\pdl\drivers\peripheral\usbfs/cy_usbfs_dev_drv_reg.h **** * Physical endpoint number. 
 488:Generated_Source\PSoC6\pdl\drivers\peripheral\usbfs/cy_usbfs_dev_drv_reg.h **** * Valid range: 0 - ( \ref CY_USBFS_DEV_DRV_NUM_EPS_MAX - 1 ).
 489:Generated_Source\PSoC6\pdl\drivers\peripheral\usbfs/cy_usbfs_dev_drv_reg.h **** *
 490:Generated_Source\PSoC6\pdl\drivers\peripheral\usbfs/cy_usbfs_dev_drv_reg.h **** *******************************************************************************/
 491:Generated_Source\PSoC6\pdl\drivers\peripheral\usbfs/cy_usbfs_dev_drv_reg.h **** __STATIC_INLINE void Cy_USBFS_Dev_Drv_SetSieEpStall(USBFS_Type *base, bool inDirection, uint32_t en
 492:Generated_Source\PSoC6\pdl\drivers\peripheral\usbfs/cy_usbfs_dev_drv_reg.h **** {
 493:Generated_Source\PSoC6\pdl\drivers\peripheral\usbfs/cy_usbfs_dev_drv_reg.h ****     /* STALL endpoint */
 494:Generated_Source\PSoC6\pdl\drivers\peripheral\usbfs/cy_usbfs_dev_drv_reg.h ****     USBFS_DEV_SIE_EP_CR0(base, endpoint) = USBFS_USBDEV_SIE_EP1_CR0_STALL_Msk | 
 495:Generated_Source\PSoC6\pdl\drivers\peripheral\usbfs/cy_usbfs_dev_drv_reg.h ****                                             (inDirection ? CY_USBFS_DEV_DRV_EP_CR_ACK_IN : 
 496:Generated_Source\PSoC6\pdl\drivers\peripheral\usbfs/cy_usbfs_dev_drv_reg.h ****                                                            CY_USBFS_DEV_DRV_EP_CR_ACK_OUT);
 497:Generated_Source\PSoC6\pdl\drivers\peripheral\usbfs/cy_usbfs_dev_drv_reg.h ****     (void) USBFS_DEV_SIE_EP_CR0(base, endpoint);
 498:Generated_Source\PSoC6\pdl\drivers\peripheral\usbfs/cy_usbfs_dev_drv_reg.h **** }
 499:Generated_Source\PSoC6\pdl\drivers\peripheral\usbfs/cy_usbfs_dev_drv_reg.h **** 
 500:Generated_Source\PSoC6\pdl\drivers\peripheral\usbfs/cy_usbfs_dev_drv_reg.h **** 
 501:Generated_Source\PSoC6\pdl\drivers\peripheral\usbfs/cy_usbfs_dev_drv_reg.h **** /*******************************************************************************
 502:Generated_Source\PSoC6\pdl\drivers\peripheral\usbfs/cy_usbfs_dev_drv_reg.h **** * Function Name: Cy_USBFS_Dev_Drv_ClearSieEpStall
 503:Generated_Source\PSoC6\pdl\drivers\peripheral\usbfs/cy_usbfs_dev_drv_reg.h **** ****************************************************************************//**
 504:Generated_Source\PSoC6\pdl\drivers\peripheral\usbfs/cy_usbfs_dev_drv_reg.h **** *
 505:Generated_Source\PSoC6\pdl\drivers\peripheral\usbfs/cy_usbfs_dev_drv_reg.h **** * Writes SIE mode register of the data endpoint and clears other bits in this
 506:Generated_Source\PSoC6\pdl\drivers\peripheral\usbfs/cy_usbfs_dev_drv_reg.h **** * register.
 507:Generated_Source\PSoC6\pdl\drivers\peripheral\usbfs/cy_usbfs_dev_drv_reg.h **** *
 508:Generated_Source\PSoC6\pdl\drivers\peripheral\usbfs/cy_usbfs_dev_drv_reg.h **** * \param base
 509:Generated_Source\PSoC6\pdl\drivers\peripheral\usbfs/cy_usbfs_dev_drv_reg.h **** * The pointer to the USBFS instance.
 510:Generated_Source\PSoC6\pdl\drivers\peripheral\usbfs/cy_usbfs_dev_drv_reg.h **** *
 511:Generated_Source\PSoC6\pdl\drivers\peripheral\usbfs/cy_usbfs_dev_drv_reg.h **** * \param endpoint
 512:Generated_Source\PSoC6\pdl\drivers\peripheral\usbfs/cy_usbfs_dev_drv_reg.h **** * Physical endpoint number. 
 513:Generated_Source\PSoC6\pdl\drivers\peripheral\usbfs/cy_usbfs_dev_drv_reg.h **** * Valid range: 0 - ( \ref CY_USBFS_DEV_DRV_NUM_EPS_MAX - 1 ).
 514:Generated_Source\PSoC6\pdl\drivers\peripheral\usbfs/cy_usbfs_dev_drv_reg.h **** *
 515:Generated_Source\PSoC6\pdl\drivers\peripheral\usbfs/cy_usbfs_dev_drv_reg.h **** * \param mode
 516:Generated_Source\PSoC6\pdl\drivers\peripheral\usbfs/cy_usbfs_dev_drv_reg.h **** * SIE mode defines data endpoint response to host request.
 517:Generated_Source\PSoC6\pdl\drivers\peripheral\usbfs/cy_usbfs_dev_drv_reg.h **** * See \ref group_usbfs_dev_drv_reg_macros_sie_mode for the set of constants.
 518:Generated_Source\PSoC6\pdl\drivers\peripheral\usbfs/cy_usbfs_dev_drv_reg.h **** *
 519:Generated_Source\PSoC6\pdl\drivers\peripheral\usbfs/cy_usbfs_dev_drv_reg.h **** *******************************************************************************/
 520:Generated_Source\PSoC6\pdl\drivers\peripheral\usbfs/cy_usbfs_dev_drv_reg.h **** __STATIC_INLINE void Cy_USBFS_Dev_Drv_ClearSieEpStall(USBFS_Type *base, uint32_t endpoint, uint32_t
 521:Generated_Source\PSoC6\pdl\drivers\peripheral\usbfs/cy_usbfs_dev_drv_reg.h **** {
 522:Generated_Source\PSoC6\pdl\drivers\peripheral\usbfs/cy_usbfs_dev_drv_reg.h ****     /* Set mode bits */
ARM GAS  C:\Users\enes_\AppData\Local\Temp\cc97b4k1.s 			page 14


 523:Generated_Source\PSoC6\pdl\drivers\peripheral\usbfs/cy_usbfs_dev_drv_reg.h ****     uint32_t regVal = _CLR_SET_FLD32U(USBFS_DEV_SIE_EP_CR0(base, endpoint),
 524:Generated_Source\PSoC6\pdl\drivers\peripheral\usbfs/cy_usbfs_dev_drv_reg.h ****                                       USBFS_USBDEV_SIE_EP1_CR0_MODE, mode);
 525:Generated_Source\PSoC6\pdl\drivers\peripheral\usbfs/cy_usbfs_dev_drv_reg.h **** 
 526:Generated_Source\PSoC6\pdl\drivers\peripheral\usbfs/cy_usbfs_dev_drv_reg.h ****     /* Clear STALL condition */
 527:Generated_Source\PSoC6\pdl\drivers\peripheral\usbfs/cy_usbfs_dev_drv_reg.h ****     regVal &= ~USBFS_USBDEV_SIE_EP1_CR0_STALL_Msk;
 528:Generated_Source\PSoC6\pdl\drivers\peripheral\usbfs/cy_usbfs_dev_drv_reg.h **** 
 529:Generated_Source\PSoC6\pdl\drivers\peripheral\usbfs/cy_usbfs_dev_drv_reg.h ****     /* Clear STALL condition and set mode */
 530:Generated_Source\PSoC6\pdl\drivers\peripheral\usbfs/cy_usbfs_dev_drv_reg.h ****     USBFS_DEV_SIE_EP_CR0(base, endpoint) = regVal;
 531:Generated_Source\PSoC6\pdl\drivers\peripheral\usbfs/cy_usbfs_dev_drv_reg.h ****     (void) USBFS_DEV_SIE_EP_CR0(base, endpoint);
 532:Generated_Source\PSoC6\pdl\drivers\peripheral\usbfs/cy_usbfs_dev_drv_reg.h **** }
 533:Generated_Source\PSoC6\pdl\drivers\peripheral\usbfs/cy_usbfs_dev_drv_reg.h **** 
 534:Generated_Source\PSoC6\pdl\drivers\peripheral\usbfs/cy_usbfs_dev_drv_reg.h **** 
 535:Generated_Source\PSoC6\pdl\drivers\peripheral\usbfs/cy_usbfs_dev_drv_reg.h **** /*******************************************************************************
 536:Generated_Source\PSoC6\pdl\drivers\peripheral\usbfs/cy_usbfs_dev_drv_reg.h **** * Function Name: Cy_USBFS_Dev_Drv_GetSieEpError
 537:Generated_Source\PSoC6\pdl\drivers\peripheral\usbfs/cy_usbfs_dev_drv_reg.h **** ****************************************************************************//**
 538:Generated_Source\PSoC6\pdl\drivers\peripheral\usbfs/cy_usbfs_dev_drv_reg.h **** *
 539:Generated_Source\PSoC6\pdl\drivers\peripheral\usbfs/cy_usbfs_dev_drv_reg.h **** * Returns value of data endpoint error in transaction bit.
 540:Generated_Source\PSoC6\pdl\drivers\peripheral\usbfs/cy_usbfs_dev_drv_reg.h **** *
 541:Generated_Source\PSoC6\pdl\drivers\peripheral\usbfs/cy_usbfs_dev_drv_reg.h **** * \param base
 542:Generated_Source\PSoC6\pdl\drivers\peripheral\usbfs/cy_usbfs_dev_drv_reg.h **** * The pointer to the USBFS instance.
 543:Generated_Source\PSoC6\pdl\drivers\peripheral\usbfs/cy_usbfs_dev_drv_reg.h **** *
 544:Generated_Source\PSoC6\pdl\drivers\peripheral\usbfs/cy_usbfs_dev_drv_reg.h **** * \param endpoint
 545:Generated_Source\PSoC6\pdl\drivers\peripheral\usbfs/cy_usbfs_dev_drv_reg.h **** * Physical endpoint number. 
 546:Generated_Source\PSoC6\pdl\drivers\peripheral\usbfs/cy_usbfs_dev_drv_reg.h **** * Valid range: 0 - ( \ref CY_USBFS_DEV_DRV_NUM_EPS_MAX - 1 ).
 547:Generated_Source\PSoC6\pdl\drivers\peripheral\usbfs/cy_usbfs_dev_drv_reg.h **** *
 548:Generated_Source\PSoC6\pdl\drivers\peripheral\usbfs/cy_usbfs_dev_drv_reg.h **** * \return
 549:Generated_Source\PSoC6\pdl\drivers\peripheral\usbfs/cy_usbfs_dev_drv_reg.h **** * Value of data endpoint error in transaction bit.
 550:Generated_Source\PSoC6\pdl\drivers\peripheral\usbfs/cy_usbfs_dev_drv_reg.h **** *
 551:Generated_Source\PSoC6\pdl\drivers\peripheral\usbfs/cy_usbfs_dev_drv_reg.h **** *******************************************************************************/
 552:Generated_Source\PSoC6\pdl\drivers\peripheral\usbfs/cy_usbfs_dev_drv_reg.h **** __STATIC_INLINE uint32_t Cy_USBFS_Dev_Drv_GetSieEpError(USBFS_Type const *base, uint32_t endpoint)
 553:Generated_Source\PSoC6\pdl\drivers\peripheral\usbfs/cy_usbfs_dev_drv_reg.h **** {
 554:Generated_Source\PSoC6\pdl\drivers\peripheral\usbfs/cy_usbfs_dev_drv_reg.h ****     return (USBFS_DEV_SIE_EP_CR0(base, endpoint) & USBFS_USBDEV_SIE_EP1_CR0_ERR_IN_TXN_Msk);
 555:Generated_Source\PSoC6\pdl\drivers\peripheral\usbfs/cy_usbfs_dev_drv_reg.h **** }
 556:Generated_Source\PSoC6\pdl\drivers\peripheral\usbfs/cy_usbfs_dev_drv_reg.h **** 
 557:Generated_Source\PSoC6\pdl\drivers\peripheral\usbfs/cy_usbfs_dev_drv_reg.h **** 
 558:Generated_Source\PSoC6\pdl\drivers\peripheral\usbfs/cy_usbfs_dev_drv_reg.h **** /*******************************************************************************
 559:Generated_Source\PSoC6\pdl\drivers\peripheral\usbfs/cy_usbfs_dev_drv_reg.h **** * Function Name: Cy_USBFS_Dev_Drv_GetSieEpToggle
 560:Generated_Source\PSoC6\pdl\drivers\peripheral\usbfs/cy_usbfs_dev_drv_reg.h **** ****************************************************************************//**
 561:Generated_Source\PSoC6\pdl\drivers\peripheral\usbfs/cy_usbfs_dev_drv_reg.h **** *
 562:Generated_Source\PSoC6\pdl\drivers\peripheral\usbfs/cy_usbfs_dev_drv_reg.h **** * Returns current value of data endpoint toggle bit.
 563:Generated_Source\PSoC6\pdl\drivers\peripheral\usbfs/cy_usbfs_dev_drv_reg.h **** *
 564:Generated_Source\PSoC6\pdl\drivers\peripheral\usbfs/cy_usbfs_dev_drv_reg.h **** * \param base
 565:Generated_Source\PSoC6\pdl\drivers\peripheral\usbfs/cy_usbfs_dev_drv_reg.h **** * The pointer to the USBFS instance.
 566:Generated_Source\PSoC6\pdl\drivers\peripheral\usbfs/cy_usbfs_dev_drv_reg.h **** *
 567:Generated_Source\PSoC6\pdl\drivers\peripheral\usbfs/cy_usbfs_dev_drv_reg.h **** * \param endpoint
 568:Generated_Source\PSoC6\pdl\drivers\peripheral\usbfs/cy_usbfs_dev_drv_reg.h **** * Physical endpoint number. 
 569:Generated_Source\PSoC6\pdl\drivers\peripheral\usbfs/cy_usbfs_dev_drv_reg.h **** * Valid range: 0 - ( \ref CY_USBFS_DEV_DRV_NUM_EPS_MAX - 1 ).
 570:Generated_Source\PSoC6\pdl\drivers\peripheral\usbfs/cy_usbfs_dev_drv_reg.h **** *
 571:Generated_Source\PSoC6\pdl\drivers\peripheral\usbfs/cy_usbfs_dev_drv_reg.h **** * \return
 572:Generated_Source\PSoC6\pdl\drivers\peripheral\usbfs/cy_usbfs_dev_drv_reg.h **** * Value of data endpoint toggle bit.
 573:Generated_Source\PSoC6\pdl\drivers\peripheral\usbfs/cy_usbfs_dev_drv_reg.h **** *
 574:Generated_Source\PSoC6\pdl\drivers\peripheral\usbfs/cy_usbfs_dev_drv_reg.h **** *******************************************************************************/
 575:Generated_Source\PSoC6\pdl\drivers\peripheral\usbfs/cy_usbfs_dev_drv_reg.h **** __STATIC_INLINE uint32_t Cy_USBFS_Dev_Drv_GetSieEpToggle(USBFS_Type const *base, uint32_t endpoint)
 576:Generated_Source\PSoC6\pdl\drivers\peripheral\usbfs/cy_usbfs_dev_drv_reg.h **** {
 577:Generated_Source\PSoC6\pdl\drivers\peripheral\usbfs/cy_usbfs_dev_drv_reg.h ****     /* Return data toggle bit */
 578:Generated_Source\PSoC6\pdl\drivers\peripheral\usbfs/cy_usbfs_dev_drv_reg.h ****     return (USBFS_DEV_SIE_EP_CNT0(base, endpoint) & USBFS_USBDEV_SIE_EP1_CNT0_DATA_TOGGLE_Msk);
 579:Generated_Source\PSoC6\pdl\drivers\peripheral\usbfs/cy_usbfs_dev_drv_reg.h **** }
ARM GAS  C:\Users\enes_\AppData\Local\Temp\cc97b4k1.s 			page 15


 580:Generated_Source\PSoC6\pdl\drivers\peripheral\usbfs/cy_usbfs_dev_drv_reg.h **** 
 581:Generated_Source\PSoC6\pdl\drivers\peripheral\usbfs/cy_usbfs_dev_drv_reg.h **** 
 582:Generated_Source\PSoC6\pdl\drivers\peripheral\usbfs/cy_usbfs_dev_drv_reg.h **** /*******************************************************************************
 583:Generated_Source\PSoC6\pdl\drivers\peripheral\usbfs/cy_usbfs_dev_drv_reg.h **** * Function Name: Cy_USBFS_Dev_Drv_ClearSieEpToggle
 584:Generated_Source\PSoC6\pdl\drivers\peripheral\usbfs/cy_usbfs_dev_drv_reg.h **** ****************************************************************************//**
 585:Generated_Source\PSoC6\pdl\drivers\peripheral\usbfs/cy_usbfs_dev_drv_reg.h **** *
 586:Generated_Source\PSoC6\pdl\drivers\peripheral\usbfs/cy_usbfs_dev_drv_reg.h **** * Resets to zero data endpoint toggle bit.
 587:Generated_Source\PSoC6\pdl\drivers\peripheral\usbfs/cy_usbfs_dev_drv_reg.h **** *
 588:Generated_Source\PSoC6\pdl\drivers\peripheral\usbfs/cy_usbfs_dev_drv_reg.h **** * \param base
 589:Generated_Source\PSoC6\pdl\drivers\peripheral\usbfs/cy_usbfs_dev_drv_reg.h **** * The pointer to the USBFS instance.
 590:Generated_Source\PSoC6\pdl\drivers\peripheral\usbfs/cy_usbfs_dev_drv_reg.h **** *
 591:Generated_Source\PSoC6\pdl\drivers\peripheral\usbfs/cy_usbfs_dev_drv_reg.h **** * \param endpoint
 592:Generated_Source\PSoC6\pdl\drivers\peripheral\usbfs/cy_usbfs_dev_drv_reg.h **** * Physical endpoint number. 
 593:Generated_Source\PSoC6\pdl\drivers\peripheral\usbfs/cy_usbfs_dev_drv_reg.h **** * Valid range: 0 - ( \ref CY_USBFS_DEV_DRV_NUM_EPS_MAX - 1 ).
 594:Generated_Source\PSoC6\pdl\drivers\peripheral\usbfs/cy_usbfs_dev_drv_reg.h **** *
 595:Generated_Source\PSoC6\pdl\drivers\peripheral\usbfs/cy_usbfs_dev_drv_reg.h **** * \return
 596:Generated_Source\PSoC6\pdl\drivers\peripheral\usbfs/cy_usbfs_dev_drv_reg.h **** * Number of bytes written by the host into the endpoint.
 597:Generated_Source\PSoC6\pdl\drivers\peripheral\usbfs/cy_usbfs_dev_drv_reg.h **** *
 598:Generated_Source\PSoC6\pdl\drivers\peripheral\usbfs/cy_usbfs_dev_drv_reg.h **** *******************************************************************************/
 599:Generated_Source\PSoC6\pdl\drivers\peripheral\usbfs/cy_usbfs_dev_drv_reg.h **** __STATIC_INLINE void Cy_USBFS_Dev_Drv_ClearSieEpToggle(USBFS_Type *base, uint32_t endpoint)
 600:Generated_Source\PSoC6\pdl\drivers\peripheral\usbfs/cy_usbfs_dev_drv_reg.h **** {
 601:Generated_Source\PSoC6\pdl\drivers\peripheral\usbfs/cy_usbfs_dev_drv_reg.h ****     /* Clear data toggle bit */
 602:Generated_Source\PSoC6\pdl\drivers\peripheral\usbfs/cy_usbfs_dev_drv_reg.h ****     USBFS_DEV_SIE_EP_CNT0(base, endpoint) &= ~USBFS_USBDEV_SIE_EP1_CNT0_DATA_TOGGLE_Msk;
 603:Generated_Source\PSoC6\pdl\drivers\peripheral\usbfs/cy_usbfs_dev_drv_reg.h **** }
 604:Generated_Source\PSoC6\pdl\drivers\peripheral\usbfs/cy_usbfs_dev_drv_reg.h **** 
 605:Generated_Source\PSoC6\pdl\drivers\peripheral\usbfs/cy_usbfs_dev_drv_reg.h **** 
 606:Generated_Source\PSoC6\pdl\drivers\peripheral\usbfs/cy_usbfs_dev_drv_reg.h **** /*******************************************************************************
 607:Generated_Source\PSoC6\pdl\drivers\peripheral\usbfs/cy_usbfs_dev_drv_reg.h **** * Function Name: Cy_USBFS_Dev_Drv_GetSieEpCount
 608:Generated_Source\PSoC6\pdl\drivers\peripheral\usbfs/cy_usbfs_dev_drv_reg.h **** ****************************************************************************//**
 609:Generated_Source\PSoC6\pdl\drivers\peripheral\usbfs/cy_usbfs_dev_drv_reg.h **** *
 610:Generated_Source\PSoC6\pdl\drivers\peripheral\usbfs/cy_usbfs_dev_drv_reg.h **** * Returns the number of data bytes written into the OUT data endpoint
 611:Generated_Source\PSoC6\pdl\drivers\peripheral\usbfs/cy_usbfs_dev_drv_reg.h **** * by the host.
 612:Generated_Source\PSoC6\pdl\drivers\peripheral\usbfs/cy_usbfs_dev_drv_reg.h **** *
 613:Generated_Source\PSoC6\pdl\drivers\peripheral\usbfs/cy_usbfs_dev_drv_reg.h **** * \param base
 614:Generated_Source\PSoC6\pdl\drivers\peripheral\usbfs/cy_usbfs_dev_drv_reg.h **** * The pointer to the USBFS instance.
 615:Generated_Source\PSoC6\pdl\drivers\peripheral\usbfs/cy_usbfs_dev_drv_reg.h **** *
 616:Generated_Source\PSoC6\pdl\drivers\peripheral\usbfs/cy_usbfs_dev_drv_reg.h **** * \param endpoint
 617:Generated_Source\PSoC6\pdl\drivers\peripheral\usbfs/cy_usbfs_dev_drv_reg.h **** * Physical endpoint number. 
 618:Generated_Source\PSoC6\pdl\drivers\peripheral\usbfs/cy_usbfs_dev_drv_reg.h **** * Valid range: 0 - ( \ref CY_USBFS_DEV_DRV_NUM_EPS_MAX - 1 ).
 619:Generated_Source\PSoC6\pdl\drivers\peripheral\usbfs/cy_usbfs_dev_drv_reg.h **** *
 620:Generated_Source\PSoC6\pdl\drivers\peripheral\usbfs/cy_usbfs_dev_drv_reg.h **** * \return
 621:Generated_Source\PSoC6\pdl\drivers\peripheral\usbfs/cy_usbfs_dev_drv_reg.h **** * Number of bytes written by the host into the endpoint.
 622:Generated_Source\PSoC6\pdl\drivers\peripheral\usbfs/cy_usbfs_dev_drv_reg.h **** *
 623:Generated_Source\PSoC6\pdl\drivers\peripheral\usbfs/cy_usbfs_dev_drv_reg.h **** *******************************************************************************/
 624:Generated_Source\PSoC6\pdl\drivers\peripheral\usbfs/cy_usbfs_dev_drv_reg.h **** __STATIC_INLINE uint32_t Cy_USBFS_Dev_Drv_GetSieEpCount(USBFS_Type const *base, uint32_t endpoint)
 625:Generated_Source\PSoC6\pdl\drivers\peripheral\usbfs/cy_usbfs_dev_drv_reg.h **** {
 626:Generated_Source\PSoC6\pdl\drivers\peripheral\usbfs/cy_usbfs_dev_drv_reg.h ****     uint32_t size;
 627:Generated_Source\PSoC6\pdl\drivers\peripheral\usbfs/cy_usbfs_dev_drv_reg.h **** 
 628:Generated_Source\PSoC6\pdl\drivers\peripheral\usbfs/cy_usbfs_dev_drv_reg.h ****     /* Get number of bytes transmitted or received by SIE */
 629:Generated_Source\PSoC6\pdl\drivers\peripheral\usbfs/cy_usbfs_dev_drv_reg.h ****     size = _FLD2VAL(USBFS_USBDEV_SIE_EP1_CNT0_DATA_COUNT_MSB, USBFS_DEV_SIE_EP_CNT0(base, endpoint)
 630:Generated_Source\PSoC6\pdl\drivers\peripheral\usbfs/cy_usbfs_dev_drv_reg.h ****     size = (size << 8U) | CY_USBFS_DEV_READ_ODD(USBFS_DEV_SIE_EP_CNT1(base, endpoint));
 631:Generated_Source\PSoC6\pdl\drivers\peripheral\usbfs/cy_usbfs_dev_drv_reg.h **** 
 632:Generated_Source\PSoC6\pdl\drivers\peripheral\usbfs/cy_usbfs_dev_drv_reg.h ****     /* Exclude CRC size */
 633:Generated_Source\PSoC6\pdl\drivers\peripheral\usbfs/cy_usbfs_dev_drv_reg.h ****     return (size - CY_USBFS_DEV_DRV_EP_CRC_SIZE);
 634:Generated_Source\PSoC6\pdl\drivers\peripheral\usbfs/cy_usbfs_dev_drv_reg.h **** }
 635:Generated_Source\PSoC6\pdl\drivers\peripheral\usbfs/cy_usbfs_dev_drv_reg.h **** 
 636:Generated_Source\PSoC6\pdl\drivers\peripheral\usbfs/cy_usbfs_dev_drv_reg.h **** 
ARM GAS  C:\Users\enes_\AppData\Local\Temp\cc97b4k1.s 			page 16


 637:Generated_Source\PSoC6\pdl\drivers\peripheral\usbfs/cy_usbfs_dev_drv_reg.h **** /*******************************************************************************
 638:Generated_Source\PSoC6\pdl\drivers\peripheral\usbfs/cy_usbfs_dev_drv_reg.h **** * Function Name: Cy_USBFS_Dev_Drv_SetSieEpCount
 639:Generated_Source\PSoC6\pdl\drivers\peripheral\usbfs/cy_usbfs_dev_drv_reg.h **** ****************************************************************************//**
 640:Generated_Source\PSoC6\pdl\drivers\peripheral\usbfs/cy_usbfs_dev_drv_reg.h **** *
 641:Generated_Source\PSoC6\pdl\drivers\peripheral\usbfs/cy_usbfs_dev_drv_reg.h **** * Configures number of bytes and toggle bit to return on the Host read request
 642:Generated_Source\PSoC6\pdl\drivers\peripheral\usbfs/cy_usbfs_dev_drv_reg.h **** * to the IN data endpoint.
 643:Generated_Source\PSoC6\pdl\drivers\peripheral\usbfs/cy_usbfs_dev_drv_reg.h **** *
 644:Generated_Source\PSoC6\pdl\drivers\peripheral\usbfs/cy_usbfs_dev_drv_reg.h **** * \param base
 645:Generated_Source\PSoC6\pdl\drivers\peripheral\usbfs/cy_usbfs_dev_drv_reg.h **** * The pointer to the USBFS instance.
 646:Generated_Source\PSoC6\pdl\drivers\peripheral\usbfs/cy_usbfs_dev_drv_reg.h **** *
 647:Generated_Source\PSoC6\pdl\drivers\peripheral\usbfs/cy_usbfs_dev_drv_reg.h **** * \param endpoint
 648:Generated_Source\PSoC6\pdl\drivers\peripheral\usbfs/cy_usbfs_dev_drv_reg.h **** * Physical endpoint number. 
 649:Generated_Source\PSoC6\pdl\drivers\peripheral\usbfs/cy_usbfs_dev_drv_reg.h **** * Valid range: 0 - ( \ref CY_USBFS_DEV_DRV_NUM_EPS_MAX - 1 ).
 650:Generated_Source\PSoC6\pdl\drivers\peripheral\usbfs/cy_usbfs_dev_drv_reg.h **** *
 651:Generated_Source\PSoC6\pdl\drivers\peripheral\usbfs/cy_usbfs_dev_drv_reg.h **** * \param count
 652:Generated_Source\PSoC6\pdl\drivers\peripheral\usbfs/cy_usbfs_dev_drv_reg.h **** * The number of bytes to return on the Host read request.
 653:Generated_Source\PSoC6\pdl\drivers\peripheral\usbfs/cy_usbfs_dev_drv_reg.h **** *
 654:Generated_Source\PSoC6\pdl\drivers\peripheral\usbfs/cy_usbfs_dev_drv_reg.h **** * \param toggle
 655:Generated_Source\PSoC6\pdl\drivers\peripheral\usbfs/cy_usbfs_dev_drv_reg.h **** * The data toggle bit.
 656:Generated_Source\PSoC6\pdl\drivers\peripheral\usbfs/cy_usbfs_dev_drv_reg.h **** * The range of valid values: 0 and \ref USBFS_USBDEV_SIE_EP_DATA_TOGGLE_Msk.
 657:Generated_Source\PSoC6\pdl\drivers\peripheral\usbfs/cy_usbfs_dev_drv_reg.h **** *
 658:Generated_Source\PSoC6\pdl\drivers\peripheral\usbfs/cy_usbfs_dev_drv_reg.h **** *******************************************************************************/
 659:Generated_Source\PSoC6\pdl\drivers\peripheral\usbfs/cy_usbfs_dev_drv_reg.h **** __STATIC_INLINE void Cy_USBFS_Dev_Drv_SetSieEpCount(USBFS_Type *base, uint32_t endpoint,
 660:Generated_Source\PSoC6\pdl\drivers\peripheral\usbfs/cy_usbfs_dev_drv_reg.h ****                                                     uint32_t count, uint32_t toggle)
 661:Generated_Source\PSoC6\pdl\drivers\peripheral\usbfs/cy_usbfs_dev_drv_reg.h **** {
 662:Generated_Source\PSoC6\pdl\drivers\peripheral\usbfs/cy_usbfs_dev_drv_reg.h ****     USBFS_DEV_SIE_EP_CNT1(base, endpoint) = (uint32_t) CY_USBFS_DEV_DRV_WRITE_ODD(CY_LO8(count));
 663:Generated_Source\PSoC6\pdl\drivers\peripheral\usbfs/cy_usbfs_dev_drv_reg.h ****     USBFS_DEV_SIE_EP_CNT0(base, endpoint) = (uint32_t) CY_HI8(count) | toggle;
 664:Generated_Source\PSoC6\pdl\drivers\peripheral\usbfs/cy_usbfs_dev_drv_reg.h **** }
 665:Generated_Source\PSoC6\pdl\drivers\peripheral\usbfs/cy_usbfs_dev_drv_reg.h **** 
 666:Generated_Source\PSoC6\pdl\drivers\peripheral\usbfs/cy_usbfs_dev_drv_reg.h **** 
 667:Generated_Source\PSoC6\pdl\drivers\peripheral\usbfs/cy_usbfs_dev_drv_reg.h **** /*******************************************************************************
 668:Generated_Source\PSoC6\pdl\drivers\peripheral\usbfs/cy_usbfs_dev_drv_reg.h **** * Function Name: Cy_USBFS_Dev_Drv_GetSieAllEpsInterruptStatus
 669:Generated_Source\PSoC6\pdl\drivers\peripheral\usbfs/cy_usbfs_dev_drv_reg.h **** ****************************************************************************//**
 670:Generated_Source\PSoC6\pdl\drivers\peripheral\usbfs/cy_usbfs_dev_drv_reg.h **** *
 671:Generated_Source\PSoC6\pdl\drivers\peripheral\usbfs/cy_usbfs_dev_drv_reg.h **** * Returns the SIE data endpoints interrupt request register.
 672:Generated_Source\PSoC6\pdl\drivers\peripheral\usbfs/cy_usbfs_dev_drv_reg.h **** * This register contains the current status of the SIE data endpoints transfer
 673:Generated_Source\PSoC6\pdl\drivers\peripheral\usbfs/cy_usbfs_dev_drv_reg.h **** * completion interrupt.
 674:Generated_Source\PSoC6\pdl\drivers\peripheral\usbfs/cy_usbfs_dev_drv_reg.h **** *
 675:Generated_Source\PSoC6\pdl\drivers\peripheral\usbfs/cy_usbfs_dev_drv_reg.h **** * \param base
 676:Generated_Source\PSoC6\pdl\drivers\peripheral\usbfs/cy_usbfs_dev_drv_reg.h **** * The pointer to the USBFS instance.
 677:Generated_Source\PSoC6\pdl\drivers\peripheral\usbfs/cy_usbfs_dev_drv_reg.h **** *
 678:Generated_Source\PSoC6\pdl\drivers\peripheral\usbfs/cy_usbfs_dev_drv_reg.h **** * \return
 679:Generated_Source\PSoC6\pdl\drivers\peripheral\usbfs/cy_usbfs_dev_drv_reg.h **** * The current status of the SIE interrupt sources.
 680:Generated_Source\PSoC6\pdl\drivers\peripheral\usbfs/cy_usbfs_dev_drv_reg.h **** * The returned status specifies for which endpoint interrupt is active as
 681:Generated_Source\PSoC6\pdl\drivers\peripheral\usbfs/cy_usbfs_dev_drv_reg.h **** * follows: bit 0 corresponds to data endpoint 1, bit 1 data endpoint 2 and so
 682:Generated_Source\PSoC6\pdl\drivers\peripheral\usbfs/cy_usbfs_dev_drv_reg.h **** * on up to \ref CY_USBFS_DEV_DRV_NUM_EPS_MAX.
 683:Generated_Source\PSoC6\pdl\drivers\peripheral\usbfs/cy_usbfs_dev_drv_reg.h **** *
 684:Generated_Source\PSoC6\pdl\drivers\peripheral\usbfs/cy_usbfs_dev_drv_reg.h **** *******************************************************************************/
 685:Generated_Source\PSoC6\pdl\drivers\peripheral\usbfs/cy_usbfs_dev_drv_reg.h **** __STATIC_INLINE uint32_t Cy_USBFS_Dev_Drv_GetSieAllEpsInterruptStatus(USBFS_Type const *base)
 686:Generated_Source\PSoC6\pdl\drivers\peripheral\usbfs/cy_usbfs_dev_drv_reg.h **** {
 687:Generated_Source\PSoC6\pdl\drivers\peripheral\usbfs/cy_usbfs_dev_drv_reg.h ****     return USBFS_DEV_SIE_EP_INT_SR(base);
 688:Generated_Source\PSoC6\pdl\drivers\peripheral\usbfs/cy_usbfs_dev_drv_reg.h **** }
 689:Generated_Source\PSoC6\pdl\drivers\peripheral\usbfs/cy_usbfs_dev_drv_reg.h **** 
 690:Generated_Source\PSoC6\pdl\drivers\peripheral\usbfs/cy_usbfs_dev_drv_reg.h **** 
 691:Generated_Source\PSoC6\pdl\drivers\peripheral\usbfs/cy_usbfs_dev_drv_reg.h **** /*******************************************************************************
 692:Generated_Source\PSoC6\pdl\drivers\peripheral\usbfs/cy_usbfs_dev_drv_reg.h **** * Function Name: Cy_USBFS_Dev_Drv_EnableSieEpInterrupt
 693:Generated_Source\PSoC6\pdl\drivers\peripheral\usbfs/cy_usbfs_dev_drv_reg.h **** ****************************************************************************//**
ARM GAS  C:\Users\enes_\AppData\Local\Temp\cc97b4k1.s 			page 17


 694:Generated_Source\PSoC6\pdl\drivers\peripheral\usbfs/cy_usbfs_dev_drv_reg.h **** *
 695:Generated_Source\PSoC6\pdl\drivers\peripheral\usbfs/cy_usbfs_dev_drv_reg.h **** * Enables SIE data endpoint transfer completion interrupt.
 696:Generated_Source\PSoC6\pdl\drivers\peripheral\usbfs/cy_usbfs_dev_drv_reg.h **** *
 697:Generated_Source\PSoC6\pdl\drivers\peripheral\usbfs/cy_usbfs_dev_drv_reg.h **** * \param base
 698:Generated_Source\PSoC6\pdl\drivers\peripheral\usbfs/cy_usbfs_dev_drv_reg.h **** * The pointer to the USBFS instance.
 699:Generated_Source\PSoC6\pdl\drivers\peripheral\usbfs/cy_usbfs_dev_drv_reg.h **** *
 700:Generated_Source\PSoC6\pdl\drivers\peripheral\usbfs/cy_usbfs_dev_drv_reg.h **** * \param endpoint
 701:Generated_Source\PSoC6\pdl\drivers\peripheral\usbfs/cy_usbfs_dev_drv_reg.h **** * Physical endpoint number. 
 702:Generated_Source\PSoC6\pdl\drivers\peripheral\usbfs/cy_usbfs_dev_drv_reg.h **** * Valid range: 0 - ( \ref CY_USBFS_DEV_DRV_NUM_EPS_MAX - 1 ).
 703:Generated_Source\PSoC6\pdl\drivers\peripheral\usbfs/cy_usbfs_dev_drv_reg.h **** *
 704:Generated_Source\PSoC6\pdl\drivers\peripheral\usbfs/cy_usbfs_dev_drv_reg.h **** *******************************************************************************/
 705:Generated_Source\PSoC6\pdl\drivers\peripheral\usbfs/cy_usbfs_dev_drv_reg.h **** __STATIC_INLINE void Cy_USBFS_Dev_Drv_EnableSieEpInterrupt(USBFS_Type *base, uint32_t endpoint)
 706:Generated_Source\PSoC6\pdl\drivers\peripheral\usbfs/cy_usbfs_dev_drv_reg.h **** {
 707:Generated_Source\PSoC6\pdl\drivers\peripheral\usbfs/cy_usbfs_dev_drv_reg.h ****     USBFS_DEV_SIE_EP_INT_EN(base) |= (uint32_t)(1UL << endpoint);
 708:Generated_Source\PSoC6\pdl\drivers\peripheral\usbfs/cy_usbfs_dev_drv_reg.h **** }
 709:Generated_Source\PSoC6\pdl\drivers\peripheral\usbfs/cy_usbfs_dev_drv_reg.h **** 
 710:Generated_Source\PSoC6\pdl\drivers\peripheral\usbfs/cy_usbfs_dev_drv_reg.h **** 
 711:Generated_Source\PSoC6\pdl\drivers\peripheral\usbfs/cy_usbfs_dev_drv_reg.h **** /*******************************************************************************
 712:Generated_Source\PSoC6\pdl\drivers\peripheral\usbfs/cy_usbfs_dev_drv_reg.h **** * Function Name: Cy_USBFS_Dev_Drv_DisableSieEpInterrupt
 713:Generated_Source\PSoC6\pdl\drivers\peripheral\usbfs/cy_usbfs_dev_drv_reg.h **** ****************************************************************************//**
 714:Generated_Source\PSoC6\pdl\drivers\peripheral\usbfs/cy_usbfs_dev_drv_reg.h **** *
 715:Generated_Source\PSoC6\pdl\drivers\peripheral\usbfs/cy_usbfs_dev_drv_reg.h **** * Disables SIE data endpoint transfer completion interrupt.
 716:Generated_Source\PSoC6\pdl\drivers\peripheral\usbfs/cy_usbfs_dev_drv_reg.h **** *
 717:Generated_Source\PSoC6\pdl\drivers\peripheral\usbfs/cy_usbfs_dev_drv_reg.h **** * \param base
 718:Generated_Source\PSoC6\pdl\drivers\peripheral\usbfs/cy_usbfs_dev_drv_reg.h **** * The pointer to the USBFS instance.
 719:Generated_Source\PSoC6\pdl\drivers\peripheral\usbfs/cy_usbfs_dev_drv_reg.h **** *
 720:Generated_Source\PSoC6\pdl\drivers\peripheral\usbfs/cy_usbfs_dev_drv_reg.h **** * \param endpoint
 721:Generated_Source\PSoC6\pdl\drivers\peripheral\usbfs/cy_usbfs_dev_drv_reg.h **** * Physical endpoint number. 
 722:Generated_Source\PSoC6\pdl\drivers\peripheral\usbfs/cy_usbfs_dev_drv_reg.h **** * Valid range: 0 - ( \ref CY_USBFS_DEV_DRV_NUM_EPS_MAX - 1 ).
 723:Generated_Source\PSoC6\pdl\drivers\peripheral\usbfs/cy_usbfs_dev_drv_reg.h **** *
 724:Generated_Source\PSoC6\pdl\drivers\peripheral\usbfs/cy_usbfs_dev_drv_reg.h **** *******************************************************************************/
 725:Generated_Source\PSoC6\pdl\drivers\peripheral\usbfs/cy_usbfs_dev_drv_reg.h **** __STATIC_INLINE void Cy_USBFS_Dev_Drv_DisableSieEpInterrupt(USBFS_Type *base, uint32_t endpoint)
 726:Generated_Source\PSoC6\pdl\drivers\peripheral\usbfs/cy_usbfs_dev_drv_reg.h **** {
 727:Generated_Source\PSoC6\pdl\drivers\peripheral\usbfs/cy_usbfs_dev_drv_reg.h ****     USBFS_DEV_SIE_EP_INT_EN(base) &= ~ (uint32_t)(1UL << endpoint);
 728:Generated_Source\PSoC6\pdl\drivers\peripheral\usbfs/cy_usbfs_dev_drv_reg.h **** }
 729:Generated_Source\PSoC6\pdl\drivers\peripheral\usbfs/cy_usbfs_dev_drv_reg.h **** 
 730:Generated_Source\PSoC6\pdl\drivers\peripheral\usbfs/cy_usbfs_dev_drv_reg.h **** 
 731:Generated_Source\PSoC6\pdl\drivers\peripheral\usbfs/cy_usbfs_dev_drv_reg.h **** /*******************************************************************************
 732:Generated_Source\PSoC6\pdl\drivers\peripheral\usbfs/cy_usbfs_dev_drv_reg.h **** * Function Name: Cy_USBFS_Dev_Drv_ClearSieEpInterrupt
 733:Generated_Source\PSoC6\pdl\drivers\peripheral\usbfs/cy_usbfs_dev_drv_reg.h **** ****************************************************************************//**
 734:Generated_Source\PSoC6\pdl\drivers\peripheral\usbfs/cy_usbfs_dev_drv_reg.h **** *
 735:Generated_Source\PSoC6\pdl\drivers\peripheral\usbfs/cy_usbfs_dev_drv_reg.h **** * Clears the SIE EP interrupt sources in the interrupt request register.
 736:Generated_Source\PSoC6\pdl\drivers\peripheral\usbfs/cy_usbfs_dev_drv_reg.h **** *
 737:Generated_Source\PSoC6\pdl\drivers\peripheral\usbfs/cy_usbfs_dev_drv_reg.h **** * \param base
 738:Generated_Source\PSoC6\pdl\drivers\peripheral\usbfs/cy_usbfs_dev_drv_reg.h **** * The pointer to the USBFS instance.
 739:Generated_Source\PSoC6\pdl\drivers\peripheral\usbfs/cy_usbfs_dev_drv_reg.h **** *
 740:Generated_Source\PSoC6\pdl\drivers\peripheral\usbfs/cy_usbfs_dev_drv_reg.h **** * \param endpoint
 741:Generated_Source\PSoC6\pdl\drivers\peripheral\usbfs/cy_usbfs_dev_drv_reg.h **** * Physical endpoint number. 
 742:Generated_Source\PSoC6\pdl\drivers\peripheral\usbfs/cy_usbfs_dev_drv_reg.h **** * Valid range: 0 - ( \ref CY_USBFS_DEV_DRV_NUM_EPS_MAX - 1 ).
 743:Generated_Source\PSoC6\pdl\drivers\peripheral\usbfs/cy_usbfs_dev_drv_reg.h **** *
 744:Generated_Source\PSoC6\pdl\drivers\peripheral\usbfs/cy_usbfs_dev_drv_reg.h **** *******************************************************************************/
 745:Generated_Source\PSoC6\pdl\drivers\peripheral\usbfs/cy_usbfs_dev_drv_reg.h **** __STATIC_INLINE void Cy_USBFS_Dev_Drv_ClearSieEpInterrupt(USBFS_Type *base, uint32_t endpoint)
 746:Generated_Source\PSoC6\pdl\drivers\peripheral\usbfs/cy_usbfs_dev_drv_reg.h **** {
 747:Generated_Source\PSoC6\pdl\drivers\peripheral\usbfs/cy_usbfs_dev_drv_reg.h ****     USBFS_DEV_SIE_EP_INT_SR(base) = (uint32_t)(1UL << endpoint);
 748:Generated_Source\PSoC6\pdl\drivers\peripheral\usbfs/cy_usbfs_dev_drv_reg.h ****     (void)  USBFS_DEV_SIE_EP_INT_SR(base);
 749:Generated_Source\PSoC6\pdl\drivers\peripheral\usbfs/cy_usbfs_dev_drv_reg.h **** }
 750:Generated_Source\PSoC6\pdl\drivers\peripheral\usbfs/cy_usbfs_dev_drv_reg.h **** /** \} group_usbfs_drv_drv_reg_sie_access */
ARM GAS  C:\Users\enes_\AppData\Local\Temp\cc97b4k1.s 			page 18


 751:Generated_Source\PSoC6\pdl\drivers\peripheral\usbfs/cy_usbfs_dev_drv_reg.h **** 
 752:Generated_Source\PSoC6\pdl\drivers\peripheral\usbfs/cy_usbfs_dev_drv_reg.h **** 
 753:Generated_Source\PSoC6\pdl\drivers\peripheral\usbfs/cy_usbfs_dev_drv_reg.h **** /**
 754:Generated_Source\PSoC6\pdl\drivers\peripheral\usbfs/cy_usbfs_dev_drv_reg.h **** * \addtogroup group_usbfs_drv_drv_reg_arbiter
 755:Generated_Source\PSoC6\pdl\drivers\peripheral\usbfs/cy_usbfs_dev_drv_reg.h **** * \{
 756:Generated_Source\PSoC6\pdl\drivers\peripheral\usbfs/cy_usbfs_dev_drv_reg.h **** */
 757:Generated_Source\PSoC6\pdl\drivers\peripheral\usbfs/cy_usbfs_dev_drv_reg.h **** 
 758:Generated_Source\PSoC6\pdl\drivers\peripheral\usbfs/cy_usbfs_dev_drv_reg.h **** /*******************************************************************************
 759:Generated_Source\PSoC6\pdl\drivers\peripheral\usbfs/cy_usbfs_dev_drv_reg.h **** * Function Name: Cy_USBFS_Dev_Drv_GetArbAllEpsInterruptStatus
 760:Generated_Source\PSoC6\pdl\drivers\peripheral\usbfs/cy_usbfs_dev_drv_reg.h **** ****************************************************************************//**
 761:Generated_Source\PSoC6\pdl\drivers\peripheral\usbfs/cy_usbfs_dev_drv_reg.h **** *
 762:Generated_Source\PSoC6\pdl\drivers\peripheral\usbfs/cy_usbfs_dev_drv_reg.h **** * Returns the arbiter interrupt request register.
 763:Generated_Source\PSoC6\pdl\drivers\peripheral\usbfs/cy_usbfs_dev_drv_reg.h **** * This register contains the current status of the data endpoints arbiter
 764:Generated_Source\PSoC6\pdl\drivers\peripheral\usbfs/cy_usbfs_dev_drv_reg.h **** * interrupt.
 765:Generated_Source\PSoC6\pdl\drivers\peripheral\usbfs/cy_usbfs_dev_drv_reg.h **** *
 766:Generated_Source\PSoC6\pdl\drivers\peripheral\usbfs/cy_usbfs_dev_drv_reg.h **** * \param base
 767:Generated_Source\PSoC6\pdl\drivers\peripheral\usbfs/cy_usbfs_dev_drv_reg.h **** * The pointer to the USBFS instance.
 768:Generated_Source\PSoC6\pdl\drivers\peripheral\usbfs/cy_usbfs_dev_drv_reg.h **** *
 769:Generated_Source\PSoC6\pdl\drivers\peripheral\usbfs/cy_usbfs_dev_drv_reg.h **** * \return
 770:Generated_Source\PSoC6\pdl\drivers\peripheral\usbfs/cy_usbfs_dev_drv_reg.h **** * The current status of the SIE interrupt sources.
 771:Generated_Source\PSoC6\pdl\drivers\peripheral\usbfs/cy_usbfs_dev_drv_reg.h **** * The returned status specifies for which endpoint interrupt is active as
 772:Generated_Source\PSoC6\pdl\drivers\peripheral\usbfs/cy_usbfs_dev_drv_reg.h **** * follows: bit 0 corresponds to data endpoint 1, bit 1 data endpoint 2, and so
 773:Generated_Source\PSoC6\pdl\drivers\peripheral\usbfs/cy_usbfs_dev_drv_reg.h **** * on up to \ref CY_USBFS_DEV_DRV_NUM_EPS_MAX.
 774:Generated_Source\PSoC6\pdl\drivers\peripheral\usbfs/cy_usbfs_dev_drv_reg.h **** *
 775:Generated_Source\PSoC6\pdl\drivers\peripheral\usbfs/cy_usbfs_dev_drv_reg.h **** *******************************************************************************/
 776:Generated_Source\PSoC6\pdl\drivers\peripheral\usbfs/cy_usbfs_dev_drv_reg.h **** __STATIC_INLINE uint32_t Cy_USBFS_Dev_Drv_GetArbAllEpsInterruptStatus(USBFS_Type const *base)
 777:Generated_Source\PSoC6\pdl\drivers\peripheral\usbfs/cy_usbfs_dev_drv_reg.h **** {
 778:Generated_Source\PSoC6\pdl\drivers\peripheral\usbfs/cy_usbfs_dev_drv_reg.h ****     return CY_USBFS_DEV_READ_ODD(USBFS_DEV_ARB_INT_SR(base));
 779:Generated_Source\PSoC6\pdl\drivers\peripheral\usbfs/cy_usbfs_dev_drv_reg.h **** }
 780:Generated_Source\PSoC6\pdl\drivers\peripheral\usbfs/cy_usbfs_dev_drv_reg.h **** 
 781:Generated_Source\PSoC6\pdl\drivers\peripheral\usbfs/cy_usbfs_dev_drv_reg.h **** 
 782:Generated_Source\PSoC6\pdl\drivers\peripheral\usbfs/cy_usbfs_dev_drv_reg.h **** /*******************************************************************************
 783:Generated_Source\PSoC6\pdl\drivers\peripheral\usbfs/cy_usbfs_dev_drv_reg.h **** * Function Name: Cy_USBFS_Dev_Drv_EnableArbEpInterrupt
 784:Generated_Source\PSoC6\pdl\drivers\peripheral\usbfs/cy_usbfs_dev_drv_reg.h **** ****************************************************************************//**
 785:Generated_Source\PSoC6\pdl\drivers\peripheral\usbfs/cy_usbfs_dev_drv_reg.h **** *
 786:Generated_Source\PSoC6\pdl\drivers\peripheral\usbfs/cy_usbfs_dev_drv_reg.h **** * Enables the arbiter interrupt for the specified data endpoint.
 787:Generated_Source\PSoC6\pdl\drivers\peripheral\usbfs/cy_usbfs_dev_drv_reg.h **** *
 788:Generated_Source\PSoC6\pdl\drivers\peripheral\usbfs/cy_usbfs_dev_drv_reg.h **** * \param base
 789:Generated_Source\PSoC6\pdl\drivers\peripheral\usbfs/cy_usbfs_dev_drv_reg.h **** * The pointer to the USBFS instance.
 790:Generated_Source\PSoC6\pdl\drivers\peripheral\usbfs/cy_usbfs_dev_drv_reg.h **** *
 791:Generated_Source\PSoC6\pdl\drivers\peripheral\usbfs/cy_usbfs_dev_drv_reg.h **** * \param endpoint
 792:Generated_Source\PSoC6\pdl\drivers\peripheral\usbfs/cy_usbfs_dev_drv_reg.h **** * Physical endpoint number. 
 793:Generated_Source\PSoC6\pdl\drivers\peripheral\usbfs/cy_usbfs_dev_drv_reg.h **** * Valid range: 0 - ( \ref CY_USBFS_DEV_DRV_NUM_EPS_MAX - 1 ).
 794:Generated_Source\PSoC6\pdl\drivers\peripheral\usbfs/cy_usbfs_dev_drv_reg.h **** *
 795:Generated_Source\PSoC6\pdl\drivers\peripheral\usbfs/cy_usbfs_dev_drv_reg.h **** *******************************************************************************/
 796:Generated_Source\PSoC6\pdl\drivers\peripheral\usbfs/cy_usbfs_dev_drv_reg.h **** __STATIC_INLINE void Cy_USBFS_Dev_Drv_EnableArbEpInterrupt(USBFS_Type *base, uint32_t endpoint)
 797:Generated_Source\PSoC6\pdl\drivers\peripheral\usbfs/cy_usbfs_dev_drv_reg.h **** {
 798:Generated_Source\PSoC6\pdl\drivers\peripheral\usbfs/cy_usbfs_dev_drv_reg.h ****     USBFS_DEV_ARB_INT_EN(base) |= (uint32_t)(1UL << endpoint);
 799:Generated_Source\PSoC6\pdl\drivers\peripheral\usbfs/cy_usbfs_dev_drv_reg.h **** }
 800:Generated_Source\PSoC6\pdl\drivers\peripheral\usbfs/cy_usbfs_dev_drv_reg.h **** 
 801:Generated_Source\PSoC6\pdl\drivers\peripheral\usbfs/cy_usbfs_dev_drv_reg.h **** 
 802:Generated_Source\PSoC6\pdl\drivers\peripheral\usbfs/cy_usbfs_dev_drv_reg.h **** /*******************************************************************************
 803:Generated_Source\PSoC6\pdl\drivers\peripheral\usbfs/cy_usbfs_dev_drv_reg.h **** * Function Name: Cy_USBFS_Dev_Drv_DisableArbEpInterrupt
 804:Generated_Source\PSoC6\pdl\drivers\peripheral\usbfs/cy_usbfs_dev_drv_reg.h **** ****************************************************************************//**
 805:Generated_Source\PSoC6\pdl\drivers\peripheral\usbfs/cy_usbfs_dev_drv_reg.h **** *
 806:Generated_Source\PSoC6\pdl\drivers\peripheral\usbfs/cy_usbfs_dev_drv_reg.h **** * Disabled arbiter interrupt for the specified data endpoint.
 807:Generated_Source\PSoC6\pdl\drivers\peripheral\usbfs/cy_usbfs_dev_drv_reg.h **** *
ARM GAS  C:\Users\enes_\AppData\Local\Temp\cc97b4k1.s 			page 19


 808:Generated_Source\PSoC6\pdl\drivers\peripheral\usbfs/cy_usbfs_dev_drv_reg.h **** * \param base
 809:Generated_Source\PSoC6\pdl\drivers\peripheral\usbfs/cy_usbfs_dev_drv_reg.h **** * The pointer to the USBFS instance.
 810:Generated_Source\PSoC6\pdl\drivers\peripheral\usbfs/cy_usbfs_dev_drv_reg.h **** *
 811:Generated_Source\PSoC6\pdl\drivers\peripheral\usbfs/cy_usbfs_dev_drv_reg.h **** * \param endpoint
 812:Generated_Source\PSoC6\pdl\drivers\peripheral\usbfs/cy_usbfs_dev_drv_reg.h **** * Physical endpoint number. 
 813:Generated_Source\PSoC6\pdl\drivers\peripheral\usbfs/cy_usbfs_dev_drv_reg.h **** * Valid range: 0 - ( \ref CY_USBFS_DEV_DRV_NUM_EPS_MAX - 1 ).
 814:Generated_Source\PSoC6\pdl\drivers\peripheral\usbfs/cy_usbfs_dev_drv_reg.h **** *
 815:Generated_Source\PSoC6\pdl\drivers\peripheral\usbfs/cy_usbfs_dev_drv_reg.h **** *******************************************************************************/
 816:Generated_Source\PSoC6\pdl\drivers\peripheral\usbfs/cy_usbfs_dev_drv_reg.h **** __STATIC_INLINE void Cy_USBFS_Dev_Drv_DisableArbEpInterrupt(USBFS_Type *base, uint32_t endpoint)
 817:Generated_Source\PSoC6\pdl\drivers\peripheral\usbfs/cy_usbfs_dev_drv_reg.h **** {
 818:Generated_Source\PSoC6\pdl\drivers\peripheral\usbfs/cy_usbfs_dev_drv_reg.h ****     USBFS_DEV_ARB_INT_EN(base) &= ~(uint32_t)(1UL << endpoint);
 819:Generated_Source\PSoC6\pdl\drivers\peripheral\usbfs/cy_usbfs_dev_drv_reg.h **** }
 820:Generated_Source\PSoC6\pdl\drivers\peripheral\usbfs/cy_usbfs_dev_drv_reg.h **** 
 821:Generated_Source\PSoC6\pdl\drivers\peripheral\usbfs/cy_usbfs_dev_drv_reg.h **** 
 822:Generated_Source\PSoC6\pdl\drivers\peripheral\usbfs/cy_usbfs_dev_drv_reg.h **** /*******************************************************************************
 823:Generated_Source\PSoC6\pdl\drivers\peripheral\usbfs/cy_usbfs_dev_drv_reg.h **** * Function Name: Cy_USBFS_Dev_Drv_SetArbEpInterruptMask
 824:Generated_Source\PSoC6\pdl\drivers\peripheral\usbfs/cy_usbfs_dev_drv_reg.h **** ****************************************************************************//**
 825:Generated_Source\PSoC6\pdl\drivers\peripheral\usbfs/cy_usbfs_dev_drv_reg.h **** *
 826:Generated_Source\PSoC6\pdl\drivers\peripheral\usbfs/cy_usbfs_dev_drv_reg.h **** * Enables the arbiter interrupt sources which trigger the arbiter interrupt for
 827:Generated_Source\PSoC6\pdl\drivers\peripheral\usbfs/cy_usbfs_dev_drv_reg.h **** * the specified data endpoint.
 828:Generated_Source\PSoC6\pdl\drivers\peripheral\usbfs/cy_usbfs_dev_drv_reg.h **** *
 829:Generated_Source\PSoC6\pdl\drivers\peripheral\usbfs/cy_usbfs_dev_drv_reg.h **** * \param base
 830:Generated_Source\PSoC6\pdl\drivers\peripheral\usbfs/cy_usbfs_dev_drv_reg.h **** * The pointer to the USBFS instance.
 831:Generated_Source\PSoC6\pdl\drivers\peripheral\usbfs/cy_usbfs_dev_drv_reg.h **** *
 832:Generated_Source\PSoC6\pdl\drivers\peripheral\usbfs/cy_usbfs_dev_drv_reg.h **** * \param endpoint
 833:Generated_Source\PSoC6\pdl\drivers\peripheral\usbfs/cy_usbfs_dev_drv_reg.h **** * Physical endpoint number. 
 834:Generated_Source\PSoC6\pdl\drivers\peripheral\usbfs/cy_usbfs_dev_drv_reg.h **** * Valid range: 0 - ( \ref CY_USBFS_DEV_DRV_NUM_EPS_MAX - 1 ).
 835:Generated_Source\PSoC6\pdl\drivers\peripheral\usbfs/cy_usbfs_dev_drv_reg.h **** *
 836:Generated_Source\PSoC6\pdl\drivers\peripheral\usbfs/cy_usbfs_dev_drv_reg.h **** * \param mask
 837:Generated_Source\PSoC6\pdl\drivers\peripheral\usbfs/cy_usbfs_dev_drv_reg.h **** * The arbiter interrupt sources.
 838:Generated_Source\PSoC6\pdl\drivers\peripheral\usbfs/cy_usbfs_dev_drv_reg.h **** * See \ref group_usbfs_dev_drv_reg_macros_arb_ep_intr for the set of constants.
 839:Generated_Source\PSoC6\pdl\drivers\peripheral\usbfs/cy_usbfs_dev_drv_reg.h **** *
 840:Generated_Source\PSoC6\pdl\drivers\peripheral\usbfs/cy_usbfs_dev_drv_reg.h **** *******************************************************************************/
 841:Generated_Source\PSoC6\pdl\drivers\peripheral\usbfs/cy_usbfs_dev_drv_reg.h **** __STATIC_INLINE void Cy_USBFS_Dev_Drv_SetArbEpInterruptMask(USBFS_Type *base, uint32_t endpoint, ui
 842:Generated_Source\PSoC6\pdl\drivers\peripheral\usbfs/cy_usbfs_dev_drv_reg.h **** {
 843:Generated_Source\PSoC6\pdl\drivers\peripheral\usbfs/cy_usbfs_dev_drv_reg.h ****     USBFS_DEV_ARB_EP_INT_EN(base, endpoint) = mask;
 844:Generated_Source\PSoC6\pdl\drivers\peripheral\usbfs/cy_usbfs_dev_drv_reg.h **** }
 845:Generated_Source\PSoC6\pdl\drivers\peripheral\usbfs/cy_usbfs_dev_drv_reg.h **** 
 846:Generated_Source\PSoC6\pdl\drivers\peripheral\usbfs/cy_usbfs_dev_drv_reg.h **** 
 847:Generated_Source\PSoC6\pdl\drivers\peripheral\usbfs/cy_usbfs_dev_drv_reg.h **** /*******************************************************************************
 848:Generated_Source\PSoC6\pdl\drivers\peripheral\usbfs/cy_usbfs_dev_drv_reg.h **** * Function Name: Cy_USBFS_Dev_Drv_GetArbEpInterruptMask
 849:Generated_Source\PSoC6\pdl\drivers\peripheral\usbfs/cy_usbfs_dev_drv_reg.h **** ****************************************************************************//**
 850:Generated_Source\PSoC6\pdl\drivers\peripheral\usbfs/cy_usbfs_dev_drv_reg.h **** *
 851:Generated_Source\PSoC6\pdl\drivers\peripheral\usbfs/cy_usbfs_dev_drv_reg.h **** * Returns the arbiter interrupt sources which trigger the arbiter interrupt for
 852:Generated_Source\PSoC6\pdl\drivers\peripheral\usbfs/cy_usbfs_dev_drv_reg.h **** * the specified data endpoint.
 853:Generated_Source\PSoC6\pdl\drivers\peripheral\usbfs/cy_usbfs_dev_drv_reg.h **** *
 854:Generated_Source\PSoC6\pdl\drivers\peripheral\usbfs/cy_usbfs_dev_drv_reg.h **** * \param base
 855:Generated_Source\PSoC6\pdl\drivers\peripheral\usbfs/cy_usbfs_dev_drv_reg.h **** * The pointer to the USBFS instance.
 856:Generated_Source\PSoC6\pdl\drivers\peripheral\usbfs/cy_usbfs_dev_drv_reg.h **** *
 857:Generated_Source\PSoC6\pdl\drivers\peripheral\usbfs/cy_usbfs_dev_drv_reg.h **** * \param endpoint
 858:Generated_Source\PSoC6\pdl\drivers\peripheral\usbfs/cy_usbfs_dev_drv_reg.h **** * Physical endpoint number. 
 859:Generated_Source\PSoC6\pdl\drivers\peripheral\usbfs/cy_usbfs_dev_drv_reg.h **** * Valid range: 0 - ( \ref CY_USBFS_DEV_DRV_NUM_EPS_MAX - 1 ).
 860:Generated_Source\PSoC6\pdl\drivers\peripheral\usbfs/cy_usbfs_dev_drv_reg.h **** *
 861:Generated_Source\PSoC6\pdl\drivers\peripheral\usbfs/cy_usbfs_dev_drv_reg.h **** * \return
 862:Generated_Source\PSoC6\pdl\drivers\peripheral\usbfs/cy_usbfs_dev_drv_reg.h **** * The arbiter interrupt sources.
 863:Generated_Source\PSoC6\pdl\drivers\peripheral\usbfs/cy_usbfs_dev_drv_reg.h **** * See \ref group_usbfs_dev_drv_reg_macros_arb_ep_intr for the set of constants.
 864:Generated_Source\PSoC6\pdl\drivers\peripheral\usbfs/cy_usbfs_dev_drv_reg.h **** *
ARM GAS  C:\Users\enes_\AppData\Local\Temp\cc97b4k1.s 			page 20


 865:Generated_Source\PSoC6\pdl\drivers\peripheral\usbfs/cy_usbfs_dev_drv_reg.h **** *******************************************************************************/
 866:Generated_Source\PSoC6\pdl\drivers\peripheral\usbfs/cy_usbfs_dev_drv_reg.h **** __STATIC_INLINE uint32_t Cy_USBFS_Dev_Drv_GetArbEpInterruptMask(USBFS_Type const *base, uint32_t en
 867:Generated_Source\PSoC6\pdl\drivers\peripheral\usbfs/cy_usbfs_dev_drv_reg.h **** {
 868:Generated_Source\PSoC6\pdl\drivers\peripheral\usbfs/cy_usbfs_dev_drv_reg.h ****     return USBFS_DEV_ARB_EP_INT_EN(base, endpoint);
 869:Generated_Source\PSoC6\pdl\drivers\peripheral\usbfs/cy_usbfs_dev_drv_reg.h **** }
 870:Generated_Source\PSoC6\pdl\drivers\peripheral\usbfs/cy_usbfs_dev_drv_reg.h **** 
 871:Generated_Source\PSoC6\pdl\drivers\peripheral\usbfs/cy_usbfs_dev_drv_reg.h **** 
 872:Generated_Source\PSoC6\pdl\drivers\peripheral\usbfs/cy_usbfs_dev_drv_reg.h **** /*******************************************************************************
 873:Generated_Source\PSoC6\pdl\drivers\peripheral\usbfs/cy_usbfs_dev_drv_reg.h **** * Function Name: Cy_USBFS_Dev_Drv_GetArbEpInterruptStatusMasked
 874:Generated_Source\PSoC6\pdl\drivers\peripheral\usbfs/cy_usbfs_dev_drv_reg.h **** ****************************************************************************//**
 875:Generated_Source\PSoC6\pdl\drivers\peripheral\usbfs/cy_usbfs_dev_drv_reg.h **** *
 876:Generated_Source\PSoC6\pdl\drivers\peripheral\usbfs/cy_usbfs_dev_drv_reg.h **** * Returns the current status of the enabled arbiter interrupt sources for
 877:Generated_Source\PSoC6\pdl\drivers\peripheral\usbfs/cy_usbfs_dev_drv_reg.h **** * the specified data endpoint.
 878:Generated_Source\PSoC6\pdl\drivers\peripheral\usbfs/cy_usbfs_dev_drv_reg.h **** *
 879:Generated_Source\PSoC6\pdl\drivers\peripheral\usbfs/cy_usbfs_dev_drv_reg.h **** * \param base
 880:Generated_Source\PSoC6\pdl\drivers\peripheral\usbfs/cy_usbfs_dev_drv_reg.h **** * The pointer to the USBFS instance.
 881:Generated_Source\PSoC6\pdl\drivers\peripheral\usbfs/cy_usbfs_dev_drv_reg.h **** *
 882:Generated_Source\PSoC6\pdl\drivers\peripheral\usbfs/cy_usbfs_dev_drv_reg.h **** * \param endpoint
 883:Generated_Source\PSoC6\pdl\drivers\peripheral\usbfs/cy_usbfs_dev_drv_reg.h **** * Physical endpoint number. 
 884:Generated_Source\PSoC6\pdl\drivers\peripheral\usbfs/cy_usbfs_dev_drv_reg.h **** * Valid range: 0 - ( \ref CY_USBFS_DEV_DRV_NUM_EPS_MAX - 1 ).
 885:Generated_Source\PSoC6\pdl\drivers\peripheral\usbfs/cy_usbfs_dev_drv_reg.h **** *
 886:Generated_Source\PSoC6\pdl\drivers\peripheral\usbfs/cy_usbfs_dev_drv_reg.h **** * \return
 887:Generated_Source\PSoC6\pdl\drivers\peripheral\usbfs/cy_usbfs_dev_drv_reg.h **** * The current status of the enabled arbiter interrupt sources
 888:Generated_Source\PSoC6\pdl\drivers\peripheral\usbfs/cy_usbfs_dev_drv_reg.h **** * See \ref group_usbfs_dev_drv_reg_macros_arb_ep_intr for the set of constants.
 889:Generated_Source\PSoC6\pdl\drivers\peripheral\usbfs/cy_usbfs_dev_drv_reg.h **** *
 890:Generated_Source\PSoC6\pdl\drivers\peripheral\usbfs/cy_usbfs_dev_drv_reg.h **** *******************************************************************************/
 891:Generated_Source\PSoC6\pdl\drivers\peripheral\usbfs/cy_usbfs_dev_drv_reg.h **** __STATIC_INLINE uint32_t Cy_USBFS_Dev_Drv_GetArbEpInterruptStatusMasked(USBFS_Type const *base, uin
 892:Generated_Source\PSoC6\pdl\drivers\peripheral\usbfs/cy_usbfs_dev_drv_reg.h **** {
 893:Generated_Source\PSoC6\pdl\drivers\peripheral\usbfs/cy_usbfs_dev_drv_reg.h ****     uint32_t mask = CY_USBFS_DEV_READ_ODD(USBFS_DEV_ARB_EP_INT_EN(base, endpoint));
 894:Generated_Source\PSoC6\pdl\drivers\peripheral\usbfs/cy_usbfs_dev_drv_reg.h ****     return (USBFS_DEV_ARB_EP_SR(base, endpoint) & mask);
 895:Generated_Source\PSoC6\pdl\drivers\peripheral\usbfs/cy_usbfs_dev_drv_reg.h **** }
 896:Generated_Source\PSoC6\pdl\drivers\peripheral\usbfs/cy_usbfs_dev_drv_reg.h **** 
 897:Generated_Source\PSoC6\pdl\drivers\peripheral\usbfs/cy_usbfs_dev_drv_reg.h **** 
 898:Generated_Source\PSoC6\pdl\drivers\peripheral\usbfs/cy_usbfs_dev_drv_reg.h **** /*******************************************************************************
 899:Generated_Source\PSoC6\pdl\drivers\peripheral\usbfs/cy_usbfs_dev_drv_reg.h **** * Function Name: Cy_USBFS_Dev_Drv_ClearArbEpInterrupt
 900:Generated_Source\PSoC6\pdl\drivers\peripheral\usbfs/cy_usbfs_dev_drv_reg.h **** ****************************************************************************//**
 901:Generated_Source\PSoC6\pdl\drivers\peripheral\usbfs/cy_usbfs_dev_drv_reg.h **** *
 902:Generated_Source\PSoC6\pdl\drivers\peripheral\usbfs/cy_usbfs_dev_drv_reg.h **** * Clears the current status of the arbiter interrupt sources for the specified
 903:Generated_Source\PSoC6\pdl\drivers\peripheral\usbfs/cy_usbfs_dev_drv_reg.h **** * data endpoint.
 904:Generated_Source\PSoC6\pdl\drivers\peripheral\usbfs/cy_usbfs_dev_drv_reg.h **** *
 905:Generated_Source\PSoC6\pdl\drivers\peripheral\usbfs/cy_usbfs_dev_drv_reg.h **** * \param base
 906:Generated_Source\PSoC6\pdl\drivers\peripheral\usbfs/cy_usbfs_dev_drv_reg.h **** * The pointer to the USBFS instance.
 907:Generated_Source\PSoC6\pdl\drivers\peripheral\usbfs/cy_usbfs_dev_drv_reg.h **** *
 908:Generated_Source\PSoC6\pdl\drivers\peripheral\usbfs/cy_usbfs_dev_drv_reg.h **** * \param endpoint
 909:Generated_Source\PSoC6\pdl\drivers\peripheral\usbfs/cy_usbfs_dev_drv_reg.h **** * Physical endpoint number. 
 910:Generated_Source\PSoC6\pdl\drivers\peripheral\usbfs/cy_usbfs_dev_drv_reg.h **** * Valid range: 0 - ( \ref CY_USBFS_DEV_DRV_NUM_EPS_MAX - 1 ).
 911:Generated_Source\PSoC6\pdl\drivers\peripheral\usbfs/cy_usbfs_dev_drv_reg.h **** *
 912:Generated_Source\PSoC6\pdl\drivers\peripheral\usbfs/cy_usbfs_dev_drv_reg.h **** * \param mask
 913:Generated_Source\PSoC6\pdl\drivers\peripheral\usbfs/cy_usbfs_dev_drv_reg.h **** * The arbiter interrupt sources to be cleared.
 914:Generated_Source\PSoC6\pdl\drivers\peripheral\usbfs/cy_usbfs_dev_drv_reg.h **** * See \ref group_usbfs_dev_drv_reg_macros_arb_ep_intr for the set of constants.
 915:Generated_Source\PSoC6\pdl\drivers\peripheral\usbfs/cy_usbfs_dev_drv_reg.h **** *
 916:Generated_Source\PSoC6\pdl\drivers\peripheral\usbfs/cy_usbfs_dev_drv_reg.h **** *******************************************************************************/
 917:Generated_Source\PSoC6\pdl\drivers\peripheral\usbfs/cy_usbfs_dev_drv_reg.h **** __STATIC_INLINE void Cy_USBFS_Dev_Drv_ClearArbEpInterrupt(USBFS_Type *base, uint32_t endpoint, uint
 918:Generated_Source\PSoC6\pdl\drivers\peripheral\usbfs/cy_usbfs_dev_drv_reg.h **** {
 919:Generated_Source\PSoC6\pdl\drivers\peripheral\usbfs/cy_usbfs_dev_drv_reg.h ****     USBFS_DEV_ARB_EP_SR(base, endpoint) = mask;
 920:Generated_Source\PSoC6\pdl\drivers\peripheral\usbfs/cy_usbfs_dev_drv_reg.h ****     (void) USBFS_DEV_ARB_EP_SR(base, endpoint);
 921:Generated_Source\PSoC6\pdl\drivers\peripheral\usbfs/cy_usbfs_dev_drv_reg.h **** }
ARM GAS  C:\Users\enes_\AppData\Local\Temp\cc97b4k1.s 			page 21


 922:Generated_Source\PSoC6\pdl\drivers\peripheral\usbfs/cy_usbfs_dev_drv_reg.h **** 
 923:Generated_Source\PSoC6\pdl\drivers\peripheral\usbfs/cy_usbfs_dev_drv_reg.h **** 
 924:Generated_Source\PSoC6\pdl\drivers\peripheral\usbfs/cy_usbfs_dev_drv_reg.h **** /*******************************************************************************
 925:Generated_Source\PSoC6\pdl\drivers\peripheral\usbfs/cy_usbfs_dev_drv_reg.h **** * Function Name: Cy_USBFS_Dev_Drv_SetArbEpConfig
 926:Generated_Source\PSoC6\pdl\drivers\peripheral\usbfs/cy_usbfs_dev_drv_reg.h **** ****************************************************************************//**
 927:Generated_Source\PSoC6\pdl\drivers\peripheral\usbfs/cy_usbfs_dev_drv_reg.h **** *
 928:Generated_Source\PSoC6\pdl\drivers\peripheral\usbfs/cy_usbfs_dev_drv_reg.h **** * Writes the configuration register for the specified data endpoint.
 929:Generated_Source\PSoC6\pdl\drivers\peripheral\usbfs/cy_usbfs_dev_drv_reg.h **** *
 930:Generated_Source\PSoC6\pdl\drivers\peripheral\usbfs/cy_usbfs_dev_drv_reg.h **** * \param base
 931:Generated_Source\PSoC6\pdl\drivers\peripheral\usbfs/cy_usbfs_dev_drv_reg.h **** * The pointer to the USBFS instance.
 932:Generated_Source\PSoC6\pdl\drivers\peripheral\usbfs/cy_usbfs_dev_drv_reg.h **** *
 933:Generated_Source\PSoC6\pdl\drivers\peripheral\usbfs/cy_usbfs_dev_drv_reg.h **** * \param endpoint
 934:Generated_Source\PSoC6\pdl\drivers\peripheral\usbfs/cy_usbfs_dev_drv_reg.h **** * Physical endpoint number. 
 935:Generated_Source\PSoC6\pdl\drivers\peripheral\usbfs/cy_usbfs_dev_drv_reg.h **** * Valid range: 0 - ( \ref CY_USBFS_DEV_DRV_NUM_EPS_MAX - 1 ).
 936:Generated_Source\PSoC6\pdl\drivers\peripheral\usbfs/cy_usbfs_dev_drv_reg.h **** *
 937:Generated_Source\PSoC6\pdl\drivers\peripheral\usbfs/cy_usbfs_dev_drv_reg.h **** * \param cfg
 938:Generated_Source\PSoC6\pdl\drivers\peripheral\usbfs/cy_usbfs_dev_drv_reg.h **** * The value written into the data endpoint configuration register.
 939:Generated_Source\PSoC6\pdl\drivers\peripheral\usbfs/cy_usbfs_dev_drv_reg.h **** *
 940:Generated_Source\PSoC6\pdl\drivers\peripheral\usbfs/cy_usbfs_dev_drv_reg.h **** *******************************************************************************/
 941:Generated_Source\PSoC6\pdl\drivers\peripheral\usbfs/cy_usbfs_dev_drv_reg.h **** __STATIC_INLINE void Cy_USBFS_Dev_Drv_SetArbEpConfig(USBFS_Type *base, uint32_t endpoint, uint32_t 
 942:Generated_Source\PSoC6\pdl\drivers\peripheral\usbfs/cy_usbfs_dev_drv_reg.h **** {
 943:Generated_Source\PSoC6\pdl\drivers\peripheral\usbfs/cy_usbfs_dev_drv_reg.h ****     USBFS_DEV_ARB_EP_CFG(base, endpoint) = cfg;
  99              		.loc 2 943 0 discriminator 3
 100 001c 05EB8413 		add	r3, r5, r4, lsl #6
 101 0020 0C22     		movs	r2, #12
 102 0022 C3F80022 		str	r2, [r3, #512]
 103              	.LVL8:
 104              	.LBE110:
 105              	.LBE109:
 118:Generated_Source\PSoC6\pdl\drivers\peripheral\usbfs/cy_usbfs_dev_drv_io.c ****     {
 106              		.loc 1 118 0 discriminator 3
 107 0026 0134     		adds	r4, r4, #1
 108              	.LVL9:
 109              	.L3:
 118:Generated_Source\PSoC6\pdl\drivers\peripheral\usbfs/cy_usbfs_dev_drv_io.c ****     {
 110              		.loc 1 118 0 is_stmt 0 discriminator 1
 111 0028 072C     		cmp	r4, #7
 112 002a F2D9     		bls	.L4
 122:Generated_Source\PSoC6\pdl\drivers\peripheral\usbfs/cy_usbfs_dev_drv_io.c **** 
 123:Generated_Source\PSoC6\pdl\drivers\peripheral\usbfs/cy_usbfs_dev_drv_io.c ****         /* Set default arbiter configuration */
 124:Generated_Source\PSoC6\pdl\drivers\peripheral\usbfs/cy_usbfs_dev_drv_io.c ****         Cy_USBFS_Dev_Drv_SetArbEpConfig(base, endpoint, (USBFS_USBDEV_ARB_EP1_CFG_CRC_BYPASS_Msk |
 125:Generated_Source\PSoC6\pdl\drivers\peripheral\usbfs/cy_usbfs_dev_drv_io.c ****                                                          USBFS_USBDEV_ARB_EP1_CFG_RESET_PTR_Msk));
 126:Generated_Source\PSoC6\pdl\drivers\peripheral\usbfs/cy_usbfs_dev_drv_io.c ****     }
 127:Generated_Source\PSoC6\pdl\drivers\peripheral\usbfs/cy_usbfs_dev_drv_io.c **** 
 128:Generated_Source\PSoC6\pdl\drivers\peripheral\usbfs/cy_usbfs_dev_drv_io.c ****     if (CY_USBFS_DEV_DRV_EP_MANAGEMENT_CPU != context->mode)
 113              		.loc 1 128 0 is_stmt 1
 114 002c 3378     		ldrb	r3, [r6]	@ zero_extendqisi2
 115 002e CBB1     		cbz	r3, .L2
 116              	.LBB111:
 129:Generated_Source\PSoC6\pdl\drivers\peripheral\usbfs/cy_usbfs_dev_drv_io.c ****     {
 130:Generated_Source\PSoC6\pdl\drivers\peripheral\usbfs/cy_usbfs_dev_drv_io.c ****         uint32_t regVal = _VAL2FLD(USBFS_USBDEV_ARB_CFG_DMA_CFG, context->mode);
 117              		.loc 1 130 0
 118 0030 5A01     		lsls	r2, r3, #5
 119 0032 02F06002 		and	r2, r2, #96
 120              	.LVL10:
 131:Generated_Source\PSoC6\pdl\drivers\peripheral\usbfs/cy_usbfs_dev_drv_io.c **** 
 132:Generated_Source\PSoC6\pdl\drivers\peripheral\usbfs/cy_usbfs_dev_drv_io.c ****         if (CY_USBFS_DEV_DRV_EP_MANAGEMENT_DMA_AUTO == context->mode)
ARM GAS  C:\Users\enes_\AppData\Local\Temp\cc97b4k1.s 			page 22


 121              		.loc 1 132 0
 122 0036 022B     		cmp	r3, #2
 123 0038 01D1     		bne	.L6
 133:Generated_Source\PSoC6\pdl\drivers\peripheral\usbfs/cy_usbfs_dev_drv_io.c ****         {
 134:Generated_Source\PSoC6\pdl\drivers\peripheral\usbfs/cy_usbfs_dev_drv_io.c ****             regVal |=  USBFS_USBDEV_ARB_CFG_AUTO_MEM_Msk;
 124              		.loc 1 134 0
 125 003a 42F01002 		orr	r2, r2, #16
 126              	.LVL11:
 127              	.L6:
 135:Generated_Source\PSoC6\pdl\drivers\peripheral\usbfs/cy_usbfs_dev_drv_io.c ****         }
 136:Generated_Source\PSoC6\pdl\drivers\peripheral\usbfs/cy_usbfs_dev_drv_io.c **** 
 137:Generated_Source\PSoC6\pdl\drivers\peripheral\usbfs/cy_usbfs_dev_drv_io.c ****         /* Allow re-configuration: clear configuration complete bit */
 138:Generated_Source\PSoC6\pdl\drivers\peripheral\usbfs/cy_usbfs_dev_drv_io.c ****         USBFS_DEV_ARB_CFG(base) = regVal;
 128              		.loc 1 138 0
 129 003e C5F87022 		str	r2, [r5, #624]
 139:Generated_Source\PSoC6\pdl\drivers\peripheral\usbfs/cy_usbfs_dev_drv_io.c ****         (void) USBFS_DEV_ARB_CFG(base);
 130              		.loc 1 139 0
 131 0042 D5F87032 		ldr	r3, [r5, #624]
 140:Generated_Source\PSoC6\pdl\drivers\peripheral\usbfs/cy_usbfs_dev_drv_io.c **** 
 141:Generated_Source\PSoC6\pdl\drivers\peripheral\usbfs/cy_usbfs_dev_drv_io.c ****         if (CY_USBFS_DEV_DRV_EP_MANAGEMENT_DMA_AUTO == context->mode)
 132              		.loc 1 141 0
 133 0046 3378     		ldrb	r3, [r6]	@ zero_extendqisi2
 134 0048 022B     		cmp	r3, #2
 135 004a 0BD1     		bne	.L2
 142:Generated_Source\PSoC6\pdl\drivers\peripheral\usbfs/cy_usbfs_dev_drv_io.c ****         {
 143:Generated_Source\PSoC6\pdl\drivers\peripheral\usbfs/cy_usbfs_dev_drv_io.c ****             /* Reset configuration registers */
 144:Generated_Source\PSoC6\pdl\drivers\peripheral\usbfs/cy_usbfs_dev_drv_io.c ****             USBFS_DEV_EP_ACTIVE(base) = 0UL;
 136              		.loc 1 144 0
 137 004c 0023     		movs	r3, #0
 138 004e C5F83832 		str	r3, [r5, #568]
 145:Generated_Source\PSoC6\pdl\drivers\peripheral\usbfs/cy_usbfs_dev_drv_io.c ****             USBFS_DEV_EP_TYPE(base)   = CY_USBFS_DEV_DRV_WRITE_ODD(0UL);
 139              		.loc 1 145 0
 140 0052 C5F83C32 		str	r3, [r5, #572]
 146:Generated_Source\PSoC6\pdl\drivers\peripheral\usbfs/cy_usbfs_dev_drv_io.c **** 
 147:Generated_Source\PSoC6\pdl\drivers\peripheral\usbfs/cy_usbfs_dev_drv_io.c ****             /* Configure DMA burst size */
 148:Generated_Source\PSoC6\pdl\drivers\peripheral\usbfs/cy_usbfs_dev_drv_io.c ****             USBFS_DEV_BUF_SIZE(base)    = ENDPOINTS_BUFFER_SIZE;
 141              		.loc 1 148 0
 142 0056 5523     		movs	r3, #85
 143 0058 C5F83032 		str	r3, [r5, #560]
 149:Generated_Source\PSoC6\pdl\drivers\peripheral\usbfs/cy_usbfs_dev_drv_io.c ****             USBFS_DEV_DMA_THRES16(base) = DMA_YLOOP_INCREMENT;
 144              		.loc 1 149 0
 145 005c 2022     		movs	r2, #32
 146              	.LVL12:
 147 005e 41F2F023 		movw	r3, #4848
 148 0062 EA50     		str	r2, [r5, r3]
 149              	.L2:
 150 0064 70BD     		pop	{r4, r5, r6, pc}
 151              	.LBE111:
 152              		.cfi_endproc
 153              	.LFE258:
 154              		.size	Cy_USBFS_Dev_Drv_ConfigDevice, .-Cy_USBFS_Dev_Drv_ConfigDevice
 155 0066 00BF     		.section	.text.Cy_USBFS_Dev_Drv_UnConfigureDevice,"ax",%progbits
 156              		.align	2
 157              		.global	Cy_USBFS_Dev_Drv_UnConfigureDevice
 158              		.thumb
 159              		.thumb_func
 160              		.type	Cy_USBFS_Dev_Drv_UnConfigureDevice, %function
ARM GAS  C:\Users\enes_\AppData\Local\Temp\cc97b4k1.s 			page 23


 161              	Cy_USBFS_Dev_Drv_UnConfigureDevice:
 162              	.LFB259:
 150:Generated_Source\PSoC6\pdl\drivers\peripheral\usbfs/cy_usbfs_dev_drv_io.c ****         }
 151:Generated_Source\PSoC6\pdl\drivers\peripheral\usbfs/cy_usbfs_dev_drv_io.c ****     }
 152:Generated_Source\PSoC6\pdl\drivers\peripheral\usbfs/cy_usbfs_dev_drv_io.c **** }
 153:Generated_Source\PSoC6\pdl\drivers\peripheral\usbfs/cy_usbfs_dev_drv_io.c **** 
 154:Generated_Source\PSoC6\pdl\drivers\peripheral\usbfs/cy_usbfs_dev_drv_io.c **** 
 155:Generated_Source\PSoC6\pdl\drivers\peripheral\usbfs/cy_usbfs_dev_drv_io.c **** /*******************************************************************************
 156:Generated_Source\PSoC6\pdl\drivers\peripheral\usbfs/cy_usbfs_dev_drv_io.c **** * Function Name: Cy_USBFS_Dev_Drv_UnConfigureDevice
 157:Generated_Source\PSoC6\pdl\drivers\peripheral\usbfs/cy_usbfs_dev_drv_io.c **** ****************************************************************************//**
 158:Generated_Source\PSoC6\pdl\drivers\peripheral\usbfs/cy_usbfs_dev_drv_io.c **** *
 159:Generated_Source\PSoC6\pdl\drivers\peripheral\usbfs/cy_usbfs_dev_drv_io.c **** * Clear device configuration. 
 160:Generated_Source\PSoC6\pdl\drivers\peripheral\usbfs/cy_usbfs_dev_drv_io.c **** * Call this function if endpoints configuration fail.
 161:Generated_Source\PSoC6\pdl\drivers\peripheral\usbfs/cy_usbfs_dev_drv_io.c **** *
 162:Generated_Source\PSoC6\pdl\drivers\peripheral\usbfs/cy_usbfs_dev_drv_io.c **** * \param base
 163:Generated_Source\PSoC6\pdl\drivers\peripheral\usbfs/cy_usbfs_dev_drv_io.c **** * The pointer to the USBFS instance.
 164:Generated_Source\PSoC6\pdl\drivers\peripheral\usbfs/cy_usbfs_dev_drv_io.c **** *
 165:Generated_Source\PSoC6\pdl\drivers\peripheral\usbfs/cy_usbfs_dev_drv_io.c **** * \param context
 166:Generated_Source\PSoC6\pdl\drivers\peripheral\usbfs/cy_usbfs_dev_drv_io.c **** * The pointer to the context structure \ref cy_stc_usbfs_dev_drv_context_t
 167:Generated_Source\PSoC6\pdl\drivers\peripheral\usbfs/cy_usbfs_dev_drv_io.c **** * allocated by the user. The structure is used during the USBFS Device 
 168:Generated_Source\PSoC6\pdl\drivers\peripheral\usbfs/cy_usbfs_dev_drv_io.c **** * operation for internal configuration and data retention. The user must not 
 169:Generated_Source\PSoC6\pdl\drivers\peripheral\usbfs/cy_usbfs_dev_drv_io.c **** * modify anything in this structure.
 170:Generated_Source\PSoC6\pdl\drivers\peripheral\usbfs/cy_usbfs_dev_drv_io.c **** *
 171:Generated_Source\PSoC6\pdl\drivers\peripheral\usbfs/cy_usbfs_dev_drv_io.c **** *******************************************************************************/
 172:Generated_Source\PSoC6\pdl\drivers\peripheral\usbfs/cy_usbfs_dev_drv_io.c **** void Cy_USBFS_Dev_Drv_UnConfigureDevice(USBFS_Type *base, cy_stc_usbfs_dev_drv_context_t *context)
 173:Generated_Source\PSoC6\pdl\drivers\peripheral\usbfs/cy_usbfs_dev_drv_io.c **** {
 163              		.loc 1 173 0
 164              		.cfi_startproc
 165              		@ args = 0, pretend = 0, frame = 0
 166              		@ frame_needed = 0, uses_anonymous_args = 0
 167              	.LVL13:
 168 0000 70B5     		push	{r4, r5, r6, lr}
 169              		.cfi_def_cfa_offset 16
 170              		.cfi_offset 4, -16
 171              		.cfi_offset 5, -12
 172              		.cfi_offset 6, -8
 173              		.cfi_offset 14, -4
 174 0002 0646     		mov	r6, r0
 175 0004 0D46     		mov	r5, r1
 176              	.LVL14:
 174:Generated_Source\PSoC6\pdl\drivers\peripheral\usbfs/cy_usbfs_dev_drv_io.c ****     uint32_t endpoint;
 175:Generated_Source\PSoC6\pdl\drivers\peripheral\usbfs/cy_usbfs_dev_drv_io.c **** 
 176:Generated_Source\PSoC6\pdl\drivers\peripheral\usbfs/cy_usbfs_dev_drv_io.c ****     /* Clear endpoints configuration */
 177:Generated_Source\PSoC6\pdl\drivers\peripheral\usbfs/cy_usbfs_dev_drv_io.c ****     for (endpoint = 0U; endpoint <  CY_USBFS_DEV_DRV_NUM_EPS_MAX; ++endpoint)
 177              		.loc 1 177 0
 178 0006 0024     		movs	r4, #0
 179 0008 05E0     		b	.L9
 180              	.LVL15:
 181              	.L10:
 178:Generated_Source\PSoC6\pdl\drivers\peripheral\usbfs/cy_usbfs_dev_drv_io.c ****     {
 179:Generated_Source\PSoC6\pdl\drivers\peripheral\usbfs/cy_usbfs_dev_drv_io.c ****         /* Disable endpoint operation */
 180:Generated_Source\PSoC6\pdl\drivers\peripheral\usbfs/cy_usbfs_dev_drv_io.c ****         DisableEndpoint(base, endpoint, context);
 182              		.loc 1 180 0 discriminator 3
 183 000a 2A46     		mov	r2, r5
 184 000c 2146     		mov	r1, r4
 185 000e 3046     		mov	r0, r6
 186 0010 FFF7FEFF 		bl	DisableEndpoint
ARM GAS  C:\Users\enes_\AppData\Local\Temp\cc97b4k1.s 			page 24


 187              	.LVL16:
 177:Generated_Source\PSoC6\pdl\drivers\peripheral\usbfs/cy_usbfs_dev_drv_io.c ****     {
 188              		.loc 1 177 0 discriminator 3
 189 0014 0134     		adds	r4, r4, #1
 190              	.LVL17:
 191              	.L9:
 177:Generated_Source\PSoC6\pdl\drivers\peripheral\usbfs/cy_usbfs_dev_drv_io.c ****     {
 192              		.loc 1 177 0 is_stmt 0 discriminator 1
 193 0016 072C     		cmp	r4, #7
 194 0018 F7D9     		bls	.L10
 181:Generated_Source\PSoC6\pdl\drivers\peripheral\usbfs/cy_usbfs_dev_drv_io.c ****     }
 182:Generated_Source\PSoC6\pdl\drivers\peripheral\usbfs/cy_usbfs_dev_drv_io.c **** }
 195              		.loc 1 182 0 is_stmt 1
 196 001a 70BD     		pop	{r4, r5, r6, pc}
 197              		.cfi_endproc
 198              	.LFE259:
 199              		.size	Cy_USBFS_Dev_Drv_UnConfigureDevice, .-Cy_USBFS_Dev_Drv_UnConfigureDevice
 200              		.section	.text.Cy_USBFS_Dev_Drv_ConfigDeviceComplete,"ax",%progbits
 201              		.align	2
 202              		.global	Cy_USBFS_Dev_Drv_ConfigDeviceComplete
 203              		.thumb
 204              		.thumb_func
 205              		.type	Cy_USBFS_Dev_Drv_ConfigDeviceComplete, %function
 206              	Cy_USBFS_Dev_Drv_ConfigDeviceComplete:
 207              	.LFB260:
 183:Generated_Source\PSoC6\pdl\drivers\peripheral\usbfs/cy_usbfs_dev_drv_io.c **** 
 184:Generated_Source\PSoC6\pdl\drivers\peripheral\usbfs/cy_usbfs_dev_drv_io.c **** 
 185:Generated_Source\PSoC6\pdl\drivers\peripheral\usbfs/cy_usbfs_dev_drv_io.c **** /*******************************************************************************
 186:Generated_Source\PSoC6\pdl\drivers\peripheral\usbfs/cy_usbfs_dev_drv_io.c **** * Function Name: Cy_USBFS_Dev_Drv_ConfigDeviceComplete
 187:Generated_Source\PSoC6\pdl\drivers\peripheral\usbfs/cy_usbfs_dev_drv_io.c **** ****************************************************************************//**
 188:Generated_Source\PSoC6\pdl\drivers\peripheral\usbfs/cy_usbfs_dev_drv_io.c **** *
 189:Generated_Source\PSoC6\pdl\drivers\peripheral\usbfs/cy_usbfs_dev_drv_io.c **** * Locks device configuration before following operation.
 190:Generated_Source\PSoC6\pdl\drivers\peripheral\usbfs/cy_usbfs_dev_drv_io.c **** *
 191:Generated_Source\PSoC6\pdl\drivers\peripheral\usbfs/cy_usbfs_dev_drv_io.c **** * \param base
 192:Generated_Source\PSoC6\pdl\drivers\peripheral\usbfs/cy_usbfs_dev_drv_io.c **** * The pointer to the USBFS instance.
 193:Generated_Source\PSoC6\pdl\drivers\peripheral\usbfs/cy_usbfs_dev_drv_io.c **** *
 194:Generated_Source\PSoC6\pdl\drivers\peripheral\usbfs/cy_usbfs_dev_drv_io.c **** * \param context
 195:Generated_Source\PSoC6\pdl\drivers\peripheral\usbfs/cy_usbfs_dev_drv_io.c **** * The pointer to the context structure \ref cy_stc_usbfs_dev_drv_context_t
 196:Generated_Source\PSoC6\pdl\drivers\peripheral\usbfs/cy_usbfs_dev_drv_io.c **** * allocated by the user. The structure is used during the USBFS Device 
 197:Generated_Source\PSoC6\pdl\drivers\peripheral\usbfs/cy_usbfs_dev_drv_io.c **** * operation for internal configuration and data retention. The user must not 
 198:Generated_Source\PSoC6\pdl\drivers\peripheral\usbfs/cy_usbfs_dev_drv_io.c **** * modify anything in this structure.
 199:Generated_Source\PSoC6\pdl\drivers\peripheral\usbfs/cy_usbfs_dev_drv_io.c **** *
 200:Generated_Source\PSoC6\pdl\drivers\peripheral\usbfs/cy_usbfs_dev_drv_io.c **** *******************************************************************************/
 201:Generated_Source\PSoC6\pdl\drivers\peripheral\usbfs/cy_usbfs_dev_drv_io.c **** void Cy_USBFS_Dev_Drv_ConfigDeviceComplete(USBFS_Type *base, cy_stc_usbfs_dev_drv_context_t const *
 202:Generated_Source\PSoC6\pdl\drivers\peripheral\usbfs/cy_usbfs_dev_drv_io.c **** {
 208              		.loc 1 202 0
 209              		.cfi_startproc
 210              		@ args = 0, pretend = 0, frame = 0
 211              		@ frame_needed = 0, uses_anonymous_args = 0
 212              		@ link register save eliminated.
 213              	.LVL18:
 203:Generated_Source\PSoC6\pdl\drivers\peripheral\usbfs/cy_usbfs_dev_drv_io.c ****     if (CY_USBFS_DEV_DRV_EP_MANAGEMENT_CPU != context->mode)
 214              		.loc 1 203 0
 215 0000 0B78     		ldrb	r3, [r1]	@ zero_extendqisi2
 216 0002 2BB1     		cbz	r3, .L12
 204:Generated_Source\PSoC6\pdl\drivers\peripheral\usbfs/cy_usbfs_dev_drv_io.c ****     {
 205:Generated_Source\PSoC6\pdl\drivers\peripheral\usbfs/cy_usbfs_dev_drv_io.c ****         /* Configuration complete: set configuration complete bit (generate rising edge) */
ARM GAS  C:\Users\enes_\AppData\Local\Temp\cc97b4k1.s 			page 25


 206:Generated_Source\PSoC6\pdl\drivers\peripheral\usbfs/cy_usbfs_dev_drv_io.c ****         USBFS_DEV_ARB_CFG(base) |= USBFS_USBDEV_ARB_CFG_CFG_CMP_Msk;
 217              		.loc 1 206 0
 218 0004 D0F87032 		ldr	r3, [r0, #624]
 219 0008 43F08003 		orr	r3, r3, #128
 220 000c C0F87032 		str	r3, [r0, #624]
 221              	.L12:
 222 0010 7047     		bx	lr
 223              		.cfi_endproc
 224              	.LFE260:
 225              		.size	Cy_USBFS_Dev_Drv_ConfigDeviceComplete, .-Cy_USBFS_Dev_Drv_ConfigDeviceComplete
 226 0012 00BF     		.section	.text.GetEndpointBuffer,"ax",%progbits
 227              		.align	2
 228              		.global	GetEndpointBuffer
 229              		.thumb
 230              		.thumb_func
 231              		.type	GetEndpointBuffer, %function
 232              	GetEndpointBuffer:
 233              	.LFB261:
 207:Generated_Source\PSoC6\pdl\drivers\peripheral\usbfs/cy_usbfs_dev_drv_io.c ****     }
 208:Generated_Source\PSoC6\pdl\drivers\peripheral\usbfs/cy_usbfs_dev_drv_io.c **** }
 209:Generated_Source\PSoC6\pdl\drivers\peripheral\usbfs/cy_usbfs_dev_drv_io.c **** 
 210:Generated_Source\PSoC6\pdl\drivers\peripheral\usbfs/cy_usbfs_dev_drv_io.c **** 
 211:Generated_Source\PSoC6\pdl\drivers\peripheral\usbfs/cy_usbfs_dev_drv_io.c **** /*******************************************************************************
 212:Generated_Source\PSoC6\pdl\drivers\peripheral\usbfs/cy_usbfs_dev_drv_io.c **** * Function Name: GetEndpointBuffer
 213:Generated_Source\PSoC6\pdl\drivers\peripheral\usbfs/cy_usbfs_dev_drv_io.c **** ****************************************************************************//**
 214:Generated_Source\PSoC6\pdl\drivers\peripheral\usbfs/cy_usbfs_dev_drv_io.c **** *
 215:Generated_Source\PSoC6\pdl\drivers\peripheral\usbfs/cy_usbfs_dev_drv_io.c **** * Returns start position in the allocated buffer for data endpoint.
 216:Generated_Source\PSoC6\pdl\drivers\peripheral\usbfs/cy_usbfs_dev_drv_io.c **** *
 217:Generated_Source\PSoC6\pdl\drivers\peripheral\usbfs/cy_usbfs_dev_drv_io.c **** * \param size
 218:Generated_Source\PSoC6\pdl\drivers\peripheral\usbfs/cy_usbfs_dev_drv_io.c **** * Data endpoint buffer size.
 219:Generated_Source\PSoC6\pdl\drivers\peripheral\usbfs/cy_usbfs_dev_drv_io.c **** *
 220:Generated_Source\PSoC6\pdl\drivers\peripheral\usbfs/cy_usbfs_dev_drv_io.c **** * \param idx
 221:Generated_Source\PSoC6\pdl\drivers\peripheral\usbfs/cy_usbfs_dev_drv_io.c **** * Start position of the allocated endpoint buffer.
 222:Generated_Source\PSoC6\pdl\drivers\peripheral\usbfs/cy_usbfs_dev_drv_io.c **** *
 223:Generated_Source\PSoC6\pdl\drivers\peripheral\usbfs/cy_usbfs_dev_drv_io.c **** * \param context
 224:Generated_Source\PSoC6\pdl\drivers\peripheral\usbfs/cy_usbfs_dev_drv_io.c **** * The pointer to the context structure \ref cy_stc_usbfs_dev_drv_context_t
 225:Generated_Source\PSoC6\pdl\drivers\peripheral\usbfs/cy_usbfs_dev_drv_io.c **** * allocated by the user. The structure is used during the USBFS Device 
 226:Generated_Source\PSoC6\pdl\drivers\peripheral\usbfs/cy_usbfs_dev_drv_io.c **** * operation for internal configuration and data retention. The user must not 
 227:Generated_Source\PSoC6\pdl\drivers\peripheral\usbfs/cy_usbfs_dev_drv_io.c **** * modify anything in this structure.
 228:Generated_Source\PSoC6\pdl\drivers\peripheral\usbfs/cy_usbfs_dev_drv_io.c **** *
 229:Generated_Source\PSoC6\pdl\drivers\peripheral\usbfs/cy_usbfs_dev_drv_io.c **** * \return
 230:Generated_Source\PSoC6\pdl\drivers\peripheral\usbfs/cy_usbfs_dev_drv_io.c **** * Status code of the function execution \ref cy_en_usbfs_dev_drv_status_t.
 231:Generated_Source\PSoC6\pdl\drivers\peripheral\usbfs/cy_usbfs_dev_drv_io.c **** *
 232:Generated_Source\PSoC6\pdl\drivers\peripheral\usbfs/cy_usbfs_dev_drv_io.c **** *******************************************************************************/
 233:Generated_Source\PSoC6\pdl\drivers\peripheral\usbfs/cy_usbfs_dev_drv_io.c **** cy_en_usbfs_dev_drv_status_t GetEndpointBuffer(uint32_t size, uint32_t *idx, cy_stc_usbfs_dev_drv_c
 234:Generated_Source\PSoC6\pdl\drivers\peripheral\usbfs/cy_usbfs_dev_drv_io.c **** {
 234              		.loc 1 234 0
 235              		.cfi_startproc
 236              		@ args = 0, pretend = 0, frame = 0
 237              		@ frame_needed = 0, uses_anonymous_args = 0
 238              		@ link register save eliminated.
 239              	.LVL19:
 240 0000 70B4     		push	{r4, r5, r6}
 241              		.cfi_def_cfa_offset 12
 242              		.cfi_offset 4, -12
 243              		.cfi_offset 5, -8
 244              		.cfi_offset 6, -4
ARM GAS  C:\Users\enes_\AppData\Local\Temp\cc97b4k1.s 			page 26


 245              	.LVL20:
 235:Generated_Source\PSoC6\pdl\drivers\peripheral\usbfs/cy_usbfs_dev_drv_io.c ****     cy_en_usbfs_dev_drv_status_t retStatus = CY_USBFS_DEV_DRV_BUF_ALLOC_FAILED;
 236:Generated_Source\PSoC6\pdl\drivers\peripheral\usbfs/cy_usbfs_dev_drv_io.c ****     uint32_t bufSize;
 237:Generated_Source\PSoC6\pdl\drivers\peripheral\usbfs/cy_usbfs_dev_drv_io.c ****     uint32_t nextBufAddr;
 238:Generated_Source\PSoC6\pdl\drivers\peripheral\usbfs/cy_usbfs_dev_drv_io.c **** 
 239:Generated_Source\PSoC6\pdl\drivers\peripheral\usbfs/cy_usbfs_dev_drv_io.c ****     /* Get max buffer size */
 240:Generated_Source\PSoC6\pdl\drivers\peripheral\usbfs/cy_usbfs_dev_drv_io.c ****     bufSize = (CY_USBFS_DEV_DRV_EP_MANAGEMENT_DMA_AUTO != context->mode) ? 
 246              		.loc 1 240 0
 247 0002 1378     		ldrb	r3, [r2]	@ zero_extendqisi2
 248 0004 022B     		cmp	r3, #2
 249 0006 01D1     		bne	.L18
 241:Generated_Source\PSoC6\pdl\drivers\peripheral\usbfs/cy_usbfs_dev_drv_io.c ****                 CY_USBFS_DEV_DRV_HW_BUFFER_SIZE : 
 242:Generated_Source\PSoC6\pdl\drivers\peripheral\usbfs/cy_usbfs_dev_drv_io.c ****                 context->epSharedBufSize;
 250              		.loc 1 242 0 discriminator 1
 251 0008 958E     		ldrh	r5, [r2, #52]
 252 000a 01E0     		b	.L15
 253              	.L18:
 240:Generated_Source\PSoC6\pdl\drivers\peripheral\usbfs/cy_usbfs_dev_drv_io.c ****                 CY_USBFS_DEV_DRV_HW_BUFFER_SIZE : 
 254              		.loc 1 240 0
 255 000c 4FF40075 		mov	r5, #512
 256              	.L15:
 257              	.LVL21:
 243:Generated_Source\PSoC6\pdl\drivers\peripheral\usbfs/cy_usbfs_dev_drv_io.c **** 
 244:Generated_Source\PSoC6\pdl\drivers\peripheral\usbfs/cy_usbfs_dev_drv_io.c ****     /* Get next buffer address. Note the end buffer size must be even for 16-bit access */
 245:Generated_Source\PSoC6\pdl\drivers\peripheral\usbfs/cy_usbfs_dev_drv_io.c ****     nextBufAddr  = (context->curBufAddr + size);
 258              		.loc 1 245 0 discriminator 4
 259 0010 D48E     		ldrh	r4, [r2, #54]
 260 0012 2318     		adds	r3, r4, r0
 261              	.LVL22:
 246:Generated_Source\PSoC6\pdl\drivers\peripheral\usbfs/cy_usbfs_dev_drv_io.c ****     nextBufAddr += (context->useReg16) ? (size & 0x01U) : 0U;
 262              		.loc 1 246 0 discriminator 4
 263 0014 5678     		ldrb	r6, [r2, #1]	@ zero_extendqisi2
 264 0016 16B1     		cbz	r6, .L19
 265              		.loc 1 246 0 is_stmt 0 discriminator 1
 266 0018 00F00100 		and	r0, r0, #1
 267              	.LVL23:
 268 001c 00E0     		b	.L16
 269              	.LVL24:
 270              	.L19:
 271              		.loc 1 246 0
 272 001e 0020     		movs	r0, #0
 273              	.LVL25:
 274              	.L16:
 275              		.loc 1 246 0 discriminator 4
 276 0020 1844     		add	r0, r0, r3
 277              	.LVL26:
 247:Generated_Source\PSoC6\pdl\drivers\peripheral\usbfs/cy_usbfs_dev_drv_io.c **** 
 248:Generated_Source\PSoC6\pdl\drivers\peripheral\usbfs/cy_usbfs_dev_drv_io.c ****     /* Check whether there is enough space in the buffer */
 249:Generated_Source\PSoC6\pdl\drivers\peripheral\usbfs/cy_usbfs_dev_drv_io.c ****     if (nextBufAddr <= bufSize)
 278              		.loc 1 249 0 is_stmt 1 discriminator 4
 279 0022 8542     		cmp	r5, r0
 280 0024 03D3     		bcc	.L20
 250:Generated_Source\PSoC6\pdl\drivers\peripheral\usbfs/cy_usbfs_dev_drv_io.c ****     {
 251:Generated_Source\PSoC6\pdl\drivers\peripheral\usbfs/cy_usbfs_dev_drv_io.c ****         /* Update pointers */
 252:Generated_Source\PSoC6\pdl\drivers\peripheral\usbfs/cy_usbfs_dev_drv_io.c ****         *idx = context->curBufAddr;
 281              		.loc 1 252 0
 282 0026 0C60     		str	r4, [r1]
ARM GAS  C:\Users\enes_\AppData\Local\Temp\cc97b4k1.s 			page 27


 253:Generated_Source\PSoC6\pdl\drivers\peripheral\usbfs/cy_usbfs_dev_drv_io.c ****         context->curBufAddr = (uint16_t) nextBufAddr;
 283              		.loc 1 253 0
 284 0028 D086     		strh	r0, [r2, #54]	@ movhi
 285              	.LVL27:
 254:Generated_Source\PSoC6\pdl\drivers\peripheral\usbfs/cy_usbfs_dev_drv_io.c **** 
 255:Generated_Source\PSoC6\pdl\drivers\peripheral\usbfs/cy_usbfs_dev_drv_io.c ****         retStatus = CY_USBFS_DEV_DRV_SUCCESS;
 286              		.loc 1 255 0
 287 002a 0020     		movs	r0, #0
 288              	.LVL28:
 289 002c 00E0     		b	.L17
 290              	.LVL29:
 291              	.L20:
 235:Generated_Source\PSoC6\pdl\drivers\peripheral\usbfs/cy_usbfs_dev_drv_io.c ****     uint32_t bufSize;
 292              		.loc 1 235 0
 293 002e 0148     		ldr	r0, .L22
 294              	.LVL30:
 295              	.L17:
 256:Generated_Source\PSoC6\pdl\drivers\peripheral\usbfs/cy_usbfs_dev_drv_io.c ****     }
 257:Generated_Source\PSoC6\pdl\drivers\peripheral\usbfs/cy_usbfs_dev_drv_io.c **** 
 258:Generated_Source\PSoC6\pdl\drivers\peripheral\usbfs/cy_usbfs_dev_drv_io.c ****     return retStatus;
 259:Generated_Source\PSoC6\pdl\drivers\peripheral\usbfs/cy_usbfs_dev_drv_io.c **** }
 296              		.loc 1 259 0
 297 0030 70BC     		pop	{r4, r5, r6}
 298              		.cfi_restore 6
 299              		.cfi_restore 5
 300              		.cfi_restore 4
 301              		.cfi_def_cfa_offset 0
 302              	.LVL31:
 303 0032 7047     		bx	lr
 304              	.L23:
 305              		.align	2
 306              	.L22:
 307 0034 0200EE00 		.word	15597570
 308              		.cfi_endproc
 309              	.LFE261:
 310              		.size	GetEndpointBuffer, .-GetEndpointBuffer
 311              		.section	.text.RestoreEndpointHwBuffer,"ax",%progbits
 312              		.align	2
 313              		.global	RestoreEndpointHwBuffer
 314              		.thumb
 315              		.thumb_func
 316              		.type	RestoreEndpointHwBuffer, %function
 317              	RestoreEndpointHwBuffer:
 318              	.LFB262:
 260:Generated_Source\PSoC6\pdl\drivers\peripheral\usbfs/cy_usbfs_dev_drv_io.c **** 
 261:Generated_Source\PSoC6\pdl\drivers\peripheral\usbfs/cy_usbfs_dev_drv_io.c **** 
 262:Generated_Source\PSoC6\pdl\drivers\peripheral\usbfs/cy_usbfs_dev_drv_io.c **** /*******************************************************************************
 263:Generated_Source\PSoC6\pdl\drivers\peripheral\usbfs/cy_usbfs_dev_drv_io.c **** * Function Name: RestoreEndpointHwBuffer
 264:Generated_Source\PSoC6\pdl\drivers\peripheral\usbfs/cy_usbfs_dev_drv_io.c **** ****************************************************************************//**
 265:Generated_Source\PSoC6\pdl\drivers\peripheral\usbfs/cy_usbfs_dev_drv_io.c **** *
 266:Generated_Source\PSoC6\pdl\drivers\peripheral\usbfs/cy_usbfs_dev_drv_io.c **** * Restores endpoint active configuration for 
 267:Generated_Source\PSoC6\pdl\drivers\peripheral\usbfs/cy_usbfs_dev_drv_io.c **** * \ref CY_USBFS_DEV_DRV_EP_MANAGEMENT_CPU and 
 268:Generated_Source\PSoC6\pdl\drivers\peripheral\usbfs/cy_usbfs_dev_drv_io.c **** * \ref CY_USBFS_DEV_DRV_EP_MANAGEMENT_DMA modes.
 269:Generated_Source\PSoC6\pdl\drivers\peripheral\usbfs/cy_usbfs_dev_drv_io.c **** *
 270:Generated_Source\PSoC6\pdl\drivers\peripheral\usbfs/cy_usbfs_dev_drv_io.c **** * \param base
 271:Generated_Source\PSoC6\pdl\drivers\peripheral\usbfs/cy_usbfs_dev_drv_io.c **** * The pointer to the USBFS instance.
 272:Generated_Source\PSoC6\pdl\drivers\peripheral\usbfs/cy_usbfs_dev_drv_io.c **** *
ARM GAS  C:\Users\enes_\AppData\Local\Temp\cc97b4k1.s 			page 28


 273:Generated_Source\PSoC6\pdl\drivers\peripheral\usbfs/cy_usbfs_dev_drv_io.c **** * \param endpoint
 274:Generated_Source\PSoC6\pdl\drivers\peripheral\usbfs/cy_usbfs_dev_drv_io.c **** * The OUT data endpoint number.
 275:Generated_Source\PSoC6\pdl\drivers\peripheral\usbfs/cy_usbfs_dev_drv_io.c **** *
 276:Generated_Source\PSoC6\pdl\drivers\peripheral\usbfs/cy_usbfs_dev_drv_io.c **** * \param context
 277:Generated_Source\PSoC6\pdl\drivers\peripheral\usbfs/cy_usbfs_dev_drv_io.c **** * The pointer to the context structure \ref cy_stc_usbfs_dev_drv_context_t
 278:Generated_Source\PSoC6\pdl\drivers\peripheral\usbfs/cy_usbfs_dev_drv_io.c **** * allocated by the user. The structure is used during the USBFS Device 
 279:Generated_Source\PSoC6\pdl\drivers\peripheral\usbfs/cy_usbfs_dev_drv_io.c **** * operation for internal configuration and data retention. The user must not 
 280:Generated_Source\PSoC6\pdl\drivers\peripheral\usbfs/cy_usbfs_dev_drv_io.c **** * modify anything in this structure.
 281:Generated_Source\PSoC6\pdl\drivers\peripheral\usbfs/cy_usbfs_dev_drv_io.c **** *
 282:Generated_Source\PSoC6\pdl\drivers\peripheral\usbfs/cy_usbfs_dev_drv_io.c **** *******************************************************************************/
 283:Generated_Source\PSoC6\pdl\drivers\peripheral\usbfs/cy_usbfs_dev_drv_io.c **** void RestoreEndpointHwBuffer(USBFS_Type *base, 
 284:Generated_Source\PSoC6\pdl\drivers\peripheral\usbfs/cy_usbfs_dev_drv_io.c ****                              cy_en_usbfs_dev_drv_ep_management_mode_t mode,
 285:Generated_Source\PSoC6\pdl\drivers\peripheral\usbfs/cy_usbfs_dev_drv_io.c ****                              cy_stc_usbfs_dev_drv_endpoint_data_t *endpointData)
 286:Generated_Source\PSoC6\pdl\drivers\peripheral\usbfs/cy_usbfs_dev_drv_io.c **** {
 319              		.loc 1 286 0
 320              		.cfi_startproc
 321              		@ args = 0, pretend = 0, frame = 0
 322              		@ frame_needed = 0, uses_anonymous_args = 0
 323              	.LVL32:
 324 0000 2DE9F843 		push	{r3, r4, r5, r6, r7, r8, r9, lr}
 325              		.cfi_def_cfa_offset 32
 326              		.cfi_offset 3, -32
 327              		.cfi_offset 4, -28
 328              		.cfi_offset 5, -24
 329              		.cfi_offset 6, -20
 330              		.cfi_offset 7, -16
 331              		.cfi_offset 8, -12
 332              		.cfi_offset 9, -8
 333              		.cfi_offset 14, -4
 334 0004 0746     		mov	r7, r0
 335 0006 1446     		mov	r4, r2
 287:Generated_Source\PSoC6\pdl\drivers\peripheral\usbfs/cy_usbfs_dev_drv_io.c ****     bool inDirection  = IS_EP_DIR_IN(endpointData->address);
 336              		.loc 1 287 0
 337 0008 1278     		ldrb	r2, [r2]	@ zero_extendqisi2
 338              	.LVL33:
 288:Generated_Source\PSoC6\pdl\drivers\peripheral\usbfs/cy_usbfs_dev_drv_io.c ****     uint32_t endpoint = EPADDR2PHY(endpointData->address);
 339              		.loc 1 288 0
 340 000a 2578     		ldrb	r5, [r4]	@ zero_extendqisi2
 341 000c 05F00F05 		and	r5, r5, #15
 342 0010 013D     		subs	r5, r5, #1
 343              	.LVL34:
 289:Generated_Source\PSoC6\pdl\drivers\peripheral\usbfs/cy_usbfs_dev_drv_io.c **** 
 290:Generated_Source\PSoC6\pdl\drivers\peripheral\usbfs/cy_usbfs_dev_drv_io.c ****     /* Clear state: MEM_DATA is not non-retention */
 291:Generated_Source\PSoC6\pdl\drivers\peripheral\usbfs/cy_usbfs_dev_drv_io.c ****     endpointData->state = CY_USB_DEV_EP_IDLE;
 344              		.loc 1 291 0
 345 0012 0023     		movs	r3, #0
 346 0014 6373     		strb	r3, [r4, #13]
 292:Generated_Source\PSoC6\pdl\drivers\peripheral\usbfs/cy_usbfs_dev_drv_io.c **** 
 293:Generated_Source\PSoC6\pdl\drivers\peripheral\usbfs/cy_usbfs_dev_drv_io.c ****     /* Set Arbiter read and write pointers */
 294:Generated_Source\PSoC6\pdl\drivers\peripheral\usbfs/cy_usbfs_dev_drv_io.c ****     Cy_USBFS_Dev_Drv_SetArbWriteAddr(base, endpoint, (uint32_t) endpointData->startBuf);
 347              		.loc 1 294 0
 348 0016 6389     		ldrh	r3, [r4, #10]
 349 0018 9BB2     		uxth	r3, r3
 350              	.LVL35:
 351              	.LBB130:
 352              	.LBB131:
 944:Generated_Source\PSoC6\pdl\drivers\peripheral\usbfs/cy_usbfs_dev_drv_reg.h **** }
ARM GAS  C:\Users\enes_\AppData\Local\Temp\cc97b4k1.s 			page 29


 945:Generated_Source\PSoC6\pdl\drivers\peripheral\usbfs/cy_usbfs_dev_drv_reg.h **** 
 946:Generated_Source\PSoC6\pdl\drivers\peripheral\usbfs/cy_usbfs_dev_drv_reg.h **** 
 947:Generated_Source\PSoC6\pdl\drivers\peripheral\usbfs/cy_usbfs_dev_drv_reg.h **** /*******************************************************************************
 948:Generated_Source\PSoC6\pdl\drivers\peripheral\usbfs/cy_usbfs_dev_drv_reg.h **** * Function Name: Cy_USBFS_Dev_Drv_SetArbCfgEpInReady
 949:Generated_Source\PSoC6\pdl\drivers\peripheral\usbfs/cy_usbfs_dev_drv_reg.h **** ****************************************************************************//**
 950:Generated_Source\PSoC6\pdl\drivers\peripheral\usbfs/cy_usbfs_dev_drv_reg.h **** *
 951:Generated_Source\PSoC6\pdl\drivers\peripheral\usbfs/cy_usbfs_dev_drv_reg.h **** * Notifies hardware that IN endpoint data buffer is read to be loaded in
 952:Generated_Source\PSoC6\pdl\drivers\peripheral\usbfs/cy_usbfs_dev_drv_reg.h **** * the hardware buffer.
 953:Generated_Source\PSoC6\pdl\drivers\peripheral\usbfs/cy_usbfs_dev_drv_reg.h **** *
 954:Generated_Source\PSoC6\pdl\drivers\peripheral\usbfs/cy_usbfs_dev_drv_reg.h **** * \param base
 955:Generated_Source\PSoC6\pdl\drivers\peripheral\usbfs/cy_usbfs_dev_drv_reg.h **** * The pointer to the USBFS instance.
 956:Generated_Source\PSoC6\pdl\drivers\peripheral\usbfs/cy_usbfs_dev_drv_reg.h **** *
 957:Generated_Source\PSoC6\pdl\drivers\peripheral\usbfs/cy_usbfs_dev_drv_reg.h **** * \param endpoint
 958:Generated_Source\PSoC6\pdl\drivers\peripheral\usbfs/cy_usbfs_dev_drv_reg.h **** * Physical endpoint number. 
 959:Generated_Source\PSoC6\pdl\drivers\peripheral\usbfs/cy_usbfs_dev_drv_reg.h **** * Valid range: 0 - ( \ref CY_USBFS_DEV_DRV_NUM_EPS_MAX - 1 ).
 960:Generated_Source\PSoC6\pdl\drivers\peripheral\usbfs/cy_usbfs_dev_drv_reg.h **** *
 961:Generated_Source\PSoC6\pdl\drivers\peripheral\usbfs/cy_usbfs_dev_drv_reg.h **** *******************************************************************************/
 962:Generated_Source\PSoC6\pdl\drivers\peripheral\usbfs/cy_usbfs_dev_drv_reg.h **** __STATIC_INLINE void Cy_USBFS_Dev_Drv_SetArbCfgEpInReady(USBFS_Type *base, uint32_t endpoint)
 963:Generated_Source\PSoC6\pdl\drivers\peripheral\usbfs/cy_usbfs_dev_drv_reg.h **** {
 964:Generated_Source\PSoC6\pdl\drivers\peripheral\usbfs/cy_usbfs_dev_drv_reg.h ****     USBFS_DEV_ARB_EP_CFG(base, endpoint) |= USBFS_USBDEV_ARB_EP1_CFG_IN_DATA_RDY_Msk;
 965:Generated_Source\PSoC6\pdl\drivers\peripheral\usbfs/cy_usbfs_dev_drv_reg.h **** }
 966:Generated_Source\PSoC6\pdl\drivers\peripheral\usbfs/cy_usbfs_dev_drv_reg.h **** 
 967:Generated_Source\PSoC6\pdl\drivers\peripheral\usbfs/cy_usbfs_dev_drv_reg.h **** 
 968:Generated_Source\PSoC6\pdl\drivers\peripheral\usbfs/cy_usbfs_dev_drv_reg.h **** /*******************************************************************************
 969:Generated_Source\PSoC6\pdl\drivers\peripheral\usbfs/cy_usbfs_dev_drv_reg.h **** * Function Name: Cy_USBFS_Dev_Drv_ClearArbCfgEpInReady
 970:Generated_Source\PSoC6\pdl\drivers\peripheral\usbfs/cy_usbfs_dev_drv_reg.h **** ****************************************************************************//**
 971:Generated_Source\PSoC6\pdl\drivers\peripheral\usbfs/cy_usbfs_dev_drv_reg.h **** *
 972:Generated_Source\PSoC6\pdl\drivers\peripheral\usbfs/cy_usbfs_dev_drv_reg.h **** * Clears hardware notification that IN endpoint data buffer is read to be loaded
 973:Generated_Source\PSoC6\pdl\drivers\peripheral\usbfs/cy_usbfs_dev_drv_reg.h **** * in the hardware buffer. This function needs to be called after buffer was
 974:Generated_Source\PSoC6\pdl\drivers\peripheral\usbfs/cy_usbfs_dev_drv_reg.h **** * copied into the hardware buffer.
 975:Generated_Source\PSoC6\pdl\drivers\peripheral\usbfs/cy_usbfs_dev_drv_reg.h **** *
 976:Generated_Source\PSoC6\pdl\drivers\peripheral\usbfs/cy_usbfs_dev_drv_reg.h **** * \param base
 977:Generated_Source\PSoC6\pdl\drivers\peripheral\usbfs/cy_usbfs_dev_drv_reg.h **** * The pointer to the USBFS instance.
 978:Generated_Source\PSoC6\pdl\drivers\peripheral\usbfs/cy_usbfs_dev_drv_reg.h **** *
 979:Generated_Source\PSoC6\pdl\drivers\peripheral\usbfs/cy_usbfs_dev_drv_reg.h **** * \param endpoint
 980:Generated_Source\PSoC6\pdl\drivers\peripheral\usbfs/cy_usbfs_dev_drv_reg.h **** * Physical endpoint number. 
 981:Generated_Source\PSoC6\pdl\drivers\peripheral\usbfs/cy_usbfs_dev_drv_reg.h **** * Valid range: 0 - ( \ref CY_USBFS_DEV_DRV_NUM_EPS_MAX - 1 ).
 982:Generated_Source\PSoC6\pdl\drivers\peripheral\usbfs/cy_usbfs_dev_drv_reg.h **** 
 983:Generated_Source\PSoC6\pdl\drivers\peripheral\usbfs/cy_usbfs_dev_drv_reg.h **** *
 984:Generated_Source\PSoC6\pdl\drivers\peripheral\usbfs/cy_usbfs_dev_drv_reg.h **** *******************************************************************************/
 985:Generated_Source\PSoC6\pdl\drivers\peripheral\usbfs/cy_usbfs_dev_drv_reg.h **** __STATIC_INLINE void Cy_USBFS_Dev_Drv_ClearArbCfgEpInReady(USBFS_Type *base, uint32_t endpoint)
 986:Generated_Source\PSoC6\pdl\drivers\peripheral\usbfs/cy_usbfs_dev_drv_reg.h **** {
 987:Generated_Source\PSoC6\pdl\drivers\peripheral\usbfs/cy_usbfs_dev_drv_reg.h ****     USBFS_DEV_ARB_EP_CFG(base, endpoint) &= ~USBFS_USBDEV_ARB_EP1_CFG_IN_DATA_RDY_Msk;
 988:Generated_Source\PSoC6\pdl\drivers\peripheral\usbfs/cy_usbfs_dev_drv_reg.h **** }
 989:Generated_Source\PSoC6\pdl\drivers\peripheral\usbfs/cy_usbfs_dev_drv_reg.h **** 
 990:Generated_Source\PSoC6\pdl\drivers\peripheral\usbfs/cy_usbfs_dev_drv_reg.h **** 
 991:Generated_Source\PSoC6\pdl\drivers\peripheral\usbfs/cy_usbfs_dev_drv_reg.h **** /*******************************************************************************
 992:Generated_Source\PSoC6\pdl\drivers\peripheral\usbfs/cy_usbfs_dev_drv_reg.h **** * Function Name: Cy_USBFS_Dev_Drv_TriggerArbCfgEpDmaReq
 993:Generated_Source\PSoC6\pdl\drivers\peripheral\usbfs/cy_usbfs_dev_drv_reg.h **** ****************************************************************************//**
 994:Generated_Source\PSoC6\pdl\drivers\peripheral\usbfs/cy_usbfs_dev_drv_reg.h **** *
 995:Generated_Source\PSoC6\pdl\drivers\peripheral\usbfs/cy_usbfs_dev_drv_reg.h **** * Triggers a DMA request to read from or write data into the hardware buffer.
 996:Generated_Source\PSoC6\pdl\drivers\peripheral\usbfs/cy_usbfs_dev_drv_reg.h **** *
 997:Generated_Source\PSoC6\pdl\drivers\peripheral\usbfs/cy_usbfs_dev_drv_reg.h **** * \param base
 998:Generated_Source\PSoC6\pdl\drivers\peripheral\usbfs/cy_usbfs_dev_drv_reg.h **** * The pointer to the USBFS instance.
 999:Generated_Source\PSoC6\pdl\drivers\peripheral\usbfs/cy_usbfs_dev_drv_reg.h **** *
1000:Generated_Source\PSoC6\pdl\drivers\peripheral\usbfs/cy_usbfs_dev_drv_reg.h **** * \param endpoint
1001:Generated_Source\PSoC6\pdl\drivers\peripheral\usbfs/cy_usbfs_dev_drv_reg.h **** * Physical endpoint number. 
ARM GAS  C:\Users\enes_\AppData\Local\Temp\cc97b4k1.s 			page 30


1002:Generated_Source\PSoC6\pdl\drivers\peripheral\usbfs/cy_usbfs_dev_drv_reg.h **** * Valid range: 0 - ( \ref CY_USBFS_DEV_DRV_NUM_EPS_MAX - 1 ).
1003:Generated_Source\PSoC6\pdl\drivers\peripheral\usbfs/cy_usbfs_dev_drv_reg.h **** *
1004:Generated_Source\PSoC6\pdl\drivers\peripheral\usbfs/cy_usbfs_dev_drv_reg.h **** *******************************************************************************/
1005:Generated_Source\PSoC6\pdl\drivers\peripheral\usbfs/cy_usbfs_dev_drv_reg.h **** __STATIC_INLINE void Cy_USBFS_Dev_Drv_TriggerArbCfgEpDmaReq(USBFS_Type *base, uint32_t endpoint)
1006:Generated_Source\PSoC6\pdl\drivers\peripheral\usbfs/cy_usbfs_dev_drv_reg.h **** {
1007:Generated_Source\PSoC6\pdl\drivers\peripheral\usbfs/cy_usbfs_dev_drv_reg.h ****     /* Generates DMA request */
1008:Generated_Source\PSoC6\pdl\drivers\peripheral\usbfs/cy_usbfs_dev_drv_reg.h ****     USBFS_DEV_ARB_EP_CFG(base, endpoint) |=  USBFS_USBDEV_ARB_EP1_CFG_DMA_REQ_Msk;
1009:Generated_Source\PSoC6\pdl\drivers\peripheral\usbfs/cy_usbfs_dev_drv_reg.h ****     (void) USBFS_DEV_ARB_EP_CFG(base, endpoint);
1010:Generated_Source\PSoC6\pdl\drivers\peripheral\usbfs/cy_usbfs_dev_drv_reg.h ****     USBFS_DEV_ARB_EP_CFG(base, endpoint) &= ~USBFS_USBDEV_ARB_EP1_CFG_DMA_REQ_Msk;
1011:Generated_Source\PSoC6\pdl\drivers\peripheral\usbfs/cy_usbfs_dev_drv_reg.h ****     (void) USBFS_DEV_ARB_EP_CFG(base, endpoint);
1012:Generated_Source\PSoC6\pdl\drivers\peripheral\usbfs/cy_usbfs_dev_drv_reg.h **** }
1013:Generated_Source\PSoC6\pdl\drivers\peripheral\usbfs/cy_usbfs_dev_drv_reg.h **** 
1014:Generated_Source\PSoC6\pdl\drivers\peripheral\usbfs/cy_usbfs_dev_drv_reg.h **** 
1015:Generated_Source\PSoC6\pdl\drivers\peripheral\usbfs/cy_usbfs_dev_drv_reg.h **** /*******************************************************************************
1016:Generated_Source\PSoC6\pdl\drivers\peripheral\usbfs/cy_usbfs_dev_drv_reg.h **** * Function Name: Cy_USBFS_Dev_Drv_SetArbWriteAddr
1017:Generated_Source\PSoC6\pdl\drivers\peripheral\usbfs/cy_usbfs_dev_drv_reg.h **** ****************************************************************************//**
1018:Generated_Source\PSoC6\pdl\drivers\peripheral\usbfs/cy_usbfs_dev_drv_reg.h **** *
1019:Generated_Source\PSoC6\pdl\drivers\peripheral\usbfs/cy_usbfs_dev_drv_reg.h **** * Sets write address in the hardware buffer for the specified endpoint.
1020:Generated_Source\PSoC6\pdl\drivers\peripheral\usbfs/cy_usbfs_dev_drv_reg.h **** * This is the start address of the endpoint buffer.
1021:Generated_Source\PSoC6\pdl\drivers\peripheral\usbfs/cy_usbfs_dev_drv_reg.h **** *
1022:Generated_Source\PSoC6\pdl\drivers\peripheral\usbfs/cy_usbfs_dev_drv_reg.h **** * \param base
1023:Generated_Source\PSoC6\pdl\drivers\peripheral\usbfs/cy_usbfs_dev_drv_reg.h **** * The pointer to the USBFS instance.
1024:Generated_Source\PSoC6\pdl\drivers\peripheral\usbfs/cy_usbfs_dev_drv_reg.h **** *
1025:Generated_Source\PSoC6\pdl\drivers\peripheral\usbfs/cy_usbfs_dev_drv_reg.h **** * \param endpoint
1026:Generated_Source\PSoC6\pdl\drivers\peripheral\usbfs/cy_usbfs_dev_drv_reg.h **** * Physical endpoint number. 
1027:Generated_Source\PSoC6\pdl\drivers\peripheral\usbfs/cy_usbfs_dev_drv_reg.h **** * Valid range: 0 - ( \ref CY_USBFS_DEV_DRV_NUM_EPS_MAX - 1 ).
1028:Generated_Source\PSoC6\pdl\drivers\peripheral\usbfs/cy_usbfs_dev_drv_reg.h **** *
1029:Generated_Source\PSoC6\pdl\drivers\peripheral\usbfs/cy_usbfs_dev_drv_reg.h **** * \param wa
1030:Generated_Source\PSoC6\pdl\drivers\peripheral\usbfs/cy_usbfs_dev_drv_reg.h **** * Write address value.
1031:Generated_Source\PSoC6\pdl\drivers\peripheral\usbfs/cy_usbfs_dev_drv_reg.h **** *
1032:Generated_Source\PSoC6\pdl\drivers\peripheral\usbfs/cy_usbfs_dev_drv_reg.h **** *******************************************************************************/
1033:Generated_Source\PSoC6\pdl\drivers\peripheral\usbfs/cy_usbfs_dev_drv_reg.h **** __STATIC_INLINE void Cy_USBFS_Dev_Drv_SetArbWriteAddr(USBFS_Type *base, uint32_t endpoint, uint32_t
1034:Generated_Source\PSoC6\pdl\drivers\peripheral\usbfs/cy_usbfs_dev_drv_reg.h **** {
1035:Generated_Source\PSoC6\pdl\drivers\peripheral\usbfs/cy_usbfs_dev_drv_reg.h ****     USBFS_DEV_ARB_RW_WA16(base, endpoint) = wa;
 353              		.loc 2 1035 0
 354 001a 00EB8516 		add	r6, r0, r5, lsl #6
 355 001e 41F21020 		movw	r0, #4624
 356              	.LVL36:
 357 0022 3350     		str	r3, [r6, r0]
 358              	.LVL37:
 359              	.LBE131:
 360              	.LBE130:
 295:Generated_Source\PSoC6\pdl\drivers\peripheral\usbfs/cy_usbfs_dev_drv_io.c ****     Cy_USBFS_Dev_Drv_SetArbReadAddr (base, endpoint, (uint32_t) endpointData->startBuf);
 361              		.loc 1 295 0
 362 0024 6389     		ldrh	r3, [r4, #10]
 363 0026 9BB2     		uxth	r3, r3
 364              	.LVL38:
 365              	.LBB132:
 366              	.LBB133:
1036:Generated_Source\PSoC6\pdl\drivers\peripheral\usbfs/cy_usbfs_dev_drv_reg.h **** }
1037:Generated_Source\PSoC6\pdl\drivers\peripheral\usbfs/cy_usbfs_dev_drv_reg.h **** 
1038:Generated_Source\PSoC6\pdl\drivers\peripheral\usbfs/cy_usbfs_dev_drv_reg.h **** 
1039:Generated_Source\PSoC6\pdl\drivers\peripheral\usbfs/cy_usbfs_dev_drv_reg.h **** /*******************************************************************************
1040:Generated_Source\PSoC6\pdl\drivers\peripheral\usbfs/cy_usbfs_dev_drv_reg.h **** * Function Name: Cy_USBFS_Dev_Drv_SetArbReadAddr
1041:Generated_Source\PSoC6\pdl\drivers\peripheral\usbfs/cy_usbfs_dev_drv_reg.h **** ****************************************************************************//**
1042:Generated_Source\PSoC6\pdl\drivers\peripheral\usbfs/cy_usbfs_dev_drv_reg.h **** *
1043:Generated_Source\PSoC6\pdl\drivers\peripheral\usbfs/cy_usbfs_dev_drv_reg.h **** * Sets read address in the hardware buffer for the specified endpoint.
ARM GAS  C:\Users\enes_\AppData\Local\Temp\cc97b4k1.s 			page 31


1044:Generated_Source\PSoC6\pdl\drivers\peripheral\usbfs/cy_usbfs_dev_drv_reg.h **** * This is the start address of the endpoint buffer.
1045:Generated_Source\PSoC6\pdl\drivers\peripheral\usbfs/cy_usbfs_dev_drv_reg.h **** *
1046:Generated_Source\PSoC6\pdl\drivers\peripheral\usbfs/cy_usbfs_dev_drv_reg.h **** * \param base
1047:Generated_Source\PSoC6\pdl\drivers\peripheral\usbfs/cy_usbfs_dev_drv_reg.h **** * The pointer to the USBFS instance.
1048:Generated_Source\PSoC6\pdl\drivers\peripheral\usbfs/cy_usbfs_dev_drv_reg.h **** *
1049:Generated_Source\PSoC6\pdl\drivers\peripheral\usbfs/cy_usbfs_dev_drv_reg.h **** * \param endpoint
1050:Generated_Source\PSoC6\pdl\drivers\peripheral\usbfs/cy_usbfs_dev_drv_reg.h **** * Physical endpoint number. 
1051:Generated_Source\PSoC6\pdl\drivers\peripheral\usbfs/cy_usbfs_dev_drv_reg.h **** * Valid range: 0 - ( \ref CY_USBFS_DEV_DRV_NUM_EPS_MAX - 1 ).
1052:Generated_Source\PSoC6\pdl\drivers\peripheral\usbfs/cy_usbfs_dev_drv_reg.h **** *
1053:Generated_Source\PSoC6\pdl\drivers\peripheral\usbfs/cy_usbfs_dev_drv_reg.h **** * \param ra
1054:Generated_Source\PSoC6\pdl\drivers\peripheral\usbfs/cy_usbfs_dev_drv_reg.h **** * Read address value.
1055:Generated_Source\PSoC6\pdl\drivers\peripheral\usbfs/cy_usbfs_dev_drv_reg.h **** *
1056:Generated_Source\PSoC6\pdl\drivers\peripheral\usbfs/cy_usbfs_dev_drv_reg.h **** *******************************************************************************/
1057:Generated_Source\PSoC6\pdl\drivers\peripheral\usbfs/cy_usbfs_dev_drv_reg.h **** __STATIC_INLINE void Cy_USBFS_Dev_Drv_SetArbReadAddr(USBFS_Type *base, uint32_t endpoint, uint32_t 
1058:Generated_Source\PSoC6\pdl\drivers\peripheral\usbfs/cy_usbfs_dev_drv_reg.h **** {
1059:Generated_Source\PSoC6\pdl\drivers\peripheral\usbfs/cy_usbfs_dev_drv_reg.h ****     USBFS_DEV_ARB_RW_RA16(base, endpoint) = ra;
 367              		.loc 2 1059 0
 368 0028 41F21820 		movw	r0, #4632
 369 002c 3350     		str	r3, [r6, r0]
 370              	.LVL39:
 371              	.LBE133:
 372              	.LBE132:
 296:Generated_Source\PSoC6\pdl\drivers\peripheral\usbfs/cy_usbfs_dev_drv_io.c **** 
 297:Generated_Source\PSoC6\pdl\drivers\peripheral\usbfs/cy_usbfs_dev_drv_io.c ****     /* Enable endpoint Arbiter interrupt sources */
 298:Generated_Source\PSoC6\pdl\drivers\peripheral\usbfs/cy_usbfs_dev_drv_io.c ****     if (CY_USBFS_DEV_DRV_EP_MANAGEMENT_DMA == mode)
 373              		.loc 1 298 0
 374 002e 0129     		cmp	r1, #1
 375 0030 2DD1     		bne	.L25
 376 0032 52B2     		sxtb	r2, r2
 299:Generated_Source\PSoC6\pdl\drivers\peripheral\usbfs/cy_usbfs_dev_drv_io.c ****     {
 300:Generated_Source\PSoC6\pdl\drivers\peripheral\usbfs/cy_usbfs_dev_drv_io.c ****         /* Enable Arbiter interrupt sources for endpoint */
 301:Generated_Source\PSoC6\pdl\drivers\peripheral\usbfs/cy_usbfs_dev_drv_io.c ****         Cy_USBFS_Dev_Drv_SetArbEpInterruptMask(base, endpoint, (inDirection ?
 377              		.loc 1 301 0
 378 0034 002A     		cmp	r2, #0
 379 0036 01DA     		bge	.L34
 380 0038 1123     		movs	r3, #17
 381 003a 00E0     		b	.L26
 382              	.L34:
 383 003c 1223     		movs	r3, #18
 384              	.L26:
 385              	.LVL40:
 386              	.LBB134:
 387              	.LBB135:
 843:Generated_Source\PSoC6\pdl\drivers\peripheral\usbfs/cy_usbfs_dev_drv_reg.h **** }
 388              		.loc 2 843 0 discriminator 4
 389 003e C6F80432 		str	r3, [r6, #516]
 390              	.LVL41:
 391              	.LBE135:
 392              	.LBE134:
 393              	.LBB136:
 394              	.LBB137:
 798:Generated_Source\PSoC6\pdl\drivers\peripheral\usbfs/cy_usbfs_dev_drv_reg.h **** }
 395              		.loc 2 798 0 discriminator 4
 396 0042 D7F87822 		ldr	r2, [r7, #632]
 397              	.LVL42:
 398 0046 0123     		movs	r3, #1
 399 0048 AB40     		lsls	r3, r3, r5
ARM GAS  C:\Users\enes_\AppData\Local\Temp\cc97b4k1.s 			page 32


 400 004a 1343     		orrs	r3, r3, r2
 401 004c C7F87832 		str	r3, [r7, #632]
 402              	.LVL43:
 403              	.LBE137:
 404              	.LBE136:
 302:Generated_Source\PSoC6\pdl\drivers\peripheral\usbfs/cy_usbfs_dev_drv_io.c ****                                                                 IN_ENDPOINT_ARB_INTR_SOURCES_DMA :
 303:Generated_Source\PSoC6\pdl\drivers\peripheral\usbfs/cy_usbfs_dev_drv_io.c ****                                                                 OUT_ENDPOINT_ARB_INTR_SOURCES_DMA))
 304:Generated_Source\PSoC6\pdl\drivers\peripheral\usbfs/cy_usbfs_dev_drv_io.c **** 
 305:Generated_Source\PSoC6\pdl\drivers\peripheral\usbfs/cy_usbfs_dev_drv_io.c ****         /* Enable Arbiter interrupt for endpoint */
 306:Generated_Source\PSoC6\pdl\drivers\peripheral\usbfs/cy_usbfs_dev_drv_io.c ****         Cy_USBFS_Dev_Drv_EnableArbEpInterrupt(base, endpoint);
 307:Generated_Source\PSoC6\pdl\drivers\peripheral\usbfs/cy_usbfs_dev_drv_io.c **** 
 308:Generated_Source\PSoC6\pdl\drivers\peripheral\usbfs/cy_usbfs_dev_drv_io.c ****         /* Enable DMA channel */
 309:Generated_Source\PSoC6\pdl\drivers\peripheral\usbfs/cy_usbfs_dev_drv_io.c ****          Cy_DMA_Channel_Enable(endpointData->base, endpointData->chNum);
 405              		.loc 1 309 0 discriminator 4
 406 0050 D4F81490 		ldr	r9, [r4, #20]
 407 0054 D4F81880 		ldr	r8, [r4, #24]
 408              	.LVL44:
 409              	.LBB138:
 410              	.LBB139:
 411              		.file 3 "Generated_Source\\PSoC6\\pdl\\drivers/peripheral/dma/cy_dma.h"
   1:Generated_Source\PSoC6\pdl\drivers/peripheral/dma/cy_dma.h **** /***************************************************************************//**
   2:Generated_Source\PSoC6\pdl\drivers/peripheral/dma/cy_dma.h **** * \file cy_dma.h
   3:Generated_Source\PSoC6\pdl\drivers/peripheral/dma/cy_dma.h **** * \version 2.10
   4:Generated_Source\PSoC6\pdl\drivers/peripheral/dma/cy_dma.h **** *
   5:Generated_Source\PSoC6\pdl\drivers/peripheral/dma/cy_dma.h **** * \brief
   6:Generated_Source\PSoC6\pdl\drivers/peripheral/dma/cy_dma.h **** * The header file of the DMA driver.
   7:Generated_Source\PSoC6\pdl\drivers/peripheral/dma/cy_dma.h **** *
   8:Generated_Source\PSoC6\pdl\drivers/peripheral/dma/cy_dma.h **** ********************************************************************************
   9:Generated_Source\PSoC6\pdl\drivers/peripheral/dma/cy_dma.h **** * \copyright
  10:Generated_Source\PSoC6\pdl\drivers/peripheral/dma/cy_dma.h **** * Copyright 2016-2018, Cypress Semiconductor Corporation. All rights reserved.
  11:Generated_Source\PSoC6\pdl\drivers/peripheral/dma/cy_dma.h **** * You may use this file only in accordance with the license, terms, conditions,
  12:Generated_Source\PSoC6\pdl\drivers/peripheral/dma/cy_dma.h **** * disclaimers, and limitations in the end user license agreement accompanying
  13:Generated_Source\PSoC6\pdl\drivers/peripheral/dma/cy_dma.h **** * the software package with which this file was provided.
  14:Generated_Source\PSoC6\pdl\drivers/peripheral/dma/cy_dma.h **** *******************************************************************************/
  15:Generated_Source\PSoC6\pdl\drivers/peripheral/dma/cy_dma.h **** 
  16:Generated_Source\PSoC6\pdl\drivers/peripheral/dma/cy_dma.h **** /**
  17:Generated_Source\PSoC6\pdl\drivers/peripheral/dma/cy_dma.h **** * \addtogroup group_dma
  18:Generated_Source\PSoC6\pdl\drivers/peripheral/dma/cy_dma.h **** * \{
  19:Generated_Source\PSoC6\pdl\drivers/peripheral/dma/cy_dma.h **** * Configures a DMA channel and its descriptor(s).
  20:Generated_Source\PSoC6\pdl\drivers/peripheral/dma/cy_dma.h **** *
  21:Generated_Source\PSoC6\pdl\drivers/peripheral/dma/cy_dma.h **** * The functions and other declarations used in this driver are in cy_dma.h. 
  22:Generated_Source\PSoC6\pdl\drivers/peripheral/dma/cy_dma.h **** * You can include cy_pdl.h (ModusToolbox only) to get access to all functions 
  23:Generated_Source\PSoC6\pdl\drivers/peripheral/dma/cy_dma.h **** * and declarations in the PDL.
  24:Generated_Source\PSoC6\pdl\drivers/peripheral/dma/cy_dma.h **** *
  25:Generated_Source\PSoC6\pdl\drivers/peripheral/dma/cy_dma.h **** * The DMA channel can be used in any project to transfer data
  26:Generated_Source\PSoC6\pdl\drivers/peripheral/dma/cy_dma.h **** * without CPU intervention basing on a hardware trigger signal from another component.
  27:Generated_Source\PSoC6\pdl\drivers/peripheral/dma/cy_dma.h **** *
  28:Generated_Source\PSoC6\pdl\drivers/peripheral/dma/cy_dma.h **** * A device may support more than one DMA hardware block. Each block has a set of 
  29:Generated_Source\PSoC6\pdl\drivers/peripheral/dma/cy_dma.h **** * registers, a base hardware address, and supports multiple channels. 
  30:Generated_Source\PSoC6\pdl\drivers/peripheral/dma/cy_dma.h **** * Many API functions for the DMA driver require a base hardware address and  
  31:Generated_Source\PSoC6\pdl\drivers/peripheral/dma/cy_dma.h **** * channel number. Ensure that you use the correct hardware address for the DMA block in use.
  32:Generated_Source\PSoC6\pdl\drivers/peripheral/dma/cy_dma.h **** * 
  33:Generated_Source\PSoC6\pdl\drivers/peripheral/dma/cy_dma.h **** * Features:
  34:Generated_Source\PSoC6\pdl\drivers/peripheral/dma/cy_dma.h **** * * Multiple DW blocks (device specific)
  35:Generated_Source\PSoC6\pdl\drivers/peripheral/dma/cy_dma.h **** * * Multiple channels per each DW block (device specific)
  36:Generated_Source\PSoC6\pdl\drivers/peripheral/dma/cy_dma.h **** * * Four priority levels for each channel
  37:Generated_Source\PSoC6\pdl\drivers/peripheral/dma/cy_dma.h **** * * Byte, half-word (2-byte), and word (4-byte) transfers
ARM GAS  C:\Users\enes_\AppData\Local\Temp\cc97b4k1.s 			page 33


  38:Generated_Source\PSoC6\pdl\drivers/peripheral/dma/cy_dma.h **** * * Configurable source and destination addresses
  39:Generated_Source\PSoC6\pdl\drivers/peripheral/dma/cy_dma.h **** * * CRC calculation support (only for CPUSS_ver2)
  40:Generated_Source\PSoC6\pdl\drivers/peripheral/dma/cy_dma.h **** *
  41:Generated_Source\PSoC6\pdl\drivers/peripheral/dma/cy_dma.h **** * \section group_dma_configuration Configuration Considerations
  42:Generated_Source\PSoC6\pdl\drivers/peripheral/dma/cy_dma.h **** *
  43:Generated_Source\PSoC6\pdl\drivers/peripheral/dma/cy_dma.h **** * To set up a DMA driver, initialize a descriptor,
  44:Generated_Source\PSoC6\pdl\drivers/peripheral/dma/cy_dma.h **** * initialize and enable a channel, and enable the DMA block.
  45:Generated_Source\PSoC6\pdl\drivers/peripheral/dma/cy_dma.h **** * 
  46:Generated_Source\PSoC6\pdl\drivers/peripheral/dma/cy_dma.h **** * To set up a descriptor, provide the configuration parameters for the 
  47:Generated_Source\PSoC6\pdl\drivers/peripheral/dma/cy_dma.h **** * descriptor in the \ref cy_stc_dma_descriptor_config_t structure. Then call the 
  48:Generated_Source\PSoC6\pdl\drivers/peripheral/dma/cy_dma.h **** * \ref Cy_DMA_Descriptor_Init function to initialize the descriptor in SRAM. You can 
  49:Generated_Source\PSoC6\pdl\drivers/peripheral/dma/cy_dma.h **** * modify the source and destination addresses dynamically by calling 
  50:Generated_Source\PSoC6\pdl\drivers/peripheral/dma/cy_dma.h **** * \ref Cy_DMA_Descriptor_SetSrcAddress and \ref Cy_DMA_Descriptor_SetDstAddress.
  51:Generated_Source\PSoC6\pdl\drivers/peripheral/dma/cy_dma.h **** * 
  52:Generated_Source\PSoC6\pdl\drivers/peripheral/dma/cy_dma.h **** * To set up a DMA channel, provide a filled \ref cy_stc_dma_channel_config_t 
  53:Generated_Source\PSoC6\pdl\drivers/peripheral/dma/cy_dma.h **** * structure. Call the \ref Cy_DMA_Channel_Init function, specifying the channel
  54:Generated_Source\PSoC6\pdl\drivers/peripheral/dma/cy_dma.h **** * number. Use \ref Cy_DMA_Channel_Enable to enable the configured DMA channel.
  55:Generated_Source\PSoC6\pdl\drivers/peripheral/dma/cy_dma.h **** *
  56:Generated_Source\PSoC6\pdl\drivers/peripheral/dma/cy_dma.h **** * Call \ref Cy_DMA_Channel_Enable for each DMA channel in use.
  57:Generated_Source\PSoC6\pdl\drivers/peripheral/dma/cy_dma.h **** *
  58:Generated_Source\PSoC6\pdl\drivers/peripheral/dma/cy_dma.h **** * When configured, another peripheral typically triggers the DMA. The trigger is
  59:Generated_Source\PSoC6\pdl\drivers/peripheral/dma/cy_dma.h **** * connected to the DMA using the trigger multiplexer. The trigger multiplexer
  60:Generated_Source\PSoC6\pdl\drivers/peripheral/dma/cy_dma.h **** * driver has a software trigger you can use in firmware to trigger the DMA. See the
  61:Generated_Source\PSoC6\pdl\drivers/peripheral/dma/cy_dma.h **** * <a href="group__group__trigmux.html">Trigger Multiplexer</a> documentation.
  62:Generated_Source\PSoC6\pdl\drivers/peripheral/dma/cy_dma.h **** *
  63:Generated_Source\PSoC6\pdl\drivers/peripheral/dma/cy_dma.h **** * The following is a simplified structure of the DMA driver API interdependencies
  64:Generated_Source\PSoC6\pdl\drivers/peripheral/dma/cy_dma.h **** * in a typical user application:
  65:Generated_Source\PSoC6\pdl\drivers/peripheral/dma/cy_dma.h **** * \image html dma.png
  66:Generated_Source\PSoC6\pdl\drivers/peripheral/dma/cy_dma.h **** *
  67:Generated_Source\PSoC6\pdl\drivers/peripheral/dma/cy_dma.h **** * <B>NOTE:</B> Even if a DMA channel is enabled, it is not operational until 
  68:Generated_Source\PSoC6\pdl\drivers/peripheral/dma/cy_dma.h **** * the DMA block is enabled using function \ref Cy_DMA_Enable.\n
  69:Generated_Source\PSoC6\pdl\drivers/peripheral/dma/cy_dma.h **** * <B>NOTE:</B> If the DMA descriptor is configured to generate an interrupt, 
  70:Generated_Source\PSoC6\pdl\drivers/peripheral/dma/cy_dma.h **** * the interrupt must be enabled using the \ref Cy_DMA_Channel_SetInterruptMask 
  71:Generated_Source\PSoC6\pdl\drivers/peripheral/dma/cy_dma.h **** * function for each DMA channel.
  72:Generated_Source\PSoC6\pdl\drivers/peripheral/dma/cy_dma.h **** *
  73:Generated_Source\PSoC6\pdl\drivers/peripheral/dma/cy_dma.h **** * For example:
  74:Generated_Source\PSoC6\pdl\drivers/peripheral/dma/cy_dma.h **** * \snippet dma\2.10\snippet\main.c snippet_Cy_DMA_Enable
  75:Generated_Source\PSoC6\pdl\drivers/peripheral/dma/cy_dma.h **** * 
  76:Generated_Source\PSoC6\pdl\drivers/peripheral/dma/cy_dma.h **** * \section group_dma_more_information More Information.
  77:Generated_Source\PSoC6\pdl\drivers/peripheral/dma/cy_dma.h **** * See: the DMA chapter of the device technical reference manual (TRM);
  78:Generated_Source\PSoC6\pdl\drivers/peripheral/dma/cy_dma.h **** *      the DMA Component datasheet;
  79:Generated_Source\PSoC6\pdl\drivers/peripheral/dma/cy_dma.h **** *      CE219940 - PSoC 6 MCU Multiple DMA Concatenation.
  80:Generated_Source\PSoC6\pdl\drivers/peripheral/dma/cy_dma.h **** *
  81:Generated_Source\PSoC6\pdl\drivers/peripheral/dma/cy_dma.h **** * \section group_dma_MISRA MISRA-C Compliance
  82:Generated_Source\PSoC6\pdl\drivers/peripheral/dma/cy_dma.h **** * The DMA driver has the following specific deviations:
  83:Generated_Source\PSoC6\pdl\drivers/peripheral/dma/cy_dma.h **** *
  84:Generated_Source\PSoC6\pdl\drivers/peripheral/dma/cy_dma.h **** * <table class="doxtable">
  85:Generated_Source\PSoC6\pdl\drivers/peripheral/dma/cy_dma.h **** *   <tr>
  86:Generated_Source\PSoC6\pdl\drivers/peripheral/dma/cy_dma.h **** *     <th>MISRA Rule</th>
  87:Generated_Source\PSoC6\pdl\drivers/peripheral/dma/cy_dma.h **** *     <th>Rule Class (Required/Advisory)</th>
  88:Generated_Source\PSoC6\pdl\drivers/peripheral/dma/cy_dma.h **** *     <th>Rule Description</th>
  89:Generated_Source\PSoC6\pdl\drivers/peripheral/dma/cy_dma.h **** *     <th>Description of Deviation(s)</th>
  90:Generated_Source\PSoC6\pdl\drivers/peripheral/dma/cy_dma.h **** *   </tr>
  91:Generated_Source\PSoC6\pdl\drivers/peripheral/dma/cy_dma.h **** *   <tr>
  92:Generated_Source\PSoC6\pdl\drivers/peripheral/dma/cy_dma.h **** *     <td>10.3</td>
  93:Generated_Source\PSoC6\pdl\drivers/peripheral/dma/cy_dma.h **** *     <td>R</td>
  94:Generated_Source\PSoC6\pdl\drivers/peripheral/dma/cy_dma.h **** *     <td>A composite expression of the "essentially unsigned" type is being
ARM GAS  C:\Users\enes_\AppData\Local\Temp\cc97b4k1.s 			page 34


  95:Generated_Source\PSoC6\pdl\drivers/peripheral/dma/cy_dma.h **** *         cast to a different type category.</td>
  96:Generated_Source\PSoC6\pdl\drivers/peripheral/dma/cy_dma.h **** *     <td>The value got from the bitfield physically cannot exceed the enumeration
  97:Generated_Source\PSoC6\pdl\drivers/peripheral/dma/cy_dma.h **** *         that describes this bitfield. So, the code is safe by design.</td>
  98:Generated_Source\PSoC6\pdl\drivers/peripheral/dma/cy_dma.h **** *   </tr>
  99:Generated_Source\PSoC6\pdl\drivers/peripheral/dma/cy_dma.h **** *   <tr>
 100:Generated_Source\PSoC6\pdl\drivers/peripheral/dma/cy_dma.h **** *     <td>11.4</td>
 101:Generated_Source\PSoC6\pdl\drivers/peripheral/dma/cy_dma.h **** *     <td>A</td>
 102:Generated_Source\PSoC6\pdl\drivers/peripheral/dma/cy_dma.h **** *     <td>A cast should not be performed between a pointer to object type and
 103:Generated_Source\PSoC6\pdl\drivers/peripheral/dma/cy_dma.h **** *         a different pointer to object type.</td>
 104:Generated_Source\PSoC6\pdl\drivers/peripheral/dma/cy_dma.h **** *     <td>This piece of code is written for DW_V2_Type only and it will be never
 105:Generated_Source\PSoC6\pdl\drivers/peripheral/dma/cy_dma.h **** *         executed for DW_V1_Type (which is a default build option for DW_Type).</td>
 106:Generated_Source\PSoC6\pdl\drivers/peripheral/dma/cy_dma.h **** *   </tr>
 107:Generated_Source\PSoC6\pdl\drivers/peripheral/dma/cy_dma.h **** * </table>
 108:Generated_Source\PSoC6\pdl\drivers/peripheral/dma/cy_dma.h **** *
 109:Generated_Source\PSoC6\pdl\drivers/peripheral/dma/cy_dma.h **** * \section group_dma_changelog Changelog
 110:Generated_Source\PSoC6\pdl\drivers/peripheral/dma/cy_dma.h **** *
 111:Generated_Source\PSoC6\pdl\drivers/peripheral/dma/cy_dma.h **** * <table class="doxtable">
 112:Generated_Source\PSoC6\pdl\drivers/peripheral/dma/cy_dma.h **** *   <tr><th>Version</th><th>Changes</th><th>Reason for Change</th></tr>
 113:Generated_Source\PSoC6\pdl\drivers/peripheral/dma/cy_dma.h **** *   <tr>
 114:Generated_Source\PSoC6\pdl\drivers/peripheral/dma/cy_dma.h **** *     <td rowspan="3">2.10</td>
 115:Generated_Source\PSoC6\pdl\drivers/peripheral/dma/cy_dma.h **** *     <td>Flattened the organization of the driver source code into the single source directory and
 116:Generated_Source\PSoC6\pdl\drivers/peripheral/dma/cy_dma.h **** *     <td>Driver library directory-structure simplification.</td>
 117:Generated_Source\PSoC6\pdl\drivers/peripheral/dma/cy_dma.h **** *   </tr>
 118:Generated_Source\PSoC6\pdl\drivers/peripheral/dma/cy_dma.h **** *   <tr>
 119:Generated_Source\PSoC6\pdl\drivers/peripheral/dma/cy_dma.h **** *     <td>Added CRC mode and the CRC descriptor support. \n Added the \ref Cy_DMA_Crc_Init function
 120:Generated_Source\PSoC6\pdl\drivers/peripheral/dma/cy_dma.h **** *     <td>New devices support.</td>
 121:Generated_Source\PSoC6\pdl\drivers/peripheral/dma/cy_dma.h **** *   </tr>
 122:Generated_Source\PSoC6\pdl\drivers/peripheral/dma/cy_dma.h **** *   <tr>
 123:Generated_Source\PSoC6\pdl\drivers/peripheral/dma/cy_dma.h **** *     <td>Added register access layer. Use register access macros instead
 124:Generated_Source\PSoC6\pdl\drivers/peripheral/dma/cy_dma.h **** *         of direct register access using dereferenced pointers.</td>
 125:Generated_Source\PSoC6\pdl\drivers/peripheral/dma/cy_dma.h **** *     <td>Makes register access device-independent, so that the PDL does 
 126:Generated_Source\PSoC6\pdl\drivers/peripheral/dma/cy_dma.h **** *         not need to be recompiled for each supported part number.</td>
 127:Generated_Source\PSoC6\pdl\drivers/peripheral/dma/cy_dma.h **** *   </tr>
 128:Generated_Source\PSoC6\pdl\drivers/peripheral/dma/cy_dma.h **** *   <tr>
 129:Generated_Source\PSoC6\pdl\drivers/peripheral/dma/cy_dma.h **** *     <td>2.0.1</td>
 130:Generated_Source\PSoC6\pdl\drivers/peripheral/dma/cy_dma.h **** *     <td>Changed CY_DMA_BWC macro values from Boolean to numeric</td>
 131:Generated_Source\PSoC6\pdl\drivers/peripheral/dma/cy_dma.h **** *     <td>Improvements made based on usability feedback</td>
 132:Generated_Source\PSoC6\pdl\drivers/peripheral/dma/cy_dma.h **** *   </tr>
 133:Generated_Source\PSoC6\pdl\drivers/peripheral/dma/cy_dma.h **** *   <tr>
 134:Generated_Source\PSoC6\pdl\drivers/peripheral/dma/cy_dma.h **** *     <td>2.0</td>
 135:Generated_Source\PSoC6\pdl\drivers/peripheral/dma/cy_dma.h **** *     <td> * All the API is refactored to be consistent within itself and with the
 136:Generated_Source\PSoC6\pdl\drivers/peripheral/dma/cy_dma.h **** *            rest of the PDL content.
 137:Generated_Source\PSoC6\pdl\drivers/peripheral/dma/cy_dma.h **** *          * The descriptor API is updated as follows:
 138:Generated_Source\PSoC6\pdl\drivers/peripheral/dma/cy_dma.h **** *            The \ref Cy_DMA_Descriptor_Init function sets a full bunch of descriptor
 139:Generated_Source\PSoC6\pdl\drivers/peripheral/dma/cy_dma.h **** *            settings, and the rest of the descriptor API is a get/set interface
 140:Generated_Source\PSoC6\pdl\drivers/peripheral/dma/cy_dma.h **** *            to each of the descriptor settings.
 141:Generated_Source\PSoC6\pdl\drivers/peripheral/dma/cy_dma.h **** *          * There is a group of macros to support the backward compatibility with most 
 142:Generated_Source\PSoC6\pdl\drivers/peripheral/dma/cy_dma.h **** *            of the driver version 1.0 API. But, you should use
 143:Generated_Source\PSoC6\pdl\drivers/peripheral/dma/cy_dma.h **** *            the new v2.0 interface in new designs (do not just copy-paste from old
 144:Generated_Source\PSoC6\pdl\drivers/peripheral/dma/cy_dma.h **** *            projects). To enable the backward compatibility support, the CY_DMA_BWC 
 145:Generated_Source\PSoC6\pdl\drivers/peripheral/dma/cy_dma.h **** *            definition should be changed to "1".</td>
 146:Generated_Source\PSoC6\pdl\drivers/peripheral/dma/cy_dma.h **** *     <td></td>
 147:Generated_Source\PSoC6\pdl\drivers/peripheral/dma/cy_dma.h **** *   </tr>
 148:Generated_Source\PSoC6\pdl\drivers/peripheral/dma/cy_dma.h **** *   <tr>
 149:Generated_Source\PSoC6\pdl\drivers/peripheral/dma/cy_dma.h **** *     <td>1.0</td>
 150:Generated_Source\PSoC6\pdl\drivers/peripheral/dma/cy_dma.h **** *     <td>Initial version</td>
 151:Generated_Source\PSoC6\pdl\drivers/peripheral/dma/cy_dma.h **** *     <td></td>
ARM GAS  C:\Users\enes_\AppData\Local\Temp\cc97b4k1.s 			page 35


 152:Generated_Source\PSoC6\pdl\drivers/peripheral/dma/cy_dma.h **** *   </tr>
 153:Generated_Source\PSoC6\pdl\drivers/peripheral/dma/cy_dma.h **** * </table>
 154:Generated_Source\PSoC6\pdl\drivers/peripheral/dma/cy_dma.h **** *
 155:Generated_Source\PSoC6\pdl\drivers/peripheral/dma/cy_dma.h **** 
 156:Generated_Source\PSoC6\pdl\drivers/peripheral/dma/cy_dma.h **** * \defgroup group_dma_macros Macros
 157:Generated_Source\PSoC6\pdl\drivers/peripheral/dma/cy_dma.h **** * \defgroup group_dma_functions Functions
 158:Generated_Source\PSoC6\pdl\drivers/peripheral/dma/cy_dma.h **** * \{
 159:Generated_Source\PSoC6\pdl\drivers/peripheral/dma/cy_dma.h **** * \defgroup group_dma_block_functions Block Functions
 160:Generated_Source\PSoC6\pdl\drivers/peripheral/dma/cy_dma.h **** * \defgroup group_dma_channel_functions Channel Functions
 161:Generated_Source\PSoC6\pdl\drivers/peripheral/dma/cy_dma.h **** * \defgroup group_dma_descriptor_functions Descriptor Functions
 162:Generated_Source\PSoC6\pdl\drivers/peripheral/dma/cy_dma.h **** * \}
 163:Generated_Source\PSoC6\pdl\drivers/peripheral/dma/cy_dma.h **** * \defgroup group_dma_data_structures Data Structures
 164:Generated_Source\PSoC6\pdl\drivers/peripheral/dma/cy_dma.h **** * \defgroup group_dma_enums Enumerated Types
 165:Generated_Source\PSoC6\pdl\drivers/peripheral/dma/cy_dma.h **** */
 166:Generated_Source\PSoC6\pdl\drivers/peripheral/dma/cy_dma.h **** 
 167:Generated_Source\PSoC6\pdl\drivers/peripheral/dma/cy_dma.h **** #if !defined(CY_DMA_H)
 168:Generated_Source\PSoC6\pdl\drivers/peripheral/dma/cy_dma.h **** #define CY_DMA_H
 169:Generated_Source\PSoC6\pdl\drivers/peripheral/dma/cy_dma.h **** 
 170:Generated_Source\PSoC6\pdl\drivers/peripheral/dma/cy_dma.h **** #include "cy_device.h"
 171:Generated_Source\PSoC6\pdl\drivers/peripheral/dma/cy_dma.h **** #include "cy_device_headers.h"
 172:Generated_Source\PSoC6\pdl\drivers/peripheral/dma/cy_dma.h **** #include "cy_syslib.h"
 173:Generated_Source\PSoC6\pdl\drivers/peripheral/dma/cy_dma.h **** #include <stdint.h>
 174:Generated_Source\PSoC6\pdl\drivers/peripheral/dma/cy_dma.h **** #include <stdbool.h>
 175:Generated_Source\PSoC6\pdl\drivers/peripheral/dma/cy_dma.h **** #include <stddef.h>
 176:Generated_Source\PSoC6\pdl\drivers/peripheral/dma/cy_dma.h **** 
 177:Generated_Source\PSoC6\pdl\drivers/peripheral/dma/cy_dma.h **** #ifdef CY_IP_M4CPUSS_DMA
 178:Generated_Source\PSoC6\pdl\drivers/peripheral/dma/cy_dma.h **** 
 179:Generated_Source\PSoC6\pdl\drivers/peripheral/dma/cy_dma.h **** #if defined(__cplusplus)
 180:Generated_Source\PSoC6\pdl\drivers/peripheral/dma/cy_dma.h **** extern "C" {
 181:Generated_Source\PSoC6\pdl\drivers/peripheral/dma/cy_dma.h **** #endif
 182:Generated_Source\PSoC6\pdl\drivers/peripheral/dma/cy_dma.h **** 
 183:Generated_Source\PSoC6\pdl\drivers/peripheral/dma/cy_dma.h **** /******************************************************************************
 184:Generated_Source\PSoC6\pdl\drivers/peripheral/dma/cy_dma.h ****  * Macro definitions                                                          *
 185:Generated_Source\PSoC6\pdl\drivers/peripheral/dma/cy_dma.h ****  ******************************************************************************/
 186:Generated_Source\PSoC6\pdl\drivers/peripheral/dma/cy_dma.h **** 
 187:Generated_Source\PSoC6\pdl\drivers/peripheral/dma/cy_dma.h **** /**
 188:Generated_Source\PSoC6\pdl\drivers/peripheral/dma/cy_dma.h **** * \addtogroup group_dma_macros
 189:Generated_Source\PSoC6\pdl\drivers/peripheral/dma/cy_dma.h **** * \{
 190:Generated_Source\PSoC6\pdl\drivers/peripheral/dma/cy_dma.h **** */
 191:Generated_Source\PSoC6\pdl\drivers/peripheral/dma/cy_dma.h **** 
 192:Generated_Source\PSoC6\pdl\drivers/peripheral/dma/cy_dma.h **** /** The driver major version */
 193:Generated_Source\PSoC6\pdl\drivers/peripheral/dma/cy_dma.h **** #define CY_DMA_DRV_VERSION_MAJOR       2
 194:Generated_Source\PSoC6\pdl\drivers/peripheral/dma/cy_dma.h **** 
 195:Generated_Source\PSoC6\pdl\drivers/peripheral/dma/cy_dma.h **** /** The driver minor version */
 196:Generated_Source\PSoC6\pdl\drivers/peripheral/dma/cy_dma.h **** #define CY_DMA_DRV_VERSION_MINOR       10
 197:Generated_Source\PSoC6\pdl\drivers/peripheral/dma/cy_dma.h **** 
 198:Generated_Source\PSoC6\pdl\drivers/peripheral/dma/cy_dma.h **** /** The DMA driver identifier */
 199:Generated_Source\PSoC6\pdl\drivers/peripheral/dma/cy_dma.h **** #define CY_DMA_ID                      (CY_PDL_DRV_ID(0x13U))
 200:Generated_Source\PSoC6\pdl\drivers/peripheral/dma/cy_dma.h ****  
 201:Generated_Source\PSoC6\pdl\drivers/peripheral/dma/cy_dma.h **** /** The DMA channel interrupt mask */
 202:Generated_Source\PSoC6\pdl\drivers/peripheral/dma/cy_dma.h **** #define CY_DMA_INTR_MASK               (0x01UL)
 203:Generated_Source\PSoC6\pdl\drivers/peripheral/dma/cy_dma.h **** 
 204:Generated_Source\PSoC6\pdl\drivers/peripheral/dma/cy_dma.h **** /** The minimum X/Y Count API parameters */
 205:Generated_Source\PSoC6\pdl\drivers/peripheral/dma/cy_dma.h **** #define CY_DMA_LOOP_COUNT_MIN          (1UL)
 206:Generated_Source\PSoC6\pdl\drivers/peripheral/dma/cy_dma.h **** /** The maximum X/Y Count API parameters */
 207:Generated_Source\PSoC6\pdl\drivers/peripheral/dma/cy_dma.h **** #define CY_DMA_LOOP_COUNT_MAX          (256UL)
 208:Generated_Source\PSoC6\pdl\drivers/peripheral/dma/cy_dma.h **** 
ARM GAS  C:\Users\enes_\AppData\Local\Temp\cc97b4k1.s 			page 36


 209:Generated_Source\PSoC6\pdl\drivers/peripheral/dma/cy_dma.h **** /** The minimum X/Y Increment API parameters */
 210:Generated_Source\PSoC6\pdl\drivers/peripheral/dma/cy_dma.h **** #define CY_DMA_LOOP_INCREMENT_MIN      (-2048L)
 211:Generated_Source\PSoC6\pdl\drivers/peripheral/dma/cy_dma.h **** /** The maximum X/Y Increment API parameters */
 212:Generated_Source\PSoC6\pdl\drivers/peripheral/dma/cy_dma.h **** #define CY_DMA_LOOP_INCREMENT_MAX      (2047L)
 213:Generated_Source\PSoC6\pdl\drivers/peripheral/dma/cy_dma.h **** 
 214:Generated_Source\PSoC6\pdl\drivers/peripheral/dma/cy_dma.h **** /** The backward compatibility flag. Enables a group of macros which provide 
 215:Generated_Source\PSoC6\pdl\drivers/peripheral/dma/cy_dma.h **** * the backward compatibility with most of the DMA driver version 1.0 interface. */
 216:Generated_Source\PSoC6\pdl\drivers/peripheral/dma/cy_dma.h **** #ifndef CY_DMA_BWC
 217:Generated_Source\PSoC6\pdl\drivers/peripheral/dma/cy_dma.h ****     #define CY_DMA_BWC                 (0U) /* Disabled by default */
 218:Generated_Source\PSoC6\pdl\drivers/peripheral/dma/cy_dma.h **** #endif
 219:Generated_Source\PSoC6\pdl\drivers/peripheral/dma/cy_dma.h **** 
 220:Generated_Source\PSoC6\pdl\drivers/peripheral/dma/cy_dma.h **** /** \} group_dma_macros */
 221:Generated_Source\PSoC6\pdl\drivers/peripheral/dma/cy_dma.h **** 
 222:Generated_Source\PSoC6\pdl\drivers/peripheral/dma/cy_dma.h **** 
 223:Generated_Source\PSoC6\pdl\drivers/peripheral/dma/cy_dma.h **** /**
 224:Generated_Source\PSoC6\pdl\drivers/peripheral/dma/cy_dma.h **** * \addtogroup group_dma_enums
 225:Generated_Source\PSoC6\pdl\drivers/peripheral/dma/cy_dma.h **** * \{
 226:Generated_Source\PSoC6\pdl\drivers/peripheral/dma/cy_dma.h **** */
 227:Generated_Source\PSoC6\pdl\drivers/peripheral/dma/cy_dma.h **** 
 228:Generated_Source\PSoC6\pdl\drivers/peripheral/dma/cy_dma.h **** /** Contains the possible interrupt cause values */
 229:Generated_Source\PSoC6\pdl\drivers/peripheral/dma/cy_dma.h **** typedef enum
 230:Generated_Source\PSoC6\pdl\drivers/peripheral/dma/cy_dma.h **** {
 231:Generated_Source\PSoC6\pdl\drivers/peripheral/dma/cy_dma.h ****     CY_DMA_INTR_CAUSE_NO_INTR            = 0U, /**< No interrupt.                       */
 232:Generated_Source\PSoC6\pdl\drivers/peripheral/dma/cy_dma.h ****     CY_DMA_INTR_CAUSE_COMPLETION         = 1U, /**< Completion.                         */
 233:Generated_Source\PSoC6\pdl\drivers/peripheral/dma/cy_dma.h ****     CY_DMA_INTR_CAUSE_SRC_BUS_ERROR      = 2U, /**< Source bus error.                   */
 234:Generated_Source\PSoC6\pdl\drivers/peripheral/dma/cy_dma.h ****     CY_DMA_INTR_CAUSE_DST_BUS_ERROR      = 3U, /**< Destination bus error.              */
 235:Generated_Source\PSoC6\pdl\drivers/peripheral/dma/cy_dma.h ****     CY_DMA_INTR_CAUSE_SRC_MISAL          = 4U, /**< Source address is not aligned.       */
 236:Generated_Source\PSoC6\pdl\drivers/peripheral/dma/cy_dma.h ****     CY_DMA_INTR_CAUSE_DST_MISAL          = 5U, /**< Destination address is not aligned. */
 237:Generated_Source\PSoC6\pdl\drivers/peripheral/dma/cy_dma.h ****     CY_DMA_INTR_CAUSE_CURR_PTR_NULL      = 6U, /**< Current descriptor pointer is NULL. */
 238:Generated_Source\PSoC6\pdl\drivers/peripheral/dma/cy_dma.h ****     CY_DMA_INTR_CAUSE_ACTIVE_CH_DISABLED = 7U, /**< Active channel is disabled.         */
 239:Generated_Source\PSoC6\pdl\drivers/peripheral/dma/cy_dma.h ****     CY_DMA_INTR_CAUSE_DESCR_BUS_ERROR    = 8U  /**< Descriptor bus error.               */
 240:Generated_Source\PSoC6\pdl\drivers/peripheral/dma/cy_dma.h **** } cy_en_dma_intr_cause_t;
 241:Generated_Source\PSoC6\pdl\drivers/peripheral/dma/cy_dma.h **** 
 242:Generated_Source\PSoC6\pdl\drivers/peripheral/dma/cy_dma.h **** /** Contains the options for the descriptor type */
 243:Generated_Source\PSoC6\pdl\drivers/peripheral/dma/cy_dma.h **** typedef enum
 244:Generated_Source\PSoC6\pdl\drivers/peripheral/dma/cy_dma.h **** {
 245:Generated_Source\PSoC6\pdl\drivers/peripheral/dma/cy_dma.h ****     CY_DMA_SINGLE_TRANSFER = 0UL,          /**< Single transfer. */
 246:Generated_Source\PSoC6\pdl\drivers/peripheral/dma/cy_dma.h ****     CY_DMA_1D_TRANSFER     = 1UL,          /**< 1D transfer.     */
 247:Generated_Source\PSoC6\pdl\drivers/peripheral/dma/cy_dma.h ****     CY_DMA_2D_TRANSFER     = 2UL,          /**< 2D transfer.     */
 248:Generated_Source\PSoC6\pdl\drivers/peripheral/dma/cy_dma.h ****     CY_DMA_CRC_TRANSFER    = 3UL,          /**< CRC transfer. Supported by the CPUSS_ver2 only. */
 249:Generated_Source\PSoC6\pdl\drivers/peripheral/dma/cy_dma.h **** } cy_en_dma_descriptor_type_t;
 250:Generated_Source\PSoC6\pdl\drivers/peripheral/dma/cy_dma.h **** 
 251:Generated_Source\PSoC6\pdl\drivers/peripheral/dma/cy_dma.h **** /** Contains the options for the interrupt, trig-in and trig-out type parameters of the descriptor 
 252:Generated_Source\PSoC6\pdl\drivers/peripheral/dma/cy_dma.h **** typedef enum
 253:Generated_Source\PSoC6\pdl\drivers/peripheral/dma/cy_dma.h **** {
 254:Generated_Source\PSoC6\pdl\drivers/peripheral/dma/cy_dma.h ****     CY_DMA_1ELEMENT    = 0UL,              /**< One element transfer.             */
 255:Generated_Source\PSoC6\pdl\drivers/peripheral/dma/cy_dma.h ****     CY_DMA_X_LOOP      = 1UL,              /**< One X loop transfer.              */
 256:Generated_Source\PSoC6\pdl\drivers/peripheral/dma/cy_dma.h ****     CY_DMA_DESCR       = 2UL,              /**< One descriptor transfer.          */
 257:Generated_Source\PSoC6\pdl\drivers/peripheral/dma/cy_dma.h ****     CY_DMA_DESCR_CHAIN = 3UL               /**< Entire descriptor chain transfer. */
 258:Generated_Source\PSoC6\pdl\drivers/peripheral/dma/cy_dma.h **** } cy_en_dma_trigger_type_t;
 259:Generated_Source\PSoC6\pdl\drivers/peripheral/dma/cy_dma.h **** 
 260:Generated_Source\PSoC6\pdl\drivers/peripheral/dma/cy_dma.h **** /** Contains the options for the data size */
 261:Generated_Source\PSoC6\pdl\drivers/peripheral/dma/cy_dma.h **** typedef enum
 262:Generated_Source\PSoC6\pdl\drivers/peripheral/dma/cy_dma.h **** {
 263:Generated_Source\PSoC6\pdl\drivers/peripheral/dma/cy_dma.h ****     CY_DMA_BYTE     = 0UL,                 /**< One byte.               */
 264:Generated_Source\PSoC6\pdl\drivers/peripheral/dma/cy_dma.h ****     CY_DMA_HALFWORD = 1UL,                 /**< Half word (two bytes).  */
 265:Generated_Source\PSoC6\pdl\drivers/peripheral/dma/cy_dma.h ****     CY_DMA_WORD     = 2UL                  /**< Full word (four bytes). */
ARM GAS  C:\Users\enes_\AppData\Local\Temp\cc97b4k1.s 			page 37


 266:Generated_Source\PSoC6\pdl\drivers/peripheral/dma/cy_dma.h **** } cy_en_dma_data_size_t;
 267:Generated_Source\PSoC6\pdl\drivers/peripheral/dma/cy_dma.h **** 
 268:Generated_Source\PSoC6\pdl\drivers/peripheral/dma/cy_dma.h **** /** Contains the options for descriptor retriggering */
 269:Generated_Source\PSoC6\pdl\drivers/peripheral/dma/cy_dma.h **** typedef enum
 270:Generated_Source\PSoC6\pdl\drivers/peripheral/dma/cy_dma.h **** {
 271:Generated_Source\PSoC6\pdl\drivers/peripheral/dma/cy_dma.h ****     CY_DMA_RETRIG_IM      = 0UL,           /**< Retrigger immediately.              */
 272:Generated_Source\PSoC6\pdl\drivers/peripheral/dma/cy_dma.h ****     CY_DMA_RETRIG_4CYC    = 1UL,           /**< Retrigger after 4 Clk_Slow cycles.  */
 273:Generated_Source\PSoC6\pdl\drivers/peripheral/dma/cy_dma.h ****     CY_DMA_RETRIG_16CYC   = 2UL,           /**< Retrigger after 16 Clk_Slow cycles. */
 274:Generated_Source\PSoC6\pdl\drivers/peripheral/dma/cy_dma.h ****     CY_DMA_WAIT_FOR_REACT = 3UL            /**< Wait for trigger reactivation.      */
 275:Generated_Source\PSoC6\pdl\drivers/peripheral/dma/cy_dma.h **** } cy_en_dma_retrigger_t;
 276:Generated_Source\PSoC6\pdl\drivers/peripheral/dma/cy_dma.h **** 
 277:Generated_Source\PSoC6\pdl\drivers/peripheral/dma/cy_dma.h **** /** Contains the options for the transfer size */
 278:Generated_Source\PSoC6\pdl\drivers/peripheral/dma/cy_dma.h **** typedef enum
 279:Generated_Source\PSoC6\pdl\drivers/peripheral/dma/cy_dma.h **** {
 280:Generated_Source\PSoC6\pdl\drivers/peripheral/dma/cy_dma.h ****     CY_DMA_TRANSFER_SIZE_DATA = 0UL,       /**< As specified by dataSize. */
 281:Generated_Source\PSoC6\pdl\drivers/peripheral/dma/cy_dma.h ****     CY_DMA_TRANSFER_SIZE_WORD = 1UL,       /**< A full word (four bytes). */
 282:Generated_Source\PSoC6\pdl\drivers/peripheral/dma/cy_dma.h **** } cy_en_dma_transfer_size_t;
 283:Generated_Source\PSoC6\pdl\drivers/peripheral/dma/cy_dma.h **** 
 284:Generated_Source\PSoC6\pdl\drivers/peripheral/dma/cy_dma.h **** /** Contains the options for the state of the channel when the descriptor is completed   */
 285:Generated_Source\PSoC6\pdl\drivers/peripheral/dma/cy_dma.h **** typedef enum
 286:Generated_Source\PSoC6\pdl\drivers/peripheral/dma/cy_dma.h **** {
 287:Generated_Source\PSoC6\pdl\drivers/peripheral/dma/cy_dma.h ****     CY_DMA_CHANNEL_ENABLED  = 0UL,         /**< Channel stays enabled. */
 288:Generated_Source\PSoC6\pdl\drivers/peripheral/dma/cy_dma.h ****     CY_DMA_CHANNEL_DISABLED = 1UL          /**< Channel is disabled.   */
 289:Generated_Source\PSoC6\pdl\drivers/peripheral/dma/cy_dma.h **** } cy_en_dma_channel_state_t;
 290:Generated_Source\PSoC6\pdl\drivers/peripheral/dma/cy_dma.h **** 
 291:Generated_Source\PSoC6\pdl\drivers/peripheral/dma/cy_dma.h **** /** Contains the return values of the DMA driver */
 292:Generated_Source\PSoC6\pdl\drivers/peripheral/dma/cy_dma.h **** typedef enum 
 293:Generated_Source\PSoC6\pdl\drivers/peripheral/dma/cy_dma.h **** {
 294:Generated_Source\PSoC6\pdl\drivers/peripheral/dma/cy_dma.h ****     CY_DMA_SUCCESS   = 0x00UL, /**< Success. */
 295:Generated_Source\PSoC6\pdl\drivers/peripheral/dma/cy_dma.h ****     CY_DMA_BAD_PARAM = CY_DMA_ID | CY_PDL_STATUS_ERROR | 0x01UL /**< The input parameters passed to
 296:Generated_Source\PSoC6\pdl\drivers/peripheral/dma/cy_dma.h **** } cy_en_dma_status_t;
 297:Generated_Source\PSoC6\pdl\drivers/peripheral/dma/cy_dma.h **** 
 298:Generated_Source\PSoC6\pdl\drivers/peripheral/dma/cy_dma.h **** /** \} group_dma_enums */
 299:Generated_Source\PSoC6\pdl\drivers/peripheral/dma/cy_dma.h **** 
 300:Generated_Source\PSoC6\pdl\drivers/peripheral/dma/cy_dma.h **** 
 301:Generated_Source\PSoC6\pdl\drivers/peripheral/dma/cy_dma.h **** /** \cond Internal */
 302:Generated_Source\PSoC6\pdl\drivers/peripheral/dma/cy_dma.h **** 
 303:Generated_Source\PSoC6\pdl\drivers/peripheral/dma/cy_dma.h **** /* Macros for the conditions used by CY_ASSERT calls */
 304:Generated_Source\PSoC6\pdl\drivers/peripheral/dma/cy_dma.h **** #define CY_DMA_IS_LOOP_COUNT_VALID(count)      (((count) >= CY_DMA_LOOP_COUNT_MIN) && ((count) <= C
 305:Generated_Source\PSoC6\pdl\drivers/peripheral/dma/cy_dma.h **** #define CY_DMA_IS_LOOP_INCR_VALID(incr)        (((incr) >= CY_DMA_LOOP_INCREMENT_MIN) && ((incr) <=
 306:Generated_Source\PSoC6\pdl\drivers/peripheral/dma/cy_dma.h **** #define CY_DMA_IS_PRIORITY_VALID(prio)         ((prio) <= 3UL)
 307:Generated_Source\PSoC6\pdl\drivers/peripheral/dma/cy_dma.h **** #define CY_DMA_IS_INTR_MASK_VALID(intr)        (0UL == ((intr) & ((uint32_t) ~CY_DMA_INTR_MASK)))
 308:Generated_Source\PSoC6\pdl\drivers/peripheral/dma/cy_dma.h **** 
 309:Generated_Source\PSoC6\pdl\drivers/peripheral/dma/cy_dma.h **** #define CY_DMA_IS_RETRIG_VALID(retrig)         ((CY_DMA_RETRIG_IM      == (retrig)) || \
 310:Generated_Source\PSoC6\pdl\drivers/peripheral/dma/cy_dma.h ****                                                 (CY_DMA_RETRIG_4CYC    == (retrig)) || \
 311:Generated_Source\PSoC6\pdl\drivers/peripheral/dma/cy_dma.h ****                                                 (CY_DMA_RETRIG_16CYC   == (retrig)) || \
 312:Generated_Source\PSoC6\pdl\drivers/peripheral/dma/cy_dma.h ****                                                 (CY_DMA_WAIT_FOR_REACT == (retrig)))
 313:Generated_Source\PSoC6\pdl\drivers/peripheral/dma/cy_dma.h **** 
 314:Generated_Source\PSoC6\pdl\drivers/peripheral/dma/cy_dma.h **** #define CY_DMA_IS_TRIG_TYPE_VALID(trigType)    ((CY_DMA_1ELEMENT    == (trigType)) || \
 315:Generated_Source\PSoC6\pdl\drivers/peripheral/dma/cy_dma.h ****                                                 (CY_DMA_X_LOOP      == (trigType)) || \
 316:Generated_Source\PSoC6\pdl\drivers/peripheral/dma/cy_dma.h ****                                                 (CY_DMA_DESCR       == (trigType)) || \
 317:Generated_Source\PSoC6\pdl\drivers/peripheral/dma/cy_dma.h ****                                                 (CY_DMA_DESCR_CHAIN == (trigType)))
 318:Generated_Source\PSoC6\pdl\drivers/peripheral/dma/cy_dma.h **** 
 319:Generated_Source\PSoC6\pdl\drivers/peripheral/dma/cy_dma.h **** #define CY_DMA_IS_XFER_SIZE_VALID(xferSize)    ((CY_DMA_TRANSFER_SIZE_DATA == (xferSize)) || \
 320:Generated_Source\PSoC6\pdl\drivers/peripheral/dma/cy_dma.h ****                                                 (CY_DMA_TRANSFER_SIZE_WORD == (xferSize)))
 321:Generated_Source\PSoC6\pdl\drivers/peripheral/dma/cy_dma.h **** 
 322:Generated_Source\PSoC6\pdl\drivers/peripheral/dma/cy_dma.h **** #define CY_DMA_IS_CHANNEL_STATE_VALID(state)   ((CY_DMA_CHANNEL_ENABLED  == (state)) || \
ARM GAS  C:\Users\enes_\AppData\Local\Temp\cc97b4k1.s 			page 38


 323:Generated_Source\PSoC6\pdl\drivers/peripheral/dma/cy_dma.h ****                                                 (CY_DMA_CHANNEL_DISABLED == (state)))
 324:Generated_Source\PSoC6\pdl\drivers/peripheral/dma/cy_dma.h **** 
 325:Generated_Source\PSoC6\pdl\drivers/peripheral/dma/cy_dma.h **** #define CY_DMA_IS_DATA_SIZE_VALID(dataSize)    ((CY_DMA_BYTE     == (dataSize)) || \
 326:Generated_Source\PSoC6\pdl\drivers/peripheral/dma/cy_dma.h ****                                                 (CY_DMA_HALFWORD == (dataSize)) || \
 327:Generated_Source\PSoC6\pdl\drivers/peripheral/dma/cy_dma.h ****                                                 (CY_DMA_WORD     == (dataSize)))
 328:Generated_Source\PSoC6\pdl\drivers/peripheral/dma/cy_dma.h **** 
 329:Generated_Source\PSoC6\pdl\drivers/peripheral/dma/cy_dma.h **** #define CY_DMA_IS_TYPE_VALID(descrType)        ((CY_DMA_SINGLE_TRANSFER == (descrType)) || \
 330:Generated_Source\PSoC6\pdl\drivers/peripheral/dma/cy_dma.h ****                                                 (CY_DMA_1D_TRANSFER     == (descrType)) || \
 331:Generated_Source\PSoC6\pdl\drivers/peripheral/dma/cy_dma.h ****                                                 (CY_DMA_2D_TRANSFER     == (descrType)) || \
 332:Generated_Source\PSoC6\pdl\drivers/peripheral/dma/cy_dma.h ****                                                 (CY_DMA_CRC_TRANSFER    == (descrType)))
 333:Generated_Source\PSoC6\pdl\drivers/peripheral/dma/cy_dma.h **** 
 334:Generated_Source\PSoC6\pdl\drivers/peripheral/dma/cy_dma.h **** #define CY_DMA_IS_CH_NR_VALID(chNr)            ((chNr) < CY_DW_CH_NR)
 335:Generated_Source\PSoC6\pdl\drivers/peripheral/dma/cy_dma.h **** 
 336:Generated_Source\PSoC6\pdl\drivers/peripheral/dma/cy_dma.h **** 
 337:Generated_Source\PSoC6\pdl\drivers/peripheral/dma/cy_dma.h **** /* The descriptor structure bit field definitions */
 338:Generated_Source\PSoC6\pdl\drivers/peripheral/dma/cy_dma.h **** #define CY_DMA_CTL_RETRIG_Pos      (0UL)
 339:Generated_Source\PSoC6\pdl\drivers/peripheral/dma/cy_dma.h **** #define CY_DMA_CTL_RETRIG_Msk      ((uint32_t)0x3UL << CY_DMA_CTL_RETRIG_Pos)
 340:Generated_Source\PSoC6\pdl\drivers/peripheral/dma/cy_dma.h **** #define CY_DMA_CTL_INTR_TYPE_Pos   (2UL)
 341:Generated_Source\PSoC6\pdl\drivers/peripheral/dma/cy_dma.h **** #define CY_DMA_CTL_INTR_TYPE_Msk   ((uint32_t)0x3UL << CY_DMA_CTL_INTR_TYPE_Pos)
 342:Generated_Source\PSoC6\pdl\drivers/peripheral/dma/cy_dma.h **** #define CY_DMA_CTL_TR_OUT_TYPE_Pos (4UL)
 343:Generated_Source\PSoC6\pdl\drivers/peripheral/dma/cy_dma.h **** #define CY_DMA_CTL_TR_OUT_TYPE_Msk ((uint32_t)0x3UL << CY_DMA_CTL_TR_OUT_TYPE_Pos)
 344:Generated_Source\PSoC6\pdl\drivers/peripheral/dma/cy_dma.h **** #define CY_DMA_CTL_TR_IN_TYPE_Pos  (6UL)
 345:Generated_Source\PSoC6\pdl\drivers/peripheral/dma/cy_dma.h **** #define CY_DMA_CTL_TR_IN_TYPE_Msk  ((uint32_t)0x3UL << CY_DMA_CTL_TR_IN_TYPE_Pos)
 346:Generated_Source\PSoC6\pdl\drivers/peripheral/dma/cy_dma.h **** #define CY_DMA_CTL_CH_DISABLE_Pos  (24UL)
 347:Generated_Source\PSoC6\pdl\drivers/peripheral/dma/cy_dma.h **** #define CY_DMA_CTL_CH_DISABLE_Msk  ((uint32_t)0x1UL << CY_DMA_CTL_CH_DISABLE_Pos)
 348:Generated_Source\PSoC6\pdl\drivers/peripheral/dma/cy_dma.h **** #define CY_DMA_CTL_SRC_SIZE_Pos    (26UL)
 349:Generated_Source\PSoC6\pdl\drivers/peripheral/dma/cy_dma.h **** #define CY_DMA_CTL_SRC_SIZE_Msk    ((uint32_t)0x1UL << CY_DMA_CTL_SRC_SIZE_Pos)
 350:Generated_Source\PSoC6\pdl\drivers/peripheral/dma/cy_dma.h **** #define CY_DMA_CTL_DST_SIZE_Pos    (27UL)
 351:Generated_Source\PSoC6\pdl\drivers/peripheral/dma/cy_dma.h **** #define CY_DMA_CTL_DST_SIZE_Msk    ((uint32_t)0x1UL << CY_DMA_CTL_DST_SIZE_Pos)
 352:Generated_Source\PSoC6\pdl\drivers/peripheral/dma/cy_dma.h **** #define CY_DMA_CTL_DATA_SIZE_Pos   (28UL)
 353:Generated_Source\PSoC6\pdl\drivers/peripheral/dma/cy_dma.h **** #define CY_DMA_CTL_DATA_SIZE_Msk   ((uint32_t)0x3UL << CY_DMA_CTL_DATA_SIZE_Pos)
 354:Generated_Source\PSoC6\pdl\drivers/peripheral/dma/cy_dma.h **** #define CY_DMA_CTL_TYPE_Pos        (30UL)
 355:Generated_Source\PSoC6\pdl\drivers/peripheral/dma/cy_dma.h **** #define CY_DMA_CTL_TYPE_Msk        ((uint32_t)0x3UL << CY_DMA_CTL_TYPE_Pos)
 356:Generated_Source\PSoC6\pdl\drivers/peripheral/dma/cy_dma.h **** 
 357:Generated_Source\PSoC6\pdl\drivers/peripheral/dma/cy_dma.h **** #define CY_DMA_CTL_SRC_INCR_Pos    (0UL)
 358:Generated_Source\PSoC6\pdl\drivers/peripheral/dma/cy_dma.h **** #define CY_DMA_CTL_SRC_INCR_Msk    ((uint32_t)0xFFFUL << CY_DMA_CTL_SRC_INCR_Pos)
 359:Generated_Source\PSoC6\pdl\drivers/peripheral/dma/cy_dma.h **** #define CY_DMA_CTL_DST_INCR_Pos    (12UL)
 360:Generated_Source\PSoC6\pdl\drivers/peripheral/dma/cy_dma.h **** #define CY_DMA_CTL_DST_INCR_Msk    ((uint32_t)0xFFFUL << CY_DMA_CTL_DST_INCR_Pos)
 361:Generated_Source\PSoC6\pdl\drivers/peripheral/dma/cy_dma.h **** #define CY_DMA_CTL_COUNT_Pos       (24UL)
 362:Generated_Source\PSoC6\pdl\drivers/peripheral/dma/cy_dma.h **** #define CY_DMA_CTL_COUNT_Msk       ((uint32_t)0xFFUL << CY_DMA_CTL_COUNT_Pos)
 363:Generated_Source\PSoC6\pdl\drivers/peripheral/dma/cy_dma.h **** 
 364:Generated_Source\PSoC6\pdl\drivers/peripheral/dma/cy_dma.h **** /** \endcond */
 365:Generated_Source\PSoC6\pdl\drivers/peripheral/dma/cy_dma.h **** 
 366:Generated_Source\PSoC6\pdl\drivers/peripheral/dma/cy_dma.h **** 
 367:Generated_Source\PSoC6\pdl\drivers/peripheral/dma/cy_dma.h **** /**
 368:Generated_Source\PSoC6\pdl\drivers/peripheral/dma/cy_dma.h **** * \addtogroup group_dma_data_structures
 369:Generated_Source\PSoC6\pdl\drivers/peripheral/dma/cy_dma.h **** * \{
 370:Generated_Source\PSoC6\pdl\drivers/peripheral/dma/cy_dma.h **** */
 371:Generated_Source\PSoC6\pdl\drivers/peripheral/dma/cy_dma.h **** 
 372:Generated_Source\PSoC6\pdl\drivers/peripheral/dma/cy_dma.h **** /** 
 373:Generated_Source\PSoC6\pdl\drivers/peripheral/dma/cy_dma.h **** * DMA descriptor structure type. It is a user/component-declared structure 
 374:Generated_Source\PSoC6\pdl\drivers/peripheral/dma/cy_dma.h **** * allocated in RAM. The DMA HW requires a pointer to this structure to work with it.
 375:Generated_Source\PSoC6\pdl\drivers/peripheral/dma/cy_dma.h **** *
 376:Generated_Source\PSoC6\pdl\drivers/peripheral/dma/cy_dma.h **** * For advanced users: the descriptor can be allocated even in flash, then the user
 377:Generated_Source\PSoC6\pdl\drivers/peripheral/dma/cy_dma.h **** * manually predefines all the structure items with constants. This is 
 378:Generated_Source\PSoC6\pdl\drivers/peripheral/dma/cy_dma.h **** * because most of the driver's API (especially functions modifying
 379:Generated_Source\PSoC6\pdl\drivers/peripheral/dma/cy_dma.h **** * descriptors, including \ref Cy_DMA_Descriptor_Init()) can't work with 
ARM GAS  C:\Users\enes_\AppData\Local\Temp\cc97b4k1.s 			page 39


 380:Generated_Source\PSoC6\pdl\drivers/peripheral/dma/cy_dma.h **** * read-only descriptors.
 381:Generated_Source\PSoC6\pdl\drivers/peripheral/dma/cy_dma.h **** */
 382:Generated_Source\PSoC6\pdl\drivers/peripheral/dma/cy_dma.h **** typedef struct
 383:Generated_Source\PSoC6\pdl\drivers/peripheral/dma/cy_dma.h **** {
 384:Generated_Source\PSoC6\pdl\drivers/peripheral/dma/cy_dma.h ****     uint32_t ctl;                    /*!< 0x00000000 Descriptor control */
 385:Generated_Source\PSoC6\pdl\drivers/peripheral/dma/cy_dma.h ****     uint32_t src;                    /*!< 0x00000004 Descriptor source */
 386:Generated_Source\PSoC6\pdl\drivers/peripheral/dma/cy_dma.h ****     uint32_t dst;                    /*!< 0x00000008 Descriptor destination */
 387:Generated_Source\PSoC6\pdl\drivers/peripheral/dma/cy_dma.h ****     uint32_t xCtl;                   /*!< 0x0000000C Descriptor X loop control */
 388:Generated_Source\PSoC6\pdl\drivers/peripheral/dma/cy_dma.h ****     uint32_t yCtl;                   /*!< 0x00000010 Descriptor Y loop control */
 389:Generated_Source\PSoC6\pdl\drivers/peripheral/dma/cy_dma.h ****     uint32_t nextPtr;                /*!< 0x00000014 Descriptor next pointer */
 390:Generated_Source\PSoC6\pdl\drivers/peripheral/dma/cy_dma.h **** } cy_stc_dma_descriptor_t;
 391:Generated_Source\PSoC6\pdl\drivers/peripheral/dma/cy_dma.h **** 
 392:Generated_Source\PSoC6\pdl\drivers/peripheral/dma/cy_dma.h **** /**
 393:Generated_Source\PSoC6\pdl\drivers/peripheral/dma/cy_dma.h **** * This structure is a configuration structure pre-initialized by the user and
 394:Generated_Source\PSoC6\pdl\drivers/peripheral/dma/cy_dma.h **** * passed as a parameter to the \ref Cy_DMA_Descriptor_Init().
 395:Generated_Source\PSoC6\pdl\drivers/peripheral/dma/cy_dma.h **** * It can be allocated in RAM/flash (the user's choice).
 396:Generated_Source\PSoC6\pdl\drivers/peripheral/dma/cy_dma.h **** * In case of flash allocation, there is a possibility to reinitialize the descriptor in runtime.
 397:Generated_Source\PSoC6\pdl\drivers/peripheral/dma/cy_dma.h **** * This structure has all the parameters of the descriptor as separate parameters.
 398:Generated_Source\PSoC6\pdl\drivers/peripheral/dma/cy_dma.h **** * Most of these parameters are represented in the \ref cy_stc_dma_descriptor_t structure as bitfiel
 399:Generated_Source\PSoC6\pdl\drivers/peripheral/dma/cy_dma.h **** */
 400:Generated_Source\PSoC6\pdl\drivers/peripheral/dma/cy_dma.h **** typedef struct
 401:Generated_Source\PSoC6\pdl\drivers/peripheral/dma/cy_dma.h **** {
 402:Generated_Source\PSoC6\pdl\drivers/peripheral/dma/cy_dma.h ****     cy_en_dma_retrigger_t       retrigger;       /**< Specifies whether the DW controller should wa
 403:Generated_Source\PSoC6\pdl\drivers/peripheral/dma/cy_dma.h ****     cy_en_dma_trigger_type_t    interruptType;   /**< Sets the event that triggers an interrupt. Se
 404:Generated_Source\PSoC6\pdl\drivers/peripheral/dma/cy_dma.h ****     cy_en_dma_trigger_type_t    triggerOutType;  /**< Sets the event that triggers an output. See \
 405:Generated_Source\PSoC6\pdl\drivers/peripheral/dma/cy_dma.h ****     cy_en_dma_channel_state_t   channelState;    /**< Specifies whether the channel is enabled or d
 406:Generated_Source\PSoC6\pdl\drivers/peripheral/dma/cy_dma.h ****     cy_en_dma_trigger_type_t    triggerInType;   /**< Sets what type of transfer is triggered. See 
 407:Generated_Source\PSoC6\pdl\drivers/peripheral/dma/cy_dma.h ****     cy_en_dma_data_size_t       dataSize;        /**< The size of the data bus for transfer. See \r
 408:Generated_Source\PSoC6\pdl\drivers/peripheral/dma/cy_dma.h ****     cy_en_dma_transfer_size_t   srcTransferSize; /**< The source transfer size. */
 409:Generated_Source\PSoC6\pdl\drivers/peripheral/dma/cy_dma.h ****     cy_en_dma_transfer_size_t   dstTransferSize; /**< The destination transfer size. */
 410:Generated_Source\PSoC6\pdl\drivers/peripheral/dma/cy_dma.h ****     cy_en_dma_descriptor_type_t descriptorType;  /**< The type of the descriptor. See \ref cy_en_dm
 411:Generated_Source\PSoC6\pdl\drivers/peripheral/dma/cy_dma.h ****     void *                      srcAddress;      /**< The source address of the transfer. */
 412:Generated_Source\PSoC6\pdl\drivers/peripheral/dma/cy_dma.h ****     void *                      dstAddress;      /**< The destination address of the transfer.
 413:Generated_Source\PSoC6\pdl\drivers/peripheral/dma/cy_dma.h ****                                                    *  For CPUSS_ver2 only: for CRC transfer, the CR
 414:Generated_Source\PSoC6\pdl\drivers/peripheral/dma/cy_dma.h ****                                                    *  (reversing and/or XORing, if used) is placed 
 415:Generated_Source\PSoC6\pdl\drivers/peripheral/dma/cy_dma.h ****                                                    */
 416:Generated_Source\PSoC6\pdl\drivers/peripheral/dma/cy_dma.h ****     int32_t                     srcXincrement;   /**< The address increment of the source after eac
 417:Generated_Source\PSoC6\pdl\drivers/peripheral/dma/cy_dma.h ****     int32_t                     dstXincrement;   /**< The address increment of the destination afte
 418:Generated_Source\PSoC6\pdl\drivers/peripheral/dma/cy_dma.h ****     uint32_t                    xCount;          /**< The number of transfers in an X-loop. Valid r
 419:Generated_Source\PSoC6\pdl\drivers/peripheral/dma/cy_dma.h ****     int32_t                     srcYincrement;   /**< The address increment of the source after eac
 420:Generated_Source\PSoC6\pdl\drivers/peripheral/dma/cy_dma.h ****     int32_t                     dstYincrement;   /**< The address increment of the destination afte
 421:Generated_Source\PSoC6\pdl\drivers/peripheral/dma/cy_dma.h ****     uint32_t                    yCount;          /**< The number of X-loops in the Y-loop. Valid ra
 422:Generated_Source\PSoC6\pdl\drivers/peripheral/dma/cy_dma.h ****     cy_stc_dma_descriptor_t *   nextDescriptor;  /**< The next descriptor to chain after completion
 423:Generated_Source\PSoC6\pdl\drivers/peripheral/dma/cy_dma.h **** } cy_stc_dma_descriptor_config_t;
 424:Generated_Source\PSoC6\pdl\drivers/peripheral/dma/cy_dma.h **** 
 425:Generated_Source\PSoC6\pdl\drivers/peripheral/dma/cy_dma.h **** /** This structure holds the initialization values for the DMA channel */
 426:Generated_Source\PSoC6\pdl\drivers/peripheral/dma/cy_dma.h **** typedef struct
 427:Generated_Source\PSoC6\pdl\drivers/peripheral/dma/cy_dma.h **** {
 428:Generated_Source\PSoC6\pdl\drivers/peripheral/dma/cy_dma.h ****     cy_stc_dma_descriptor_t * descriptor;      /**< The DMA descriptor associated with the channel 
 429:Generated_Source\PSoC6\pdl\drivers/peripheral/dma/cy_dma.h ****     bool     preemptable;                      /**< Specifies whether the channel is preemptable by
 430:Generated_Source\PSoC6\pdl\drivers/peripheral/dma/cy_dma.h ****     uint32_t priority;                         /**< This parameter specifies the channel's priority
 431:Generated_Source\PSoC6\pdl\drivers/peripheral/dma/cy_dma.h ****     bool     enable;                           /**< This parameter specifies whether the channel is
 432:Generated_Source\PSoC6\pdl\drivers/peripheral/dma/cy_dma.h ****     bool     bufferable;                       /**< This parameter specifies whether a write transa
 433:Generated_Source\PSoC6\pdl\drivers/peripheral/dma/cy_dma.h ****                                                     without waiting for the destination to accept t
 434:Generated_Source\PSoC6\pdl\drivers/peripheral/dma/cy_dma.h **** } cy_stc_dma_channel_config_t;
 435:Generated_Source\PSoC6\pdl\drivers/peripheral/dma/cy_dma.h **** 
 436:Generated_Source\PSoC6\pdl\drivers/peripheral/dma/cy_dma.h **** 
ARM GAS  C:\Users\enes_\AppData\Local\Temp\cc97b4k1.s 			page 40


 437:Generated_Source\PSoC6\pdl\drivers/peripheral/dma/cy_dma.h **** /** This structure holds the initialization values for the CRC feature, only for CPUSS_ver2 */
 438:Generated_Source\PSoC6\pdl\drivers/peripheral/dma/cy_dma.h **** typedef struct
 439:Generated_Source\PSoC6\pdl\drivers/peripheral/dma/cy_dma.h **** {
 440:Generated_Source\PSoC6\pdl\drivers/peripheral/dma/cy_dma.h ****     bool     dataReverse;     /**< Specifies the bit order in which a data byte is processed (rever
 441:Generated_Source\PSoC6\pdl\drivers/peripheral/dma/cy_dma.h ****                                * 'false': Most significant bit (bit 1) first.
 442:Generated_Source\PSoC6\pdl\drivers/peripheral/dma/cy_dma.h ****                                * 'true': Least significant bit (bit 0) first.
 443:Generated_Source\PSoC6\pdl\drivers/peripheral/dma/cy_dma.h ****                                */
 444:Generated_Source\PSoC6\pdl\drivers/peripheral/dma/cy_dma.h ****     uint32_t dataXor;         /**< Specifies a byte mask with which each data byte is XORed. The XO
 445:Generated_Source\PSoC6\pdl\drivers/peripheral/dma/cy_dma.h ****     bool     reminderReverse; /**< Specifies whether the remainder is bit reversed (reversal is per
 446:Generated_Source\PSoC6\pdl\drivers/peripheral/dma/cy_dma.h ****                                *   Note: this parameter doesn't affect the CRC value stored into th
 447:Generated_Source\PSoC6\pdl\drivers/peripheral/dma/cy_dma.h ****                                *   The reversed value remains in the CRC_REM_RESULT register.
 448:Generated_Source\PSoC6\pdl\drivers/peripheral/dma/cy_dma.h ****                                */
 449:Generated_Source\PSoC6\pdl\drivers/peripheral/dma/cy_dma.h ****     uint32_t reminderXor;     /**< Specifies a mask with which the remainder is XORed. The XOR is p
 450:Generated_Source\PSoC6\pdl\drivers/peripheral/dma/cy_dma.h ****                                *   Note: this parameter doesn't affect the CRC value stored into th
 451:Generated_Source\PSoC6\pdl\drivers/peripheral/dma/cy_dma.h ****                                *   The XORed value remains in the CRC_REM_RESULT register.
 452:Generated_Source\PSoC6\pdl\drivers/peripheral/dma/cy_dma.h ****                                */
 453:Generated_Source\PSoC6\pdl\drivers/peripheral/dma/cy_dma.h ****     uint32_t polynomial;      /**< CRC polynomial. The polynomial is represented WITHOUT the high o
 454:Generated_Source\PSoC6\pdl\drivers/peripheral/dma/cy_dma.h ****                                * The polynomial should be aligned/shifted such that the more signif
 455:Generated_Source\PSoC6\pdl\drivers/peripheral/dma/cy_dma.h ****                                * and the less significant bits (bit 0 and up) contain padding '0's.
 456:Generated_Source\PSoC6\pdl\drivers/peripheral/dma/cy_dma.h ****                                * - CRC32: POLYNOMIAL is 0x04c11db7 (x^32 + x^26 + x^23 + x^22 + x^1
 457:Generated_Source\PSoC6\pdl\drivers/peripheral/dma/cy_dma.h ****                                * - CRC16: POLYNOMIAL is 0x80050000 (x^16 + x^15 + x^2 + 1, shifted 
 458:Generated_Source\PSoC6\pdl\drivers/peripheral/dma/cy_dma.h ****                                * - CRC16 CCITT: POLYNOMIAL is 0x10210000 (x^16 + x^12 + x^5 + 1, sh
 459:Generated_Source\PSoC6\pdl\drivers/peripheral/dma/cy_dma.h ****                                */
 460:Generated_Source\PSoC6\pdl\drivers/peripheral/dma/cy_dma.h ****     uint32_t lfsrInitVal;     /**< The initial value of the Linear Feedback Shift Register */
 461:Generated_Source\PSoC6\pdl\drivers/peripheral/dma/cy_dma.h **** } cy_stc_dma_crc_config_t;
 462:Generated_Source\PSoC6\pdl\drivers/peripheral/dma/cy_dma.h **** 
 463:Generated_Source\PSoC6\pdl\drivers/peripheral/dma/cy_dma.h **** /** \} group_dma_data_structures */
 464:Generated_Source\PSoC6\pdl\drivers/peripheral/dma/cy_dma.h **** 
 465:Generated_Source\PSoC6\pdl\drivers/peripheral/dma/cy_dma.h **** 
 466:Generated_Source\PSoC6\pdl\drivers/peripheral/dma/cy_dma.h **** /**
 467:Generated_Source\PSoC6\pdl\drivers/peripheral/dma/cy_dma.h **** * \addtogroup group_dma_functions
 468:Generated_Source\PSoC6\pdl\drivers/peripheral/dma/cy_dma.h **** * \{
 469:Generated_Source\PSoC6\pdl\drivers/peripheral/dma/cy_dma.h **** */
 470:Generated_Source\PSoC6\pdl\drivers/peripheral/dma/cy_dma.h **** 
 471:Generated_Source\PSoC6\pdl\drivers/peripheral/dma/cy_dma.h **** 
 472:Generated_Source\PSoC6\pdl\drivers/peripheral/dma/cy_dma.h **** /**
 473:Generated_Source\PSoC6\pdl\drivers/peripheral/dma/cy_dma.h **** * \addtogroup group_dma_block_functions
 474:Generated_Source\PSoC6\pdl\drivers/peripheral/dma/cy_dma.h **** * \{
 475:Generated_Source\PSoC6\pdl\drivers/peripheral/dma/cy_dma.h **** */
 476:Generated_Source\PSoC6\pdl\drivers/peripheral/dma/cy_dma.h **** 
 477:Generated_Source\PSoC6\pdl\drivers/peripheral/dma/cy_dma.h **** 
 478:Generated_Source\PSoC6\pdl\drivers/peripheral/dma/cy_dma.h **** __STATIC_INLINE void     Cy_DMA_Enable             (DW_Type * base);
 479:Generated_Source\PSoC6\pdl\drivers/peripheral/dma/cy_dma.h **** __STATIC_INLINE void     Cy_DMA_Disable            (DW_Type * base);
 480:Generated_Source\PSoC6\pdl\drivers/peripheral/dma/cy_dma.h **** __STATIC_INLINE uint32_t Cy_DMA_GetActiveChannel   (DW_Type const * base);
 481:Generated_Source\PSoC6\pdl\drivers/peripheral/dma/cy_dma.h **** __STATIC_INLINE void *   Cy_DMA_GetActiveSrcAddress(DW_Type * base);
 482:Generated_Source\PSoC6\pdl\drivers/peripheral/dma/cy_dma.h **** __STATIC_INLINE void *   Cy_DMA_GetActiveDstAddress(DW_Type * base);
 483:Generated_Source\PSoC6\pdl\drivers/peripheral/dma/cy_dma.h ****       cy_en_dma_status_t Cy_DMA_Crc_Init           (DW_Type * base, cy_stc_dma_crc_config_t const *
 484:Generated_Source\PSoC6\pdl\drivers/peripheral/dma/cy_dma.h **** 
 485:Generated_Source\PSoC6\pdl\drivers/peripheral/dma/cy_dma.h **** /** \} group_dma_block_functions */
 486:Generated_Source\PSoC6\pdl\drivers/peripheral/dma/cy_dma.h **** 
 487:Generated_Source\PSoC6\pdl\drivers/peripheral/dma/cy_dma.h **** 
 488:Generated_Source\PSoC6\pdl\drivers/peripheral/dma/cy_dma.h **** /**
 489:Generated_Source\PSoC6\pdl\drivers/peripheral/dma/cy_dma.h **** * \addtogroup group_dma_channel_functions
 490:Generated_Source\PSoC6\pdl\drivers/peripheral/dma/cy_dma.h **** * \{
 491:Generated_Source\PSoC6\pdl\drivers/peripheral/dma/cy_dma.h **** */
 492:Generated_Source\PSoC6\pdl\drivers/peripheral/dma/cy_dma.h ****       cy_en_dma_status_t Cy_DMA_Channel_Init                    (DW_Type       * base, uint32_t cha
 493:Generated_Source\PSoC6\pdl\drivers/peripheral/dma/cy_dma.h ****                 void     Cy_DMA_Channel_DeInit                  (DW_Type       * base, uint32_t cha
ARM GAS  C:\Users\enes_\AppData\Local\Temp\cc97b4k1.s 			page 41


 494:Generated_Source\PSoC6\pdl\drivers/peripheral/dma/cy_dma.h **** __STATIC_INLINE void     Cy_DMA_Channel_SetDescriptor           (DW_Type       * base, uint32_t cha
 495:Generated_Source\PSoC6\pdl\drivers/peripheral/dma/cy_dma.h **** __STATIC_INLINE void     Cy_DMA_Channel_Enable                  (DW_Type       * base, uint32_t cha
 496:Generated_Source\PSoC6\pdl\drivers/peripheral/dma/cy_dma.h **** __STATIC_INLINE void     Cy_DMA_Channel_Disable                 (DW_Type       * base, uint32_t cha
 497:Generated_Source\PSoC6\pdl\drivers/peripheral/dma/cy_dma.h **** __STATIC_INLINE void     Cy_DMA_Channel_SetPriority             (DW_Type       * base, uint32_t cha
 498:Generated_Source\PSoC6\pdl\drivers/peripheral/dma/cy_dma.h **** __STATIC_INLINE uint32_t Cy_DMA_Channel_GetPriority             (DW_Type const * base, uint32_t cha
 499:Generated_Source\PSoC6\pdl\drivers/peripheral/dma/cy_dma.h **** __STATIC_INLINE
 500:Generated_Source\PSoC6\pdl\drivers/peripheral/dma/cy_dma.h ****   cy_en_dma_intr_cause_t Cy_DMA_Channel_GetStatus               (DW_Type const * base, uint32_t cha
 501:Generated_Source\PSoC6\pdl\drivers/peripheral/dma/cy_dma.h **** __STATIC_INLINE
 502:Generated_Source\PSoC6\pdl\drivers/peripheral/dma/cy_dma.h **** cy_stc_dma_descriptor_t * Cy_DMA_Channel_GetCurrentDescriptor   (DW_Type const * base, uint32_t cha
 503:Generated_Source\PSoC6\pdl\drivers/peripheral/dma/cy_dma.h **** 
 504:Generated_Source\PSoC6\pdl\drivers/peripheral/dma/cy_dma.h **** __STATIC_INLINE uint32_t Cy_DMA_Channel_GetInterruptStatus      (DW_Type const * base, uint32_t cha
 505:Generated_Source\PSoC6\pdl\drivers/peripheral/dma/cy_dma.h **** __STATIC_INLINE void     Cy_DMA_Channel_ClearInterrupt          (DW_Type       * base, uint32_t cha
 506:Generated_Source\PSoC6\pdl\drivers/peripheral/dma/cy_dma.h **** __STATIC_INLINE void     Cy_DMA_Channel_SetInterrupt            (DW_Type       * base, uint32_t cha
 507:Generated_Source\PSoC6\pdl\drivers/peripheral/dma/cy_dma.h **** __STATIC_INLINE uint32_t Cy_DMA_Channel_GetInterruptMask        (DW_Type const * base, uint32_t cha
 508:Generated_Source\PSoC6\pdl\drivers/peripheral/dma/cy_dma.h **** __STATIC_INLINE void     Cy_DMA_Channel_SetInterruptMask        (DW_Type       * base, uint32_t cha
 509:Generated_Source\PSoC6\pdl\drivers/peripheral/dma/cy_dma.h **** __STATIC_INLINE uint32_t Cy_DMA_Channel_GetInterruptStatusMasked(DW_Type const * base, uint32_t cha
 510:Generated_Source\PSoC6\pdl\drivers/peripheral/dma/cy_dma.h **** 
 511:Generated_Source\PSoC6\pdl\drivers/peripheral/dma/cy_dma.h **** /** \} group_dma_channel_functions */
 512:Generated_Source\PSoC6\pdl\drivers/peripheral/dma/cy_dma.h **** 
 513:Generated_Source\PSoC6\pdl\drivers/peripheral/dma/cy_dma.h **** 
 514:Generated_Source\PSoC6\pdl\drivers/peripheral/dma/cy_dma.h **** /**
 515:Generated_Source\PSoC6\pdl\drivers/peripheral/dma/cy_dma.h **** * \addtogroup group_dma_descriptor_functions
 516:Generated_Source\PSoC6\pdl\drivers/peripheral/dma/cy_dma.h **** * \{
 517:Generated_Source\PSoC6\pdl\drivers/peripheral/dma/cy_dma.h **** */
 518:Generated_Source\PSoC6\pdl\drivers/peripheral/dma/cy_dma.h **** 
 519:Generated_Source\PSoC6\pdl\drivers/peripheral/dma/cy_dma.h ****   cy_en_dma_status_t Cy_DMA_Descriptor_Init  (cy_stc_dma_descriptor_t * descriptor, cy_stc_dma_desc
 520:Generated_Source\PSoC6\pdl\drivers/peripheral/dma/cy_dma.h ****                 void Cy_DMA_Descriptor_DeInit(cy_stc_dma_descriptor_t * descriptor);
 521:Generated_Source\PSoC6\pdl\drivers/peripheral/dma/cy_dma.h ****                 
 522:Generated_Source\PSoC6\pdl\drivers/peripheral/dma/cy_dma.h ****                 void Cy_DMA_Descriptor_SetNextDescriptor   (cy_stc_dma_descriptor_t * descriptor, c
 523:Generated_Source\PSoC6\pdl\drivers/peripheral/dma/cy_dma.h ****                 void Cy_DMA_Descriptor_SetDescriptorType   (cy_stc_dma_descriptor_t * descriptor, c
 524:Generated_Source\PSoC6\pdl\drivers/peripheral/dma/cy_dma.h **** __STATIC_INLINE void Cy_DMA_Descriptor_SetSrcAddress       (cy_stc_dma_descriptor_t * descriptor, v
 525:Generated_Source\PSoC6\pdl\drivers/peripheral/dma/cy_dma.h **** __STATIC_INLINE void Cy_DMA_Descriptor_SetDstAddress       (cy_stc_dma_descriptor_t * descriptor, v
 526:Generated_Source\PSoC6\pdl\drivers/peripheral/dma/cy_dma.h **** __STATIC_INLINE void Cy_DMA_Descriptor_SetXloopDataCount   (cy_stc_dma_descriptor_t * descriptor, u
 527:Generated_Source\PSoC6\pdl\drivers/peripheral/dma/cy_dma.h **** __STATIC_INLINE void Cy_DMA_Descriptor_SetYloopDataCount   (cy_stc_dma_descriptor_t * descriptor, u
 528:Generated_Source\PSoC6\pdl\drivers/peripheral/dma/cy_dma.h **** __STATIC_INLINE void Cy_DMA_Descriptor_SetXloopSrcIncrement(cy_stc_dma_descriptor_t * descriptor, i
