ARM GAS  C:\Users\enes_\AppData\Local\Temp\cc1rwu0O.s 			page 1


   1              		.syntax unified
   2              		.cpu cortex-m4
   3              		.eabi_attribute 27, 1
   4              		.fpu fpv4-sp-d16
   5              		.eabi_attribute 20, 1
   6              		.eabi_attribute 21, 1
   7              		.eabi_attribute 23, 3
   8              		.eabi_attribute 24, 1
   9              		.eabi_attribute 25, 1
  10              		.eabi_attribute 26, 1
  11              		.eabi_attribute 30, 1
  12              		.eabi_attribute 34, 1
  13              		.eabi_attribute 18, 4
  14              		.thumb
  15              		.syntax unified
  16              		.file	"cy_usb_dev_hid.c"
  17              		.text
  18              	.Ltext0:
  19              		.cfi_sections	.debug_frame
  20              		.section	.text.GetDescriptorHidReportRequest,"ax",%progbits
  21              		.align	2
  22              		.thumb
  23              		.thumb_func
  24              		.type	GetDescriptorHidReportRequest, %function
  25              	GetDescriptorHidReportRequest:
  26              	.LFB284:
  27              		.file 1 "Generated_Source\\PSoC6\\pdl\\middleware\\usb_dev\\cy_usb_dev_hid.c"
   1:Generated_Source\PSoC6\pdl\middleware\usb_dev/cy_usb_dev_hid.c **** /***************************************************************************//**
   2:Generated_Source\PSoC6\pdl\middleware\usb_dev/cy_usb_dev_hid.c **** * \file cy_usb_dev_hid.c
   3:Generated_Source\PSoC6\pdl\middleware\usb_dev/cy_usb_dev_hid.c **** * \version 1.0
   4:Generated_Source\PSoC6\pdl\middleware\usb_dev/cy_usb_dev_hid.c **** *
   5:Generated_Source\PSoC6\pdl\middleware\usb_dev/cy_usb_dev_hid.c **** * Provides HID class-specific API implementation.
   6:Generated_Source\PSoC6\pdl\middleware\usb_dev/cy_usb_dev_hid.c **** *
   7:Generated_Source\PSoC6\pdl\middleware\usb_dev/cy_usb_dev_hid.c **** ********************************************************************************
   8:Generated_Source\PSoC6\pdl\middleware\usb_dev/cy_usb_dev_hid.c **** * \copyright
   9:Generated_Source\PSoC6\pdl\middleware\usb_dev/cy_usb_dev_hid.c **** * Copyright 2018, Cypress Semiconductor Corporation. All rights reserved.
  10:Generated_Source\PSoC6\pdl\middleware\usb_dev/cy_usb_dev_hid.c **** * You may use this file only in accordance with the license, terms, conditions,
  11:Generated_Source\PSoC6\pdl\middleware\usb_dev/cy_usb_dev_hid.c **** * disclaimers, and limitations in the end user license agreement accompanying
  12:Generated_Source\PSoC6\pdl\middleware\usb_dev/cy_usb_dev_hid.c **** * the software package with which this file was provided.
  13:Generated_Source\PSoC6\pdl\middleware\usb_dev/cy_usb_dev_hid.c **** *******************************************************************************/
  14:Generated_Source\PSoC6\pdl\middleware\usb_dev/cy_usb_dev_hid.c **** 
  15:Generated_Source\PSoC6\pdl\middleware\usb_dev/cy_usb_dev_hid.c **** 
  16:Generated_Source\PSoC6\pdl\middleware\usb_dev/cy_usb_dev_hid.c **** #include "cy_usb_dev_hid.h"
  17:Generated_Source\PSoC6\pdl\middleware\usb_dev/cy_usb_dev_hid.c **** 
  18:Generated_Source\PSoC6\pdl\middleware\usb_dev/cy_usb_dev_hid.c **** #if defined(__cplusplus)
  19:Generated_Source\PSoC6\pdl\middleware\usb_dev/cy_usb_dev_hid.c **** extern "C" {
  20:Generated_Source\PSoC6\pdl\middleware\usb_dev/cy_usb_dev_hid.c **** #endif
  21:Generated_Source\PSoC6\pdl\middleware\usb_dev/cy_usb_dev_hid.c **** 
  22:Generated_Source\PSoC6\pdl\middleware\usb_dev/cy_usb_dev_hid.c **** 
  23:Generated_Source\PSoC6\pdl\middleware\usb_dev/cy_usb_dev_hid.c **** /*******************************************************************************
  24:Generated_Source\PSoC6\pdl\middleware\usb_dev/cy_usb_dev_hid.c **** *                             Internal Macro
  25:Generated_Source\PSoC6\pdl\middleware\usb_dev/cy_usb_dev_hid.c **** *******************************************************************************/
  26:Generated_Source\PSoC6\pdl\middleware\usb_dev/cy_usb_dev_hid.c **** 
  27:Generated_Source\PSoC6\pdl\middleware\usb_dev/cy_usb_dev_hid.c **** /* Get Idle request response length */
  28:Generated_Source\PSoC6\pdl\middleware\usb_dev/cy_usb_dev_hid.c **** #define HID_IDLE_RATE_LENGTH        (1U)
  29:Generated_Source\PSoC6\pdl\middleware\usb_dev/cy_usb_dev_hid.c **** 
  30:Generated_Source\PSoC6\pdl\middleware\usb_dev/cy_usb_dev_hid.c **** /* Get Protocol request response length */
ARM GAS  C:\Users\enes_\AppData\Local\Temp\cc1rwu0O.s 			page 2


  31:Generated_Source\PSoC6\pdl\middleware\usb_dev/cy_usb_dev_hid.c **** #define HID_PROTOCOL_LENGTH         (1U)
  32:Generated_Source\PSoC6\pdl\middleware\usb_dev/cy_usb_dev_hid.c **** 
  33:Generated_Source\PSoC6\pdl\middleware\usb_dev/cy_usb_dev_hid.c **** /* Set protocol mask */
  34:Generated_Source\PSoC6\pdl\middleware\usb_dev/cy_usb_dev_hid.c **** #define HID_PROTOCOL_MASK           (0x01U)
  35:Generated_Source\PSoC6\pdl\middleware\usb_dev/cy_usb_dev_hid.c **** 
  36:Generated_Source\PSoC6\pdl\middleware\usb_dev/cy_usb_dev_hid.c **** /* Set default idle rate */
  37:Generated_Source\PSoC6\pdl\middleware\usb_dev/cy_usb_dev_hid.c **** #define HID_IDLE_RATE_INDEFINITE    (0U)
  38:Generated_Source\PSoC6\pdl\middleware\usb_dev/cy_usb_dev_hid.c **** 
  39:Generated_Source\PSoC6\pdl\middleware\usb_dev/cy_usb_dev_hid.c **** 
  40:Generated_Source\PSoC6\pdl\middleware\usb_dev/cy_usb_dev_hid.c **** /*******************************************************************************
  41:Generated_Source\PSoC6\pdl\middleware\usb_dev/cy_usb_dev_hid.c **** * Internal Functions Prototypes
  42:Generated_Source\PSoC6\pdl\middleware\usb_dev/cy_usb_dev_hid.c **** *******************************************************************************/
  43:Generated_Source\PSoC6\pdl\middleware\usb_dev/cy_usb_dev_hid.c **** 
  44:Generated_Source\PSoC6\pdl\middleware\usb_dev/cy_usb_dev_hid.c **** static void HandleBusReset(void *classContext, cy_stc_usb_dev_context_t *devContext);
  45:Generated_Source\PSoC6\pdl\middleware\usb_dev/cy_usb_dev_hid.c **** 
  46:Generated_Source\PSoC6\pdl\middleware\usb_dev/cy_usb_dev_hid.c **** static cy_en_usb_dev_status_t HandleRequest(cy_stc_usb_dev_control_transfer_t *transfer, 
  47:Generated_Source\PSoC6\pdl\middleware\usb_dev/cy_usb_dev_hid.c ****                                             void *classContext, 
  48:Generated_Source\PSoC6\pdl\middleware\usb_dev/cy_usb_dev_hid.c ****                                             cy_stc_usb_dev_context_t *devContext);
  49:Generated_Source\PSoC6\pdl\middleware\usb_dev/cy_usb_dev_hid.c **** 
  50:Generated_Source\PSoC6\pdl\middleware\usb_dev/cy_usb_dev_hid.c **** static cy_en_usb_dev_status_t HandleRequestComplete(cy_stc_usb_dev_control_transfer_t *transfer, 
  51:Generated_Source\PSoC6\pdl\middleware\usb_dev/cy_usb_dev_hid.c ****                                                     void *classContext, 
  52:Generated_Source\PSoC6\pdl\middleware\usb_dev/cy_usb_dev_hid.c ****                                                     cy_stc_usb_dev_context_t *devContext);
  53:Generated_Source\PSoC6\pdl\middleware\usb_dev/cy_usb_dev_hid.c **** 
  54:Generated_Source\PSoC6\pdl\middleware\usb_dev/cy_usb_dev_hid.c **** static cy_en_usb_dev_status_t GetDescriptorHidReportRequest(cy_stc_usb_dev_control_transfer_t *tran
  55:Generated_Source\PSoC6\pdl\middleware\usb_dev/cy_usb_dev_hid.c ****                                                             cy_stc_usb_dev_hid_t const *hid);
  56:Generated_Source\PSoC6\pdl\middleware\usb_dev/cy_usb_dev_hid.c **** 
  57:Generated_Source\PSoC6\pdl\middleware\usb_dev/cy_usb_dev_hid.c **** static cy_en_usb_dev_status_t GetDescriptorHidClassRequest(cy_stc_usb_dev_control_transfer_t *trans
  58:Generated_Source\PSoC6\pdl\middleware\usb_dev/cy_usb_dev_hid.c ****                                                            cy_stc_usb_dev_hid_t const *hid);
  59:Generated_Source\PSoC6\pdl\middleware\usb_dev/cy_usb_dev_hid.c **** 
  60:Generated_Source\PSoC6\pdl\middleware\usb_dev/cy_usb_dev_hid.c **** static cy_en_usb_dev_status_t GetReportRequest(cy_stc_usb_dev_control_transfer_t *transfer, 
  61:Generated_Source\PSoC6\pdl\middleware\usb_dev/cy_usb_dev_hid.c ****                                                cy_stc_usb_dev_hid_context_t const *context);
  62:Generated_Source\PSoC6\pdl\middleware\usb_dev/cy_usb_dev_hid.c **** 
  63:Generated_Source\PSoC6\pdl\middleware\usb_dev/cy_usb_dev_hid.c **** static cy_en_usb_dev_status_t GetProtocolRequest(cy_stc_usb_dev_control_transfer_t *transfer, 
  64:Generated_Source\PSoC6\pdl\middleware\usb_dev/cy_usb_dev_hid.c ****                                                    cy_stc_usb_dev_hid_context_t *context);
  65:Generated_Source\PSoC6\pdl\middleware\usb_dev/cy_usb_dev_hid.c **** 
  66:Generated_Source\PSoC6\pdl\middleware\usb_dev/cy_usb_dev_hid.c **** static cy_en_usb_dev_status_t GetIdleRequest(cy_stc_usb_dev_control_transfer_t *transfer, 
  67:Generated_Source\PSoC6\pdl\middleware\usb_dev/cy_usb_dev_hid.c ****                                              cy_stc_usb_dev_hid_t const *hid,
  68:Generated_Source\PSoC6\pdl\middleware\usb_dev/cy_usb_dev_hid.c ****                                              cy_stc_usb_dev_hid_context_t *context);
  69:Generated_Source\PSoC6\pdl\middleware\usb_dev/cy_usb_dev_hid.c **** 
  70:Generated_Source\PSoC6\pdl\middleware\usb_dev/cy_usb_dev_hid.c **** static cy_en_usb_dev_status_t SetReportRequest(cy_stc_usb_dev_control_transfer_t *transfer, 
  71:Generated_Source\PSoC6\pdl\middleware\usb_dev/cy_usb_dev_hid.c ****                                                cy_stc_usb_dev_hid_context_t const *context);
  72:Generated_Source\PSoC6\pdl\middleware\usb_dev/cy_usb_dev_hid.c **** 
  73:Generated_Source\PSoC6\pdl\middleware\usb_dev/cy_usb_dev_hid.c **** static cy_en_usb_dev_status_t SetReportRequestComplete(cy_stc_usb_dev_control_transfer_t *transfer,
  74:Generated_Source\PSoC6\pdl\middleware\usb_dev/cy_usb_dev_hid.c ****                                                        cy_stc_usb_dev_hid_context_t const *context)
  75:Generated_Source\PSoC6\pdl\middleware\usb_dev/cy_usb_dev_hid.c **** 
  76:Generated_Source\PSoC6\pdl\middleware\usb_dev/cy_usb_dev_hid.c **** static cy_en_usb_dev_status_t SetProtocolRequest(cy_stc_usb_dev_control_transfer_t const *transfer,
  77:Generated_Source\PSoC6\pdl\middleware\usb_dev/cy_usb_dev_hid.c ****                                                  cy_stc_usb_dev_hid_context_t *context);
  78:Generated_Source\PSoC6\pdl\middleware\usb_dev/cy_usb_dev_hid.c **** 
  79:Generated_Source\PSoC6\pdl\middleware\usb_dev/cy_usb_dev_hid.c **** static void UpdateIdleRateTimer(uint32_t idx, cy_stc_usb_dev_hid_context_t *context);
  80:Generated_Source\PSoC6\pdl\middleware\usb_dev/cy_usb_dev_hid.c **** 
  81:Generated_Source\PSoC6\pdl\middleware\usb_dev/cy_usb_dev_hid.c **** static cy_en_usb_dev_status_t SetIdleRequest(cy_stc_usb_dev_control_transfer_t const *transfer, 
  82:Generated_Source\PSoC6\pdl\middleware\usb_dev/cy_usb_dev_hid.c ****                                              cy_stc_usb_dev_hid_t const *hid,
  83:Generated_Source\PSoC6\pdl\middleware\usb_dev/cy_usb_dev_hid.c ****                                              cy_stc_usb_dev_hid_context_t *context);
  84:Generated_Source\PSoC6\pdl\middleware\usb_dev/cy_usb_dev_hid.c **** 
  85:Generated_Source\PSoC6\pdl\middleware\usb_dev/cy_usb_dev_hid.c **** static cy_stc_usb_dev_hid_t const * GetHidStruct(uint32_t intf, 
  86:Generated_Source\PSoC6\pdl\middleware\usb_dev/cy_usb_dev_hid.c ****                                                 cy_stc_usb_dev_context_t *devContext);
  87:Generated_Source\PSoC6\pdl\middleware\usb_dev/cy_usb_dev_hid.c **** 
ARM GAS  C:\Users\enes_\AppData\Local\Temp\cc1rwu0O.s 			page 3


  88:Generated_Source\PSoC6\pdl\middleware\usb_dev/cy_usb_dev_hid.c **** static cy_en_usb_dev_status_t GetInputReportIdx(uint32_t reportId, uint32_t *idx, 
  89:Generated_Source\PSoC6\pdl\middleware\usb_dev/cy_usb_dev_hid.c ****                                                 cy_stc_usb_dev_hid_t const *hid,
  90:Generated_Source\PSoC6\pdl\middleware\usb_dev/cy_usb_dev_hid.c ****                                                 cy_stc_usb_dev_hid_context_t const *context);
  91:Generated_Source\PSoC6\pdl\middleware\usb_dev/cy_usb_dev_hid.c **** 
  92:Generated_Source\PSoC6\pdl\middleware\usb_dev/cy_usb_dev_hid.c **** 
  93:Generated_Source\PSoC6\pdl\middleware\usb_dev/cy_usb_dev_hid.c **** /*******************************************************************************
  94:Generated_Source\PSoC6\pdl\middleware\usb_dev/cy_usb_dev_hid.c **** * Function Name: Cy_USB_Dev_HID_Init
  95:Generated_Source\PSoC6\pdl\middleware\usb_dev/cy_usb_dev_hid.c **** ****************************************************************************//**
  96:Generated_Source\PSoC6\pdl\middleware\usb_dev/cy_usb_dev_hid.c **** *
  97:Generated_Source\PSoC6\pdl\middleware\usb_dev/cy_usb_dev_hid.c **** * Initializes the HID class. 
  98:Generated_Source\PSoC6\pdl\middleware\usb_dev/cy_usb_dev_hid.c **** * This function must be called to enable USB Device HID functionality.
  99:Generated_Source\PSoC6\pdl\middleware\usb_dev/cy_usb_dev_hid.c **** *
 100:Generated_Source\PSoC6\pdl\middleware\usb_dev/cy_usb_dev_hid.c **** * \param config
 101:Generated_Source\PSoC6\pdl\middleware\usb_dev/cy_usb_dev_hid.c **** * The pointer to the HID configuration 
 102:Generated_Source\PSoC6\pdl\middleware\usb_dev/cy_usb_dev_hid.c **** * structure \ref cy_stc_usb_dev_hid_config_t.
 103:Generated_Source\PSoC6\pdl\middleware\usb_dev/cy_usb_dev_hid.c **** *
 104:Generated_Source\PSoC6\pdl\middleware\usb_dev/cy_usb_dev_hid.c **** * \param context
 105:Generated_Source\PSoC6\pdl\middleware\usb_dev/cy_usb_dev_hid.c **** * The pointer to the context structure \ref cy_stc_usb_dev_hid_context_t 
 106:Generated_Source\PSoC6\pdl\middleware\usb_dev/cy_usb_dev_hid.c **** * allocated by the user. The structure is used during the HID Class operation  
 107:Generated_Source\PSoC6\pdl\middleware\usb_dev/cy_usb_dev_hid.c **** * for internal configuration and data retention. The user must not modify 
 108:Generated_Source\PSoC6\pdl\middleware\usb_dev/cy_usb_dev_hid.c **** * anything in this structure.
 109:Generated_Source\PSoC6\pdl\middleware\usb_dev/cy_usb_dev_hid.c **** *
 110:Generated_Source\PSoC6\pdl\middleware\usb_dev/cy_usb_dev_hid.c **** * \param devContext
 111:Generated_Source\PSoC6\pdl\middleware\usb_dev/cy_usb_dev_hid.c **** * The pointer to the USB Device context structure \ref cy_stc_usb_dev_context_t.
 112:Generated_Source\PSoC6\pdl\middleware\usb_dev/cy_usb_dev_hid.c **** *
 113:Generated_Source\PSoC6\pdl\middleware\usb_dev/cy_usb_dev_hid.c **** * \return
 114:Generated_Source\PSoC6\pdl\middleware\usb_dev/cy_usb_dev_hid.c **** * Status code of the function execution \ref cy_en_usb_dev_status_t.
 115:Generated_Source\PSoC6\pdl\middleware\usb_dev/cy_usb_dev_hid.c **** *
 116:Generated_Source\PSoC6\pdl\middleware\usb_dev/cy_usb_dev_hid.c **** *******************************************************************************/
 117:Generated_Source\PSoC6\pdl\middleware\usb_dev/cy_usb_dev_hid.c **** cy_en_usb_dev_status_t Cy_USB_Dev_HID_Init(cy_stc_usb_dev_hid_config_t const *config,
 118:Generated_Source\PSoC6\pdl\middleware\usb_dev/cy_usb_dev_hid.c ****                                            cy_stc_usb_dev_hid_context_t      *context,
 119:Generated_Source\PSoC6\pdl\middleware\usb_dev/cy_usb_dev_hid.c ****                                            cy_stc_usb_dev_context_t          *devContext)
 120:Generated_Source\PSoC6\pdl\middleware\usb_dev/cy_usb_dev_hid.c **** {
 121:Generated_Source\PSoC6\pdl\middleware\usb_dev/cy_usb_dev_hid.c ****     /* Input parameters verification */
 122:Generated_Source\PSoC6\pdl\middleware\usb_dev/cy_usb_dev_hid.c ****     if ((NULL == config) || (NULL == context) || (NULL == devContext))
 123:Generated_Source\PSoC6\pdl\middleware\usb_dev/cy_usb_dev_hid.c ****     {
 124:Generated_Source\PSoC6\pdl\middleware\usb_dev/cy_usb_dev_hid.c ****         return CY_USB_DEV_BAD_PARAM;
 125:Generated_Source\PSoC6\pdl\middleware\usb_dev/cy_usb_dev_hid.c ****     }
 126:Generated_Source\PSoC6\pdl\middleware\usb_dev/cy_usb_dev_hid.c **** 
 127:Generated_Source\PSoC6\pdl\middleware\usb_dev/cy_usb_dev_hid.c ****     /* SETUP data storage */
 128:Generated_Source\PSoC6\pdl\middleware\usb_dev/cy_usb_dev_hid.c ****     context->idleRate  = config->timers;
 129:Generated_Source\PSoC6\pdl\middleware\usb_dev/cy_usb_dev_hid.c ****     context->idleTimer = &config->timers[config->timersNum];
 130:Generated_Source\PSoC6\pdl\middleware\usb_dev/cy_usb_dev_hid.c ****     context->timersNum = config->timersNum;
 131:Generated_Source\PSoC6\pdl\middleware\usb_dev/cy_usb_dev_hid.c **** 
 132:Generated_Source\PSoC6\pdl\middleware\usb_dev/cy_usb_dev_hid.c ****     /* Remove custom handlers */
 133:Generated_Source\PSoC6\pdl\middleware\usb_dev/cy_usb_dev_hid.c ****     context->handleGetReport = NULL;
 134:Generated_Source\PSoC6\pdl\middleware\usb_dev/cy_usb_dev_hid.c ****     context->handleSetReport = NULL;
 135:Generated_Source\PSoC6\pdl\middleware\usb_dev/cy_usb_dev_hid.c **** 
 136:Generated_Source\PSoC6\pdl\middleware\usb_dev/cy_usb_dev_hid.c ****     /* Store device context */
 137:Generated_Source\PSoC6\pdl\middleware\usb_dev/cy_usb_dev_hid.c ****     context->devContext = devContext;
 138:Generated_Source\PSoC6\pdl\middleware\usb_dev/cy_usb_dev_hid.c ****     
 139:Generated_Source\PSoC6\pdl\middleware\usb_dev/cy_usb_dev_hid.c ****     /* Register HID handlers */
 140:Generated_Source\PSoC6\pdl\middleware\usb_dev/cy_usb_dev_hid.c ****     Cy_USB_Dev_RegisterClassBusResetCallback(&HandleBusReset, Cy_USB_Dev_HID_GetClass(context));
 141:Generated_Source\PSoC6\pdl\middleware\usb_dev/cy_usb_dev_hid.c ****     Cy_USB_Dev_RegisterClassRequestRcvdCallback(&HandleRequest, Cy_USB_Dev_HID_GetClass(context));
 142:Generated_Source\PSoC6\pdl\middleware\usb_dev/cy_usb_dev_hid.c ****     Cy_USB_Dev_RegisterClassRequestCmpltCallback(&HandleRequestComplete, Cy_USB_Dev_HID_GetClass(co
 143:Generated_Source\PSoC6\pdl\middleware\usb_dev/cy_usb_dev_hid.c ****        
 144:Generated_Source\PSoC6\pdl\middleware\usb_dev/cy_usb_dev_hid.c ****     return Cy_USB_Dev_RegisterClass(&context->classItem, &context->class, context, devContext);
ARM GAS  C:\Users\enes_\AppData\Local\Temp\cc1rwu0O.s 			page 4


 145:Generated_Source\PSoC6\pdl\middleware\usb_dev/cy_usb_dev_hid.c **** }
 146:Generated_Source\PSoC6\pdl\middleware\usb_dev/cy_usb_dev_hid.c **** 
 147:Generated_Source\PSoC6\pdl\middleware\usb_dev/cy_usb_dev_hid.c **** 
 148:Generated_Source\PSoC6\pdl\middleware\usb_dev/cy_usb_dev_hid.c **** /*******************************************************************************
 149:Generated_Source\PSoC6\pdl\middleware\usb_dev/cy_usb_dev_hid.c **** * Function Name: Cy_USB_Dev_HID_UpdateTimer
 150:Generated_Source\PSoC6\pdl\middleware\usb_dev/cy_usb_dev_hid.c **** ****************************************************************************//**
 151:Generated_Source\PSoC6\pdl\middleware\usb_dev/cy_usb_dev_hid.c **** *
 152:Generated_Source\PSoC6\pdl\middleware\usb_dev/cy_usb_dev_hid.c **** * Updates the HID Report idle timer and returns the status of the timer. This
 153:Generated_Source\PSoC6\pdl\middleware\usb_dev/cy_usb_dev_hid.c **** * function also reloads the timer if it expires.
 154:Generated_Source\PSoC6\pdl\middleware\usb_dev/cy_usb_dev_hid.c **** *
 155:Generated_Source\PSoC6\pdl\middleware\usb_dev/cy_usb_dev_hid.c **** * \param interface
 156:Generated_Source\PSoC6\pdl\middleware\usb_dev/cy_usb_dev_hid.c **** * Contains the interface number that contains the HID descriptor whose HID timer
 157:Generated_Source\PSoC6\pdl\middleware\usb_dev/cy_usb_dev_hid.c **** * needs to be updated.
 158:Generated_Source\PSoC6\pdl\middleware\usb_dev/cy_usb_dev_hid.c **** *
 159:Generated_Source\PSoC6\pdl\middleware\usb_dev/cy_usb_dev_hid.c **** * \param reportId
 160:Generated_Source\PSoC6\pdl\middleware\usb_dev/cy_usb_dev_hid.c **** * Report ID whose HID timer needs to be updated.
 161:Generated_Source\PSoC6\pdl\middleware\usb_dev/cy_usb_dev_hid.c **** * Pass 0 if report ID is not used.
 162:Generated_Source\PSoC6\pdl\middleware\usb_dev/cy_usb_dev_hid.c **** *
 163:Generated_Source\PSoC6\pdl\middleware\usb_dev/cy_usb_dev_hid.c **** * \param context
 164:Generated_Source\PSoC6\pdl\middleware\usb_dev/cy_usb_dev_hid.c **** * The pointer to the context structure \ref cy_stc_usb_dev_hid_context_t 
 165:Generated_Source\PSoC6\pdl\middleware\usb_dev/cy_usb_dev_hid.c **** * allocated by the user. The structure is used during the HID Class operation  
 166:Generated_Source\PSoC6\pdl\middleware\usb_dev/cy_usb_dev_hid.c **** * for internal configuration and data retention. The user must not modify 
 167:Generated_Source\PSoC6\pdl\middleware\usb_dev/cy_usb_dev_hid.c **** * anything in this structure.
 168:Generated_Source\PSoC6\pdl\middleware\usb_dev/cy_usb_dev_hid.c **** *
 169:Generated_Source\PSoC6\pdl\middleware\usb_dev/cy_usb_dev_hid.c **** * \return
 170:Generated_Source\PSoC6\pdl\middleware\usb_dev/cy_usb_dev_hid.c **** * The state of the HID timer \ref cy_en_usb_dev_hid_timer_state_t
 171:Generated_Source\PSoC6\pdl\middleware\usb_dev/cy_usb_dev_hid.c **** *
 172:Generated_Source\PSoC6\pdl\middleware\usb_dev/cy_usb_dev_hid.c **** *******************************************************************************/
 173:Generated_Source\PSoC6\pdl\middleware\usb_dev/cy_usb_dev_hid.c **** cy_en_usb_dev_hid_timer_state_t Cy_USB_Dev_HID_UpdateTimer(uint32_t  interface,
 174:Generated_Source\PSoC6\pdl\middleware\usb_dev/cy_usb_dev_hid.c ****                                                            uint32_t  reportId,
 175:Generated_Source\PSoC6\pdl\middleware\usb_dev/cy_usb_dev_hid.c ****                                         cy_stc_usb_dev_hid_context_t *context)
 176:Generated_Source\PSoC6\pdl\middleware\usb_dev/cy_usb_dev_hid.c **** {
 177:Generated_Source\PSoC6\pdl\middleware\usb_dev/cy_usb_dev_hid.c ****     cy_en_usb_dev_hid_timer_state_t retState = CY_USB_DEV_HID_TIMER_INDEFINITE;
 178:Generated_Source\PSoC6\pdl\middleware\usb_dev/cy_usb_dev_hid.c ****     
 179:Generated_Source\PSoC6\pdl\middleware\usb_dev/cy_usb_dev_hid.c ****     cy_stc_usb_dev_hid_t const *hidStruct = GetHidStruct(interface, context->devContext);
 180:Generated_Source\PSoC6\pdl\middleware\usb_dev/cy_usb_dev_hid.c **** 
 181:Generated_Source\PSoC6\pdl\middleware\usb_dev/cy_usb_dev_hid.c ****     /* Check that HID exists for given interface */
 182:Generated_Source\PSoC6\pdl\middleware\usb_dev/cy_usb_dev_hid.c ****     CY_ASSERT_L1(NULL != hidStruct);
 183:Generated_Source\PSoC6\pdl\middleware\usb_dev/cy_usb_dev_hid.c ****        
 184:Generated_Source\PSoC6\pdl\middleware\usb_dev/cy_usb_dev_hid.c ****     if (NULL != hidStruct)
 185:Generated_Source\PSoC6\pdl\middleware\usb_dev/cy_usb_dev_hid.c ****     {
 186:Generated_Source\PSoC6\pdl\middleware\usb_dev/cy_usb_dev_hid.c ****         uint32_t idx;
 187:Generated_Source\PSoC6\pdl\middleware\usb_dev/cy_usb_dev_hid.c ****         cy_en_usb_dev_status_t locStatus = GetInputReportIdx(reportId, &idx, hidStruct, context);
 188:Generated_Source\PSoC6\pdl\middleware\usb_dev/cy_usb_dev_hid.c **** 
 189:Generated_Source\PSoC6\pdl\middleware\usb_dev/cy_usb_dev_hid.c ****         /* Check that Report ID exists for given interface */
 190:Generated_Source\PSoC6\pdl\middleware\usb_dev/cy_usb_dev_hid.c ****         CY_ASSERT_L1(CY_USB_DEV_SUCCESS == locStatus);
 191:Generated_Source\PSoC6\pdl\middleware\usb_dev/cy_usb_dev_hid.c **** 
 192:Generated_Source\PSoC6\pdl\middleware\usb_dev/cy_usb_dev_hid.c ****         if (CY_USB_DEV_SUCCESS == locStatus)
 193:Generated_Source\PSoC6\pdl\middleware\usb_dev/cy_usb_dev_hid.c ****         {
 194:Generated_Source\PSoC6\pdl\middleware\usb_dev/cy_usb_dev_hid.c ****             /* Protect from race condition between SET_IDLE request and timer update */
 195:Generated_Source\PSoC6\pdl\middleware\usb_dev/cy_usb_dev_hid.c ****             uint32_t intrState = Cy_SysLib_EnterCriticalSection();
 196:Generated_Source\PSoC6\pdl\middleware\usb_dev/cy_usb_dev_hid.c **** 
 197:Generated_Source\PSoC6\pdl\middleware\usb_dev/cy_usb_dev_hid.c ****             /* Check if duration is defined */
 198:Generated_Source\PSoC6\pdl\middleware\usb_dev/cy_usb_dev_hid.c ****             if (context->idleRate[idx] != HID_IDLE_RATE_INDEFINITE)
 199:Generated_Source\PSoC6\pdl\middleware\usb_dev/cy_usb_dev_hid.c ****             {
 200:Generated_Source\PSoC6\pdl\middleware\usb_dev/cy_usb_dev_hid.c ****                 /* Run timer */
 201:Generated_Source\PSoC6\pdl\middleware\usb_dev/cy_usb_dev_hid.c ****                 if (context->idleTimer[idx] > 0U)
ARM GAS  C:\Users\enes_\AppData\Local\Temp\cc1rwu0O.s 			page 5


 202:Generated_Source\PSoC6\pdl\middleware\usb_dev/cy_usb_dev_hid.c ****                 {
 203:Generated_Source\PSoC6\pdl\middleware\usb_dev/cy_usb_dev_hid.c ****                     context->idleTimer[idx]--;
 204:Generated_Source\PSoC6\pdl\middleware\usb_dev/cy_usb_dev_hid.c ****                     retState = CY_USB_DEV_HID_TIMER_RUNNING;
 205:Generated_Source\PSoC6\pdl\middleware\usb_dev/cy_usb_dev_hid.c ****                 }
 206:Generated_Source\PSoC6\pdl\middleware\usb_dev/cy_usb_dev_hid.c ****                 else
 207:Generated_Source\PSoC6\pdl\middleware\usb_dev/cy_usb_dev_hid.c ****                 {
 208:Generated_Source\PSoC6\pdl\middleware\usb_dev/cy_usb_dev_hid.c ****                     context->idleTimer[idx] = context->idleRate[idx];
 209:Generated_Source\PSoC6\pdl\middleware\usb_dev/cy_usb_dev_hid.c ****                     retState = CY_USB_DEV_HID_TIMER_EXPIRED;
 210:Generated_Source\PSoC6\pdl\middleware\usb_dev/cy_usb_dev_hid.c ****                 }
 211:Generated_Source\PSoC6\pdl\middleware\usb_dev/cy_usb_dev_hid.c ****             }
 212:Generated_Source\PSoC6\pdl\middleware\usb_dev/cy_usb_dev_hid.c **** 
 213:Generated_Source\PSoC6\pdl\middleware\usb_dev/cy_usb_dev_hid.c ****             Cy_SysLib_ExitCriticalSection(intrState);
 214:Generated_Source\PSoC6\pdl\middleware\usb_dev/cy_usb_dev_hid.c ****         }
 215:Generated_Source\PSoC6\pdl\middleware\usb_dev/cy_usb_dev_hid.c ****     }
 216:Generated_Source\PSoC6\pdl\middleware\usb_dev/cy_usb_dev_hid.c **** 
 217:Generated_Source\PSoC6\pdl\middleware\usb_dev/cy_usb_dev_hid.c ****     return retState;
 218:Generated_Source\PSoC6\pdl\middleware\usb_dev/cy_usb_dev_hid.c **** }
 219:Generated_Source\PSoC6\pdl\middleware\usb_dev/cy_usb_dev_hid.c **** 
 220:Generated_Source\PSoC6\pdl\middleware\usb_dev/cy_usb_dev_hid.c **** 
 221:Generated_Source\PSoC6\pdl\middleware\usb_dev/cy_usb_dev_hid.c **** /*******************************************************************************
 222:Generated_Source\PSoC6\pdl\middleware\usb_dev/cy_usb_dev_hid.c **** * Function Name: HandleBusReset
 223:Generated_Source\PSoC6\pdl\middleware\usb_dev/cy_usb_dev_hid.c **** ****************************************************************************//**
 224:Generated_Source\PSoC6\pdl\middleware\usb_dev/cy_usb_dev_hid.c **** *
 225:Generated_Source\PSoC6\pdl\middleware\usb_dev/cy_usb_dev_hid.c **** * Handles Bus Reset event: clears HID protocol and idle rate timers.
 226:Generated_Source\PSoC6\pdl\middleware\usb_dev/cy_usb_dev_hid.c **** *
 227:Generated_Source\PSoC6\pdl\middleware\usb_dev/cy_usb_dev_hid.c **** * \param classContext
 228:Generated_Source\PSoC6\pdl\middleware\usb_dev/cy_usb_dev_hid.c **** * Contains the interface number that contains the HID descriptor whose HID timer
 229:Generated_Source\PSoC6\pdl\middleware\usb_dev/cy_usb_dev_hid.c **** * needs to be updated.
 230:Generated_Source\PSoC6\pdl\middleware\usb_dev/cy_usb_dev_hid.c **** *
 231:Generated_Source\PSoC6\pdl\middleware\usb_dev/cy_usb_dev_hid.c **** * \param devContext
 232:Generated_Source\PSoC6\pdl\middleware\usb_dev/cy_usb_dev_hid.c **** * The pointer to the context structure \ref cy_stc_usb_dev_hid_context_t
 233:Generated_Source\PSoC6\pdl\middleware\usb_dev/cy_usb_dev_hid.c **** *
 234:Generated_Source\PSoC6\pdl\middleware\usb_dev/cy_usb_dev_hid.c **** *******************************************************************************/
 235:Generated_Source\PSoC6\pdl\middleware\usb_dev/cy_usb_dev_hid.c **** static void HandleBusReset(void *classContext, cy_stc_usb_dev_context_t *devContext)
 236:Generated_Source\PSoC6\pdl\middleware\usb_dev/cy_usb_dev_hid.c **** {
 237:Generated_Source\PSoC6\pdl\middleware\usb_dev/cy_usb_dev_hid.c ****     /* Suppress a compiler warning about unused variables */
 238:Generated_Source\PSoC6\pdl\middleware\usb_dev/cy_usb_dev_hid.c ****     (void) devContext;
 239:Generated_Source\PSoC6\pdl\middleware\usb_dev/cy_usb_dev_hid.c ****     
 240:Generated_Source\PSoC6\pdl\middleware\usb_dev/cy_usb_dev_hid.c ****     cy_stc_usb_dev_hid_context_t *context = (cy_stc_usb_dev_hid_context_t *) classContext;
 241:Generated_Source\PSoC6\pdl\middleware\usb_dev/cy_usb_dev_hid.c **** 
 242:Generated_Source\PSoC6\pdl\middleware\usb_dev/cy_usb_dev_hid.c ****     /* Set protocol to default */
 243:Generated_Source\PSoC6\pdl\middleware\usb_dev/cy_usb_dev_hid.c ****     (void) memset((void *) context->protocol, (int32_t) CY_USB_DEV_HID_PROTOCOL_REPORT, (uint32_t) 
 244:Generated_Source\PSoC6\pdl\middleware\usb_dev/cy_usb_dev_hid.c ****     
 245:Generated_Source\PSoC6\pdl\middleware\usb_dev/cy_usb_dev_hid.c ****     /* Set idle rate to default */
 246:Generated_Source\PSoC6\pdl\middleware\usb_dev/cy_usb_dev_hid.c ****     (void) memset(context->idleRate,  (int32_t) HID_IDLE_RATE_INDEFINITE, (uint32_t) context->timer
 247:Generated_Source\PSoC6\pdl\middleware\usb_dev/cy_usb_dev_hid.c ****     (void) memset(context->idleTimer, (int32_t) HID_IDLE_RATE_INDEFINITE, (uint32_t) context->timer
 248:Generated_Source\PSoC6\pdl\middleware\usb_dev/cy_usb_dev_hid.c **** }
 249:Generated_Source\PSoC6\pdl\middleware\usb_dev/cy_usb_dev_hid.c **** 
 250:Generated_Source\PSoC6\pdl\middleware\usb_dev/cy_usb_dev_hid.c **** 
 251:Generated_Source\PSoC6\pdl\middleware\usb_dev/cy_usb_dev_hid.c **** /*******************************************************************************
 252:Generated_Source\PSoC6\pdl\middleware\usb_dev/cy_usb_dev_hid.c **** * Function Name: HandleRequest
 253:Generated_Source\PSoC6\pdl\middleware\usb_dev/cy_usb_dev_hid.c **** ****************************************************************************//**
 254:Generated_Source\PSoC6\pdl\middleware\usb_dev/cy_usb_dev_hid.c **** *
 255:Generated_Source\PSoC6\pdl\middleware\usb_dev/cy_usb_dev_hid.c **** * Handles HID class requests (SETUP packet received event).
 256:Generated_Source\PSoC6\pdl\middleware\usb_dev/cy_usb_dev_hid.c **** *
 257:Generated_Source\PSoC6\pdl\middleware\usb_dev/cy_usb_dev_hid.c **** * \param transfer
 258:Generated_Source\PSoC6\pdl\middleware\usb_dev/cy_usb_dev_hid.c **** * Pointer to structure that holds SETUP packet and information for 
ARM GAS  C:\Users\enes_\AppData\Local\Temp\cc1rwu0O.s 			page 6


 259:Generated_Source\PSoC6\pdl\middleware\usb_dev/cy_usb_dev_hid.c **** * request processing.
 260:Generated_Source\PSoC6\pdl\middleware\usb_dev/cy_usb_dev_hid.c **** *
 261:Generated_Source\PSoC6\pdl\middleware\usb_dev/cy_usb_dev_hid.c **** * \param classContext
 262:Generated_Source\PSoC6\pdl\middleware\usb_dev/cy_usb_dev_hid.c **** * The pointer to the context structure \ref cy_stc_usb_dev_hid_context_t 
 263:Generated_Source\PSoC6\pdl\middleware\usb_dev/cy_usb_dev_hid.c **** * allocated by the user. The structure is used during the HID Class operation  
 264:Generated_Source\PSoC6\pdl\middleware\usb_dev/cy_usb_dev_hid.c **** * for internal configuration and data retention. The user must not modify 
 265:Generated_Source\PSoC6\pdl\middleware\usb_dev/cy_usb_dev_hid.c **** * anything in this structure.
 266:Generated_Source\PSoC6\pdl\middleware\usb_dev/cy_usb_dev_hid.c **** *
 267:Generated_Source\PSoC6\pdl\middleware\usb_dev/cy_usb_dev_hid.c **** * \param devContext
 268:Generated_Source\PSoC6\pdl\middleware\usb_dev/cy_usb_dev_hid.c **** * The pointer to the context structure \ref cy_stc_usb_dev_context_t allocated
 269:Generated_Source\PSoC6\pdl\middleware\usb_dev/cy_usb_dev_hid.c **** * by the user. The structure is used during the USB Device operation for 
 270:Generated_Source\PSoC6\pdl\middleware\usb_dev/cy_usb_dev_hid.c **** * internal configuration and data retention. The user must not modify anything 
 271:Generated_Source\PSoC6\pdl\middleware\usb_dev/cy_usb_dev_hid.c **** * in this structure.
 272:Generated_Source\PSoC6\pdl\middleware\usb_dev/cy_usb_dev_hid.c **** *
 273:Generated_Source\PSoC6\pdl\middleware\usb_dev/cy_usb_dev_hid.c **** * \return
 274:Generated_Source\PSoC6\pdl\middleware\usb_dev/cy_usb_dev_hid.c **** * Status of request processing: \ref CY_USB_DEV_SUCCESS or 
 275:Generated_Source\PSoC6\pdl\middleware\usb_dev/cy_usb_dev_hid.c **** * \ref CY_USB_DEV_REQUEST_NOT_HANDLED.
 276:Generated_Source\PSoC6\pdl\middleware\usb_dev/cy_usb_dev_hid.c **** *
 277:Generated_Source\PSoC6\pdl\middleware\usb_dev/cy_usb_dev_hid.c **** *******************************************************************************/
 278:Generated_Source\PSoC6\pdl\middleware\usb_dev/cy_usb_dev_hid.c **** static cy_en_usb_dev_status_t HandleRequest(cy_stc_usb_dev_control_transfer_t *transfer, 
 279:Generated_Source\PSoC6\pdl\middleware\usb_dev/cy_usb_dev_hid.c ****                                      void *classContext, 
 280:Generated_Source\PSoC6\pdl\middleware\usb_dev/cy_usb_dev_hid.c ****                                      cy_stc_usb_dev_context_t *devContext)
 281:Generated_Source\PSoC6\pdl\middleware\usb_dev/cy_usb_dev_hid.c **** {
 282:Generated_Source\PSoC6\pdl\middleware\usb_dev/cy_usb_dev_hid.c ****     cy_en_usb_dev_status_t retStatus = CY_USB_DEV_REQUEST_NOT_HANDLED;
 283:Generated_Source\PSoC6\pdl\middleware\usb_dev/cy_usb_dev_hid.c **** 
 284:Generated_Source\PSoC6\pdl\middleware\usb_dev/cy_usb_dev_hid.c ****     /* Get HID pointer for this interface (all HID requests using wIndex to pass interface) */
 285:Generated_Source\PSoC6\pdl\middleware\usb_dev/cy_usb_dev_hid.c ****     cy_stc_usb_dev_hid_t const *hidStruct = GetHidStruct((uint32_t) transfer->setup.wIndex, devCont
 286:Generated_Source\PSoC6\pdl\middleware\usb_dev/cy_usb_dev_hid.c **** 
 287:Generated_Source\PSoC6\pdl\middleware\usb_dev/cy_usb_dev_hid.c ****     if (NULL == hidStruct)
 288:Generated_Source\PSoC6\pdl\middleware\usb_dev/cy_usb_dev_hid.c ****     {
 289:Generated_Source\PSoC6\pdl\middleware\usb_dev/cy_usb_dev_hid.c ****         return CY_USB_DEV_REQUEST_NOT_HANDLED;
 290:Generated_Source\PSoC6\pdl\middleware\usb_dev/cy_usb_dev_hid.c ****     }
 291:Generated_Source\PSoC6\pdl\middleware\usb_dev/cy_usb_dev_hid.c **** 
 292:Generated_Source\PSoC6\pdl\middleware\usb_dev/cy_usb_dev_hid.c ****     /* Process standard requests */
 293:Generated_Source\PSoC6\pdl\middleware\usb_dev/cy_usb_dev_hid.c ****     if (CY_USB_DEV_STANDARD_TYPE == transfer->setup.bmRequestType.type)
 294:Generated_Source\PSoC6\pdl\middleware\usb_dev/cy_usb_dev_hid.c ****     {
 295:Generated_Source\PSoC6\pdl\middleware\usb_dev/cy_usb_dev_hid.c ****         if (CY_USB_DEV_RQST_GET_DESCRIPTOR == transfer->setup.bRequest)
 296:Generated_Source\PSoC6\pdl\middleware\usb_dev/cy_usb_dev_hid.c ****         {
 297:Generated_Source\PSoC6\pdl\middleware\usb_dev/cy_usb_dev_hid.c ****             switch (CY_USB_DEV_GET_DESCR_TYPE(transfer->setup.wValue))
 298:Generated_Source\PSoC6\pdl\middleware\usb_dev/cy_usb_dev_hid.c ****             {
 299:Generated_Source\PSoC6\pdl\middleware\usb_dev/cy_usb_dev_hid.c ****                 case CY_USB_DEV_HID_REPORT_DESCRIPTOR:
 300:Generated_Source\PSoC6\pdl\middleware\usb_dev/cy_usb_dev_hid.c ****                     retStatus = GetDescriptorHidReportRequest(transfer, hidStruct);
 301:Generated_Source\PSoC6\pdl\middleware\usb_dev/cy_usb_dev_hid.c ****                 break;
 302:Generated_Source\PSoC6\pdl\middleware\usb_dev/cy_usb_dev_hid.c ****                 
 303:Generated_Source\PSoC6\pdl\middleware\usb_dev/cy_usb_dev_hid.c ****                 case CY_USB_DEV_HID_DESCRIPTOR:
 304:Generated_Source\PSoC6\pdl\middleware\usb_dev/cy_usb_dev_hid.c ****                     retStatus = GetDescriptorHidClassRequest(transfer, hidStruct);
 305:Generated_Source\PSoC6\pdl\middleware\usb_dev/cy_usb_dev_hid.c ****                 break;
 306:Generated_Source\PSoC6\pdl\middleware\usb_dev/cy_usb_dev_hid.c **** 
 307:Generated_Source\PSoC6\pdl\middleware\usb_dev/cy_usb_dev_hid.c ****                 default:
 308:Generated_Source\PSoC6\pdl\middleware\usb_dev/cy_usb_dev_hid.c ****                     /* The request was not recognized */
 309:Generated_Source\PSoC6\pdl\middleware\usb_dev/cy_usb_dev_hid.c ****                 break;
 310:Generated_Source\PSoC6\pdl\middleware\usb_dev/cy_usb_dev_hid.c ****             }
 311:Generated_Source\PSoC6\pdl\middleware\usb_dev/cy_usb_dev_hid.c ****         }
 312:Generated_Source\PSoC6\pdl\middleware\usb_dev/cy_usb_dev_hid.c ****     }
 313:Generated_Source\PSoC6\pdl\middleware\usb_dev/cy_usb_dev_hid.c ****     /* Process class-specific requests */
 314:Generated_Source\PSoC6\pdl\middleware\usb_dev/cy_usb_dev_hid.c ****     else if (CY_USB_DEV_CLASS_TYPE == transfer->setup.bmRequestType.type)
 315:Generated_Source\PSoC6\pdl\middleware\usb_dev/cy_usb_dev_hid.c ****     {
ARM GAS  C:\Users\enes_\AppData\Local\Temp\cc1rwu0O.s 			page 7


 316:Generated_Source\PSoC6\pdl\middleware\usb_dev/cy_usb_dev_hid.c ****         /* Get HID context */
 317:Generated_Source\PSoC6\pdl\middleware\usb_dev/cy_usb_dev_hid.c ****         cy_stc_usb_dev_hid_context_t *context = (cy_stc_usb_dev_hid_context_t *) classContext;
 318:Generated_Source\PSoC6\pdl\middleware\usb_dev/cy_usb_dev_hid.c **** 
 319:Generated_Source\PSoC6\pdl\middleware\usb_dev/cy_usb_dev_hid.c ****         if (transfer->direction == CY_USB_DEV_DIR_DEVICE_TO_HOST)
 320:Generated_Source\PSoC6\pdl\middleware\usb_dev/cy_usb_dev_hid.c ****         {
 321:Generated_Source\PSoC6\pdl\middleware\usb_dev/cy_usb_dev_hid.c ****             switch (transfer->setup.bRequest)
 322:Generated_Source\PSoC6\pdl\middleware\usb_dev/cy_usb_dev_hid.c ****             {
 323:Generated_Source\PSoC6\pdl\middleware\usb_dev/cy_usb_dev_hid.c ****                 case CY_USB_DEV_HID_RQST_GET_REPORT:
 324:Generated_Source\PSoC6\pdl\middleware\usb_dev/cy_usb_dev_hid.c ****                     retStatus = GetReportRequest(transfer, context);
 325:Generated_Source\PSoC6\pdl\middleware\usb_dev/cy_usb_dev_hid.c ****                 break;
 326:Generated_Source\PSoC6\pdl\middleware\usb_dev/cy_usb_dev_hid.c **** 
 327:Generated_Source\PSoC6\pdl\middleware\usb_dev/cy_usb_dev_hid.c ****                 case CY_USB_DEV_HID_RQST_GET_PROTOCOL:
 328:Generated_Source\PSoC6\pdl\middleware\usb_dev/cy_usb_dev_hid.c ****                     retStatus = GetProtocolRequest(transfer, context);
 329:Generated_Source\PSoC6\pdl\middleware\usb_dev/cy_usb_dev_hid.c ****                 break;
 330:Generated_Source\PSoC6\pdl\middleware\usb_dev/cy_usb_dev_hid.c ****                 
 331:Generated_Source\PSoC6\pdl\middleware\usb_dev/cy_usb_dev_hid.c ****                 case CY_USB_DEV_HID_RQST_GET_IDLE:
 332:Generated_Source\PSoC6\pdl\middleware\usb_dev/cy_usb_dev_hid.c ****                     retStatus = GetIdleRequest(transfer, hidStruct, context);
 333:Generated_Source\PSoC6\pdl\middleware\usb_dev/cy_usb_dev_hid.c ****                 break;
 334:Generated_Source\PSoC6\pdl\middleware\usb_dev/cy_usb_dev_hid.c **** 
 335:Generated_Source\PSoC6\pdl\middleware\usb_dev/cy_usb_dev_hid.c ****                 default:
 336:Generated_Source\PSoC6\pdl\middleware\usb_dev/cy_usb_dev_hid.c ****                     /* The request was not recognized */
 337:Generated_Source\PSoC6\pdl\middleware\usb_dev/cy_usb_dev_hid.c ****                 break;
 338:Generated_Source\PSoC6\pdl\middleware\usb_dev/cy_usb_dev_hid.c ****             }
 339:Generated_Source\PSoC6\pdl\middleware\usb_dev/cy_usb_dev_hid.c ****         }
 340:Generated_Source\PSoC6\pdl\middleware\usb_dev/cy_usb_dev_hid.c ****         else
 341:Generated_Source\PSoC6\pdl\middleware\usb_dev/cy_usb_dev_hid.c ****         {
 342:Generated_Source\PSoC6\pdl\middleware\usb_dev/cy_usb_dev_hid.c ****             switch (transfer->setup.bRequest)
 343:Generated_Source\PSoC6\pdl\middleware\usb_dev/cy_usb_dev_hid.c ****             {
 344:Generated_Source\PSoC6\pdl\middleware\usb_dev/cy_usb_dev_hid.c ****                 case CY_USB_DEV_HID_RQST_SET_REPORT:
 345:Generated_Source\PSoC6\pdl\middleware\usb_dev/cy_usb_dev_hid.c ****                     retStatus = SetReportRequest(transfer, context);
 346:Generated_Source\PSoC6\pdl\middleware\usb_dev/cy_usb_dev_hid.c ****                 break;
 347:Generated_Source\PSoC6\pdl\middleware\usb_dev/cy_usb_dev_hid.c **** 
 348:Generated_Source\PSoC6\pdl\middleware\usb_dev/cy_usb_dev_hid.c ****                 case CY_USB_DEV_HID_RQST_SET_PROTOCOL:
 349:Generated_Source\PSoC6\pdl\middleware\usb_dev/cy_usb_dev_hid.c ****                     retStatus = SetProtocolRequest(transfer, context);
 350:Generated_Source\PSoC6\pdl\middleware\usb_dev/cy_usb_dev_hid.c ****                 break;
 351:Generated_Source\PSoC6\pdl\middleware\usb_dev/cy_usb_dev_hid.c ****                 
 352:Generated_Source\PSoC6\pdl\middleware\usb_dev/cy_usb_dev_hid.c ****                 case CY_USB_DEV_HID_RQST_SET_IDLE:
 353:Generated_Source\PSoC6\pdl\middleware\usb_dev/cy_usb_dev_hid.c ****                     retStatus = SetIdleRequest(transfer, hidStruct, context);
 354:Generated_Source\PSoC6\pdl\middleware\usb_dev/cy_usb_dev_hid.c ****                 break;
 355:Generated_Source\PSoC6\pdl\middleware\usb_dev/cy_usb_dev_hid.c ****                 
 356:Generated_Source\PSoC6\pdl\middleware\usb_dev/cy_usb_dev_hid.c ****                 default:
 357:Generated_Source\PSoC6\pdl\middleware\usb_dev/cy_usb_dev_hid.c ****                     /* The request was not recognized */
 358:Generated_Source\PSoC6\pdl\middleware\usb_dev/cy_usb_dev_hid.c ****                 break;
 359:Generated_Source\PSoC6\pdl\middleware\usb_dev/cy_usb_dev_hid.c ****             }
 360:Generated_Source\PSoC6\pdl\middleware\usb_dev/cy_usb_dev_hid.c ****         }
 361:Generated_Source\PSoC6\pdl\middleware\usb_dev/cy_usb_dev_hid.c ****     }
 362:Generated_Source\PSoC6\pdl\middleware\usb_dev/cy_usb_dev_hid.c ****     else
 363:Generated_Source\PSoC6\pdl\middleware\usb_dev/cy_usb_dev_hid.c ****     {
 364:Generated_Source\PSoC6\pdl\middleware\usb_dev/cy_usb_dev_hid.c ****         /* The request was not recognized */
 365:Generated_Source\PSoC6\pdl\middleware\usb_dev/cy_usb_dev_hid.c ****     }
 366:Generated_Source\PSoC6\pdl\middleware\usb_dev/cy_usb_dev_hid.c ****     
 367:Generated_Source\PSoC6\pdl\middleware\usb_dev/cy_usb_dev_hid.c ****     return (retStatus);
 368:Generated_Source\PSoC6\pdl\middleware\usb_dev/cy_usb_dev_hid.c **** }
 369:Generated_Source\PSoC6\pdl\middleware\usb_dev/cy_usb_dev_hid.c **** 
 370:Generated_Source\PSoC6\pdl\middleware\usb_dev/cy_usb_dev_hid.c **** 
 371:Generated_Source\PSoC6\pdl\middleware\usb_dev/cy_usb_dev_hid.c **** /*******************************************************************************
 372:Generated_Source\PSoC6\pdl\middleware\usb_dev/cy_usb_dev_hid.c **** * Function Name: HandleRequestComplete
ARM GAS  C:\Users\enes_\AppData\Local\Temp\cc1rwu0O.s 			page 8


 373:Generated_Source\PSoC6\pdl\middleware\usb_dev/cy_usb_dev_hid.c **** ****************************************************************************//**
 374:Generated_Source\PSoC6\pdl\middleware\usb_dev/cy_usb_dev_hid.c **** *
 375:Generated_Source\PSoC6\pdl\middleware\usb_dev/cy_usb_dev_hid.c **** * Completes handling HID class requests that expects data from the host.
 376:Generated_Source\PSoC6\pdl\middleware\usb_dev/cy_usb_dev_hid.c **** * Involved when data from the host was received.
 377:Generated_Source\PSoC6\pdl\middleware\usb_dev/cy_usb_dev_hid.c **** *
 378:Generated_Source\PSoC6\pdl\middleware\usb_dev/cy_usb_dev_hid.c **** * \param transfer
 379:Generated_Source\PSoC6\pdl\middleware\usb_dev/cy_usb_dev_hid.c **** * Pointer to structure that holds SETUP packet and information for 
 380:Generated_Source\PSoC6\pdl\middleware\usb_dev/cy_usb_dev_hid.c **** * request processing.
 381:Generated_Source\PSoC6\pdl\middleware\usb_dev/cy_usb_dev_hid.c **** *
 382:Generated_Source\PSoC6\pdl\middleware\usb_dev/cy_usb_dev_hid.c **** * \param classContext
 383:Generated_Source\PSoC6\pdl\middleware\usb_dev/cy_usb_dev_hid.c **** * The pointer to the context structure \ref cy_stc_usb_dev_hid_context_t 
 384:Generated_Source\PSoC6\pdl\middleware\usb_dev/cy_usb_dev_hid.c **** * allocated by the user. The structure is used during the HID Class operation  
 385:Generated_Source\PSoC6\pdl\middleware\usb_dev/cy_usb_dev_hid.c **** * for internal configuration and data retention. The user must not modify 
 386:Generated_Source\PSoC6\pdl\middleware\usb_dev/cy_usb_dev_hid.c **** * anything in this structure.
 387:Generated_Source\PSoC6\pdl\middleware\usb_dev/cy_usb_dev_hid.c **** *
 388:Generated_Source\PSoC6\pdl\middleware\usb_dev/cy_usb_dev_hid.c **** * \param devContext
 389:Generated_Source\PSoC6\pdl\middleware\usb_dev/cy_usb_dev_hid.c **** * The pointer to the context structure \ref cy_stc_usb_dev_context_t allocated
 390:Generated_Source\PSoC6\pdl\middleware\usb_dev/cy_usb_dev_hid.c **** * by the user. The structure is used during the USB Device operation for 
 391:Generated_Source\PSoC6\pdl\middleware\usb_dev/cy_usb_dev_hid.c **** * internal configuration and data retention. The user must not modify anything 
 392:Generated_Source\PSoC6\pdl\middleware\usb_dev/cy_usb_dev_hid.c **** * in this structure.
 393:Generated_Source\PSoC6\pdl\middleware\usb_dev/cy_usb_dev_hid.c **** *
 394:Generated_Source\PSoC6\pdl\middleware\usb_dev/cy_usb_dev_hid.c **** * \return
 395:Generated_Source\PSoC6\pdl\middleware\usb_dev/cy_usb_dev_hid.c **** * Status of request processing: \ref CY_USB_DEV_SUCCESS or 
 396:Generated_Source\PSoC6\pdl\middleware\usb_dev/cy_usb_dev_hid.c **** * \ref CY_USB_DEV_REQUEST_NOT_HANDLED.
 397:Generated_Source\PSoC6\pdl\middleware\usb_dev/cy_usb_dev_hid.c **** *
 398:Generated_Source\PSoC6\pdl\middleware\usb_dev/cy_usb_dev_hid.c **** *******************************************************************************/
 399:Generated_Source\PSoC6\pdl\middleware\usb_dev/cy_usb_dev_hid.c **** static cy_en_usb_dev_status_t HandleRequestComplete(cy_stc_usb_dev_control_transfer_t *transfer, 
 400:Generated_Source\PSoC6\pdl\middleware\usb_dev/cy_usb_dev_hid.c ****                                                     void *classContext, 
 401:Generated_Source\PSoC6\pdl\middleware\usb_dev/cy_usb_dev_hid.c ****                                                     cy_stc_usb_dev_context_t *devContext)
 402:Generated_Source\PSoC6\pdl\middleware\usb_dev/cy_usb_dev_hid.c **** {
 403:Generated_Source\PSoC6\pdl\middleware\usb_dev/cy_usb_dev_hid.c ****     cy_en_usb_dev_status_t retStatus = CY_USB_DEV_REQUEST_NOT_HANDLED;
 404:Generated_Source\PSoC6\pdl\middleware\usb_dev/cy_usb_dev_hid.c ****     
 405:Generated_Source\PSoC6\pdl\middleware\usb_dev/cy_usb_dev_hid.c ****     /* Suppress a compiler warning about unused variables */
 406:Generated_Source\PSoC6\pdl\middleware\usb_dev/cy_usb_dev_hid.c ****     (void) devContext;
 407:Generated_Source\PSoC6\pdl\middleware\usb_dev/cy_usb_dev_hid.c **** 
 408:Generated_Source\PSoC6\pdl\middleware\usb_dev/cy_usb_dev_hid.c ****     if (CY_USB_DEV_HID_RQST_SET_REPORT == transfer->setup.bRequest)
 409:Generated_Source\PSoC6\pdl\middleware\usb_dev/cy_usb_dev_hid.c ****     {
 410:Generated_Source\PSoC6\pdl\middleware\usb_dev/cy_usb_dev_hid.c ****         retStatus = SetReportRequestComplete(transfer, (cy_stc_usb_dev_hid_context_t *) classContex
 411:Generated_Source\PSoC6\pdl\middleware\usb_dev/cy_usb_dev_hid.c ****     }
 412:Generated_Source\PSoC6\pdl\middleware\usb_dev/cy_usb_dev_hid.c ****     
 413:Generated_Source\PSoC6\pdl\middleware\usb_dev/cy_usb_dev_hid.c ****     return retStatus;
 414:Generated_Source\PSoC6\pdl\middleware\usb_dev/cy_usb_dev_hid.c **** }
 415:Generated_Source\PSoC6\pdl\middleware\usb_dev/cy_usb_dev_hid.c **** 
 416:Generated_Source\PSoC6\pdl\middleware\usb_dev/cy_usb_dev_hid.c **** 
 417:Generated_Source\PSoC6\pdl\middleware\usb_dev/cy_usb_dev_hid.c **** /*******************************************************************************
 418:Generated_Source\PSoC6\pdl\middleware\usb_dev/cy_usb_dev_hid.c **** * Function Name: GetDescriptorHidReportRequest
 419:Generated_Source\PSoC6\pdl\middleware\usb_dev/cy_usb_dev_hid.c **** ****************************************************************************//**
 420:Generated_Source\PSoC6\pdl\middleware\usb_dev/cy_usb_dev_hid.c **** *
 421:Generated_Source\PSoC6\pdl\middleware\usb_dev/cy_usb_dev_hid.c **** * Handles GET_DESCRIPOR HID Report request.
 422:Generated_Source\PSoC6\pdl\middleware\usb_dev/cy_usb_dev_hid.c **** *
 423:Generated_Source\PSoC6\pdl\middleware\usb_dev/cy_usb_dev_hid.c **** * \param transfer
 424:Generated_Source\PSoC6\pdl\middleware\usb_dev/cy_usb_dev_hid.c **** * Pointer to structure that holds SETUP packet and information for 
 425:Generated_Source\PSoC6\pdl\middleware\usb_dev/cy_usb_dev_hid.c **** * request processing.
 426:Generated_Source\PSoC6\pdl\middleware\usb_dev/cy_usb_dev_hid.c **** *
 427:Generated_Source\PSoC6\pdl\middleware\usb_dev/cy_usb_dev_hid.c **** * \param hid
 428:Generated_Source\PSoC6\pdl\middleware\usb_dev/cy_usb_dev_hid.c **** * The pointer to the the structure that holds HID Class information.
 429:Generated_Source\PSoC6\pdl\middleware\usb_dev/cy_usb_dev_hid.c **** *
ARM GAS  C:\Users\enes_\AppData\Local\Temp\cc1rwu0O.s 			page 9


 430:Generated_Source\PSoC6\pdl\middleware\usb_dev/cy_usb_dev_hid.c **** * \return
 431:Generated_Source\PSoC6\pdl\middleware\usb_dev/cy_usb_dev_hid.c **** * Returns \ref CY_USB_DEV_SUCCESS. 
 432:Generated_Source\PSoC6\pdl\middleware\usb_dev/cy_usb_dev_hid.c **** * The \ref HandleRequest function checks that HID structure exist for the 
 433:Generated_Source\PSoC6\pdl\middleware\usb_dev/cy_usb_dev_hid.c **** * specified interface before calling \ref GetDescriptorHidReportRequest function. 
 434:Generated_Source\PSoC6\pdl\middleware\usb_dev/cy_usb_dev_hid.c **** * Therefore \ref GetDescriptorHidReportRequest successfully access to 
 435:Generated_Source\PSoC6\pdl\middleware\usb_dev/cy_usb_dev_hid.c **** * the HID structure.
 436:Generated_Source\PSoC6\pdl\middleware\usb_dev/cy_usb_dev_hid.c **** *
 437:Generated_Source\PSoC6\pdl\middleware\usb_dev/cy_usb_dev_hid.c **** *******************************************************************************/
 438:Generated_Source\PSoC6\pdl\middleware\usb_dev/cy_usb_dev_hid.c **** static cy_en_usb_dev_status_t GetDescriptorHidReportRequest(cy_stc_usb_dev_control_transfer_t *tran
 439:Generated_Source\PSoC6\pdl\middleware\usb_dev/cy_usb_dev_hid.c ****                                                             cy_stc_usb_dev_hid_t const *hid)
 440:Generated_Source\PSoC6\pdl\middleware\usb_dev/cy_usb_dev_hid.c **** {
  28              		.loc 1 440 0
  29              		.cfi_startproc
  30              		@ args = 0, pretend = 0, frame = 0
  31              		@ frame_needed = 0, uses_anonymous_args = 0
  32              		@ link register save eliminated.
  33              	.LVL0:
 441:Generated_Source\PSoC6\pdl\middleware\usb_dev/cy_usb_dev_hid.c ****     /* SETUP control transfer */
 442:Generated_Source\PSoC6\pdl\middleware\usb_dev/cy_usb_dev_hid.c ****     transfer->ptr       = (uint8_t *) hid->reportDescriptor;
  34              		.loc 1 442 0
  35 0000 4B68     		ldr	r3, [r1, #4]
  36 0002 C360     		str	r3, [r0, #12]
 443:Generated_Source\PSoC6\pdl\middleware\usb_dev/cy_usb_dev_hid.c ****     transfer->remaining = hid->reportDescriptorSize;
  37              		.loc 1 443 0
  38 0004 0B89     		ldrh	r3, [r1, #8]
  39 0006 8382     		strh	r3, [r0, #20]	@ movhi
 444:Generated_Source\PSoC6\pdl\middleware\usb_dev/cy_usb_dev_hid.c **** 
 445:Generated_Source\PSoC6\pdl\middleware\usb_dev/cy_usb_dev_hid.c ****     return CY_USB_DEV_SUCCESS;
 446:Generated_Source\PSoC6\pdl\middleware\usb_dev/cy_usb_dev_hid.c **** }
  40              		.loc 1 446 0
  41 0008 0020     		movs	r0, #0
  42              	.LVL1:
  43 000a 7047     		bx	lr
  44              		.cfi_endproc
  45              	.LFE284:
  46              		.size	GetDescriptorHidReportRequest, .-GetDescriptorHidReportRequest
  47              		.section	.text.GetDescriptorHidClassRequest,"ax",%progbits
  48              		.align	2
  49              		.thumb
  50              		.thumb_func
  51              		.type	GetDescriptorHidClassRequest, %function
  52              	GetDescriptorHidClassRequest:
  53              	.LFB285:
 447:Generated_Source\PSoC6\pdl\middleware\usb_dev/cy_usb_dev_hid.c **** 
 448:Generated_Source\PSoC6\pdl\middleware\usb_dev/cy_usb_dev_hid.c **** 
 449:Generated_Source\PSoC6\pdl\middleware\usb_dev/cy_usb_dev_hid.c **** /*******************************************************************************
 450:Generated_Source\PSoC6\pdl\middleware\usb_dev/cy_usb_dev_hid.c **** * Function Name: GetDescriptorHidClassRequest
 451:Generated_Source\PSoC6\pdl\middleware\usb_dev/cy_usb_dev_hid.c **** ****************************************************************************//**
 452:Generated_Source\PSoC6\pdl\middleware\usb_dev/cy_usb_dev_hid.c **** *
 453:Generated_Source\PSoC6\pdl\middleware\usb_dev/cy_usb_dev_hid.c **** * Handles GET_DESCRIPOR HID Class request.
 454:Generated_Source\PSoC6\pdl\middleware\usb_dev/cy_usb_dev_hid.c **** *
 455:Generated_Source\PSoC6\pdl\middleware\usb_dev/cy_usb_dev_hid.c **** * \param transfer
 456:Generated_Source\PSoC6\pdl\middleware\usb_dev/cy_usb_dev_hid.c **** * Pointer to structure that holds SETUP packet and information for 
 457:Generated_Source\PSoC6\pdl\middleware\usb_dev/cy_usb_dev_hid.c **** * request processing.
 458:Generated_Source\PSoC6\pdl\middleware\usb_dev/cy_usb_dev_hid.c **** *
 459:Generated_Source\PSoC6\pdl\middleware\usb_dev/cy_usb_dev_hid.c **** * \param hid
 460:Generated_Source\PSoC6\pdl\middleware\usb_dev/cy_usb_dev_hid.c **** * The pointer to the the structure that holds HID Class information.
ARM GAS  C:\Users\enes_\AppData\Local\Temp\cc1rwu0O.s 			page 10


 461:Generated_Source\PSoC6\pdl\middleware\usb_dev/cy_usb_dev_hid.c **** *
 462:Generated_Source\PSoC6\pdl\middleware\usb_dev/cy_usb_dev_hid.c **** * \return
 463:Generated_Source\PSoC6\pdl\middleware\usb_dev/cy_usb_dev_hid.c **** * Returns \ref CY_USB_DEV_SUCCESS. 
 464:Generated_Source\PSoC6\pdl\middleware\usb_dev/cy_usb_dev_hid.c **** * The \ref HandleRequest function checks that HID structure exist for the 
 465:Generated_Source\PSoC6\pdl\middleware\usb_dev/cy_usb_dev_hid.c **** * specified interface before calling \ref GetDescriptorHidClassRequest function. 
 466:Generated_Source\PSoC6\pdl\middleware\usb_dev/cy_usb_dev_hid.c **** * Therefore \ref GetDescriptorHidClassRequest successfully access to 
 467:Generated_Source\PSoC6\pdl\middleware\usb_dev/cy_usb_dev_hid.c **** * the HID structure.
 468:Generated_Source\PSoC6\pdl\middleware\usb_dev/cy_usb_dev_hid.c **** *
 469:Generated_Source\PSoC6\pdl\middleware\usb_dev/cy_usb_dev_hid.c **** *******************************************************************************/
 470:Generated_Source\PSoC6\pdl\middleware\usb_dev/cy_usb_dev_hid.c **** static cy_en_usb_dev_status_t GetDescriptorHidClassRequest(cy_stc_usb_dev_control_transfer_t *trans
 471:Generated_Source\PSoC6\pdl\middleware\usb_dev/cy_usb_dev_hid.c ****                                                            cy_stc_usb_dev_hid_t const *hid)
 472:Generated_Source\PSoC6\pdl\middleware\usb_dev/cy_usb_dev_hid.c **** {
  54              		.loc 1 472 0
  55              		.cfi_startproc
  56              		@ args = 0, pretend = 0, frame = 0
  57              		@ frame_needed = 0, uses_anonymous_args = 0
  58              		@ link register save eliminated.
  59              	.LVL2:
 473:Generated_Source\PSoC6\pdl\middleware\usb_dev/cy_usb_dev_hid.c ****     /* SETUP control transfer */
 474:Generated_Source\PSoC6\pdl\middleware\usb_dev/cy_usb_dev_hid.c ****     transfer->ptr       = (uint8_t *) hid->hidDescriptor;
  60              		.loc 1 474 0
  61 0000 0B68     		ldr	r3, [r1]
  62 0002 C360     		str	r3, [r0, #12]
 475:Generated_Source\PSoC6\pdl\middleware\usb_dev/cy_usb_dev_hid.c ****     transfer->remaining = CY_USB_DEV_HID_DESCRIPTOR_LENGTH;
  63              		.loc 1 475 0
  64 0004 0923     		movs	r3, #9
  65 0006 8382     		strh	r3, [r0, #20]	@ movhi
 476:Generated_Source\PSoC6\pdl\middleware\usb_dev/cy_usb_dev_hid.c **** 
 477:Generated_Source\PSoC6\pdl\middleware\usb_dev/cy_usb_dev_hid.c ****     return CY_USB_DEV_SUCCESS;
 478:Generated_Source\PSoC6\pdl\middleware\usb_dev/cy_usb_dev_hid.c **** }
  66              		.loc 1 478 0
  67 0008 0020     		movs	r0, #0
  68              	.LVL3:
  69 000a 7047     		bx	lr
  70              		.cfi_endproc
  71              	.LFE285:
  72              		.size	GetDescriptorHidClassRequest, .-GetDescriptorHidClassRequest
  73              		.section	.text.GetReportRequest,"ax",%progbits
  74              		.align	2
  75              		.thumb
  76              		.thumb_func
  77              		.type	GetReportRequest, %function
  78              	GetReportRequest:
  79              	.LFB286:
 479:Generated_Source\PSoC6\pdl\middleware\usb_dev/cy_usb_dev_hid.c **** 
 480:Generated_Source\PSoC6\pdl\middleware\usb_dev/cy_usb_dev_hid.c **** 
 481:Generated_Source\PSoC6\pdl\middleware\usb_dev/cy_usb_dev_hid.c **** /*******************************************************************************
 482:Generated_Source\PSoC6\pdl\middleware\usb_dev/cy_usb_dev_hid.c **** * Function Name: GetReportRequest
 483:Generated_Source\PSoC6\pdl\middleware\usb_dev/cy_usb_dev_hid.c **** ****************************************************************************//**
 484:Generated_Source\PSoC6\pdl\middleware\usb_dev/cy_usb_dev_hid.c **** *
 485:Generated_Source\PSoC6\pdl\middleware\usb_dev/cy_usb_dev_hid.c **** * Handles GET_REPORT HID Class request.
 486:Generated_Source\PSoC6\pdl\middleware\usb_dev/cy_usb_dev_hid.c **** *
 487:Generated_Source\PSoC6\pdl\middleware\usb_dev/cy_usb_dev_hid.c **** * \param transfer
 488:Generated_Source\PSoC6\pdl\middleware\usb_dev/cy_usb_dev_hid.c **** * Pointer to structure that holds SETUP packet and information for 
 489:Generated_Source\PSoC6\pdl\middleware\usb_dev/cy_usb_dev_hid.c **** * request processing.
 490:Generated_Source\PSoC6\pdl\middleware\usb_dev/cy_usb_dev_hid.c **** *
 491:Generated_Source\PSoC6\pdl\middleware\usb_dev/cy_usb_dev_hid.c **** * \param context
ARM GAS  C:\Users\enes_\AppData\Local\Temp\cc1rwu0O.s 			page 11


 492:Generated_Source\PSoC6\pdl\middleware\usb_dev/cy_usb_dev_hid.c **** * The pointer to the context structure \ref cy_stc_usb_dev_hid_context_t 
 493:Generated_Source\PSoC6\pdl\middleware\usb_dev/cy_usb_dev_hid.c **** * allocated by the user. The structure is used during the HID Class operation  
 494:Generated_Source\PSoC6\pdl\middleware\usb_dev/cy_usb_dev_hid.c **** * for internal configuration and data retention. The user must not modify 
 495:Generated_Source\PSoC6\pdl\middleware\usb_dev/cy_usb_dev_hid.c **** * anything in this structure.
 496:Generated_Source\PSoC6\pdl\middleware\usb_dev/cy_usb_dev_hid.c **** *
 497:Generated_Source\PSoC6\pdl\middleware\usb_dev/cy_usb_dev_hid.c **** * \return
 498:Generated_Source\PSoC6\pdl\middleware\usb_dev/cy_usb_dev_hid.c **** * Status of request processing: \ref CY_USB_DEV_SUCCESS or 
 499:Generated_Source\PSoC6\pdl\middleware\usb_dev/cy_usb_dev_hid.c **** * \ref CY_USB_DEV_REQUEST_NOT_HANDLED.
 500:Generated_Source\PSoC6\pdl\middleware\usb_dev/cy_usb_dev_hid.c **** *
 501:Generated_Source\PSoC6\pdl\middleware\usb_dev/cy_usb_dev_hid.c **** *******************************************************************************/
 502:Generated_Source\PSoC6\pdl\middleware\usb_dev/cy_usb_dev_hid.c **** static cy_en_usb_dev_status_t GetReportRequest(cy_stc_usb_dev_control_transfer_t *transfer, 
 503:Generated_Source\PSoC6\pdl\middleware\usb_dev/cy_usb_dev_hid.c ****                                                cy_stc_usb_dev_hid_context_t const *context)
 504:Generated_Source\PSoC6\pdl\middleware\usb_dev/cy_usb_dev_hid.c **** {
  80              		.loc 1 504 0
  81              		.cfi_startproc
  82              		@ args = 0, pretend = 0, frame = 8
  83              		@ frame_needed = 0, uses_anonymous_args = 0
  84              	.LVL4:
  85 0000 30B5     		push	{r4, r5, lr}
  86              		.cfi_def_cfa_offset 12
  87              		.cfi_offset 4, -12
  88              		.cfi_offset 5, -8
  89              		.cfi_offset 14, -4
  90 0002 85B0     		sub	sp, sp, #20
  91              		.cfi_def_cfa_offset 32
  92              	.LVL5:
 505:Generated_Source\PSoC6\pdl\middleware\usb_dev/cy_usb_dev_hid.c ****     cy_en_usb_dev_status_t retStatus = CY_USB_DEV_REQUEST_NOT_HANDLED;
 506:Generated_Source\PSoC6\pdl\middleware\usb_dev/cy_usb_dev_hid.c **** 
 507:Generated_Source\PSoC6\pdl\middleware\usb_dev/cy_usb_dev_hid.c ****     if (NULL != context->handleGetReport)
  93              		.loc 1 507 0
  94 0004 8D6B     		ldr	r5, [r1, #56]
  95 0006 6DB1     		cbz	r5, .L5
  96 0008 0446     		mov	r4, r0
  97              	.LBB19:
 508:Generated_Source\PSoC6\pdl\middleware\usb_dev/cy_usb_dev_hid.c ****     {
 509:Generated_Source\PSoC6\pdl\middleware\usb_dev/cy_usb_dev_hid.c ****         uint32_t rptSize;
 510:Generated_Source\PSoC6\pdl\middleware\usb_dev/cy_usb_dev_hid.c ****         
 511:Generated_Source\PSoC6\pdl\middleware\usb_dev/cy_usb_dev_hid.c ****         /* Get from the user report to send */
 512:Generated_Source\PSoC6\pdl\middleware\usb_dev/cy_usb_dev_hid.c ****         retStatus = context->handleGetReport(
 513:Generated_Source\PSoC6\pdl\middleware\usb_dev/cy_usb_dev_hid.c ****                                 (uint32_t) transfer->setup.wIndex,         /* Interface */
  98              		.loc 1 513 0
  99 000a C088     		ldrh	r0, [r0, #6]
 100              	.LVL6:
 514:Generated_Source\PSoC6\pdl\middleware\usb_dev/cy_usb_dev_hid.c ****                                 (uint32_t) CY_HI8(transfer->setup.wValue), /* Report Type */
 101              		.loc 1 514 0
 102 000c A188     		ldrh	r1, [r4, #4]
 103              	.LVL7:
 512:Generated_Source\PSoC6\pdl\middleware\usb_dev/cy_usb_dev_hid.c ****                                 (uint32_t) transfer->setup.wIndex,         /* Interface */
 104              		.loc 1 512 0
 105 000e 03AB     		add	r3, sp, #12
 106 0010 0093     		str	r3, [sp]
 107 0012 04F10C03 		add	r3, r4, #12
 108 0016 CAB2     		uxtb	r2, r1
 109 0018 090A     		lsrs	r1, r1, #8
 110 001a A847     		blx	r5
 111              	.LVL8:
 515:Generated_Source\PSoC6\pdl\middleware\usb_dev/cy_usb_dev_hid.c ****                                 (uint32_t) CY_LO8(transfer->setup.wValue), /* Report ID */
ARM GAS  C:\Users\enes_\AppData\Local\Temp\cc1rwu0O.s 			page 12


 516:Generated_Source\PSoC6\pdl\middleware\usb_dev/cy_usb_dev_hid.c ****                                 &(transfer->ptr), 
 517:Generated_Source\PSoC6\pdl\middleware\usb_dev/cy_usb_dev_hid.c ****                                 &rptSize);
 518:Generated_Source\PSoC6\pdl\middleware\usb_dev/cy_usb_dev_hid.c ****         
 519:Generated_Source\PSoC6\pdl\middleware\usb_dev/cy_usb_dev_hid.c ****         transfer->remaining = (uint16_t) rptSize;
 112              		.loc 1 519 0
 113 001c BDF80C30 		ldrh	r3, [sp, #12]
 114 0020 A382     		strh	r3, [r4, #20]	@ movhi
 115 0022 00E0     		b	.L4
 116              	.LVL9:
 117              	.L5:
 118              	.LBE19:
 505:Generated_Source\PSoC6\pdl\middleware\usb_dev/cy_usb_dev_hid.c **** 
 119              		.loc 1 505 0
 120 0024 0148     		ldr	r0, .L7
 121              	.LVL10:
 122              	.L4:
 520:Generated_Source\PSoC6\pdl\middleware\usb_dev/cy_usb_dev_hid.c ****     }
 521:Generated_Source\PSoC6\pdl\middleware\usb_dev/cy_usb_dev_hid.c ****     
 522:Generated_Source\PSoC6\pdl\middleware\usb_dev/cy_usb_dev_hid.c ****     return retStatus;
 523:Generated_Source\PSoC6\pdl\middleware\usb_dev/cy_usb_dev_hid.c **** }
 123              		.loc 1 523 0
 124 0026 05B0     		add	sp, sp, #20
 125              		.cfi_def_cfa_offset 12
 126              		@ sp needed
 127 0028 30BD     		pop	{r4, r5, pc}
 128              	.L8:
 129 002a 00BF     		.align	2
 130              	.L7:
 131 002c 02002200 		.word	2228226
 132              		.cfi_endproc
 133              	.LFE286:
 134              		.size	GetReportRequest, .-GetReportRequest
 135              		.section	.text.GetProtocolRequest,"ax",%progbits
 136              		.align	2
 137              		.thumb
 138              		.thumb_func
 139              		.type	GetProtocolRequest, %function
 140              	GetProtocolRequest:
 141              	.LFB287:
 524:Generated_Source\PSoC6\pdl\middleware\usb_dev/cy_usb_dev_hid.c **** 
 525:Generated_Source\PSoC6\pdl\middleware\usb_dev/cy_usb_dev_hid.c **** 
 526:Generated_Source\PSoC6\pdl\middleware\usb_dev/cy_usb_dev_hid.c **** /*******************************************************************************
 527:Generated_Source\PSoC6\pdl\middleware\usb_dev/cy_usb_dev_hid.c **** * Function Name: GetProtocolRequest
 528:Generated_Source\PSoC6\pdl\middleware\usb_dev/cy_usb_dev_hid.c **** ****************************************************************************//**
 529:Generated_Source\PSoC6\pdl\middleware\usb_dev/cy_usb_dev_hid.c **** *
 530:Generated_Source\PSoC6\pdl\middleware\usb_dev/cy_usb_dev_hid.c **** * Handles GET_PROTOCOL HID Class request.
 531:Generated_Source\PSoC6\pdl\middleware\usb_dev/cy_usb_dev_hid.c **** *
 532:Generated_Source\PSoC6\pdl\middleware\usb_dev/cy_usb_dev_hid.c **** * \param transfer
 533:Generated_Source\PSoC6\pdl\middleware\usb_dev/cy_usb_dev_hid.c **** * Pointer to structure that holds SETUP packet and information for 
 534:Generated_Source\PSoC6\pdl\middleware\usb_dev/cy_usb_dev_hid.c **** * request processing.
 535:Generated_Source\PSoC6\pdl\middleware\usb_dev/cy_usb_dev_hid.c **** *
 536:Generated_Source\PSoC6\pdl\middleware\usb_dev/cy_usb_dev_hid.c **** * \param context
 537:Generated_Source\PSoC6\pdl\middleware\usb_dev/cy_usb_dev_hid.c **** * The pointer to the context structure \ref cy_stc_usb_dev_hid_context_t 
 538:Generated_Source\PSoC6\pdl\middleware\usb_dev/cy_usb_dev_hid.c **** * allocated by the user. The structure is used during the HID Class operation  
 539:Generated_Source\PSoC6\pdl\middleware\usb_dev/cy_usb_dev_hid.c **** * for internal configuration and data retention. The user must not modify 
 540:Generated_Source\PSoC6\pdl\middleware\usb_dev/cy_usb_dev_hid.c **** * anything in this structure.
 541:Generated_Source\PSoC6\pdl\middleware\usb_dev/cy_usb_dev_hid.c **** *
ARM GAS  C:\Users\enes_\AppData\Local\Temp\cc1rwu0O.s 			page 13


 542:Generated_Source\PSoC6\pdl\middleware\usb_dev/cy_usb_dev_hid.c **** * \return
 543:Generated_Source\PSoC6\pdl\middleware\usb_dev/cy_usb_dev_hid.c **** * Status of request processing: \ref CY_USB_DEV_SUCCESS or 
 544:Generated_Source\PSoC6\pdl\middleware\usb_dev/cy_usb_dev_hid.c **** * \ref CY_USB_DEV_REQUEST_NOT_HANDLED.
 545:Generated_Source\PSoC6\pdl\middleware\usb_dev/cy_usb_dev_hid.c **** *
 546:Generated_Source\PSoC6\pdl\middleware\usb_dev/cy_usb_dev_hid.c **** *******************************************************************************/                   
 547:Generated_Source\PSoC6\pdl\middleware\usb_dev/cy_usb_dev_hid.c **** static cy_en_usb_dev_status_t GetProtocolRequest(cy_stc_usb_dev_control_transfer_t *transfer, 
 548:Generated_Source\PSoC6\pdl\middleware\usb_dev/cy_usb_dev_hid.c ****                                                  cy_stc_usb_dev_hid_context_t *context)
 549:Generated_Source\PSoC6\pdl\middleware\usb_dev/cy_usb_dev_hid.c **** {
 142              		.loc 1 549 0
 143              		.cfi_startproc
 144              		@ args = 0, pretend = 0, frame = 0
 145              		@ frame_needed = 0, uses_anonymous_args = 0
 146              		@ link register save eliminated.
 147              	.LVL11:
 550:Generated_Source\PSoC6\pdl\middleware\usb_dev/cy_usb_dev_hid.c ****     cy_en_usb_dev_status_t retStatus = CY_USB_DEV_REQUEST_NOT_HANDLED;
 551:Generated_Source\PSoC6\pdl\middleware\usb_dev/cy_usb_dev_hid.c **** 
 552:Generated_Source\PSoC6\pdl\middleware\usb_dev/cy_usb_dev_hid.c ****     uint32_t interface = transfer->setup.wIndex;
 148              		.loc 1 552 0
 149 0000 C388     		ldrh	r3, [r0, #6]
 150              	.LVL12:
 553:Generated_Source\PSoC6\pdl\middleware\usb_dev/cy_usb_dev_hid.c **** 
 554:Generated_Source\PSoC6\pdl\middleware\usb_dev/cy_usb_dev_hid.c ****     if (interface < CY_USB_DEV_NUM_INTERFACES_MAX)
 151              		.loc 1 554 0
 152 0002 072B     		cmp	r3, #7
 153 0004 07D8     		bhi	.L11
 555:Generated_Source\PSoC6\pdl\middleware\usb_dev/cy_usb_dev_hid.c ****     {
 556:Generated_Source\PSoC6\pdl\middleware\usb_dev/cy_usb_dev_hid.c ****         /* SETUP control transfer */
 557:Generated_Source\PSoC6\pdl\middleware\usb_dev/cy_usb_dev_hid.c ****         transfer->ptr       = (uint8_t *) &context->protocol[interface];
 154              		.loc 1 557 0
 155 0006 2033     		adds	r3, r3, #32
 156              	.LVL13:
 157 0008 0B44     		add	r3, r3, r1
 158              	.LVL14:
 159 000a 0433     		adds	r3, r3, #4
 160 000c C360     		str	r3, [r0, #12]
 558:Generated_Source\PSoC6\pdl\middleware\usb_dev/cy_usb_dev_hid.c ****         transfer->remaining = HID_PROTOCOL_LENGTH;
 161              		.loc 1 558 0
 162 000e 0123     		movs	r3, #1
 163 0010 8382     		strh	r3, [r0, #20]	@ movhi
 164              	.LVL15:
 559:Generated_Source\PSoC6\pdl\middleware\usb_dev/cy_usb_dev_hid.c ****         
 560:Generated_Source\PSoC6\pdl\middleware\usb_dev/cy_usb_dev_hid.c ****         retStatus = CY_USB_DEV_SUCCESS;
 165              		.loc 1 560 0
 166 0012 0020     		movs	r0, #0
 167              	.LVL16:
 168 0014 7047     		bx	lr
 169              	.LVL17:
 170              	.L11:
 550:Generated_Source\PSoC6\pdl\middleware\usb_dev/cy_usb_dev_hid.c **** 
 171              		.loc 1 550 0
 172 0016 0148     		ldr	r0, .L12
 173              	.LVL18:
 561:Generated_Source\PSoC6\pdl\middleware\usb_dev/cy_usb_dev_hid.c ****     }
 562:Generated_Source\PSoC6\pdl\middleware\usb_dev/cy_usb_dev_hid.c ****     
 563:Generated_Source\PSoC6\pdl\middleware\usb_dev/cy_usb_dev_hid.c ****     return retStatus;
 564:Generated_Source\PSoC6\pdl\middleware\usb_dev/cy_usb_dev_hid.c **** }  
 174              		.loc 1 564 0
ARM GAS  C:\Users\enes_\AppData\Local\Temp\cc1rwu0O.s 			page 14


 175 0018 7047     		bx	lr
 176              	.L13:
 177 001a 00BF     		.align	2
 178              	.L12:
 179 001c 02002200 		.word	2228226
 180              		.cfi_endproc
 181              	.LFE287:
 182              		.size	GetProtocolRequest, .-GetProtocolRequest
 183              		.section	.text.SetReportRequest,"ax",%progbits
 184              		.align	2
 185              		.thumb
 186              		.thumb_func
 187              		.type	SetReportRequest, %function
 188              	SetReportRequest:
 189              	.LFB289:
 565:Generated_Source\PSoC6\pdl\middleware\usb_dev/cy_usb_dev_hid.c **** 
 566:Generated_Source\PSoC6\pdl\middleware\usb_dev/cy_usb_dev_hid.c **** 
 567:Generated_Source\PSoC6\pdl\middleware\usb_dev/cy_usb_dev_hid.c **** /*******************************************************************************
 568:Generated_Source\PSoC6\pdl\middleware\usb_dev/cy_usb_dev_hid.c **** * Function Name: GetIdleRequest
 569:Generated_Source\PSoC6\pdl\middleware\usb_dev/cy_usb_dev_hid.c **** ****************************************************************************//**
 570:Generated_Source\PSoC6\pdl\middleware\usb_dev/cy_usb_dev_hid.c **** *
 571:Generated_Source\PSoC6\pdl\middleware\usb_dev/cy_usb_dev_hid.c **** * Handles GET_IDLE HID Class request.
 572:Generated_Source\PSoC6\pdl\middleware\usb_dev/cy_usb_dev_hid.c **** *
 573:Generated_Source\PSoC6\pdl\middleware\usb_dev/cy_usb_dev_hid.c **** * \param transfer
 574:Generated_Source\PSoC6\pdl\middleware\usb_dev/cy_usb_dev_hid.c **** * Pointer to structure that holds SETUP packet and information for 
 575:Generated_Source\PSoC6\pdl\middleware\usb_dev/cy_usb_dev_hid.c **** * request processing.
 576:Generated_Source\PSoC6\pdl\middleware\usb_dev/cy_usb_dev_hid.c **** *
 577:Generated_Source\PSoC6\pdl\middleware\usb_dev/cy_usb_dev_hid.c **** * \param hid
 578:Generated_Source\PSoC6\pdl\middleware\usb_dev/cy_usb_dev_hid.c **** * The pointer to the the structure that holds HID Class information.
 579:Generated_Source\PSoC6\pdl\middleware\usb_dev/cy_usb_dev_hid.c **** *
 580:Generated_Source\PSoC6\pdl\middleware\usb_dev/cy_usb_dev_hid.c **** * \param context
 581:Generated_Source\PSoC6\pdl\middleware\usb_dev/cy_usb_dev_hid.c **** * The pointer to the context structure \ref cy_stc_usb_dev_hid_context_t 
 582:Generated_Source\PSoC6\pdl\middleware\usb_dev/cy_usb_dev_hid.c **** * allocated by the user. The structure is used during the HID Class operation  
 583:Generated_Source\PSoC6\pdl\middleware\usb_dev/cy_usb_dev_hid.c **** * for internal configuration and data retention. The user must not modify 
 584:Generated_Source\PSoC6\pdl\middleware\usb_dev/cy_usb_dev_hid.c **** * anything in this structure.
 585:Generated_Source\PSoC6\pdl\middleware\usb_dev/cy_usb_dev_hid.c **** *
 586:Generated_Source\PSoC6\pdl\middleware\usb_dev/cy_usb_dev_hid.c **** * \return
 587:Generated_Source\PSoC6\pdl\middleware\usb_dev/cy_usb_dev_hid.c **** * Status of request processing: \ref CY_USB_DEV_SUCCESS or 
 588:Generated_Source\PSoC6\pdl\middleware\usb_dev/cy_usb_dev_hid.c **** * \ref CY_USB_DEV_REQUEST_NOT_HANDLED.
 589:Generated_Source\PSoC6\pdl\middleware\usb_dev/cy_usb_dev_hid.c **** *
 590:Generated_Source\PSoC6\pdl\middleware\usb_dev/cy_usb_dev_hid.c **** *******************************************************************************/ 
 591:Generated_Source\PSoC6\pdl\middleware\usb_dev/cy_usb_dev_hid.c **** static cy_en_usb_dev_status_t GetIdleRequest(cy_stc_usb_dev_control_transfer_t *transfer, 
 592:Generated_Source\PSoC6\pdl\middleware\usb_dev/cy_usb_dev_hid.c ****                                              cy_stc_usb_dev_hid_t const        *hid,
 593:Generated_Source\PSoC6\pdl\middleware\usb_dev/cy_usb_dev_hid.c ****                                              cy_stc_usb_dev_hid_context_t      *context)
 594:Generated_Source\PSoC6\pdl\middleware\usb_dev/cy_usb_dev_hid.c **** {
 595:Generated_Source\PSoC6\pdl\middleware\usb_dev/cy_usb_dev_hid.c ****     cy_en_usb_dev_status_t retStatus;
 596:Generated_Source\PSoC6\pdl\middleware\usb_dev/cy_usb_dev_hid.c ****     uint32_t idx;
 597:Generated_Source\PSoC6\pdl\middleware\usb_dev/cy_usb_dev_hid.c ****     
 598:Generated_Source\PSoC6\pdl\middleware\usb_dev/cy_usb_dev_hid.c ****     retStatus = GetInputReportIdx((uint32_t) transfer->setup.wValue, &idx, hid, context);
 599:Generated_Source\PSoC6\pdl\middleware\usb_dev/cy_usb_dev_hid.c ****     
 600:Generated_Source\PSoC6\pdl\middleware\usb_dev/cy_usb_dev_hid.c ****     if (CY_USB_DEV_SUCCESS == retStatus)
 601:Generated_Source\PSoC6\pdl\middleware\usb_dev/cy_usb_dev_hid.c ****     {
 602:Generated_Source\PSoC6\pdl\middleware\usb_dev/cy_usb_dev_hid.c ****         /* SETUP control transfer */
 603:Generated_Source\PSoC6\pdl\middleware\usb_dev/cy_usb_dev_hid.c ****         transfer->ptr       = &context->idleRate[idx];
 604:Generated_Source\PSoC6\pdl\middleware\usb_dev/cy_usb_dev_hid.c ****         transfer->remaining = HID_IDLE_RATE_LENGTH;
 605:Generated_Source\PSoC6\pdl\middleware\usb_dev/cy_usb_dev_hid.c ****     }
 606:Generated_Source\PSoC6\pdl\middleware\usb_dev/cy_usb_dev_hid.c **** 
ARM GAS  C:\Users\enes_\AppData\Local\Temp\cc1rwu0O.s 			page 15


 607:Generated_Source\PSoC6\pdl\middleware\usb_dev/cy_usb_dev_hid.c ****     return retStatus;
 608:Generated_Source\PSoC6\pdl\middleware\usb_dev/cy_usb_dev_hid.c **** }
 609:Generated_Source\PSoC6\pdl\middleware\usb_dev/cy_usb_dev_hid.c **** 
 610:Generated_Source\PSoC6\pdl\middleware\usb_dev/cy_usb_dev_hid.c **** 
 611:Generated_Source\PSoC6\pdl\middleware\usb_dev/cy_usb_dev_hid.c **** /*******************************************************************************
 612:Generated_Source\PSoC6\pdl\middleware\usb_dev/cy_usb_dev_hid.c **** * Function Name: SetReportRequest
 613:Generated_Source\PSoC6\pdl\middleware\usb_dev/cy_usb_dev_hid.c **** ****************************************************************************//**
 614:Generated_Source\PSoC6\pdl\middleware\usb_dev/cy_usb_dev_hid.c **** *
 615:Generated_Source\PSoC6\pdl\middleware\usb_dev/cy_usb_dev_hid.c **** * Handles SET_REPORT HID Class request.
 616:Generated_Source\PSoC6\pdl\middleware\usb_dev/cy_usb_dev_hid.c **** *
 617:Generated_Source\PSoC6\pdl\middleware\usb_dev/cy_usb_dev_hid.c **** * \param transfer
 618:Generated_Source\PSoC6\pdl\middleware\usb_dev/cy_usb_dev_hid.c **** * Pointer to structure that holds SETUP packet and information for 
 619:Generated_Source\PSoC6\pdl\middleware\usb_dev/cy_usb_dev_hid.c **** * request processing.
 620:Generated_Source\PSoC6\pdl\middleware\usb_dev/cy_usb_dev_hid.c **** *
 621:Generated_Source\PSoC6\pdl\middleware\usb_dev/cy_usb_dev_hid.c **** * \param context
 622:Generated_Source\PSoC6\pdl\middleware\usb_dev/cy_usb_dev_hid.c **** * The pointer to the context structure \ref cy_stc_usb_dev_hid_context_t 
 623:Generated_Source\PSoC6\pdl\middleware\usb_dev/cy_usb_dev_hid.c **** * allocated by the user. The structure is used during the HID Class operation  
 624:Generated_Source\PSoC6\pdl\middleware\usb_dev/cy_usb_dev_hid.c **** * for internal configuration and data retention. The user must not modify 
 625:Generated_Source\PSoC6\pdl\middleware\usb_dev/cy_usb_dev_hid.c **** * anything in this structure.
 626:Generated_Source\PSoC6\pdl\middleware\usb_dev/cy_usb_dev_hid.c **** *
 627:Generated_Source\PSoC6\pdl\middleware\usb_dev/cy_usb_dev_hid.c **** * \return
 628:Generated_Source\PSoC6\pdl\middleware\usb_dev/cy_usb_dev_hid.c **** * Status of request processing: \ref CY_USB_DEV_SUCCESS or 
 629:Generated_Source\PSoC6\pdl\middleware\usb_dev/cy_usb_dev_hid.c **** * \ref CY_USB_DEV_REQUEST_NOT_HANDLED.
 630:Generated_Source\PSoC6\pdl\middleware\usb_dev/cy_usb_dev_hid.c **** *
 631:Generated_Source\PSoC6\pdl\middleware\usb_dev/cy_usb_dev_hid.c **** *******************************************************************************/
 632:Generated_Source\PSoC6\pdl\middleware\usb_dev/cy_usb_dev_hid.c **** static cy_en_usb_dev_status_t SetReportRequest(cy_stc_usb_dev_control_transfer_t *transfer, 
 633:Generated_Source\PSoC6\pdl\middleware\usb_dev/cy_usb_dev_hid.c ****                                                cy_stc_usb_dev_hid_context_t const *context)
 634:Generated_Source\PSoC6\pdl\middleware\usb_dev/cy_usb_dev_hid.c **** {
 190              		.loc 1 634 0
 191              		.cfi_startproc
 192              		@ args = 0, pretend = 0, frame = 0
 193              		@ frame_needed = 0, uses_anonymous_args = 0
 194              		@ link register save eliminated.
 195              	.LVL19:
 635:Generated_Source\PSoC6\pdl\middleware\usb_dev/cy_usb_dev_hid.c ****     cy_en_usb_dev_status_t retStatus = CY_USB_DEV_REQUEST_NOT_HANDLED;
 636:Generated_Source\PSoC6\pdl\middleware\usb_dev/cy_usb_dev_hid.c **** 
 637:Generated_Source\PSoC6\pdl\middleware\usb_dev/cy_usb_dev_hid.c ****     if (NULL != context->handleSetReport)
 196              		.loc 1 637 0
 197 0000 CB6B     		ldr	r3, [r1, #60]
 198 0002 2BB1     		cbz	r3, .L16
 638:Generated_Source\PSoC6\pdl\middleware\usb_dev/cy_usb_dev_hid.c ****     {
 639:Generated_Source\PSoC6\pdl\middleware\usb_dev/cy_usb_dev_hid.c ****         /* SETUP control transfer */
 640:Generated_Source\PSoC6\pdl\middleware\usb_dev/cy_usb_dev_hid.c ****         transfer->remaining = transfer->setup.wLength;
 199              		.loc 1 640 0
 200 0004 0389     		ldrh	r3, [r0, #8]
 201 0006 8382     		strh	r3, [r0, #20]	@ movhi
 641:Generated_Source\PSoC6\pdl\middleware\usb_dev/cy_usb_dev_hid.c ****         transfer->notify    = true;
 202              		.loc 1 641 0
 203 0008 0123     		movs	r3, #1
 204 000a 0377     		strb	r3, [r0, #28]
 205              	.LVL20:
 642:Generated_Source\PSoC6\pdl\middleware\usb_dev/cy_usb_dev_hid.c ****         
 643:Generated_Source\PSoC6\pdl\middleware\usb_dev/cy_usb_dev_hid.c ****         retStatus = CY_USB_DEV_SUCCESS;
 206              		.loc 1 643 0
 207 000c 0020     		movs	r0, #0
 208              	.LVL21:
 209 000e 7047     		bx	lr
ARM GAS  C:\Users\enes_\AppData\Local\Temp\cc1rwu0O.s 			page 16


 210              	.LVL22:
 211              	.L16:
 635:Generated_Source\PSoC6\pdl\middleware\usb_dev/cy_usb_dev_hid.c **** 
 212              		.loc 1 635 0
 213 0010 0048     		ldr	r0, .L17
 214              	.LVL23:
 644:Generated_Source\PSoC6\pdl\middleware\usb_dev/cy_usb_dev_hid.c ****     }
 645:Generated_Source\PSoC6\pdl\middleware\usb_dev/cy_usb_dev_hid.c ****     
 646:Generated_Source\PSoC6\pdl\middleware\usb_dev/cy_usb_dev_hid.c ****     return retStatus;
 647:Generated_Source\PSoC6\pdl\middleware\usb_dev/cy_usb_dev_hid.c **** }
 215              		.loc 1 647 0
 216 0012 7047     		bx	lr
 217              	.L18:
 218              		.align	2
 219              	.L17:
 220 0014 02002200 		.word	2228226
 221              		.cfi_endproc
 222              	.LFE289:
 223              		.size	SetReportRequest, .-SetReportRequest
 224              		.section	.text.SetReportRequestComplete,"ax",%progbits
 225              		.align	2
 226              		.thumb
 227              		.thumb_func
 228              		.type	SetReportRequestComplete, %function
 229              	SetReportRequestComplete:
 230              	.LFB290:
 648:Generated_Source\PSoC6\pdl\middleware\usb_dev/cy_usb_dev_hid.c **** 
 649:Generated_Source\PSoC6\pdl\middleware\usb_dev/cy_usb_dev_hid.c **** 
 650:Generated_Source\PSoC6\pdl\middleware\usb_dev/cy_usb_dev_hid.c **** /*******************************************************************************
 651:Generated_Source\PSoC6\pdl\middleware\usb_dev/cy_usb_dev_hid.c **** * Function Name: SetReportRequestComplete
 652:Generated_Source\PSoC6\pdl\middleware\usb_dev/cy_usb_dev_hid.c **** ****************************************************************************//**
 653:Generated_Source\PSoC6\pdl\middleware\usb_dev/cy_usb_dev_hid.c **** *
 654:Generated_Source\PSoC6\pdl\middleware\usb_dev/cy_usb_dev_hid.c **** * Completes handling SET_REPORT HID Class request.
 655:Generated_Source\PSoC6\pdl\middleware\usb_dev/cy_usb_dev_hid.c **** *
 656:Generated_Source\PSoC6\pdl\middleware\usb_dev/cy_usb_dev_hid.c **** * \param transfer
 657:Generated_Source\PSoC6\pdl\middleware\usb_dev/cy_usb_dev_hid.c **** * Pointer to structure that holds SETUP packet and information for 
 658:Generated_Source\PSoC6\pdl\middleware\usb_dev/cy_usb_dev_hid.c **** * request processing.
 659:Generated_Source\PSoC6\pdl\middleware\usb_dev/cy_usb_dev_hid.c **** *
 660:Generated_Source\PSoC6\pdl\middleware\usb_dev/cy_usb_dev_hid.c **** * \param context
 661:Generated_Source\PSoC6\pdl\middleware\usb_dev/cy_usb_dev_hid.c **** * The pointer to the context structure \ref cy_stc_usb_dev_hid_context_t 
 662:Generated_Source\PSoC6\pdl\middleware\usb_dev/cy_usb_dev_hid.c **** * allocated by the user. The structure is used during the HID Class operation  
 663:Generated_Source\PSoC6\pdl\middleware\usb_dev/cy_usb_dev_hid.c **** * for internal configuration and data retention. The user must not modify 
 664:Generated_Source\PSoC6\pdl\middleware\usb_dev/cy_usb_dev_hid.c **** * anything in this structure.
 665:Generated_Source\PSoC6\pdl\middleware\usb_dev/cy_usb_dev_hid.c **** *
 666:Generated_Source\PSoC6\pdl\middleware\usb_dev/cy_usb_dev_hid.c **** * \return
 667:Generated_Source\PSoC6\pdl\middleware\usb_dev/cy_usb_dev_hid.c **** * Status of request processing: \ref CY_USB_DEV_SUCCESS or 
 668:Generated_Source\PSoC6\pdl\middleware\usb_dev/cy_usb_dev_hid.c **** * \ref CY_USB_DEV_REQUEST_NOT_HANDLED.
 669:Generated_Source\PSoC6\pdl\middleware\usb_dev/cy_usb_dev_hid.c **** *
 670:Generated_Source\PSoC6\pdl\middleware\usb_dev/cy_usb_dev_hid.c **** *******************************************************************************/
 671:Generated_Source\PSoC6\pdl\middleware\usb_dev/cy_usb_dev_hid.c **** static cy_en_usb_dev_status_t SetReportRequestComplete(cy_stc_usb_dev_control_transfer_t *transfer,
 672:Generated_Source\PSoC6\pdl\middleware\usb_dev/cy_usb_dev_hid.c ****                                                        cy_stc_usb_dev_hid_context_t const *context)
 673:Generated_Source\PSoC6\pdl\middleware\usb_dev/cy_usb_dev_hid.c **** {
 231              		.loc 1 673 0
 232              		.cfi_startproc
 233              		@ args = 0, pretend = 0, frame = 0
 234              		@ frame_needed = 0, uses_anonymous_args = 0
 235              	.LVL24:
ARM GAS  C:\Users\enes_\AppData\Local\Temp\cc1rwu0O.s 			page 17


 236 0000 10B5     		push	{r4, lr}
 237              		.cfi_def_cfa_offset 8
 238              		.cfi_offset 4, -8
 239              		.cfi_offset 14, -4
 240 0002 82B0     		sub	sp, sp, #8
 241              		.cfi_def_cfa_offset 16
 242              	.LVL25:
 674:Generated_Source\PSoC6\pdl\middleware\usb_dev/cy_usb_dev_hid.c ****     cy_en_usb_dev_status_t retStatus = CY_USB_DEV_REQUEST_NOT_HANDLED;
 675:Generated_Source\PSoC6\pdl\middleware\usb_dev/cy_usb_dev_hid.c **** 
 676:Generated_Source\PSoC6\pdl\middleware\usb_dev/cy_usb_dev_hid.c ****     if (NULL != context->handleSetReport)
 243              		.loc 1 676 0
 244 0004 CC6B     		ldr	r4, [r1, #60]
 245 0006 4CB1     		cbz	r4, .L21
 246 0008 0246     		mov	r2, r0
 677:Generated_Source\PSoC6\pdl\middleware\usb_dev/cy_usb_dev_hid.c ****     {                    
 678:Generated_Source\PSoC6\pdl\middleware\usb_dev/cy_usb_dev_hid.c ****         /* Provide the user with report data */
 679:Generated_Source\PSoC6\pdl\middleware\usb_dev/cy_usb_dev_hid.c ****         retStatus = context->handleSetReport(
 680:Generated_Source\PSoC6\pdl\middleware\usb_dev/cy_usb_dev_hid.c ****                                 (uint32_t) transfer->setup.wIndex,         /* Interface */
 247              		.loc 1 680 0
 248 000a C088     		ldrh	r0, [r0, #6]
 249              	.LVL26:
 681:Generated_Source\PSoC6\pdl\middleware\usb_dev/cy_usb_dev_hid.c ****                                 (uint32_t) CY_HI8(transfer->setup.wValue), /* Report Type */
 250              		.loc 1 681 0
 251 000c 9188     		ldrh	r1, [r2, #4]
 252              	.LVL27:
 679:Generated_Source\PSoC6\pdl\middleware\usb_dev/cy_usb_dev_hid.c ****                                 (uint32_t) transfer->setup.wIndex,         /* Interface */
 253              		.loc 1 679 0
 254 000e D368     		ldr	r3, [r2, #12]
 682:Generated_Source\PSoC6\pdl\middleware\usb_dev/cy_usb_dev_hid.c ****                                 (uint32_t) CY_LO8(transfer->setup.wValue), /* Report ID */
 683:Generated_Source\PSoC6\pdl\middleware\usb_dev/cy_usb_dev_hid.c ****                                 transfer->ptr, 
 684:Generated_Source\PSoC6\pdl\middleware\usb_dev/cy_usb_dev_hid.c ****                                 (uint32_t) transfer->size);
 255              		.loc 1 684 0
 256 0010 D28A     		ldrh	r2, [r2, #22]
 257              	.LVL28:
 679:Generated_Source\PSoC6\pdl\middleware\usb_dev/cy_usb_dev_hid.c ****                                 (uint32_t) transfer->setup.wIndex,         /* Interface */
 258              		.loc 1 679 0
 259 0012 0092     		str	r2, [sp]
 260 0014 CAB2     		uxtb	r2, r1
 261 0016 090A     		lsrs	r1, r1, #8
 262 0018 A047     		blx	r4
 263              	.LVL29:
 264 001a 00E0     		b	.L20
 265              	.LVL30:
 266              	.L21:
 674:Generated_Source\PSoC6\pdl\middleware\usb_dev/cy_usb_dev_hid.c **** 
 267              		.loc 1 674 0
 268 001c 0148     		ldr	r0, .L23
 269              	.LVL31:
 270              	.L20:
 685:Generated_Source\PSoC6\pdl\middleware\usb_dev/cy_usb_dev_hid.c ****     }
 686:Generated_Source\PSoC6\pdl\middleware\usb_dev/cy_usb_dev_hid.c ****     
 687:Generated_Source\PSoC6\pdl\middleware\usb_dev/cy_usb_dev_hid.c ****     return retStatus;
 688:Generated_Source\PSoC6\pdl\middleware\usb_dev/cy_usb_dev_hid.c **** } 
 271              		.loc 1 688 0
 272 001e 02B0     		add	sp, sp, #8
 273              		.cfi_def_cfa_offset 8
 274              		@ sp needed
ARM GAS  C:\Users\enes_\AppData\Local\Temp\cc1rwu0O.s 			page 18


 275 0020 10BD     		pop	{r4, pc}
 276              	.L24:
 277 0022 00BF     		.align	2
 278              	.L23:
 279 0024 02002200 		.word	2228226
 280              		.cfi_endproc
 281              	.LFE290:
 282              		.size	SetReportRequestComplete, .-SetReportRequestComplete
 283              		.section	.text.HandleRequestComplete,"ax",%progbits
 284              		.align	2
 285              		.thumb
 286              		.thumb_func
 287              		.type	HandleRequestComplete, %function
 288              	HandleRequestComplete:
 289              	.LFB283:
 402:Generated_Source\PSoC6\pdl\middleware\usb_dev/cy_usb_dev_hid.c ****     cy_en_usb_dev_status_t retStatus = CY_USB_DEV_REQUEST_NOT_HANDLED;
 290              		.loc 1 402 0
 291              		.cfi_startproc
 292              		@ args = 0, pretend = 0, frame = 0
 293              		@ frame_needed = 0, uses_anonymous_args = 0
 294              	.LVL32:
 295 0000 08B5     		push	{r3, lr}
 296              		.cfi_def_cfa_offset 8
 297              		.cfi_offset 3, -8
 298              		.cfi_offset 14, -4
 299              	.LVL33:
 408:Generated_Source\PSoC6\pdl\middleware\usb_dev/cy_usb_dev_hid.c ****     {
 300              		.loc 1 408 0
 301 0002 C378     		ldrb	r3, [r0, #3]	@ zero_extendqisi2
 302 0004 092B     		cmp	r3, #9
 303 0006 02D1     		bne	.L27
 410:Generated_Source\PSoC6\pdl\middleware\usb_dev/cy_usb_dev_hid.c ****     }
 304              		.loc 1 410 0
 305 0008 FFF7FEFF 		bl	SetReportRequestComplete
 306              	.LVL34:
 307 000c 08BD     		pop	{r3, pc}
 308              	.LVL35:
 309              	.L27:
 403:Generated_Source\PSoC6\pdl\middleware\usb_dev/cy_usb_dev_hid.c ****     
 310              		.loc 1 403 0
 311 000e 0148     		ldr	r0, .L29
 312              	.LVL36:
 414:Generated_Source\PSoC6\pdl\middleware\usb_dev/cy_usb_dev_hid.c **** 
 313              		.loc 1 414 0
 314 0010 08BD     		pop	{r3, pc}
 315              	.L30:
 316 0012 00BF     		.align	2
 317              	.L29:
 318 0014 02002200 		.word	2228226
 319              		.cfi_endproc
 320              	.LFE283:
 321              		.size	HandleRequestComplete, .-HandleRequestComplete
 322              		.section	.text.SetProtocolRequest,"ax",%progbits
 323              		.align	2
 324              		.thumb
 325              		.thumb_func
 326              		.type	SetProtocolRequest, %function
ARM GAS  C:\Users\enes_\AppData\Local\Temp\cc1rwu0O.s 			page 19


 327              	SetProtocolRequest:
 328              	.LFB291:
 689:Generated_Source\PSoC6\pdl\middleware\usb_dev/cy_usb_dev_hid.c **** 
 690:Generated_Source\PSoC6\pdl\middleware\usb_dev/cy_usb_dev_hid.c **** 
 691:Generated_Source\PSoC6\pdl\middleware\usb_dev/cy_usb_dev_hid.c **** /*******************************************************************************
 692:Generated_Source\PSoC6\pdl\middleware\usb_dev/cy_usb_dev_hid.c **** * Function Name: SetProtocolRequest
 693:Generated_Source\PSoC6\pdl\middleware\usb_dev/cy_usb_dev_hid.c **** ****************************************************************************//**
 694:Generated_Source\PSoC6\pdl\middleware\usb_dev/cy_usb_dev_hid.c **** *
 695:Generated_Source\PSoC6\pdl\middleware\usb_dev/cy_usb_dev_hid.c **** * Handles SET_PROTOCOL HID Class request. 
 696:Generated_Source\PSoC6\pdl\middleware\usb_dev/cy_usb_dev_hid.c **** *
 697:Generated_Source\PSoC6\pdl\middleware\usb_dev/cy_usb_dev_hid.c **** * \param transfer
 698:Generated_Source\PSoC6\pdl\middleware\usb_dev/cy_usb_dev_hid.c **** * Pointer to structure that holds SETUP packet and information for 
 699:Generated_Source\PSoC6\pdl\middleware\usb_dev/cy_usb_dev_hid.c **** * request processing.
 700:Generated_Source\PSoC6\pdl\middleware\usb_dev/cy_usb_dev_hid.c **** *
 701:Generated_Source\PSoC6\pdl\middleware\usb_dev/cy_usb_dev_hid.c **** * \param context
 702:Generated_Source\PSoC6\pdl\middleware\usb_dev/cy_usb_dev_hid.c **** * The pointer to the context structure \ref cy_stc_usb_dev_hid_context_t 
 703:Generated_Source\PSoC6\pdl\middleware\usb_dev/cy_usb_dev_hid.c **** * allocated by the user. The structure is used during the HID Class operation  
 704:Generated_Source\PSoC6\pdl\middleware\usb_dev/cy_usb_dev_hid.c **** * for internal configuration and data retention. The user must not modify 
 705:Generated_Source\PSoC6\pdl\middleware\usb_dev/cy_usb_dev_hid.c **** * anything in this structure.
 706:Generated_Source\PSoC6\pdl\middleware\usb_dev/cy_usb_dev_hid.c **** *
 707:Generated_Source\PSoC6\pdl\middleware\usb_dev/cy_usb_dev_hid.c **** * \return
 708:Generated_Source\PSoC6\pdl\middleware\usb_dev/cy_usb_dev_hid.c **** * Status of request processing: \ref CY_USB_DEV_SUCCESS or 
 709:Generated_Source\PSoC6\pdl\middleware\usb_dev/cy_usb_dev_hid.c **** * \ref CY_USB_DEV_REQUEST_NOT_HANDLED.
 710:Generated_Source\PSoC6\pdl\middleware\usb_dev/cy_usb_dev_hid.c **** *
 711:Generated_Source\PSoC6\pdl\middleware\usb_dev/cy_usb_dev_hid.c **** *******************************************************************************/
 712:Generated_Source\PSoC6\pdl\middleware\usb_dev/cy_usb_dev_hid.c **** static cy_en_usb_dev_status_t SetProtocolRequest(cy_stc_usb_dev_control_transfer_t const *transfer,
 713:Generated_Source\PSoC6\pdl\middleware\usb_dev/cy_usb_dev_hid.c ****                                                  cy_stc_usb_dev_hid_context_t      *context)
 714:Generated_Source\PSoC6\pdl\middleware\usb_dev/cy_usb_dev_hid.c **** {
 329              		.loc 1 714 0
 330              		.cfi_startproc
 331              		@ args = 0, pretend = 0, frame = 0
 332              		@ frame_needed = 0, uses_anonymous_args = 0
 333              		@ link register save eliminated.
 334              	.LVL37:
 715:Generated_Source\PSoC6\pdl\middleware\usb_dev/cy_usb_dev_hid.c ****     cy_en_usb_dev_status_t retStatus = CY_USB_DEV_REQUEST_NOT_HANDLED;
 716:Generated_Source\PSoC6\pdl\middleware\usb_dev/cy_usb_dev_hid.c **** 
 717:Generated_Source\PSoC6\pdl\middleware\usb_dev/cy_usb_dev_hid.c ****     uint32_t interface = transfer->setup.wIndex;
 335              		.loc 1 717 0
 336 0000 C388     		ldrh	r3, [r0, #6]
 337              	.LVL38:
 718:Generated_Source\PSoC6\pdl\middleware\usb_dev/cy_usb_dev_hid.c **** 
 719:Generated_Source\PSoC6\pdl\middleware\usb_dev/cy_usb_dev_hid.c ****     if (interface < CY_USB_DEV_NUM_INTERFACES_MAX)
 338              		.loc 1 719 0
 339 0002 072B     		cmp	r3, #7
 340 0004 07D8     		bhi	.L33
 720:Generated_Source\PSoC6\pdl\middleware\usb_dev/cy_usb_dev_hid.c ****     {
 721:Generated_Source\PSoC6\pdl\middleware\usb_dev/cy_usb_dev_hid.c ****         context->protocol[interface] = (uint8_t) (transfer->setup.wValue & HID_PROTOCOL_MASK);
 341              		.loc 1 721 0
 342 0006 8288     		ldrh	r2, [r0, #4]
 343 0008 02F00102 		and	r2, r2, #1
 344 000c 0B44     		add	r3, r3, r1
 345              	.LVL39:
 346 000e 83F82420 		strb	r2, [r3, #36]
 347              	.LVL40:
 722:Generated_Source\PSoC6\pdl\middleware\usb_dev/cy_usb_dev_hid.c ****         
 723:Generated_Source\PSoC6\pdl\middleware\usb_dev/cy_usb_dev_hid.c ****         /* SETUP control transfer, no data stage */
 724:Generated_Source\PSoC6\pdl\middleware\usb_dev/cy_usb_dev_hid.c ****         retStatus = CY_USB_DEV_SUCCESS;
ARM GAS  C:\Users\enes_\AppData\Local\Temp\cc1rwu0O.s 			page 20


 348              		.loc 1 724 0
 349 0012 0020     		movs	r0, #0
 350              	.LVL41:
 351 0014 7047     		bx	lr
 352              	.LVL42:
 353              	.L33:
 715:Generated_Source\PSoC6\pdl\middleware\usb_dev/cy_usb_dev_hid.c **** 
 354              		.loc 1 715 0
 355 0016 0148     		ldr	r0, .L34
 356              	.LVL43:
 725:Generated_Source\PSoC6\pdl\middleware\usb_dev/cy_usb_dev_hid.c ****     }
 726:Generated_Source\PSoC6\pdl\middleware\usb_dev/cy_usb_dev_hid.c ****     
 727:Generated_Source\PSoC6\pdl\middleware\usb_dev/cy_usb_dev_hid.c ****     return retStatus;
 728:Generated_Source\PSoC6\pdl\middleware\usb_dev/cy_usb_dev_hid.c **** }
 357              		.loc 1 728 0
 358 0018 7047     		bx	lr
 359              	.L35:
 360 001a 00BF     		.align	2
 361              	.L34:
 362 001c 02002200 		.word	2228226
 363              		.cfi_endproc
 364              	.LFE291:
 365              		.size	SetProtocolRequest, .-SetProtocolRequest
 366              		.section	.text.UpdateIdleRateTimer,"ax",%progbits
 367              		.align	2
 368              		.thumb
 369              		.thumb_func
 370              		.type	UpdateIdleRateTimer, %function
 371              	UpdateIdleRateTimer:
 372              	.LFB292:
 729:Generated_Source\PSoC6\pdl\middleware\usb_dev/cy_usb_dev_hid.c **** 
 730:Generated_Source\PSoC6\pdl\middleware\usb_dev/cy_usb_dev_hid.c **** 
 731:Generated_Source\PSoC6\pdl\middleware\usb_dev/cy_usb_dev_hid.c **** /*******************************************************************************
 732:Generated_Source\PSoC6\pdl\middleware\usb_dev/cy_usb_dev_hid.c **** * Function Name: UpdateIdleRateTimer
 733:Generated_Source\PSoC6\pdl\middleware\usb_dev/cy_usb_dev_hid.c **** ****************************************************************************//**
 734:Generated_Source\PSoC6\pdl\middleware\usb_dev/cy_usb_dev_hid.c **** *
 735:Generated_Source\PSoC6\pdl\middleware\usb_dev/cy_usb_dev_hid.c **** * Updates Idle Rate timer after SET_IDLE request was received.
 736:Generated_Source\PSoC6\pdl\middleware\usb_dev/cy_usb_dev_hid.c **** *
 737:Generated_Source\PSoC6\pdl\middleware\usb_dev/cy_usb_dev_hid.c **** * \param idx
 738:Generated_Source\PSoC6\pdl\middleware\usb_dev/cy_usb_dev_hid.c **** * Idle Rate timer index.
 739:Generated_Source\PSoC6\pdl\middleware\usb_dev/cy_usb_dev_hid.c **** *
 740:Generated_Source\PSoC6\pdl\middleware\usb_dev/cy_usb_dev_hid.c **** * \param context
 741:Generated_Source\PSoC6\pdl\middleware\usb_dev/cy_usb_dev_hid.c **** * The pointer to the context structure \ref cy_stc_usb_dev_hid_context_t 
 742:Generated_Source\PSoC6\pdl\middleware\usb_dev/cy_usb_dev_hid.c **** * allocated by the user. The structure is used during the HID Class operation  
 743:Generated_Source\PSoC6\pdl\middleware\usb_dev/cy_usb_dev_hid.c **** * for internal configuration and data retention. The user must not modify 
 744:Generated_Source\PSoC6\pdl\middleware\usb_dev/cy_usb_dev_hid.c **** * anything in this structure.
 745:Generated_Source\PSoC6\pdl\middleware\usb_dev/cy_usb_dev_hid.c **** *
 746:Generated_Source\PSoC6\pdl\middleware\usb_dev/cy_usb_dev_hid.c **** *******************************************************************************/ 
 747:Generated_Source\PSoC6\pdl\middleware\usb_dev/cy_usb_dev_hid.c **** static void UpdateIdleRateTimer(uint32_t idx, cy_stc_usb_dev_hid_context_t *context)
 748:Generated_Source\PSoC6\pdl\middleware\usb_dev/cy_usb_dev_hid.c **** {
 373              		.loc 1 748 0
 374              		.cfi_startproc
 375              		@ args = 0, pretend = 0, frame = 0
 376              		@ frame_needed = 0, uses_anonymous_args = 0
 377              		@ link register save eliminated.
 378              	.LVL44:
 749:Generated_Source\PSoC6\pdl\middleware\usb_dev/cy_usb_dev_hid.c ****     /* Reset timer if Idle rate indefinite */
ARM GAS  C:\Users\enes_\AppData\Local\Temp\cc1rwu0O.s 			page 21


 750:Generated_Source\PSoC6\pdl\middleware\usb_dev/cy_usb_dev_hid.c ****     if (HID_IDLE_RATE_INDEFINITE == context->idleRate[idx])
 379              		.loc 1 750 0
 380 0000 CB6A     		ldr	r3, [r1, #44]
 381 0002 1B5C     		ldrb	r3, [r3, r0]	@ zero_extendqisi2
 382 0004 1BB9     		cbnz	r3, .L37
 751:Generated_Source\PSoC6\pdl\middleware\usb_dev/cy_usb_dev_hid.c ****     {
 752:Generated_Source\PSoC6\pdl\middleware\usb_dev/cy_usb_dev_hid.c ****         context->idleTimer[idx] = 0U;
 383              		.loc 1 752 0
 384 0006 0B6B     		ldr	r3, [r1, #48]
 385 0008 0022     		movs	r2, #0
 386 000a 1A54     		strb	r2, [r3, r0]
 387 000c 7047     		bx	lr
 388              	.L37:
 753:Generated_Source\PSoC6\pdl\middleware\usb_dev/cy_usb_dev_hid.c ****     }
 754:Generated_Source\PSoC6\pdl\middleware\usb_dev/cy_usb_dev_hid.c ****     else
 755:Generated_Source\PSoC6\pdl\middleware\usb_dev/cy_usb_dev_hid.c ****     {
 756:Generated_Source\PSoC6\pdl\middleware\usb_dev/cy_usb_dev_hid.c ****         /* HID spec: Set_Idle request Latency */
 757:Generated_Source\PSoC6\pdl\middleware\usb_dev/cy_usb_dev_hid.c ****         if (context->idleTimer[idx] >= context->idleRate[idx])
 389              		.loc 1 757 0
 390 000e 0A6B     		ldr	r2, [r1, #48]
 391 0010 115C     		ldrb	r1, [r2, r0]	@ zero_extendqisi2
 392              	.LVL45:
 393 0012 8B42     		cmp	r3, r1
 394 0014 01D8     		bhi	.L39
 758:Generated_Source\PSoC6\pdl\middleware\usb_dev/cy_usb_dev_hid.c ****         {
 759:Generated_Source\PSoC6\pdl\middleware\usb_dev/cy_usb_dev_hid.c ****             /* Reload the timer: wait new period */
 760:Generated_Source\PSoC6\pdl\middleware\usb_dev/cy_usb_dev_hid.c ****             context->idleTimer[idx] = context->idleRate[idx];
 395              		.loc 1 760 0
 396 0016 1354     		strb	r3, [r2, r0]
 397 0018 7047     		bx	lr
 398              	.L39:
 761:Generated_Source\PSoC6\pdl\middleware\usb_dev/cy_usb_dev_hid.c ****         }
 762:Generated_Source\PSoC6\pdl\middleware\usb_dev/cy_usb_dev_hid.c ****         else
 763:Generated_Source\PSoC6\pdl\middleware\usb_dev/cy_usb_dev_hid.c ****         {
 764:Generated_Source\PSoC6\pdl\middleware\usb_dev/cy_usb_dev_hid.c ****             if (context->idleTimer[idx] >= 1U)
 399              		.loc 1 764 0
 400 001a 09B1     		cbz	r1, .L36
 765:Generated_Source\PSoC6\pdl\middleware\usb_dev/cy_usb_dev_hid.c ****             {
 766:Generated_Source\PSoC6\pdl\middleware\usb_dev/cy_usb_dev_hid.c ****                 /* If the current period has gone past the newly prescribed
 767:Generated_Source\PSoC6\pdl\middleware\usb_dev/cy_usb_dev_hid.c ****                 * time duration, then a report will be generated immediately.
 768:Generated_Source\PSoC6\pdl\middleware\usb_dev/cy_usb_dev_hid.c ****                 * Clear timer to return TIMER_EXPIRED on next HID_UpdateTimer call.
 769:Generated_Source\PSoC6\pdl\middleware\usb_dev/cy_usb_dev_hid.c ****                 */
 770:Generated_Source\PSoC6\pdl\middleware\usb_dev/cy_usb_dev_hid.c ****                 context->idleTimer[idx] = 0U;
 401              		.loc 1 770 0
 402 001c 0023     		movs	r3, #0
 403 001e 1354     		strb	r3, [r2, r0]
 404              	.L36:
 405 0020 7047     		bx	lr
 406              		.cfi_endproc
 407              	.LFE292:
 408              		.size	UpdateIdleRateTimer, .-UpdateIdleRateTimer
 409 0022 00BF     		.section	.text.GetInputReportIdx,"ax",%progbits
 410              		.align	2
 411              		.thumb
 412              		.thumb_func
 413              		.type	GetInputReportIdx, %function
 414              	GetInputReportIdx:
ARM GAS  C:\Users\enes_\AppData\Local\Temp\cc1rwu0O.s 			page 22


 415              	.LFB295:
 771:Generated_Source\PSoC6\pdl\middleware\usb_dev/cy_usb_dev_hid.c ****             }
 772:Generated_Source\PSoC6\pdl\middleware\usb_dev/cy_usb_dev_hid.c ****             else
 773:Generated_Source\PSoC6\pdl\middleware\usb_dev/cy_usb_dev_hid.c ****             {
 774:Generated_Source\PSoC6\pdl\middleware\usb_dev/cy_usb_dev_hid.c ****                 /* A new request will be executed as if it were issued 
 775:Generated_Source\PSoC6\pdl\middleware\usb_dev/cy_usb_dev_hid.c ****                 * immediately after the last report, if the new request 
 776:Generated_Source\PSoC6\pdl\middleware\usb_dev/cy_usb_dev_hid.c ****                 * is received at least 4 milliseconds before the end of 
 777:Generated_Source\PSoC6\pdl\middleware\usb_dev/cy_usb_dev_hid.c ****                 * the currently executing period. If the new request is 
 778:Generated_Source\PSoC6\pdl\middleware\usb_dev/cy_usb_dev_hid.c ****                 * received within 4 milliseconds of the end of the 
 779:Generated_Source\PSoC6\pdl\middleware\usb_dev/cy_usb_dev_hid.c ****                 * current period, then the new request will have no 
 780:Generated_Source\PSoC6\pdl\middleware\usb_dev/cy_usb_dev_hid.c ****                 * effect until after the report
 781:Generated_Source\PSoC6\pdl\middleware\usb_dev/cy_usb_dev_hid.c ****                 */
 782:Generated_Source\PSoC6\pdl\middleware\usb_dev/cy_usb_dev_hid.c **** 
 783:Generated_Source\PSoC6\pdl\middleware\usb_dev/cy_usb_dev_hid.c ****                 /* Do nothing: let HID_UpdateTimer continue to counting 
 784:Generated_Source\PSoC6\pdl\middleware\usb_dev/cy_usb_dev_hid.c ****                 * and return TIMER_EXPIRED status.
 785:Generated_Source\PSoC6\pdl\middleware\usb_dev/cy_usb_dev_hid.c ****                 */
 786:Generated_Source\PSoC6\pdl\middleware\usb_dev/cy_usb_dev_hid.c ****             }
 787:Generated_Source\PSoC6\pdl\middleware\usb_dev/cy_usb_dev_hid.c ****         }
 788:Generated_Source\PSoC6\pdl\middleware\usb_dev/cy_usb_dev_hid.c ****     }
 789:Generated_Source\PSoC6\pdl\middleware\usb_dev/cy_usb_dev_hid.c **** }
 790:Generated_Source\PSoC6\pdl\middleware\usb_dev/cy_usb_dev_hid.c **** 
 791:Generated_Source\PSoC6\pdl\middleware\usb_dev/cy_usb_dev_hid.c **** 
 792:Generated_Source\PSoC6\pdl\middleware\usb_dev/cy_usb_dev_hid.c **** /*******************************************************************************
 793:Generated_Source\PSoC6\pdl\middleware\usb_dev/cy_usb_dev_hid.c **** * Function Name: SetIdleRequest
 794:Generated_Source\PSoC6\pdl\middleware\usb_dev/cy_usb_dev_hid.c **** ****************************************************************************//**
 795:Generated_Source\PSoC6\pdl\middleware\usb_dev/cy_usb_dev_hid.c **** *
 796:Generated_Source\PSoC6\pdl\middleware\usb_dev/cy_usb_dev_hid.c **** * Handles SET_IDLE HID Class request. 
 797:Generated_Source\PSoC6\pdl\middleware\usb_dev/cy_usb_dev_hid.c **** *
 798:Generated_Source\PSoC6\pdl\middleware\usb_dev/cy_usb_dev_hid.c **** * \param transfer
 799:Generated_Source\PSoC6\pdl\middleware\usb_dev/cy_usb_dev_hid.c **** * Pointer to structure that holds SETUP packet and information for 
 800:Generated_Source\PSoC6\pdl\middleware\usb_dev/cy_usb_dev_hid.c **** * request processing.
 801:Generated_Source\PSoC6\pdl\middleware\usb_dev/cy_usb_dev_hid.c **** *
 802:Generated_Source\PSoC6\pdl\middleware\usb_dev/cy_usb_dev_hid.c **** * \param hid
 803:Generated_Source\PSoC6\pdl\middleware\usb_dev/cy_usb_dev_hid.c **** * The pointer to the the structure that holds HID Class information.
 804:Generated_Source\PSoC6\pdl\middleware\usb_dev/cy_usb_dev_hid.c **** *
 805:Generated_Source\PSoC6\pdl\middleware\usb_dev/cy_usb_dev_hid.c **** * \param context
 806:Generated_Source\PSoC6\pdl\middleware\usb_dev/cy_usb_dev_hid.c **** * The pointer to the context structure \ref cy_stc_usb_dev_hid_context_t 
 807:Generated_Source\PSoC6\pdl\middleware\usb_dev/cy_usb_dev_hid.c **** * allocated by the user. The structure is used during the HID Class operation  
 808:Generated_Source\PSoC6\pdl\middleware\usb_dev/cy_usb_dev_hid.c **** * for internal configuration and data retention. The user must not modify 
 809:Generated_Source\PSoC6\pdl\middleware\usb_dev/cy_usb_dev_hid.c **** * anything in this structure.
 810:Generated_Source\PSoC6\pdl\middleware\usb_dev/cy_usb_dev_hid.c **** *
 811:Generated_Source\PSoC6\pdl\middleware\usb_dev/cy_usb_dev_hid.c **** * \return
 812:Generated_Source\PSoC6\pdl\middleware\usb_dev/cy_usb_dev_hid.c **** * Status of request processing: \ref CY_USB_DEV_SUCCESS or 
 813:Generated_Source\PSoC6\pdl\middleware\usb_dev/cy_usb_dev_hid.c **** * \ref CY_USB_DEV_REQUEST_NOT_HANDLED.
 814:Generated_Source\PSoC6\pdl\middleware\usb_dev/cy_usb_dev_hid.c **** *
 815:Generated_Source\PSoC6\pdl\middleware\usb_dev/cy_usb_dev_hid.c **** *******************************************************************************/ 
 816:Generated_Source\PSoC6\pdl\middleware\usb_dev/cy_usb_dev_hid.c **** static cy_en_usb_dev_status_t SetIdleRequest(cy_stc_usb_dev_control_transfer_t const *transfer, 
 817:Generated_Source\PSoC6\pdl\middleware\usb_dev/cy_usb_dev_hid.c ****                                              cy_stc_usb_dev_hid_t const        *hid,
 818:Generated_Source\PSoC6\pdl\middleware\usb_dev/cy_usb_dev_hid.c ****                                              cy_stc_usb_dev_hid_context_t      *context)
 819:Generated_Source\PSoC6\pdl\middleware\usb_dev/cy_usb_dev_hid.c **** {
 820:Generated_Source\PSoC6\pdl\middleware\usb_dev/cy_usb_dev_hid.c ****     cy_en_usb_dev_status_t retStatus = CY_USB_DEV_REQUEST_NOT_HANDLED;
 821:Generated_Source\PSoC6\pdl\middleware\usb_dev/cy_usb_dev_hid.c ****     
 822:Generated_Source\PSoC6\pdl\middleware\usb_dev/cy_usb_dev_hid.c ****     uint32_t reportId = CY_LO8(transfer->setup.wValue);
 823:Generated_Source\PSoC6\pdl\middleware\usb_dev/cy_usb_dev_hid.c ****     uint32_t idx;
 824:Generated_Source\PSoC6\pdl\middleware\usb_dev/cy_usb_dev_hid.c **** 
 825:Generated_Source\PSoC6\pdl\middleware\usb_dev/cy_usb_dev_hid.c ****     /* Get report ID index */
 826:Generated_Source\PSoC6\pdl\middleware\usb_dev/cy_usb_dev_hid.c ****     retStatus = GetInputReportIdx(reportId, &idx, hid, context);
ARM GAS  C:\Users\enes_\AppData\Local\Temp\cc1rwu0O.s 			page 23


 827:Generated_Source\PSoC6\pdl\middleware\usb_dev/cy_usb_dev_hid.c **** 
 828:Generated_Source\PSoC6\pdl\middleware\usb_dev/cy_usb_dev_hid.c ****     if (CY_USB_DEV_SUCCESS == retStatus)
 829:Generated_Source\PSoC6\pdl\middleware\usb_dev/cy_usb_dev_hid.c ****     {
 830:Generated_Source\PSoC6\pdl\middleware\usb_dev/cy_usb_dev_hid.c ****         if (reportId > 0U)
 831:Generated_Source\PSoC6\pdl\middleware\usb_dev/cy_usb_dev_hid.c ****         {
 832:Generated_Source\PSoC6\pdl\middleware\usb_dev/cy_usb_dev_hid.c ****             /* Set IdleRate for defined report ID then update idle timers */
 833:Generated_Source\PSoC6\pdl\middleware\usb_dev/cy_usb_dev_hid.c ****             context->idleRate[idx] = CY_HI8(transfer->setup.wValue);
 834:Generated_Source\PSoC6\pdl\middleware\usb_dev/cy_usb_dev_hid.c ****             UpdateIdleRateTimer(idx, context);
 835:Generated_Source\PSoC6\pdl\middleware\usb_dev/cy_usb_dev_hid.c ****         }
 836:Generated_Source\PSoC6\pdl\middleware\usb_dev/cy_usb_dev_hid.c ****         else
 837:Generated_Source\PSoC6\pdl\middleware\usb_dev/cy_usb_dev_hid.c ****         {
 838:Generated_Source\PSoC6\pdl\middleware\usb_dev/cy_usb_dev_hid.c ****             /* Set IdleRate to all Report IDs for this HID interface */
 839:Generated_Source\PSoC6\pdl\middleware\usb_dev/cy_usb_dev_hid.c ****             (void) memset(&context->idleRate[idx], (int32_t) CY_HI8(transfer->setup.wValue), (uint3
 840:Generated_Source\PSoC6\pdl\middleware\usb_dev/cy_usb_dev_hid.c **** 
 841:Generated_Source\PSoC6\pdl\middleware\usb_dev/cy_usb_dev_hid.c ****             /* Update idle timers */
 842:Generated_Source\PSoC6\pdl\middleware\usb_dev/cy_usb_dev_hid.c ****             for(;idx < hid->numInputReports; ++idx)
 843:Generated_Source\PSoC6\pdl\middleware\usb_dev/cy_usb_dev_hid.c ****             {
 844:Generated_Source\PSoC6\pdl\middleware\usb_dev/cy_usb_dev_hid.c ****                 UpdateIdleRateTimer(idx, context);
 845:Generated_Source\PSoC6\pdl\middleware\usb_dev/cy_usb_dev_hid.c ****             }
 846:Generated_Source\PSoC6\pdl\middleware\usb_dev/cy_usb_dev_hid.c ****         }
 847:Generated_Source\PSoC6\pdl\middleware\usb_dev/cy_usb_dev_hid.c ****     }
 848:Generated_Source\PSoC6\pdl\middleware\usb_dev/cy_usb_dev_hid.c ****     
 849:Generated_Source\PSoC6\pdl\middleware\usb_dev/cy_usb_dev_hid.c ****     /* SETUP control transfer, no data stage */
 850:Generated_Source\PSoC6\pdl\middleware\usb_dev/cy_usb_dev_hid.c **** 
 851:Generated_Source\PSoC6\pdl\middleware\usb_dev/cy_usb_dev_hid.c ****     return retStatus;
 852:Generated_Source\PSoC6\pdl\middleware\usb_dev/cy_usb_dev_hid.c **** }
 853:Generated_Source\PSoC6\pdl\middleware\usb_dev/cy_usb_dev_hid.c **** 
 854:Generated_Source\PSoC6\pdl\middleware\usb_dev/cy_usb_dev_hid.c **** 
 855:Generated_Source\PSoC6\pdl\middleware\usb_dev/cy_usb_dev_hid.c **** /*******************************************************************************
 856:Generated_Source\PSoC6\pdl\middleware\usb_dev/cy_usb_dev_hid.c **** * Function Name: GetHidStruct
 857:Generated_Source\PSoC6\pdl\middleware\usb_dev/cy_usb_dev_hid.c **** ****************************************************************************//**
 858:Generated_Source\PSoC6\pdl\middleware\usb_dev/cy_usb_dev_hid.c **** *
 859:Generated_Source\PSoC6\pdl\middleware\usb_dev/cy_usb_dev_hid.c **** * Returns the pointer to the structure that holds HID Class information 
 860:Generated_Source\PSoC6\pdl\middleware\usb_dev/cy_usb_dev_hid.c **** * for a certain interface.
 861:Generated_Source\PSoC6\pdl\middleware\usb_dev/cy_usb_dev_hid.c **** *
 862:Generated_Source\PSoC6\pdl\middleware\usb_dev/cy_usb_dev_hid.c **** * \param intf
 863:Generated_Source\PSoC6\pdl\middleware\usb_dev/cy_usb_dev_hid.c **** * Interface number.
 864:Generated_Source\PSoC6\pdl\middleware\usb_dev/cy_usb_dev_hid.c **** *
 865:Generated_Source\PSoC6\pdl\middleware\usb_dev/cy_usb_dev_hid.c **** * \param devContext
 866:Generated_Source\PSoC6\pdl\middleware\usb_dev/cy_usb_dev_hid.c **** * The pointer to the context structure \ref cy_stc_usb_dev_hid_context_t allocated
 867:Generated_Source\PSoC6\pdl\middleware\usb_dev/cy_usb_dev_hid.c **** * by the user.
 868:Generated_Source\PSoC6\pdl\middleware\usb_dev/cy_usb_dev_hid.c **** *
 869:Generated_Source\PSoC6\pdl\middleware\usb_dev/cy_usb_dev_hid.c **** * \return
 870:Generated_Source\PSoC6\pdl\middleware\usb_dev/cy_usb_dev_hid.c **** * The pointer to HID interface structure \ref cy_stc_usb_dev_hid_t. 
 871:Generated_Source\PSoC6\pdl\middleware\usb_dev/cy_usb_dev_hid.c **** * If interface protocol is not HID the NULL pointer is returned.
 872:Generated_Source\PSoC6\pdl\middleware\usb_dev/cy_usb_dev_hid.c **** *
 873:Generated_Source\PSoC6\pdl\middleware\usb_dev/cy_usb_dev_hid.c **** *******************************************************************************/
 874:Generated_Source\PSoC6\pdl\middleware\usb_dev/cy_usb_dev_hid.c **** static cy_stc_usb_dev_hid_t const * GetHidStruct(uint32_t intf, cy_stc_usb_dev_context_t *devContex
 875:Generated_Source\PSoC6\pdl\middleware\usb_dev/cy_usb_dev_hid.c **** {
 876:Generated_Source\PSoC6\pdl\middleware\usb_dev/cy_usb_dev_hid.c ****     uint32_t cfg = Cy_USB_Dev_GetConfigurationIdx(devContext);
 877:Generated_Source\PSoC6\pdl\middleware\usb_dev/cy_usb_dev_hid.c ****     
 878:Generated_Source\PSoC6\pdl\middleware\usb_dev/cy_usb_dev_hid.c ****     cy_stc_usb_dev_hid_t const *hidStruct = NULL;
 879:Generated_Source\PSoC6\pdl\middleware\usb_dev/cy_usb_dev_hid.c ****     
 880:Generated_Source\PSoC6\pdl\middleware\usb_dev/cy_usb_dev_hid.c ****     /* Check if interface is valid */
 881:Generated_Source\PSoC6\pdl\middleware\usb_dev/cy_usb_dev_hid.c ****     if (intf < devContext->devDescriptors->configurations[cfg]->numInterfaces)
 882:Generated_Source\PSoC6\pdl\middleware\usb_dev/cy_usb_dev_hid.c ****     {
 883:Generated_Source\PSoC6\pdl\middleware\usb_dev/cy_usb_dev_hid.c ****         uint32_t alt = Cy_USB_Dev_GetAlternateSettings(intf, devContext);
ARM GAS  C:\Users\enes_\AppData\Local\Temp\cc1rwu0O.s 			page 24


 884:Generated_Source\PSoC6\pdl\middleware\usb_dev/cy_usb_dev_hid.c ****             
 885:Generated_Source\PSoC6\pdl\middleware\usb_dev/cy_usb_dev_hid.c ****         /* Get report descriptor */
 886:Generated_Source\PSoC6\pdl\middleware\usb_dev/cy_usb_dev_hid.c ****         hidStruct = devContext->devDescriptors->configurations[cfg]->interfaces[intf]->alternates[a
 887:Generated_Source\PSoC6\pdl\middleware\usb_dev/cy_usb_dev_hid.c ****     }
 888:Generated_Source\PSoC6\pdl\middleware\usb_dev/cy_usb_dev_hid.c ****     
 889:Generated_Source\PSoC6\pdl\middleware\usb_dev/cy_usb_dev_hid.c ****     return hidStruct;
 890:Generated_Source\PSoC6\pdl\middleware\usb_dev/cy_usb_dev_hid.c **** }
 891:Generated_Source\PSoC6\pdl\middleware\usb_dev/cy_usb_dev_hid.c **** 
 892:Generated_Source\PSoC6\pdl\middleware\usb_dev/cy_usb_dev_hid.c **** 
 893:Generated_Source\PSoC6\pdl\middleware\usb_dev/cy_usb_dev_hid.c **** /*******************************************************************************
 894:Generated_Source\PSoC6\pdl\middleware\usb_dev/cy_usb_dev_hid.c **** * Function Name: GetInputReportIdx
 895:Generated_Source\PSoC6\pdl\middleware\usb_dev/cy_usb_dev_hid.c **** ****************************************************************************//**
 896:Generated_Source\PSoC6\pdl\middleware\usb_dev/cy_usb_dev_hid.c **** *
 897:Generated_Source\PSoC6\pdl\middleware\usb_dev/cy_usb_dev_hid.c **** * Finds idle rate timer index for a certain report ID.
 898:Generated_Source\PSoC6\pdl\middleware\usb_dev/cy_usb_dev_hid.c **** *
 899:Generated_Source\PSoC6\pdl\middleware\usb_dev/cy_usb_dev_hid.c **** * \param reportId
 900:Generated_Source\PSoC6\pdl\middleware\usb_dev/cy_usb_dev_hid.c **** * Report ID. If there is no report ID, zero must be passed.
 901:Generated_Source\PSoC6\pdl\middleware\usb_dev/cy_usb_dev_hid.c **** *
 902:Generated_Source\PSoC6\pdl\middleware\usb_dev/cy_usb_dev_hid.c **** * \param idx
 903:Generated_Source\PSoC6\pdl\middleware\usb_dev/cy_usb_dev_hid.c **** * Idle rate timer index.
 904:Generated_Source\PSoC6\pdl\middleware\usb_dev/cy_usb_dev_hid.c **** *
 905:Generated_Source\PSoC6\pdl\middleware\usb_dev/cy_usb_dev_hid.c **** * \param hid
 906:Generated_Source\PSoC6\pdl\middleware\usb_dev/cy_usb_dev_hid.c **** * The pointer to the the structure that holds HID Class information.
 907:Generated_Source\PSoC6\pdl\middleware\usb_dev/cy_usb_dev_hid.c **** *
 908:Generated_Source\PSoC6\pdl\middleware\usb_dev/cy_usb_dev_hid.c **** * \param context
 909:Generated_Source\PSoC6\pdl\middleware\usb_dev/cy_usb_dev_hid.c **** * The pointer to the context structure \ref cy_stc_usb_dev_hid_context_t 
 910:Generated_Source\PSoC6\pdl\middleware\usb_dev/cy_usb_dev_hid.c **** * allocated by the user. The structure is used during the HID Class operation  
 911:Generated_Source\PSoC6\pdl\middleware\usb_dev/cy_usb_dev_hid.c **** * for internal configuration and data retention. The user must not modify 
 912:Generated_Source\PSoC6\pdl\middleware\usb_dev/cy_usb_dev_hid.c **** * anything in this structure.
 913:Generated_Source\PSoC6\pdl\middleware\usb_dev/cy_usb_dev_hid.c **** *
 914:Generated_Source\PSoC6\pdl\middleware\usb_dev/cy_usb_dev_hid.c **** * \return
 915:Generated_Source\PSoC6\pdl\middleware\usb_dev/cy_usb_dev_hid.c **** * Status code of the function execution \ref cy_en_usb_dev_status_t.
 916:Generated_Source\PSoC6\pdl\middleware\usb_dev/cy_usb_dev_hid.c **** *
 917:Generated_Source\PSoC6\pdl\middleware\usb_dev/cy_usb_dev_hid.c **** *******************************************************************************/
 918:Generated_Source\PSoC6\pdl\middleware\usb_dev/cy_usb_dev_hid.c **** static cy_en_usb_dev_status_t GetInputReportIdx(uint32_t reportId, uint32_t *idx, 
 919:Generated_Source\PSoC6\pdl\middleware\usb_dev/cy_usb_dev_hid.c ****                                                 cy_stc_usb_dev_hid_t const   *hid,
 920:Generated_Source\PSoC6\pdl\middleware\usb_dev/cy_usb_dev_hid.c ****                                                 cy_stc_usb_dev_hid_context_t const *context)
 921:Generated_Source\PSoC6\pdl\middleware\usb_dev/cy_usb_dev_hid.c **** {
 416              		.loc 1 921 0
 417              		.cfi_startproc
 418              		@ args = 0, pretend = 0, frame = 0
 419              		@ frame_needed = 0, uses_anonymous_args = 0
 420              		@ link register save eliminated.
 421              	.LVL46:
 922:Generated_Source\PSoC6\pdl\middleware\usb_dev/cy_usb_dev_hid.c ****     cy_en_usb_dev_status_t retStatus = CY_USB_DEV_REQUEST_NOT_HANDLED;
 923:Generated_Source\PSoC6\pdl\middleware\usb_dev/cy_usb_dev_hid.c **** 
 924:Generated_Source\PSoC6\pdl\middleware\usb_dev/cy_usb_dev_hid.c ****     if (0U == reportId)
 422              		.loc 1 924 0
 423 0000 10B9     		cbnz	r0, .L41
 925:Generated_Source\PSoC6\pdl\middleware\usb_dev/cy_usb_dev_hid.c ****     {
 926:Generated_Source\PSoC6\pdl\middleware\usb_dev/cy_usb_dev_hid.c ****         /* Return start index in idleTimer array */
 927:Generated_Source\PSoC6\pdl\middleware\usb_dev/cy_usb_dev_hid.c ****         *idx = hid->inputReportPos;
 424              		.loc 1 927 0
 425 0002 937A     		ldrb	r3, [r2, #10]	@ zero_extendqisi2
 426              	.LVL47:
 427 0004 0B60     		str	r3, [r1]
 428              	.LVL48:
ARM GAS  C:\Users\enes_\AppData\Local\Temp\cc1rwu0O.s 			page 25


 928:Generated_Source\PSoC6\pdl\middleware\usb_dev/cy_usb_dev_hid.c ****         retStatus = CY_USB_DEV_SUCCESS;
 929:Generated_Source\PSoC6\pdl\middleware\usb_dev/cy_usb_dev_hid.c ****     }
 930:Generated_Source\PSoC6\pdl\middleware\usb_dev/cy_usb_dev_hid.c ****     else
 931:Generated_Source\PSoC6\pdl\middleware\usb_dev/cy_usb_dev_hid.c ****     {
 932:Generated_Source\PSoC6\pdl\middleware\usb_dev/cy_usb_dev_hid.c ****         /* Check that input report ID exists */
 933:Generated_Source\PSoC6\pdl\middleware\usb_dev/cy_usb_dev_hid.c ****         if (reportId < hid->inputReportIdxSize)
 934:Generated_Source\PSoC6\pdl\middleware\usb_dev/cy_usb_dev_hid.c ****         {
 935:Generated_Source\PSoC6\pdl\middleware\usb_dev/cy_usb_dev_hid.c ****             /* Get report ID index in timers array */
 936:Generated_Source\PSoC6\pdl\middleware\usb_dev/cy_usb_dev_hid.c ****             uint32_t tmpIdx = (uint32_t) hid->inputReportIdx[reportId];
 937:Generated_Source\PSoC6\pdl\middleware\usb_dev/cy_usb_dev_hid.c ****             
 938:Generated_Source\PSoC6\pdl\middleware\usb_dev/cy_usb_dev_hid.c ****             /* Check that index value is valid (0 is free location) */
 939:Generated_Source\PSoC6\pdl\middleware\usb_dev/cy_usb_dev_hid.c ****             if ((tmpIdx > 0U) && (tmpIdx <= context->timersNum))
 940:Generated_Source\PSoC6\pdl\middleware\usb_dev/cy_usb_dev_hid.c ****             {
 941:Generated_Source\PSoC6\pdl\middleware\usb_dev/cy_usb_dev_hid.c ****                 /* Return index in idleTimer array for report ID */
 942:Generated_Source\PSoC6\pdl\middleware\usb_dev/cy_usb_dev_hid.c ****                 *idx = (tmpIdx - 1U);
 943:Generated_Source\PSoC6\pdl\middleware\usb_dev/cy_usb_dev_hid.c ****                 retStatus = CY_USB_DEV_SUCCESS;
 944:Generated_Source\PSoC6\pdl\middleware\usb_dev/cy_usb_dev_hid.c ****             }
 945:Generated_Source\PSoC6\pdl\middleware\usb_dev/cy_usb_dev_hid.c ****         }
 946:Generated_Source\PSoC6\pdl\middleware\usb_dev/cy_usb_dev_hid.c ****     }
 947:Generated_Source\PSoC6\pdl\middleware\usb_dev/cy_usb_dev_hid.c **** 
 948:Generated_Source\PSoC6\pdl\middleware\usb_dev/cy_usb_dev_hid.c ****     return retStatus;
 949:Generated_Source\PSoC6\pdl\middleware\usb_dev/cy_usb_dev_hid.c **** }
 429              		.loc 1 949 0
 430 0006 7047     		bx	lr
 431              	.LVL49:
 432              	.L41:
 921:Generated_Source\PSoC6\pdl\middleware\usb_dev/cy_usb_dev_hid.c ****     cy_en_usb_dev_status_t retStatus = CY_USB_DEV_REQUEST_NOT_HANDLED;
 433              		.loc 1 921 0
 434 0008 10B4     		push	{r4}
 435              		.cfi_def_cfa_offset 4
 436              		.cfi_offset 4, -4
 437 000a 0446     		mov	r4, r0
 933:Generated_Source\PSoC6\pdl\middleware\usb_dev/cy_usb_dev_hid.c ****         {
 438              		.loc 1 933 0
 439 000c 107C     		ldrb	r0, [r2, #16]	@ zero_extendqisi2
 440              	.LVL50:
 441 000e 8442     		cmp	r4, r0
 442 0010 0AD2     		bcs	.L43
 443              	.LBB20:
 936:Generated_Source\PSoC6\pdl\middleware\usb_dev/cy_usb_dev_hid.c ****             
 444              		.loc 1 936 0
 445 0012 D268     		ldr	r2, [r2, #12]
 446              	.LVL51:
 447 0014 125D     		ldrb	r2, [r2, r4]	@ zero_extendqisi2
 448              	.LVL52:
 939:Generated_Source\PSoC6\pdl\middleware\usb_dev/cy_usb_dev_hid.c ****             {
 449              		.loc 1 939 0
 450 0016 4AB1     		cbz	r2, .L44
 939:Generated_Source\PSoC6\pdl\middleware\usb_dev/cy_usb_dev_hid.c ****             {
 451              		.loc 1 939 0 is_stmt 0 discriminator 1
 452 0018 93F83430 		ldrb	r3, [r3, #52]	@ zero_extendqisi2
 453              	.LVL53:
 454 001c 9A42     		cmp	r2, r3
 455 001e 07D8     		bhi	.L45
 942:Generated_Source\PSoC6\pdl\middleware\usb_dev/cy_usb_dev_hid.c ****                 retStatus = CY_USB_DEV_SUCCESS;
 456              		.loc 1 942 0 is_stmt 1
 457 0020 013A     		subs	r2, r2, #1
ARM GAS  C:\Users\enes_\AppData\Local\Temp\cc1rwu0O.s 			page 26


 458              	.LVL54:
 459 0022 0A60     		str	r2, [r1]
 460              	.LVL55:
 943:Generated_Source\PSoC6\pdl\middleware\usb_dev/cy_usb_dev_hid.c ****             }
 461              		.loc 1 943 0
 462 0024 0020     		movs	r0, #0
 463 0026 04E0     		b	.L42
 464              	.LVL56:
 465              	.L43:
 466              	.LBE20:
 922:Generated_Source\PSoC6\pdl\middleware\usb_dev/cy_usb_dev_hid.c **** 
 467              		.loc 1 922 0
 468 0028 0348     		ldr	r0, .L47
 469 002a 02E0     		b	.L42
 470              	.LVL57:
 471              	.L44:
 472 002c 0248     		ldr	r0, .L47
 473 002e 00E0     		b	.L42
 474              	.LVL58:
 475              	.L45:
 476 0030 0148     		ldr	r0, .L47
 477              	.LVL59:
 478              	.L42:
 479              		.loc 1 949 0
 480 0032 5DF8044B 		ldr	r4, [sp], #4
 481              		.cfi_restore 4
 482              		.cfi_def_cfa_offset 0
 483              	.LVL60:
 484 0036 7047     		bx	lr
 485              	.L48:
 486              		.align	2
 487              	.L47:
 488 0038 02002200 		.word	2228226
 489              		.cfi_endproc
 490              	.LFE295:
 491              		.size	GetInputReportIdx, .-GetInputReportIdx
 492              		.section	.text.GetIdleRequest,"ax",%progbits
 493              		.align	2
 494              		.thumb
 495              		.thumb_func
 496              		.type	GetIdleRequest, %function
 497              	GetIdleRequest:
 498              	.LFB288:
 594:Generated_Source\PSoC6\pdl\middleware\usb_dev/cy_usb_dev_hid.c ****     cy_en_usb_dev_status_t retStatus;
 499              		.loc 1 594 0
 500              		.cfi_startproc
 501              		@ args = 0, pretend = 0, frame = 8
 502              		@ frame_needed = 0, uses_anonymous_args = 0
 503              	.LVL61:
 504 0000 30B5     		push	{r4, r5, lr}
 505              		.cfi_def_cfa_offset 12
 506              		.cfi_offset 4, -12
 507              		.cfi_offset 5, -8
 508              		.cfi_offset 14, -4
 509 0002 83B0     		sub	sp, sp, #12
 510              		.cfi_def_cfa_offset 24
 511 0004 0446     		mov	r4, r0
ARM GAS  C:\Users\enes_\AppData\Local\Temp\cc1rwu0O.s 			page 27


 512 0006 1546     		mov	r5, r2
 598:Generated_Source\PSoC6\pdl\middleware\usb_dev/cy_usb_dev_hid.c ****     
 513              		.loc 1 598 0
 514 0008 1346     		mov	r3, r2
 515 000a 0A46     		mov	r2, r1
 516              	.LVL62:
 517 000c 01A9     		add	r1, sp, #4
 518              	.LVL63:
 519 000e 8088     		ldrh	r0, [r0, #4]
 520              	.LVL64:
 521 0010 FFF7FEFF 		bl	GetInputReportIdx
 522              	.LVL65:
 600:Generated_Source\PSoC6\pdl\middleware\usb_dev/cy_usb_dev_hid.c ****     {
 523              		.loc 1 600 0
 524 0014 0246     		mov	r2, r0
 525 0016 28B9     		cbnz	r0, .L50
 603:Generated_Source\PSoC6\pdl\middleware\usb_dev/cy_usb_dev_hid.c ****         transfer->remaining = HID_IDLE_RATE_LENGTH;
 526              		.loc 1 603 0
 527 0018 E96A     		ldr	r1, [r5, #44]
 528 001a 019B     		ldr	r3, [sp, #4]
 529 001c 0B44     		add	r3, r3, r1
 530 001e E360     		str	r3, [r4, #12]
 604:Generated_Source\PSoC6\pdl\middleware\usb_dev/cy_usb_dev_hid.c ****     }
 531              		.loc 1 604 0
 532 0020 0123     		movs	r3, #1
 533 0022 A382     		strh	r3, [r4, #20]	@ movhi
 534              	.L50:
 608:Generated_Source\PSoC6\pdl\middleware\usb_dev/cy_usb_dev_hid.c **** 
 535              		.loc 1 608 0
 536 0024 1046     		mov	r0, r2
 537              	.LVL66:
 538 0026 03B0     		add	sp, sp, #12
 539              		.cfi_def_cfa_offset 12
 540              		@ sp needed
 541 0028 30BD     		pop	{r4, r5, pc}
 542              		.cfi_endproc
 543              	.LFE288:
 544              		.size	GetIdleRequest, .-GetIdleRequest
 545 002a 00BF     		.section	.text.GetHidStruct,"ax",%progbits
 546              		.align	2
 547              		.thumb
 548              		.thumb_func
 549              		.type	GetHidStruct, %function
 550              	GetHidStruct:
 551              	.LFB294:
 875:Generated_Source\PSoC6\pdl\middleware\usb_dev/cy_usb_dev_hid.c ****     uint32_t cfg = Cy_USB_Dev_GetConfigurationIdx(devContext);
 552              		.loc 1 875 0
 553              		.cfi_startproc
 554              		@ args = 0, pretend = 0, frame = 0
 555              		@ frame_needed = 0, uses_anonymous_args = 0
 556              	.LVL67:
 557 0000 70B5     		push	{r4, r5, r6, lr}
 558              		.cfi_def_cfa_offset 16
 559              		.cfi_offset 4, -16
 560              		.cfi_offset 5, -12
 561              		.cfi_offset 6, -8
 562              		.cfi_offset 14, -4
ARM GAS  C:\Users\enes_\AppData\Local\Temp\cc1rwu0O.s 			page 28


 563              	.LVL68:
 564              	.LBB21:
 565              	.LBB22:
 566              		.file 2 "Generated_Source\\PSoC6\\pdl\\middleware\\usb_dev\\cy_usb_dev.h"
   1:Generated_Source\PSoC6\pdl\middleware\usb_dev/cy_usb_dev.h **** /***************************************************************************//**
   2:Generated_Source\PSoC6\pdl\middleware\usb_dev/cy_usb_dev.h **** * \file cy_usb_dev.h
   3:Generated_Source\PSoC6\pdl\middleware\usb_dev/cy_usb_dev.h **** * \version 1.0
   4:Generated_Source\PSoC6\pdl\middleware\usb_dev/cy_usb_dev.h **** *
   5:Generated_Source\PSoC6\pdl\middleware\usb_dev/cy_usb_dev.h **** * Provides API declarations of the USBFS device middleware.
   6:Generated_Source\PSoC6\pdl\middleware\usb_dev/cy_usb_dev.h **** *
   7:Generated_Source\PSoC6\pdl\middleware\usb_dev/cy_usb_dev.h **** ********************************************************************************
   8:Generated_Source\PSoC6\pdl\middleware\usb_dev/cy_usb_dev.h **** * \copyright
   9:Generated_Source\PSoC6\pdl\middleware\usb_dev/cy_usb_dev.h **** * Copyright 2018, Cypress Semiconductor Corporation.  All rights reserved.
  10:Generated_Source\PSoC6\pdl\middleware\usb_dev/cy_usb_dev.h **** * You may use this file only in accordance with the license, terms, conditions,
  11:Generated_Source\PSoC6\pdl\middleware\usb_dev/cy_usb_dev.h **** * disclaimers, and limitations in the end user license agreement accompanying
  12:Generated_Source\PSoC6\pdl\middleware\usb_dev/cy_usb_dev.h **** * the software package with which this file was provided.
  13:Generated_Source\PSoC6\pdl\middleware\usb_dev/cy_usb_dev.h **** *******************************************************************************/
  14:Generated_Source\PSoC6\pdl\middleware\usb_dev/cy_usb_dev.h **** 
  15:Generated_Source\PSoC6\pdl\middleware\usb_dev/cy_usb_dev.h **** 
  16:Generated_Source\PSoC6\pdl\middleware\usb_dev/cy_usb_dev.h **** /**
  17:Generated_Source\PSoC6\pdl\middleware\usb_dev/cy_usb_dev.h ****  * \mainpage Cypress USB Device Middleware Library
  18:Generated_Source\PSoC6\pdl\middleware\usb_dev/cy_usb_dev.h **** *
  19:Generated_Source\PSoC6\pdl\middleware\usb_dev/cy_usb_dev.h **** * The USB Device middleware provides a full-speed USB 2.0 Chapter 9 specification 
  20:Generated_Source\PSoC6\pdl\middleware\usb_dev/cy_usb_dev.h **** * compliant device framework. It uses the USBFS driver from PDL to interface 
  21:Generated_Source\PSoC6\pdl\middleware\usb_dev/cy_usb_dev.h **** * with the hardware. The middleware provides support for Audio, CDC, and HID 
  22:Generated_Source\PSoC6\pdl\middleware\usb_dev/cy_usb_dev.h **** * classes. Also, it allows implementation of other class support. 
  23:Generated_Source\PSoC6\pdl\middleware\usb_dev/cy_usb_dev.h **** * The USB Configurator tool is provided to make it easy to construct the USB 
  24:Generated_Source\PSoC6\pdl\middleware\usb_dev/cy_usb_dev.h **** * Device descriptor.
  25:Generated_Source\PSoC6\pdl\middleware\usb_dev/cy_usb_dev.h **** *
  26:Generated_Source\PSoC6\pdl\middleware\usb_dev/cy_usb_dev.h **** * Include cy_usb_dev.h along with the header for the USB class to be used 
  27:Generated_Source\PSoC6\pdl\middleware\usb_dev/cy_usb_dev.h **** * (cy_usb_dev_hid.h, cy_usb_dev_cdc.h, cy_usb_dev_audio.h) to get access to 
  28:Generated_Source\PSoC6\pdl\middleware\usb_dev/cy_usb_dev.h **** * all functions and other declarations in this library. 
  29:Generated_Source\PSoC6\pdl\middleware\usb_dev/cy_usb_dev.h **** * If you are using the ModusToolbox USB Device Configurator, also include cycfg_usbdev.h.
  30:Generated_Source\PSoC6\pdl\middleware\usb_dev/cy_usb_dev.h **** *
  31:Generated_Source\PSoC6\pdl\middleware\usb_dev/cy_usb_dev.h **** * <b>Features:</b>
  32:Generated_Source\PSoC6\pdl\middleware\usb_dev/cy_usb_dev.h **** * * USB Full-Speed Device Framework
  33:Generated_Source\PSoC6\pdl\middleware\usb_dev/cy_usb_dev.h **** * * \ref group_usb_dev_cfg_tool
  34:Generated_Source\PSoC6\pdl\middleware\usb_dev/cy_usb_dev.h **** * * The following USB Classes are supported:
  35:Generated_Source\PSoC6\pdl\middleware\usb_dev/cy_usb_dev.h **** *   * \ref group_usb_dev_audio_class_info
  36:Generated_Source\PSoC6\pdl\middleware\usb_dev/cy_usb_dev.h **** *   * \ref group_usb_dev_cdc_class_info 
  37:Generated_Source\PSoC6\pdl\middleware\usb_dev/cy_usb_dev.h **** *   * \ref group_usb_dev_hid_class_info
  38:Generated_Source\PSoC6\pdl\middleware\usb_dev/cy_usb_dev.h **** *
  39:Generated_Source\PSoC6\pdl\middleware\usb_dev/cy_usb_dev.h **** ********************************************************************************
  40:Generated_Source\PSoC6\pdl\middleware\usb_dev/cy_usb_dev.h **** * \section group_usb_dev_configuration Configuration Considerations
  41:Generated_Source\PSoC6\pdl\middleware\usb_dev/cy_usb_dev.h **** ********************************************************************************
  42:Generated_Source\PSoC6\pdl\middleware\usb_dev/cy_usb_dev.h **** * 
  43:Generated_Source\PSoC6\pdl\middleware\usb_dev/cy_usb_dev.h **** * This section explains how to configure the USB Device for operation.
  44:Generated_Source\PSoC6\pdl\middleware\usb_dev/cy_usb_dev.h **** *
  45:Generated_Source\PSoC6\pdl\middleware\usb_dev/cy_usb_dev.h **** ********************************************************************************
  46:Generated_Source\PSoC6\pdl\middleware\usb_dev/cy_usb_dev.h **** * \subsection group_usb_dev_config_drv Configure USBFS driver
  47:Generated_Source\PSoC6\pdl\middleware\usb_dev/cy_usb_dev.h **** ********************************************************************************
  48:Generated_Source\PSoC6\pdl\middleware\usb_dev/cy_usb_dev.h **** *
  49:Generated_Source\PSoC6\pdl\middleware\usb_dev/cy_usb_dev.h **** * The driver and system resources configuration details are provided in the 
  50:Generated_Source\PSoC6\pdl\middleware\usb_dev/cy_usb_dev.h **** * USBFS driver section Configuration Considerations in the PDL API Reference 
  51:Generated_Source\PSoC6\pdl\middleware\usb_dev/cy_usb_dev.h **** * Manual. The provided code snippets expect that driver and system resources 
  52:Generated_Source\PSoC6\pdl\middleware\usb_dev/cy_usb_dev.h **** * configuration is done.
  53:Generated_Source\PSoC6\pdl\middleware\usb_dev/cy_usb_dev.h **** *
ARM GAS  C:\Users\enes_\AppData\Local\Temp\cc1rwu0O.s 			page 29


  54:Generated_Source\PSoC6\pdl\middleware\usb_dev/cy_usb_dev.h **** ********************************************************************************
  55:Generated_Source\PSoC6\pdl\middleware\usb_dev/cy_usb_dev.h **** * \subsection group_usb_dev_config_descr Construct USB Device Descriptors
  56:Generated_Source\PSoC6\pdl\middleware\usb_dev/cy_usb_dev.h **** ********************************************************************************
  57:Generated_Source\PSoC6\pdl\middleware\usb_dev/cy_usb_dev.h **** *
  58:Generated_Source\PSoC6\pdl\middleware\usb_dev/cy_usb_dev.h **** * Run standalone USB Configurator tool to construct the USB Device descriptors. 
  59:Generated_Source\PSoC6\pdl\middleware\usb_dev/cy_usb_dev.h **** * After USB Device descriptors are 
  60:Generated_Source\PSoC6\pdl\middleware\usb_dev/cy_usb_dev.h **** * constructed, save generated source and header files. Add these files to your 
  61:Generated_Source\PSoC6\pdl\middleware\usb_dev/cy_usb_dev.h **** * project. Open header files to get external definitions for: 
  62:Generated_Source\PSoC6\pdl\middleware\usb_dev/cy_usb_dev.h **** * * USB Device configuration structure \ref cy_stc_usb_dev_config_t instance.
  63:Generated_Source\PSoC6\pdl\middleware\usb_dev/cy_usb_dev.h **** * * Array of USB Devices structures \ref cy_stc_usb_dev_device_t. 
  64:Generated_Source\PSoC6\pdl\middleware\usb_dev/cy_usb_dev.h **** * * CDC and/or HID class configuration structure instances. 
  65:Generated_Source\PSoC6\pdl\middleware\usb_dev/cy_usb_dev.h **** *
  66:Generated_Source\PSoC6\pdl\middleware\usb_dev/cy_usb_dev.h **** * These definitions will be required in the configuration steps provided below.
  67:Generated_Source\PSoC6\pdl\middleware\usb_dev/cy_usb_dev.h **** *
  68:Generated_Source\PSoC6\pdl\middleware\usb_dev/cy_usb_dev.h **** ********************************************************************************
  69:Generated_Source\PSoC6\pdl\middleware\usb_dev/cy_usb_dev.h **** * \subsection group_usb_dev_config Configure USB Device
  70:Generated_Source\PSoC6\pdl\middleware\usb_dev/cy_usb_dev.h **** ********************************************************************************
  71:Generated_Source\PSoC6\pdl\middleware\usb_dev/cy_usb_dev.h **** * 
  72:Generated_Source\PSoC6\pdl\middleware\usb_dev/cy_usb_dev.h **** * To initialize the USB Device middleware, call \ref Cy_USB_Dev_Init function 
  73:Generated_Source\PSoC6\pdl\middleware\usb_dev/cy_usb_dev.h **** * providing: 
  74:Generated_Source\PSoC6\pdl\middleware\usb_dev/cy_usb_dev.h **** * * The pointer to the USBFS instance.
  75:Generated_Source\PSoC6\pdl\middleware\usb_dev/cy_usb_dev.h **** * * The pointer to the filled USBFS driver configuration structure cy_stc_usbfs_dev_drv_config_t.
  76:Generated_Source\PSoC6\pdl\middleware\usb_dev/cy_usb_dev.h **** * * The pointer to the allocated USBFS driver context structure cy_stc_usbfs_dev_drv_context_t.
  77:Generated_Source\PSoC6\pdl\middleware\usb_dev/cy_usb_dev.h **** * * The pointer to the generated middleware USB Device structure \ref cy_stc_usb_dev_device_t.
  78:Generated_Source\PSoC6\pdl\middleware\usb_dev/cy_usb_dev.h **** * * The pointer to the generated middleware USB Device configuration structure \ref cy_stc_usb_dev_
  79:Generated_Source\PSoC6\pdl\middleware\usb_dev/cy_usb_dev.h **** * * The pointer to the allocated middleware USB Device context structure \ref cy_stc_usb_dev_contex
  80:Generated_Source\PSoC6\pdl\middleware\usb_dev/cy_usb_dev.h **** *
  81:Generated_Source\PSoC6\pdl\middleware\usb_dev/cy_usb_dev.h **** ********************************************************************************
  82:Generated_Source\PSoC6\pdl\middleware\usb_dev/cy_usb_dev.h **** * \subsection group_usb_dev_config_class Configure USB Classes
  83:Generated_Source\PSoC6\pdl\middleware\usb_dev/cy_usb_dev.h **** ********************************************************************************
  84:Generated_Source\PSoC6\pdl\middleware\usb_dev/cy_usb_dev.h **** *
  85:Generated_Source\PSoC6\pdl\middleware\usb_dev/cy_usb_dev.h **** * The USB Device middleware provides support of Audio, HID, and CDC classes. 
  86:Generated_Source\PSoC6\pdl\middleware\usb_dev/cy_usb_dev.h **** * Each class has own initialization function. This function must be called 
  87:Generated_Source\PSoC6\pdl\middleware\usb_dev/cy_usb_dev.h **** * after \ref Cy_USB_Dev_Init to initialize class data and register it. The 
  88:Generated_Source\PSoC6\pdl\middleware\usb_dev/cy_usb_dev.h **** * class-specific request will be passed to the class handler after registration.
  89:Generated_Source\PSoC6\pdl\middleware\usb_dev/cy_usb_dev.h **** * Note that the USB Configurator tool generates HID and CDC Class configuration 
  90:Generated_Source\PSoC6\pdl\middleware\usb_dev/cy_usb_dev.h **** * structures that are required class initialization. Find these structure 
  91:Generated_Source\PSoC6\pdl\middleware\usb_dev/cy_usb_dev.h **** * external declaration in the generated header file.
  92:Generated_Source\PSoC6\pdl\middleware\usb_dev/cy_usb_dev.h **** *
  93:Generated_Source\PSoC6\pdl\middleware\usb_dev/cy_usb_dev.h **** * To initialize the Audio Class, call \ref Cy_USB_Dev_Audio_Init function 
  94:Generated_Source\PSoC6\pdl\middleware\usb_dev/cy_usb_dev.h **** * providing: 
  95:Generated_Source\PSoC6\pdl\middleware\usb_dev/cy_usb_dev.h **** * * The NULL pointer (reserved for possible future use).
  96:Generated_Source\PSoC6\pdl\middleware\usb_dev/cy_usb_dev.h **** * * The pointer to the allocated Audio Class context structure \ref cy_stc_usb_dev_audio_context_t.
  97:Generated_Source\PSoC6\pdl\middleware\usb_dev/cy_usb_dev.h **** * * The pointer to the allocated USB Device context structure \ref cy_stc_usb_dev_context_t.
  98:Generated_Source\PSoC6\pdl\middleware\usb_dev/cy_usb_dev.h **** *
  99:Generated_Source\PSoC6\pdl\middleware\usb_dev/cy_usb_dev.h **** * To initialize the CDC Class, call \ref Cy_USB_Dev_CDC_Init function 
 100:Generated_Source\PSoC6\pdl\middleware\usb_dev/cy_usb_dev.h **** * providing: 
 101:Generated_Source\PSoC6\pdl\middleware\usb_dev/cy_usb_dev.h **** * * The pointer to the populated CDC Class configuration structure \ref cy_stc_usb_dev_cdc_config_t
 102:Generated_Source\PSoC6\pdl\middleware\usb_dev/cy_usb_dev.h **** * * The pointer to the allocated CDC Class context structure \ref cy_stc_usb_dev_cdc_context_t.
 103:Generated_Source\PSoC6\pdl\middleware\usb_dev/cy_usb_dev.h **** * * The pointer to the allocated USB Device context structure \ref cy_stc_usb_dev_context_t.
 104:Generated_Source\PSoC6\pdl\middleware\usb_dev/cy_usb_dev.h **** *
 105:Generated_Source\PSoC6\pdl\middleware\usb_dev/cy_usb_dev.h **** * To initialize the HID Class, call \ref Cy_USB_Dev_HID_Init function 
 106:Generated_Source\PSoC6\pdl\middleware\usb_dev/cy_usb_dev.h **** * providing: 
 107:Generated_Source\PSoC6\pdl\middleware\usb_dev/cy_usb_dev.h **** * * The pointer to the populated HID Class configuration structure \ref cy_stc_usb_dev_hid_config_t
 108:Generated_Source\PSoC6\pdl\middleware\usb_dev/cy_usb_dev.h **** * * The pointer to the allocated HID Class context structure \ref cy_stc_usb_dev_hid_context_t.
 109:Generated_Source\PSoC6\pdl\middleware\usb_dev/cy_usb_dev.h **** * * The pointer to the allocated USB Device context structure \ref cy_stc_usb_dev_context_t.
 110:Generated_Source\PSoC6\pdl\middleware\usb_dev/cy_usb_dev.h **** *
ARM GAS  C:\Users\enes_\AppData\Local\Temp\cc1rwu0O.s 			page 30


 111:Generated_Source\PSoC6\pdl\middleware\usb_dev/cy_usb_dev.h **** ********************************************************************************
 112:Generated_Source\PSoC6\pdl\middleware\usb_dev/cy_usb_dev.h **** * \subsection group_usb_dev_config_enable Enable USB Device
 113:Generated_Source\PSoC6\pdl\middleware\usb_dev/cy_usb_dev.h **** ********************************************************************************
 114:Generated_Source\PSoC6\pdl\middleware\usb_dev/cy_usb_dev.h **** * 
 115:Generated_Source\PSoC6\pdl\middleware\usb_dev/cy_usb_dev.h **** * Finally, enable the USB Device operation calling \ref Cy_USB_Dev_Connect. 
 116:Generated_Source\PSoC6\pdl\middleware\usb_dev/cy_usb_dev.h **** * This function call enables pull-up on D+ to signal USB Device connection on USB Bus. 
 117:Generated_Source\PSoC6\pdl\middleware\usb_dev/cy_usb_dev.h **** * The USB Host detects device connection and starts device enumeration. 
 118:Generated_Source\PSoC6\pdl\middleware\usb_dev/cy_usb_dev.h **** * It requests the device descriptors to define device capabilities and finally 
 119:Generated_Source\PSoC6\pdl\middleware\usb_dev/cy_usb_dev.h **** * sets device configuration for the following operation. 
 120:Generated_Source\PSoC6\pdl\middleware\usb_dev/cy_usb_dev.h **** * The \ref Cy_USB_Dev_Connect provides an argument to block until enumeration 
 121:Generated_Source\PSoC6\pdl\middleware\usb_dev/cy_usb_dev.h **** * completes or exits after the USB Device is enabled.
 122:Generated_Source\PSoC6\pdl\middleware\usb_dev/cy_usb_dev.h **** *
 123:Generated_Source\PSoC6\pdl\middleware\usb_dev/cy_usb_dev.h **** * \snippet usb_dev/1.0/snippet/main.c snipped_Cy_USB_Dev_InitEnable
 124:Generated_Source\PSoC6\pdl\middleware\usb_dev/cy_usb_dev.h **** *
 125:Generated_Source\PSoC6\pdl\middleware\usb_dev/cy_usb_dev.h **** * \note 
 126:Generated_Source\PSoC6\pdl\middleware\usb_dev/cy_usb_dev.h **** * The interrupts are mandatory for the USB Device operation. Therefore, USBFS 
 127:Generated_Source\PSoC6\pdl\middleware\usb_dev/cy_usb_dev.h **** * interrupts must be enabled in the NVIC and global interrupts must be 
 128:Generated_Source\PSoC6\pdl\middleware\usb_dev/cy_usb_dev.h **** * enabled as well.
 129:Generated_Source\PSoC6\pdl\middleware\usb_dev/cy_usb_dev.h **** *
 130:Generated_Source\PSoC6\pdl\middleware\usb_dev/cy_usb_dev.h **** ********************************************************************************
 131:Generated_Source\PSoC6\pdl\middleware\usb_dev/cy_usb_dev.h **** * \section group_usb_dev_more_information More Information
 132:Generated_Source\PSoC6\pdl\middleware\usb_dev/cy_usb_dev.h **** ********************************************************************************
 133:Generated_Source\PSoC6\pdl\middleware\usb_dev/cy_usb_dev.h **** * 
 134:Generated_Source\PSoC6\pdl\middleware\usb_dev/cy_usb_dev.h **** * The structure of the USB Device is divided into the layers. The implementation 
 135:Generated_Source\PSoC6\pdl\middleware\usb_dev/cy_usb_dev.h **** * is event driven: the USBFS driver receives interrupts from the hardware and 
 136:Generated_Source\PSoC6\pdl\middleware\usb_dev/cy_usb_dev.h **** * provides callbacks to the USB Device layer which implements them and provides 
 137:Generated_Source\PSoC6\pdl\middleware\usb_dev/cy_usb_dev.h **** * events to the Class layer. The simplified image is shown below. \n \n
 138:Generated_Source\PSoC6\pdl\middleware\usb_dev/cy_usb_dev.h **** *
 139:Generated_Source\PSoC6\pdl\middleware\usb_dev/cy_usb_dev.h **** * The typical use case is that application calls the middleware API interface 
 140:Generated_Source\PSoC6\pdl\middleware\usb_dev/cy_usb_dev.h **** * provided by the USB Device or Class layer to implement application logic. 
 141:Generated_Source\PSoC6\pdl\middleware\usb_dev/cy_usb_dev.h **** * However, some features are provided only by the USBFS driver layer. Therefore, if 
 142:Generated_Source\PSoC6\pdl\middleware\usb_dev/cy_usb_dev.h **** * the application needs them, the driver API interface must be used. The list of 
 143:Generated_Source\PSoC6\pdl\middleware\usb_dev/cy_usb_dev.h **** * these features is provided in the section \ref group_usb_dev_drv_features.
 144:Generated_Source\PSoC6\pdl\middleware\usb_dev/cy_usb_dev.h **** *
 145:Generated_Source\PSoC6\pdl\middleware\usb_dev/cy_usb_dev.h **** * \image html usb_dev_solution_struct.png
 146:Generated_Source\PSoC6\pdl\middleware\usb_dev/cy_usb_dev.h **** *
 147:Generated_Source\PSoC6\pdl\middleware\usb_dev/cy_usb_dev.h **** ********************************************************************************
 148:Generated_Source\PSoC6\pdl\middleware\usb_dev/cy_usb_dev.h **** * \subsection group_usb_dev_cfg_tool USB Configurator
 149:Generated_Source\PSoC6\pdl\middleware\usb_dev/cy_usb_dev.h **** ********************************************************************************
 150:Generated_Source\PSoC6\pdl\middleware\usb_dev/cy_usb_dev.h **** *
 151:Generated_Source\PSoC6\pdl\middleware\usb_dev/cy_usb_dev.h **** * The standalone USB Configurator tool helps construct USB Device descriptors. 
 152:Generated_Source\PSoC6\pdl\middleware\usb_dev/cy_usb_dev.h **** * The USB device descriptors 
 153:Generated_Source\PSoC6\pdl\middleware\usb_dev/cy_usb_dev.h **** * provide to the USB Host complete information about the connected device. The tool 
 154:Generated_Source\PSoC6\pdl\middleware\usb_dev/cy_usb_dev.h **** * output are generated source and header files that contain information about the
 155:Generated_Source\PSoC6\pdl\middleware\usb_dev/cy_usb_dev.h **** * USB Device: device descriptors plus structures that help access device 
 156:Generated_Source\PSoC6\pdl\middleware\usb_dev/cy_usb_dev.h **** * descriptors. Generated files are mandatory for the middleware operation and must be 
 157:Generated_Source\PSoC6\pdl\middleware\usb_dev/cy_usb_dev.h **** * added to your project. The header file provides access to 
 158:Generated_Source\PSoC6\pdl\middleware\usb_dev/cy_usb_dev.h **** * instances of the USB Device configuration structure \ref cy_stc_usb_dev_config_t 
 159:Generated_Source\PSoC6\pdl\middleware\usb_dev/cy_usb_dev.h **** * and array of the USB Device structures \ref cy_stc_usb_dev_device_t. Both these 
 160:Generated_Source\PSoC6\pdl\middleware\usb_dev/cy_usb_dev.h **** * definitions are required for USB Device configuration. The tool also generates
 161:Generated_Source\PSoC6\pdl\middleware\usb_dev/cy_usb_dev.h **** * instances of configuration structures required for CDC and HID Class 
 162:Generated_Source\PSoC6\pdl\middleware\usb_dev/cy_usb_dev.h **** * configuration.
 163:Generated_Source\PSoC6\pdl\middleware\usb_dev/cy_usb_dev.h **** * 
 164:Generated_Source\PSoC6\pdl\middleware\usb_dev/cy_usb_dev.h **** * A detailed information about USB Descriptors is provided by the 
 165:Generated_Source\PSoC6\pdl\middleware\usb_dev/cy_usb_dev.h **** * [USB Specification](http://www.usb.org/developers/docs/usb20_docs/)
 166:Generated_Source\PSoC6\pdl\middleware\usb_dev/cy_usb_dev.h **** * 
 167:Generated_Source\PSoC6\pdl\middleware\usb_dev/cy_usb_dev.h **** * The USB Configurator tool provides the User Guide, which can be found  
ARM GAS  C:\Users\enes_\AppData\Local\Temp\cc1rwu0O.s 			page 31


 168:Generated_Source\PSoC6\pdl\middleware\usb_dev/cy_usb_dev.h **** * in the documentation.
 169:Generated_Source\PSoC6\pdl\middleware\usb_dev/cy_usb_dev.h **** *
 170:Generated_Source\PSoC6\pdl\middleware\usb_dev/cy_usb_dev.h **** ********************************************************************************
 171:Generated_Source\PSoC6\pdl\middleware\usb_dev/cy_usb_dev.h **** * \subsection group_usb_dev_std_requests Standard Request Support
 172:Generated_Source\PSoC6\pdl\middleware\usb_dev/cy_usb_dev.h **** ********************************************************************************
 173:Generated_Source\PSoC6\pdl\middleware\usb_dev/cy_usb_dev.h **** *
 174:Generated_Source\PSoC6\pdl\middleware\usb_dev/cy_usb_dev.h **** * The USB Device supports standard requests listed in the table below.
 175:Generated_Source\PSoC6\pdl\middleware\usb_dev/cy_usb_dev.h **** *
 176:Generated_Source\PSoC6\pdl\middleware\usb_dev/cy_usb_dev.h **** * <table class="doxtable">
 177:Generated_Source\PSoC6\pdl\middleware\usb_dev/cy_usb_dev.h **** *   <tr><th>Standard Request</th><th>Request Processing Description</th><th>USB Spec Reference</th>
 178:Generated_Source\PSoC6\pdl\middleware\usb_dev/cy_usb_dev.h **** *   <tr>
 179:Generated_Source\PSoC6\pdl\middleware\usb_dev/cy_usb_dev.h **** *     <td>CLEAR_FEATURE</td>
 180:Generated_Source\PSoC6\pdl\middleware\usb_dev/cy_usb_dev.h **** *     <td>Clears or disables a specific feature. Support recipients: Device, 
 181:Generated_Source\PSoC6\pdl\middleware\usb_dev/cy_usb_dev.h **** *     Interface and Endpoint. The TEST_MODE feature selector is not supported.</td>
 182:Generated_Source\PSoC6\pdl\middleware\usb_dev/cy_usb_dev.h **** *     <td>9.4.1</td>
 183:Generated_Source\PSoC6\pdl\middleware\usb_dev/cy_usb_dev.h **** *   </tr>
 184:Generated_Source\PSoC6\pdl\middleware\usb_dev/cy_usb_dev.h **** *   <tr>
 185:Generated_Source\PSoC6\pdl\middleware\usb_dev/cy_usb_dev.h **** *     <td>GET_CONFIGURATION</td>
 186:Generated_Source\PSoC6\pdl\middleware\usb_dev/cy_usb_dev.h **** *     <td>Returns the current device configuration value.</td>
 187:Generated_Source\PSoC6\pdl\middleware\usb_dev/cy_usb_dev.h **** *     <td>9.4.2</td>
 188:Generated_Source\PSoC6\pdl\middleware\usb_dev/cy_usb_dev.h **** *   </tr>
 189:Generated_Source\PSoC6\pdl\middleware\usb_dev/cy_usb_dev.h **** *   <tr>
 190:Generated_Source\PSoC6\pdl\middleware\usb_dev/cy_usb_dev.h **** *     <td>GET_DESCRIPTOR</td>
 191:Generated_Source\PSoC6\pdl\middleware\usb_dev/cy_usb_dev.h **** *     <td>Returns the specified descriptor if the descriptor exists.</td>
 192:Generated_Source\PSoC6\pdl\middleware\usb_dev/cy_usb_dev.h **** *     <td>9.4.3</td>
 193:Generated_Source\PSoC6\pdl\middleware\usb_dev/cy_usb_dev.h **** *   </tr>
 194:Generated_Source\PSoC6\pdl\middleware\usb_dev/cy_usb_dev.h **** *   <tr>
 195:Generated_Source\PSoC6\pdl\middleware\usb_dev/cy_usb_dev.h **** *     <td>GET_INTERFACE</td>
 196:Generated_Source\PSoC6\pdl\middleware\usb_dev/cy_usb_dev.h **** *     <td>Returns the selected alternate interface setting for the specified 
 197:Generated_Source\PSoC6\pdl\middleware\usb_dev/cy_usb_dev.h **** *     interface.</td>
 198:Generated_Source\PSoC6\pdl\middleware\usb_dev/cy_usb_dev.h **** *     <td>9.4.4</td>
 199:Generated_Source\PSoC6\pdl\middleware\usb_dev/cy_usb_dev.h **** *   </tr>
 200:Generated_Source\PSoC6\pdl\middleware\usb_dev/cy_usb_dev.h **** *   <tr>
 201:Generated_Source\PSoC6\pdl\middleware\usb_dev/cy_usb_dev.h **** *     <td>GET_STATUS</td>
 202:Generated_Source\PSoC6\pdl\middleware\usb_dev/cy_usb_dev.h **** *     <td>Returns status for the specified recipient. Support recipients: 
 203:Generated_Source\PSoC6\pdl\middleware\usb_dev/cy_usb_dev.h **** *     Device, Interface, and Endpoint.</td>
 204:Generated_Source\PSoC6\pdl\middleware\usb_dev/cy_usb_dev.h **** *     <td>9.4.5</td>
 205:Generated_Source\PSoC6\pdl\middleware\usb_dev/cy_usb_dev.h **** *   </tr>
 206:Generated_Source\PSoC6\pdl\middleware\usb_dev/cy_usb_dev.h **** *   <tr>
 207:Generated_Source\PSoC6\pdl\middleware\usb_dev/cy_usb_dev.h **** *     <td>SET_ADDRESS</td>
 208:Generated_Source\PSoC6\pdl\middleware\usb_dev/cy_usb_dev.h **** *     <td>Sets the device address for all future device accesses.</td>
 209:Generated_Source\PSoC6\pdl\middleware\usb_dev/cy_usb_dev.h **** *     <td>9.4.6</td>
 210:Generated_Source\PSoC6\pdl\middleware\usb_dev/cy_usb_dev.h **** *   </tr>
 211:Generated_Source\PSoC6\pdl\middleware\usb_dev/cy_usb_dev.h **** *   <tr>
 212:Generated_Source\PSoC6\pdl\middleware\usb_dev/cy_usb_dev.h **** *     <td>SET_CONFIGURATION</td>
 213:Generated_Source\PSoC6\pdl\middleware\usb_dev/cy_usb_dev.h **** *     <td>Sets the device configuration. After this request, the device is ready for 
 214:Generated_Source\PSoC6\pdl\middleware\usb_dev/cy_usb_dev.h **** *      communication.</td>
 215:Generated_Source\PSoC6\pdl\middleware\usb_dev/cy_usb_dev.h **** *     <td>9.4.7</td>
 216:Generated_Source\PSoC6\pdl\middleware\usb_dev/cy_usb_dev.h **** *   </tr>
 217:Generated_Source\PSoC6\pdl\middleware\usb_dev/cy_usb_dev.h **** *   <tr>
 218:Generated_Source\PSoC6\pdl\middleware\usb_dev/cy_usb_dev.h **** *     <td>SET_DESCRIPTOR</td>
 219:Generated_Source\PSoC6\pdl\middleware\usb_dev/cy_usb_dev.h **** *     <td>Not supported (optional request).</td>
 220:Generated_Source\PSoC6\pdl\middleware\usb_dev/cy_usb_dev.h **** *     <td>9.4.8</td>
 221:Generated_Source\PSoC6\pdl\middleware\usb_dev/cy_usb_dev.h **** *   </tr>
 222:Generated_Source\PSoC6\pdl\middleware\usb_dev/cy_usb_dev.h **** *   <tr>
 223:Generated_Source\PSoC6\pdl\middleware\usb_dev/cy_usb_dev.h **** *     <td>SET_FEATURE</td>
 224:Generated_Source\PSoC6\pdl\middleware\usb_dev/cy_usb_dev.h **** *     <td>Enables a specific feature. Support recipients: Device, Interface, and Endpoint.
ARM GAS  C:\Users\enes_\AppData\Local\Temp\cc1rwu0O.s 			page 32


 225:Generated_Source\PSoC6\pdl\middleware\usb_dev/cy_usb_dev.h **** *     The TEST_MODE feature selector is not supported.</td>
 226:Generated_Source\PSoC6\pdl\middleware\usb_dev/cy_usb_dev.h **** *     <td>9.4.9</td>
 227:Generated_Source\PSoC6\pdl\middleware\usb_dev/cy_usb_dev.h **** *   </tr>
 228:Generated_Source\PSoC6\pdl\middleware\usb_dev/cy_usb_dev.h **** *   <tr>
 229:Generated_Source\PSoC6\pdl\middleware\usb_dev/cy_usb_dev.h **** *     <td>SET_INTERFACE</td>
 230:Generated_Source\PSoC6\pdl\middleware\usb_dev/cy_usb_dev.h **** *     <td>Allows the USB Host to select an alternate setting for the specified 
 231:Generated_Source\PSoC6\pdl\middleware\usb_dev/cy_usb_dev.h **** *     interface.</td>
 232:Generated_Source\PSoC6\pdl\middleware\usb_dev/cy_usb_dev.h **** *     <td>9.4.10</td>
 233:Generated_Source\PSoC6\pdl\middleware\usb_dev/cy_usb_dev.h **** *   </tr>
 234:Generated_Source\PSoC6\pdl\middleware\usb_dev/cy_usb_dev.h **** *   <tr>
 235:Generated_Source\PSoC6\pdl\middleware\usb_dev/cy_usb_dev.h **** *     <td>SYNCH_FRAME</td>
 236:Generated_Source\PSoC6\pdl\middleware\usb_dev/cy_usb_dev.h **** *     <td>Not supported.</td>
 237:Generated_Source\PSoC6\pdl\middleware\usb_dev/cy_usb_dev.h **** *     <td>9.4.11</td>
 238:Generated_Source\PSoC6\pdl\middleware\usb_dev/cy_usb_dev.h **** *   </tr>
 239:Generated_Source\PSoC6\pdl\middleware\usb_dev/cy_usb_dev.h **** * </table>
 240:Generated_Source\PSoC6\pdl\middleware\usb_dev/cy_usb_dev.h **** *
 241:Generated_Source\PSoC6\pdl\middleware\usb_dev/cy_usb_dev.h **** ********************************************************************************
 242:Generated_Source\PSoC6\pdl\middleware\usb_dev/cy_usb_dev.h **** * \subsection group_usb_dev_audio_class_info Audio Class
 243:Generated_Source\PSoC6\pdl\middleware\usb_dev/cy_usb_dev.h **** ********************************************************************************
 244:Generated_Source\PSoC6\pdl\middleware\usb_dev/cy_usb_dev.h **** *
 245:Generated_Source\PSoC6\pdl\middleware\usb_dev/cy_usb_dev.h **** * The USB Audio class can be used in a large amount of applications, 
 246:Generated_Source\PSoC6\pdl\middleware\usb_dev/cy_usb_dev.h **** * either Made for iPod (MFI) or general USB Audio based. These applications 
 247:Generated_Source\PSoC6\pdl\middleware\usb_dev/cy_usb_dev.h **** * consist of, but are not limited to, speakers, microphones, headsets, music 
 248:Generated_Source\PSoC6\pdl\middleware\usb_dev/cy_usb_dev.h **** * creation tools (DJ equipment, guitar jacks, etc), and mixers.
 249:Generated_Source\PSoC6\pdl\middleware\usb_dev/cy_usb_dev.h **** * An additional application for the Audio class is in Musical Instrument 
 250:Generated_Source\PSoC6\pdl\middleware\usb_dev/cy_usb_dev.h **** * Digital Interface (MIDI) applications. This interface uses a digital UART-like 
 251:Generated_Source\PSoC6\pdl\middleware\usb_dev/cy_usb_dev.h **** * interface and allows the information to be sent across to the Host to 
 252:Generated_Source\PSoC6\pdl\middleware\usb_dev/cy_usb_dev.h **** * be used with software applications, such as Apple Garage Band. Various 
 253:Generated_Source\PSoC6\pdl\middleware\usb_dev/cy_usb_dev.h **** * instruments, such as electronic pianos, interface with MIDI.
 254:Generated_Source\PSoC6\pdl\middleware\usb_dev/cy_usb_dev.h **** *
 255:Generated_Source\PSoC6\pdl\middleware\usb_dev/cy_usb_dev.h **** * A detailed description about Audio Class is provided by the 
 256:Generated_Source\PSoC6\pdl\middleware\usb_dev/cy_usb_dev.h **** * [USB Implementers Forum (USB-IF) Class Documentation] 
 257:Generated_Source\PSoC6\pdl\middleware\usb_dev/cy_usb_dev.h **** * (http://www.usb.org/developers/docs/devclass_docs/)
 258:Generated_Source\PSoC6\pdl\middleware\usb_dev/cy_usb_dev.h **** *
 259:Generated_Source\PSoC6\pdl\middleware\usb_dev/cy_usb_dev.h **** * The Audio Class does not provide support any of Audio v1.0 or v2.0 requests 
 260:Generated_Source\PSoC6\pdl\middleware\usb_dev/cy_usb_dev.h **** * processing and provides only the API interface to register Audio request handlers
 261:Generated_Source\PSoC6\pdl\middleware\usb_dev/cy_usb_dev.h **** * implemented on the application level. However, \ref group_usb_dev_cfg_tool 
 262:Generated_Source\PSoC6\pdl\middleware\usb_dev/cy_usb_dev.h **** * supports Audio v1.0 or v2.0 descriptors.
 263:Generated_Source\PSoC6\pdl\middleware\usb_dev/cy_usb_dev.h **** *
 264:Generated_Source\PSoC6\pdl\middleware\usb_dev/cy_usb_dev.h **** * \note
 265:Generated_Source\PSoC6\pdl\middleware\usb_dev/cy_usb_dev.h **** * The MIDI Class support is not available in this version.
 266:Generated_Source\PSoC6\pdl\middleware\usb_dev/cy_usb_dev.h **** *
 267:Generated_Source\PSoC6\pdl\middleware\usb_dev/cy_usb_dev.h **** ********************************************************************************
 268:Generated_Source\PSoC6\pdl\middleware\usb_dev/cy_usb_dev.h **** * \subsection group_usb_dev_cdc_class_info CDC: Communication Device Class
 269:Generated_Source\PSoC6\pdl\middleware\usb_dev/cy_usb_dev.h **** ********************************************************************************
 270:Generated_Source\PSoC6\pdl\middleware\usb_dev/cy_usb_dev.h **** *
 271:Generated_Source\PSoC6\pdl\middleware\usb_dev/cy_usb_dev.h **** * Common use case for this class in a PSoC design is to replace a legacy serial
 272:Generated_Source\PSoC6\pdl\middleware\usb_dev/cy_usb_dev.h **** * (RS232) COM port with a USB connection. This allows customers to use 
 273:Generated_Source\PSoC6\pdl\middleware\usb_dev/cy_usb_dev.h **** * legacy serial software while updating the communication interface to 
 274:Generated_Source\PSoC6\pdl\middleware\usb_dev/cy_usb_dev.h **** * something more readily available on today's computers. The type of data 
 275:Generated_Source\PSoC6\pdl\middleware\usb_dev/cy_usb_dev.h **** * that might be streamed across USB can vary depending on the end application. 
 276:Generated_Source\PSoC6\pdl\middleware\usb_dev/cy_usb_dev.h **** * This could be as simple as streaming raw ADC counts to an entire command 
 277:Generated_Source\PSoC6\pdl\middleware\usb_dev/cy_usb_dev.h **** * protocol. Additionally, CDC is extremely useful for debug purposes. 
 278:Generated_Source\PSoC6\pdl\middleware\usb_dev/cy_usb_dev.h **** * Users can easily develop a USB interface that can send and receive 
 279:Generated_Source\PSoC6\pdl\middleware\usb_dev/cy_usb_dev.h **** * information across CDC. On the Host side, GUI applications are widely 
 280:Generated_Source\PSoC6\pdl\middleware\usb_dev/cy_usb_dev.h **** * available to view the data being transmitted, such as TeraTerm, Terminal, 
 281:Generated_Source\PSoC6\pdl\middleware\usb_dev/cy_usb_dev.h **** * or Hyper-Terminal (depending on version of Microsoft Windows).
ARM GAS  C:\Users\enes_\AppData\Local\Temp\cc1rwu0O.s 			page 33


 282:Generated_Source\PSoC6\pdl\middleware\usb_dev/cy_usb_dev.h **** *
 283:Generated_Source\PSoC6\pdl\middleware\usb_dev/cy_usb_dev.h **** * A detailed description about CDC class is provided by the 
 284:Generated_Source\PSoC6\pdl\middleware\usb_dev/cy_usb_dev.h **** * [USB Implementers Forum (USB-IF) Class Documentation] 
 285:Generated_Source\PSoC6\pdl\middleware\usb_dev/cy_usb_dev.h **** * (http://www.usb.org/developers/docs/devclass_docs/) 
 286:Generated_Source\PSoC6\pdl\middleware\usb_dev/cy_usb_dev.h **** *
 287:Generated_Source\PSoC6\pdl\middleware\usb_dev/cy_usb_dev.h **** * The CDC Class supports requests listed in the table below.
 288:Generated_Source\PSoC6\pdl\middleware\usb_dev/cy_usb_dev.h **** * <table class="doxtable">
 289:Generated_Source\PSoC6\pdl\middleware\usb_dev/cy_usb_dev.h **** *   <tr><th>Class Request</th><th>Request Processing Description</th><th>Communications Class Subcl
 290:Generated_Source\PSoC6\pdl\middleware\usb_dev/cy_usb_dev.h **** *   <tr>
 291:Generated_Source\PSoC6\pdl\middleware\usb_dev/cy_usb_dev.h **** *     <td>SET_LINE_CODING</td>
 292:Generated_Source\PSoC6\pdl\middleware\usb_dev/cy_usb_dev.h **** *     <td>Allows the host to specify typical asynchronous line-character 
 293:Generated_Source\PSoC6\pdl\middleware\usb_dev/cy_usb_dev.h **** *      formatting properties such as: data terminal rate, number of stop bits, 
 294:Generated_Source\PSoC6\pdl\middleware\usb_dev/cy_usb_dev.h **** *      parity type and number of data bits. It applies to data transfers both 
 295:Generated_Source\PSoC6\pdl\middleware\usb_dev/cy_usb_dev.h **** *      from the Host to the Device and from the Device to the Host.</td>
 296:Generated_Source\PSoC6\pdl\middleware\usb_dev/cy_usb_dev.h **** *     <td>6.3.10</td>
 297:Generated_Source\PSoC6\pdl\middleware\usb_dev/cy_usb_dev.h **** *   </tr>
 298:Generated_Source\PSoC6\pdl\middleware\usb_dev/cy_usb_dev.h **** *   <tr>
 299:Generated_Source\PSoC6\pdl\middleware\usb_dev/cy_usb_dev.h **** *     <td>GET_LINE_CODING</td>
 300:Generated_Source\PSoC6\pdl\middleware\usb_dev/cy_usb_dev.h **** *     <td>Allows the host to discover the currently configured line coding.</td>
 301:Generated_Source\PSoC6\pdl\middleware\usb_dev/cy_usb_dev.h **** *     <td>6.3.11</td>
 302:Generated_Source\PSoC6\pdl\middleware\usb_dev/cy_usb_dev.h **** *   </tr>
 303:Generated_Source\PSoC6\pdl\middleware\usb_dev/cy_usb_dev.h **** *   <tr>
 304:Generated_Source\PSoC6\pdl\middleware\usb_dev/cy_usb_dev.h **** *     <td>SET_CONTROL_LINE_STATE</td>
 305:Generated_Source\PSoC6\pdl\middleware\usb_dev/cy_usb_dev.h **** *     <td>Generates RS-232/V.24 style control signals - RTS and DTR.</td>
 306:Generated_Source\PSoC6\pdl\middleware\usb_dev/cy_usb_dev.h **** *     <td>6.3.12</td>
 307:Generated_Source\PSoC6\pdl\middleware\usb_dev/cy_usb_dev.h **** *   </tr>
 308:Generated_Source\PSoC6\pdl\middleware\usb_dev/cy_usb_dev.h **** * </table>
 309:Generated_Source\PSoC6\pdl\middleware\usb_dev/cy_usb_dev.h **** *
 310:Generated_Source\PSoC6\pdl\middleware\usb_dev/cy_usb_dev.h **** * The CDC Class supports notifications listed in the table below.
 311:Generated_Source\PSoC6\pdl\middleware\usb_dev/cy_usb_dev.h **** * <table class="doxtable">
 312:Generated_Source\PSoC6\pdl\middleware\usb_dev/cy_usb_dev.h **** *   <tr><th>Class Notification</th><th>Notification Processing Description</th><th>Communications C
 313:Generated_Source\PSoC6\pdl\middleware\usb_dev/cy_usb_dev.h **** *   <tr>
 314:Generated_Source\PSoC6\pdl\middleware\usb_dev/cy_usb_dev.h **** *     <td>SERIAL_STATE</td>
 315:Generated_Source\PSoC6\pdl\middleware\usb_dev/cy_usb_dev.h **** *     <td>Allows the Host to read the current state of the carrier detect (CD), 
 316:Generated_Source\PSoC6\pdl\middleware\usb_dev/cy_usb_dev.h **** *      DSR, break, and ring signal (RI).</td>
 317:Generated_Source\PSoC6\pdl\middleware\usb_dev/cy_usb_dev.h **** *     <td>6.3.4</td>
 318:Generated_Source\PSoC6\pdl\middleware\usb_dev/cy_usb_dev.h **** *   </tr>
 319:Generated_Source\PSoC6\pdl\middleware\usb_dev/cy_usb_dev.h **** * </table>
 320:Generated_Source\PSoC6\pdl\middleware\usb_dev/cy_usb_dev.h **** *
 321:Generated_Source\PSoC6\pdl\middleware\usb_dev/cy_usb_dev.h **** ********************************************************************************
 322:Generated_Source\PSoC6\pdl\middleware\usb_dev/cy_usb_dev.h **** * \subsection group_usb_dev_hid_class_info HID: Human Interface Device
 323:Generated_Source\PSoC6\pdl\middleware\usb_dev/cy_usb_dev.h **** ********************************************************************************
 324:Generated_Source\PSoC6\pdl\middleware\usb_dev/cy_usb_dev.h **** *
 325:Generated_Source\PSoC6\pdl\middleware\usb_dev/cy_usb_dev.h **** * There are many possible use cases for HID depending on the end application. 
 326:Generated_Source\PSoC6\pdl\middleware\usb_dev/cy_usb_dev.h **** * A keyboard/keypad is a common HID application that has been implemented 
 327:Generated_Source\PSoC6\pdl\middleware\usb_dev/cy_usb_dev.h **** * previously with PSoC. Additionally, customers can use PSoC to implement a 
 328:Generated_Source\PSoC6\pdl\middleware\usb_dev/cy_usb_dev.h **** * PC mouse or game controller device. A more generic use case seen is with 
 329:Generated_Source\PSoC6\pdl\middleware\usb_dev/cy_usb_dev.h **** * regards to customers using USB as general-purpose interface between PSoC and 
 330:Generated_Source\PSoC6\pdl\middleware\usb_dev/cy_usb_dev.h **** * the Host, without conforming to specific USAGE such as a Keyboard, Mouse, etc.
 331:Generated_Source\PSoC6\pdl\middleware\usb_dev/cy_usb_dev.h **** * Instead the user configures the HID descriptor to be a generic device, which 
 332:Generated_Source\PSoC6\pdl\middleware\usb_dev/cy_usb_dev.h **** * allows them to transfer Vendor-Specific information, such as ADC data, 
 333:Generated_Source\PSoC6\pdl\middleware\usb_dev/cy_usb_dev.h **** * button presses, etc., across the HID protocol. This allows customers to 
 334:Generated_Source\PSoC6\pdl\middleware\usb_dev/cy_usb_dev.h **** * perform custom/generic data transfers over USB, without needing to provide 
 335:Generated_Source\PSoC6\pdl\middleware\usb_dev/cy_usb_dev.h **** * an INF or SYS file during enumeration or worry about WHQL certification. 
 336:Generated_Source\PSoC6\pdl\middleware\usb_dev/cy_usb_dev.h **** * All this is accomplished using the HID drivers that are built into all 
 337:Generated_Source\PSoC6\pdl\middleware\usb_dev/cy_usb_dev.h **** * modern operation systems today. This includes Windows, Mac, and Linux.
 338:Generated_Source\PSoC6\pdl\middleware\usb_dev/cy_usb_dev.h **** *
ARM GAS  C:\Users\enes_\AppData\Local\Temp\cc1rwu0O.s 			page 34


 339:Generated_Source\PSoC6\pdl\middleware\usb_dev/cy_usb_dev.h **** * A detailed description about HID is provided by the 
 340:Generated_Source\PSoC6\pdl\middleware\usb_dev/cy_usb_dev.h **** * [USB Implementers Forum (USB-IF) Class Documentation]
 341:Generated_Source\PSoC6\pdl\middleware\usb_dev/cy_usb_dev.h **** * (http://www.usb.org/developers/docs/devclass_docs/)
 342:Generated_Source\PSoC6\pdl\middleware\usb_dev/cy_usb_dev.h **** *
 343:Generated_Source\PSoC6\pdl\middleware\usb_dev/cy_usb_dev.h **** * The HID Class supports requests listed in the table below.
 344:Generated_Source\PSoC6\pdl\middleware\usb_dev/cy_usb_dev.h **** * <table class="doxtable">
 345:Generated_Source\PSoC6\pdl\middleware\usb_dev/cy_usb_dev.h **** *   <tr><th>Class Request</th><th>Request Processing Description</th><th>HID Spec Reference</th></t
 346:Generated_Source\PSoC6\pdl\middleware\usb_dev/cy_usb_dev.h **** *   <tr>
 347:Generated_Source\PSoC6\pdl\middleware\usb_dev/cy_usb_dev.h **** *     <td>GET_REPORT</td>
 348:Generated_Source\PSoC6\pdl\middleware\usb_dev/cy_usb_dev.h **** *     <td>Allows the USB Host to receive a report via the control pipe.</td>
 349:Generated_Source\PSoC6\pdl\middleware\usb_dev/cy_usb_dev.h **** *     <td>7.2.1</td>
 350:Generated_Source\PSoC6\pdl\middleware\usb_dev/cy_usb_dev.h **** *   </tr>
 351:Generated_Source\PSoC6\pdl\middleware\usb_dev/cy_usb_dev.h **** *   <tr>
 352:Generated_Source\PSoC6\pdl\middleware\usb_dev/cy_usb_dev.h **** *     <td>SET_REPORT</td>
 353:Generated_Source\PSoC6\pdl\middleware\usb_dev/cy_usb_dev.h **** *     <td>Allows the USB Host to send a report via the control pipe (set a 
 354:Generated_Source\PSoC6\pdl\middleware\usb_dev/cy_usb_dev.h **** *         state of input, output, or feature report controls).</td>
 355:Generated_Source\PSoC6\pdl\middleware\usb_dev/cy_usb_dev.h **** *     <td>7.2.2</td>
 356:Generated_Source\PSoC6\pdl\middleware\usb_dev/cy_usb_dev.h **** *   </tr>
 357:Generated_Source\PSoC6\pdl\middleware\usb_dev/cy_usb_dev.h **** *   <tr>
 358:Generated_Source\PSoC6\pdl\middleware\usb_dev/cy_usb_dev.h **** *     <td>GET_IDLE</td>
 359:Generated_Source\PSoC6\pdl\middleware\usb_dev/cy_usb_dev.h **** *     <td>Reads the current idle rate for a particular Input report. \n
 360:Generated_Source\PSoC6\pdl\middleware\usb_dev/cy_usb_dev.h **** *      The recommended default idle rate (rate when the device is initialized) 
 361:Generated_Source\PSoC6\pdl\middleware\usb_dev/cy_usb_dev.h **** *      is 500 milliseconds for keyboards (delay before first repeat rate) and 
 362:Generated_Source\PSoC6\pdl\middleware\usb_dev/cy_usb_dev.h **** *      infinity for joysticks and mice.</td>
 363:Generated_Source\PSoC6\pdl\middleware\usb_dev/cy_usb_dev.h **** *     <td>7.2.3</td>
 364:Generated_Source\PSoC6\pdl\middleware\usb_dev/cy_usb_dev.h **** *   </tr>
 365:Generated_Source\PSoC6\pdl\middleware\usb_dev/cy_usb_dev.h **** *   <tr>
 366:Generated_Source\PSoC6\pdl\middleware\usb_dev/cy_usb_dev.h **** *     <td>SET_IDLE</td>
 367:Generated_Source\PSoC6\pdl\middleware\usb_dev/cy_usb_dev.h **** *     <td>Sets idle rate for a particular report. This request is used to limit 
 368:Generated_Source\PSoC6\pdl\middleware\usb_dev/cy_usb_dev.h **** *      the reporting frequency of an interrupt in endpoint.\n
 369:Generated_Source\PSoC6\pdl\middleware\usb_dev/cy_usb_dev.h **** *      When the idle rate byte is 0 (zero), the duration is indefinite.
 370:Generated_Source\PSoC6\pdl\middleware\usb_dev/cy_usb_dev.h **** *      The endpoint reports only when a change is detected in the report data.
 371:Generated_Source\PSoC6\pdl\middleware\usb_dev/cy_usb_dev.h **** *      When the idle rate byte is non-zero, then a fixed duration is
 372:Generated_Source\PSoC6\pdl\middleware\usb_dev/cy_usb_dev.h **** *      used (defined by idle rate).</td>
 373:Generated_Source\PSoC6\pdl\middleware\usb_dev/cy_usb_dev.h **** *     <td>7.2.4</td>
 374:Generated_Source\PSoC6\pdl\middleware\usb_dev/cy_usb_dev.h **** *   </tr>
 375:Generated_Source\PSoC6\pdl\middleware\usb_dev/cy_usb_dev.h **** *   <tr>
 376:Generated_Source\PSoC6\pdl\middleware\usb_dev/cy_usb_dev.h **** *     <td>GET_PROTOCOL</td>
 377:Generated_Source\PSoC6\pdl\middleware\usb_dev/cy_usb_dev.h **** *     <td>Reads which protocol is currently active (either the boot or the 
 378:Generated_Source\PSoC6\pdl\middleware\usb_dev/cy_usb_dev.h **** *         report protocol).</td>
 379:Generated_Source\PSoC6\pdl\middleware\usb_dev/cy_usb_dev.h **** *     <td>7.2.5</td>
 380:Generated_Source\PSoC6\pdl\middleware\usb_dev/cy_usb_dev.h **** *   </tr>
 381:Generated_Source\PSoC6\pdl\middleware\usb_dev/cy_usb_dev.h **** *   <tr>
 382:Generated_Source\PSoC6\pdl\middleware\usb_dev/cy_usb_dev.h **** *     <td>SET_PROTOCOL</td>
 383:Generated_Source\PSoC6\pdl\middleware\usb_dev/cy_usb_dev.h **** *     <td>Switches between the boot protocol and the report protocol (or vice versa).</td>
 384:Generated_Source\PSoC6\pdl\middleware\usb_dev/cy_usb_dev.h **** *     <td>7.2.6</td>
 385:Generated_Source\PSoC6\pdl\middleware\usb_dev/cy_usb_dev.h **** *   </tr>
 386:Generated_Source\PSoC6\pdl\middleware\usb_dev/cy_usb_dev.h **** * </table>
 387:Generated_Source\PSoC6\pdl\middleware\usb_dev/cy_usb_dev.h **** *
 388:Generated_Source\PSoC6\pdl\middleware\usb_dev/cy_usb_dev.h **** ********************************************************************************
 389:Generated_Source\PSoC6\pdl\middleware\usb_dev/cy_usb_dev.h **** * \subsection group_usb_dev_class_x Adding Custom Class
 390:Generated_Source\PSoC6\pdl\middleware\usb_dev/cy_usb_dev.h **** ********************************************************************************
 391:Generated_Source\PSoC6\pdl\middleware\usb_dev/cy_usb_dev.h **** *
 392:Generated_Source\PSoC6\pdl\middleware\usb_dev/cy_usb_dev.h **** * The USB Device middleware provides API interface that allows the user to 
 393:Generated_Source\PSoC6\pdl\middleware\usb_dev/cy_usb_dev.h **** * implement custom class support. The middleware notifies registered class about 
 394:Generated_Source\PSoC6\pdl\middleware\usb_dev/cy_usb_dev.h **** * following events:
 395:Generated_Source\PSoC6\pdl\middleware\usb_dev/cy_usb_dev.h **** * * Bus Reset detected ( \ref cy_cb_usb_dev_bus_reset_t ).
ARM GAS  C:\Users\enes_\AppData\Local\Temp\cc1rwu0O.s 			page 35


 396:Generated_Source\PSoC6\pdl\middleware\usb_dev/cy_usb_dev.h **** * * Set Configuration request received ( \ref cy_cb_usb_dev_set_config_t ).
 397:Generated_Source\PSoC6\pdl\middleware\usb_dev/cy_usb_dev.h **** * * Set Interface request received ( \ref cy_cb_usb_dev_set_interface_t ).
 398:Generated_Source\PSoC6\pdl\middleware\usb_dev/cy_usb_dev.h **** * * Setup packet received ( \ref cy_cb_usb_dev_request_received_t ).
 399:Generated_Source\PSoC6\pdl\middleware\usb_dev/cy_usb_dev.h **** * * Data is received in response for current setup packet ( \ref cy_cb_usb_dev_request_cmplt_t ).
 400:Generated_Source\PSoC6\pdl\middleware\usb_dev/cy_usb_dev.h **** *
 401:Generated_Source\PSoC6\pdl\middleware\usb_dev/cy_usb_dev.h **** * To create a new custom Class, follow the steps below:
 402:Generated_Source\PSoC6\pdl\middleware\usb_dev/cy_usb_dev.h **** * 1. Implement functions to service events (from the list above) required 
 403:Generated_Source\PSoC6\pdl\middleware\usb_dev/cy_usb_dev.h **** *    for class operation. Typically, class should implement service of class-specific
 404:Generated_Source\PSoC6\pdl\middleware\usb_dev/cy_usb_dev.h **** *    requests therefore needs to implement functions defined by \ref cy_cb_usb_dev_request_received
 405:Generated_Source\PSoC6\pdl\middleware\usb_dev/cy_usb_dev.h **** *    and \ref cy_cb_usb_dev_request_cmplt_t.
 406:Generated_Source\PSoC6\pdl\middleware\usb_dev/cy_usb_dev.h **** * 2. Initialize instance of \ref cy_stc_usb_dev_class_t structure using implemented 
 407:Generated_Source\PSoC6\pdl\middleware\usb_dev/cy_usb_dev.h **** *    service functions. Provide NULL pointer as function pointer if class does not 
 408:Generated_Source\PSoC6\pdl\middleware\usb_dev/cy_usb_dev.h **** *    use this event.
 409:Generated_Source\PSoC6\pdl\middleware\usb_dev/cy_usb_dev.h **** * 3. Allocate instance of \ref cy_stc_usb_dev_class_ll_item_t structure to 
 410:Generated_Source\PSoC6\pdl\middleware\usb_dev/cy_usb_dev.h **** *    provide storage for a linked list item of the class.
 411:Generated_Source\PSoC6\pdl\middleware\usb_dev/cy_usb_dev.h **** * 4. The class might need a context to store class-specific data. If needed,
 412:Generated_Source\PSoC6\pdl\middleware\usb_dev/cy_usb_dev.h **** *    define context type specific for this class and allocate it.
 413:Generated_Source\PSoC6\pdl\middleware\usb_dev/cy_usb_dev.h **** * 5. To enable class operation, this needs to be registered using 
 414:Generated_Source\PSoC6\pdl\middleware\usb_dev/cy_usb_dev.h **** *    \ref Cy_USB_Dev_RegisterClass function after USB Device middleware is 
 415:Generated_Source\PSoC6\pdl\middleware\usb_dev/cy_usb_dev.h **** *    initialized.
 416:Generated_Source\PSoC6\pdl\middleware\usb_dev/cy_usb_dev.h **** *
 417:Generated_Source\PSoC6\pdl\middleware\usb_dev/cy_usb_dev.h **** * Any of supported classes can be taken as an example to implement a custom class.
 418:Generated_Source\PSoC6\pdl\middleware\usb_dev/cy_usb_dev.h **** * 
 419:Generated_Source\PSoC6\pdl\middleware\usb_dev/cy_usb_dev.h **** ********************************************************************************
 420:Generated_Source\PSoC6\pdl\middleware\usb_dev/cy_usb_dev.h **** * \subsection group_usb_dev_vendor Vendor-Specific Requests Support
 421:Generated_Source\PSoC6\pdl\middleware\usb_dev/cy_usb_dev.h **** ********************************************************************************
 422:Generated_Source\PSoC6\pdl\middleware\usb_dev/cy_usb_dev.h **** *
 423:Generated_Source\PSoC6\pdl\middleware\usb_dev/cy_usb_dev.h **** * The vendor-specific requests are STALLed by USB Device middleware by default. 
 424:Generated_Source\PSoC6\pdl\middleware\usb_dev/cy_usb_dev.h **** * The exception is MS OS String vendor-specific request to retrieve an OS Feature 
 425:Generated_Source\PSoC6\pdl\middleware\usb_dev/cy_usb_dev.h **** * Descriptor (Note that USB device must contain MS OS String descriptor to handle 
 426:Generated_Source\PSoC6\pdl\middleware\usb_dev/cy_usb_dev.h **** * this vendor-specific by middleware).
 427:Generated_Source\PSoC6\pdl\middleware\usb_dev/cy_usb_dev.h **** * The middleware provides the \ref Cy_USB_Dev_RegisterVendorCallbacks function 
 428:Generated_Source\PSoC6\pdl\middleware\usb_dev/cy_usb_dev.h **** * to register callbacks to handle vendor-specific requests. 
 429:Generated_Source\PSoC6\pdl\middleware\usb_dev/cy_usb_dev.h **** * 
 430:Generated_Source\PSoC6\pdl\middleware\usb_dev/cy_usb_dev.h **** ********************************************************************************
 431:Generated_Source\PSoC6\pdl\middleware\usb_dev/cy_usb_dev.h **** * \subsection group_usb_dev_ep_buf_alloc Allocate Data Endpoint Buffer
 432:Generated_Source\PSoC6\pdl\middleware\usb_dev/cy_usb_dev.h **** ********************************************************************************
 433:Generated_Source\PSoC6\pdl\middleware\usb_dev/cy_usb_dev.h **** *
 434:Generated_Source\PSoC6\pdl\middleware\usb_dev/cy_usb_dev.h **** * The application allocates buffers for data endpoints to operate. The buffer 
 435:Generated_Source\PSoC6\pdl\middleware\usb_dev/cy_usb_dev.h **** * allocation depends on USBFS driver endpoint buffer access type configuration. 
 436:Generated_Source\PSoC6\pdl\middleware\usb_dev/cy_usb_dev.h **** * It specifies which hardware register set 8-bit or 16-bit is used to access 
 437:Generated_Source\PSoC6\pdl\middleware\usb_dev/cy_usb_dev.h **** * hardware endpoints buffer. The 16-bit access requires that the specific rules for
 438:Generated_Source\PSoC6\pdl\middleware\usb_dev/cy_usb_dev.h **** * the endpoints buffer allocation must be met (See Hardware Buffer Access 
 439:Generated_Source\PSoC6\pdl\middleware\usb_dev/cy_usb_dev.h **** * section of the USBFS driver for more information). \n
 440:Generated_Source\PSoC6\pdl\middleware\usb_dev/cy_usb_dev.h **** * To make endpoint buffer allocation configuration independent, use 
 441:Generated_Source\PSoC6\pdl\middleware\usb_dev/cy_usb_dev.h **** * the \ref CY_USB_DEV_ALLOC_ENDPOINT_BUFFER macro.
 442:Generated_Source\PSoC6\pdl\middleware\usb_dev/cy_usb_dev.h **** *
 443:Generated_Source\PSoC6\pdl\middleware\usb_dev/cy_usb_dev.h **** ********************************************************************************
 444:Generated_Source\PSoC6\pdl\middleware\usb_dev/cy_usb_dev.h **** * \subsection group_usb_dev_self_powered_dev Self-Powered Devices
 445:Generated_Source\PSoC6\pdl\middleware\usb_dev/cy_usb_dev.h **** ********************************************************************************
 446:Generated_Source\PSoC6\pdl\middleware\usb_dev/cy_usb_dev.h **** *
 447:Generated_Source\PSoC6\pdl\middleware\usb_dev/cy_usb_dev.h **** * The USB Device responds to GET_STATUS requests based on the status set with 
 448:Generated_Source\PSoC6\pdl\middleware\usb_dev/cy_usb_dev.h **** * the \ref Cy_USB_Dev_SetPowerStatus function. To set the correct status, 
 449:Generated_Source\PSoC6\pdl\middleware\usb_dev/cy_usb_dev.h **** * \ref Cy_USB_Dev_SetPowerStatus must be called during initialization if USB 
 450:Generated_Source\PSoC6\pdl\middleware\usb_dev/cy_usb_dev.h **** * Device is configured as self-powered. The \ref Cy_USB_Dev_SetPowerStatus must 
 451:Generated_Source\PSoC6\pdl\middleware\usb_dev/cy_usb_dev.h **** * be called any time the device changes status. A self-powered device also requires
 452:Generated_Source\PSoC6\pdl\middleware\usb_dev/cy_usb_dev.h **** * monitoring VBUS to control pull-up resistors. The pull-up resistor does 
ARM GAS  C:\Users\enes_\AppData\Local\Temp\cc1rwu0O.s 			page 36


 453:Generated_Source\PSoC6\pdl\middleware\usb_dev/cy_usb_dev.h **** * not supply power to the data line until you call \ref Cy_USB_Dev_Connect. 
 454:Generated_Source\PSoC6\pdl\middleware\usb_dev/cy_usb_dev.h **** * \ref Cy_USB_Dev_Disconnect disconnects the pull-up resistor from the data line.
 455:Generated_Source\PSoC6\pdl\middleware\usb_dev/cy_usb_dev.h **** * Find information about how to add VBUS monitoring in your application in the USBFS driver 
 456:Generated_Source\PSoC6\pdl\middleware\usb_dev/cy_usb_dev.h **** * section VBUS Detection in the PDL API Reference Manual.
 457:Generated_Source\PSoC6\pdl\middleware\usb_dev/cy_usb_dev.h **** *
 458:Generated_Source\PSoC6\pdl\middleware\usb_dev/cy_usb_dev.h **** ********************************************************************************
 459:Generated_Source\PSoC6\pdl\middleware\usb_dev/cy_usb_dev.h **** * \subsection group_usb_dev_std_timeout Timeout Function Redefinition
 460:Generated_Source\PSoC6\pdl\middleware\usb_dev/cy_usb_dev.h **** ********************************************************************************
 461:Generated_Source\PSoC6\pdl\middleware\usb_dev/cy_usb_dev.h **** * 
 462:Generated_Source\PSoC6\pdl\middleware\usb_dev/cy_usb_dev.h **** * The USB Device middleware provides following blocking functions: \ref Cy_USB_Dev_ReadEpBlocking, 
 463:Generated_Source\PSoC6\pdl\middleware\usb_dev/cy_usb_dev.h **** * \ref Cy_USB_Dev_WriteEpBlocking, and \ref Cy_USB_Dev_Connect (the behavior 
 464:Generated_Source\PSoC6\pdl\middleware\usb_dev/cy_usb_dev.h **** * defined by the blocking parameter of the connect function). The blocking functions 
 465:Generated_Source\PSoC6\pdl\middleware\usb_dev/cy_usb_dev.h **** * parameter timeout defines how many milliseconds to wait before timeout. 
 466:Generated_Source\PSoC6\pdl\middleware\usb_dev/cy_usb_dev.h **** * The SysLib driver function Cy_SysLib_Delay is used to implement a 1 millisecond 
 467:Generated_Source\PSoC6\pdl\middleware\usb_dev/cy_usb_dev.h **** * wait cycle. The middleware provides function \ref Cy_USB_Dev_OverwriteHandleTimeout 
 468:Generated_Source\PSoC6\pdl\middleware\usb_dev/cy_usb_dev.h **** * that allows overriding the wait function implementation. This might be 
 469:Generated_Source\PSoC6\pdl\middleware\usb_dev/cy_usb_dev.h **** * useful when an operation system is used in your application.
 470:Generated_Source\PSoC6\pdl\middleware\usb_dev/cy_usb_dev.h **** * 
 471:Generated_Source\PSoC6\pdl\middleware\usb_dev/cy_usb_dev.h **** * \note
 472:Generated_Source\PSoC6\pdl\middleware\usb_dev/cy_usb_dev.h **** * The blocking function must be used carefully to not cause application lock-up. 
 473:Generated_Source\PSoC6\pdl\middleware\usb_dev/cy_usb_dev.h **** * The preferred solution is using non-blocking functions.
 474:Generated_Source\PSoC6\pdl\middleware\usb_dev/cy_usb_dev.h **** *
 475:Generated_Source\PSoC6\pdl\middleware\usb_dev/cy_usb_dev.h **** ********************************************************************************
 476:Generated_Source\PSoC6\pdl\middleware\usb_dev/cy_usb_dev.h **** * \subsection group_usb_dev_drv_features Driver Features
 477:Generated_Source\PSoC6\pdl\middleware\usb_dev/cy_usb_dev.h **** ********************************************************************************
 478:Generated_Source\PSoC6\pdl\middleware\usb_dev/cy_usb_dev.h **** *
 479:Generated_Source\PSoC6\pdl\middleware\usb_dev/cy_usb_dev.h **** * There are driver features that do not have corresponding an API 
 480:Generated_Source\PSoC6\pdl\middleware\usb_dev/cy_usb_dev.h **** * interface provided in the middleware. However, the application might need 
 481:Generated_Source\PSoC6\pdl\middleware\usb_dev/cy_usb_dev.h **** * these features for USB Device implementation. If there is such a need, the 
 482:Generated_Source\PSoC6\pdl\middleware\usb_dev/cy_usb_dev.h **** * driver functions must be used. These features are listed below:
 483:Generated_Source\PSoC6\pdl\middleware\usb_dev/cy_usb_dev.h **** * * Data Endpoint 1 - 8 Completion, SOF received and LPM transfer ACKed events 
 484:Generated_Source\PSoC6\pdl\middleware\usb_dev/cy_usb_dev.h **** *   notification. 
 485:Generated_Source\PSoC6\pdl\middleware\usb_dev/cy_usb_dev.h **** * * Low power support: Suspend / Resume, Remote wakeup signaling.
 486:Generated_Source\PSoC6\pdl\middleware\usb_dev/cy_usb_dev.h **** * * Link Power Management (LPM) support.
 487:Generated_Source\PSoC6\pdl\middleware\usb_dev/cy_usb_dev.h **** * 
 488:Generated_Source\PSoC6\pdl\middleware\usb_dev/cy_usb_dev.h **** * Find more information in the appropriate section of the USBFS driver documentation 
 489:Generated_Source\PSoC6\pdl\middleware\usb_dev/cy_usb_dev.h **** * provided in the PDL API Reference Manual.
 490:Generated_Source\PSoC6\pdl\middleware\usb_dev/cy_usb_dev.h **** *
 491:Generated_Source\PSoC6\pdl\middleware\usb_dev/cy_usb_dev.h **** ********************************************************************************
 492:Generated_Source\PSoC6\pdl\middleware\usb_dev/cy_usb_dev.h **** * \section group_usb_dev_MISRA MISRA-C Compliance
 493:Generated_Source\PSoC6\pdl\middleware\usb_dev/cy_usb_dev.h **** ********************************************************************************
 494:Generated_Source\PSoC6\pdl\middleware\usb_dev/cy_usb_dev.h **** *
 495:Generated_Source\PSoC6\pdl\middleware\usb_dev/cy_usb_dev.h **** * The MISRA-C Compliant verification is not performed for Beta release.
 496:Generated_Source\PSoC6\pdl\middleware\usb_dev/cy_usb_dev.h **** * <table class="doxtable">
 497:Generated_Source\PSoC6\pdl\middleware\usb_dev/cy_usb_dev.h **** *   <tr>
 498:Generated_Source\PSoC6\pdl\middleware\usb_dev/cy_usb_dev.h **** *     <th>MISRA Rule</th>
 499:Generated_Source\PSoC6\pdl\middleware\usb_dev/cy_usb_dev.h **** *     <th>Rule Class (Required/Advisory)</th>
 500:Generated_Source\PSoC6\pdl\middleware\usb_dev/cy_usb_dev.h **** *     <th>Rule Description</th>
 501:Generated_Source\PSoC6\pdl\middleware\usb_dev/cy_usb_dev.h **** *     <th>Description of Deviation(s)</th>
 502:Generated_Source\PSoC6\pdl\middleware\usb_dev/cy_usb_dev.h **** *   </tr>
 503:Generated_Source\PSoC6\pdl\middleware\usb_dev/cy_usb_dev.h **** *   <tr>
 504:Generated_Source\PSoC6\pdl\middleware\usb_dev/cy_usb_dev.h **** *     <td>11.4</td>
 505:Generated_Source\PSoC6\pdl\middleware\usb_dev/cy_usb_dev.h **** *     <td>A</td>
 506:Generated_Source\PSoC6\pdl\middleware\usb_dev/cy_usb_dev.h **** *     <td>A cast should not be performed between a pointer to object type and
 507:Generated_Source\PSoC6\pdl\middleware\usb_dev/cy_usb_dev.h **** *         a different pointer to object type.</td>
 508:Generated_Source\PSoC6\pdl\middleware\usb_dev/cy_usb_dev.h **** *     <td>A cast involving pointers is conducted with caution that the pointers 
 509:Generated_Source\PSoC6\pdl\middleware\usb_dev/cy_usb_dev.h **** *         are correctly aligned for the type of object being pointed to.
ARM GAS  C:\Users\enes_\AppData\Local\Temp\cc1rwu0O.s 			page 37


 510:Generated_Source\PSoC6\pdl\middleware\usb_dev/cy_usb_dev.h **** *     </td>
 511:Generated_Source\PSoC6\pdl\middleware\usb_dev/cy_usb_dev.h **** *   </tr>
 512:Generated_Source\PSoC6\pdl\middleware\usb_dev/cy_usb_dev.h **** *   <tr>
 513:Generated_Source\PSoC6\pdl\middleware\usb_dev/cy_usb_dev.h **** *     <td>11.5</td>
 514:Generated_Source\PSoC6\pdl\middleware\usb_dev/cy_usb_dev.h **** *     <td>R</td>
 515:Generated_Source\PSoC6\pdl\middleware\usb_dev/cy_usb_dev.h **** *     <td>A cast shall not be performed that removes any const or volatile
 516:Generated_Source\PSoC6\pdl\middleware\usb_dev/cy_usb_dev.h **** *         qualification from the type addressed by a pointer.
 517:Generated_Source\PSoC6\pdl\middleware\usb_dev/cy_usb_dev.h **** *    </td>
 518:Generated_Source\PSoC6\pdl\middleware\usb_dev/cy_usb_dev.h **** *    <td>
 519:Generated_Source\PSoC6\pdl\middleware\usb_dev/cy_usb_dev.h **** *     1. All device descriptors are stored in flash. On the USB Host get descriptor 
 520:Generated_Source\PSoC6\pdl\middleware\usb_dev/cy_usb_dev.h **** *        request, the pointer to descriptor is assigned to a pointer that manages data 
 521:Generated_Source\PSoC6\pdl\middleware\usb_dev/cy_usb_dev.h **** *        transfer losing const qualification. Despite the qualification being lost, the 
 522:Generated_Source\PSoC6\pdl\middleware\usb_dev/cy_usb_dev.h **** *        middleware does not perform any write access using this pointer.
 523:Generated_Source\PSoC6\pdl\middleware\usb_dev/cy_usb_dev.h **** *       
 524:Generated_Source\PSoC6\pdl\middleware\usb_dev/cy_usb_dev.h **** *     2. Some device characteristics are stored in volatile variables. 
 525:Generated_Source\PSoC6\pdl\middleware\usb_dev/cy_usb_dev.h **** *        On the USB Host request, the pointer to a characteristic variable is assigned to 
 526:Generated_Source\PSoC6\pdl\middleware\usb_dev/cy_usb_dev.h **** *        a pointer that manages data transfer losing volatile qualification. 
 527:Generated_Source\PSoC6\pdl\middleware\usb_dev/cy_usb_dev.h **** *        Despite the qualification being lost, this does not cause any 
 528:Generated_Source\PSoC6\pdl\middleware\usb_dev/cy_usb_dev.h **** *        negative impact because the data transfer is managed by the interrupt handler.
 529:Generated_Source\PSoC6\pdl\middleware\usb_dev/cy_usb_dev.h **** *        The same happens when these variables are passed as parameters to memcpy or 
 530:Generated_Source\PSoC6\pdl\middleware\usb_dev/cy_usb_dev.h **** *        memset function. 
 531:Generated_Source\PSoC6\pdl\middleware\usb_dev/cy_usb_dev.h **** *    </td>
 532:Generated_Source\PSoC6\pdl\middleware\usb_dev/cy_usb_dev.h **** *   </tr>
 533:Generated_Source\PSoC6\pdl\middleware\usb_dev/cy_usb_dev.h **** *   <tr>
 534:Generated_Source\PSoC6\pdl\middleware\usb_dev/cy_usb_dev.h **** *     <td>14.7</td>
 535:Generated_Source\PSoC6\pdl\middleware\usb_dev/cy_usb_dev.h **** *     <td>R</td>
 536:Generated_Source\PSoC6\pdl\middleware\usb_dev/cy_usb_dev.h **** *     <td>A function shall have a single point of exit at the end of the
 537:Generated_Source\PSoC6\pdl\middleware\usb_dev/cy_usb_dev.h **** *         function.</td>
 538:Generated_Source\PSoC6\pdl\middleware\usb_dev/cy_usb_dev.h **** *     <td>The functions can return from several points. This is typically 
 539:Generated_Source\PSoC6\pdl\middleware\usb_dev/cy_usb_dev.h **** *         done to improve code clarity when returning error status code if 
 540:Generated_Source\PSoC6\pdl\middleware\usb_dev/cy_usb_dev.h **** *         input parameters validation fails.</td>
 541:Generated_Source\PSoC6\pdl\middleware\usb_dev/cy_usb_dev.h **** *   </tr>
 542:Generated_Source\PSoC6\pdl\middleware\usb_dev/cy_usb_dev.h **** *   <tr>
 543:Generated_Source\PSoC6\pdl\middleware\usb_dev/cy_usb_dev.h **** *     <td>16.7</td>
 544:Generated_Source\PSoC6\pdl\middleware\usb_dev/cy_usb_dev.h **** *     <td>A</td>
 545:Generated_Source\PSoC6\pdl\middleware\usb_dev/cy_usb_dev.h **** *     <td>A pointer parameter in a function prototype should be declared as a
 546:Generated_Source\PSoC6\pdl\middleware\usb_dev/cy_usb_dev.h **** *         pointer to const if the pointer is not used to modify the addressed
 547:Generated_Source\PSoC6\pdl\middleware\usb_dev/cy_usb_dev.h **** *         object.</td>
 548:Generated_Source\PSoC6\pdl\middleware\usb_dev/cy_usb_dev.h **** *     <td>The usbfs driver and middleware defines general function 
 549:Generated_Source\PSoC6\pdl\middleware\usb_dev/cy_usb_dev.h **** *         prototypes and pointers to functions types but the function's 
 550:Generated_Source\PSoC6\pdl\middleware\usb_dev/cy_usb_dev.h **** *         implementation depends on configuration. Therefore, 
 551:Generated_Source\PSoC6\pdl\middleware\usb_dev/cy_usb_dev.h **** *         some functions' implementation require parameters to be pointers to 
 552:Generated_Source\PSoC6\pdl\middleware\usb_dev/cy_usb_dev.h **** *         const. This is not met because of the generalized implementation 
 553:Generated_Source\PSoC6\pdl\middleware\usb_dev/cy_usb_dev.h **** *         approach.</td>
 554:Generated_Source\PSoC6\pdl\middleware\usb_dev/cy_usb_dev.h **** *   </tr>
 555:Generated_Source\PSoC6\pdl\middleware\usb_dev/cy_usb_dev.h **** * </table>
 556:Generated_Source\PSoC6\pdl\middleware\usb_dev/cy_usb_dev.h **** *
 557:Generated_Source\PSoC6\pdl\middleware\usb_dev/cy_usb_dev.h **** ********************************************************************************
 558:Generated_Source\PSoC6\pdl\middleware\usb_dev/cy_usb_dev.h **** * \section group_usb_dev_changelog Changelog
 559:Generated_Source\PSoC6\pdl\middleware\usb_dev/cy_usb_dev.h **** ********************************************************************************
 560:Generated_Source\PSoC6\pdl\middleware\usb_dev/cy_usb_dev.h **** *
 561:Generated_Source\PSoC6\pdl\middleware\usb_dev/cy_usb_dev.h **** * <table class="doxtable">
 562:Generated_Source\PSoC6\pdl\middleware\usb_dev/cy_usb_dev.h **** *   <tr><th>Version</th><th>Changes</th><th>Reason for Change</th></tr>
 563:Generated_Source\PSoC6\pdl\middleware\usb_dev/cy_usb_dev.h **** *   <tr>
 564:Generated_Source\PSoC6\pdl\middleware\usb_dev/cy_usb_dev.h **** *     <td>1.0</td>
 565:Generated_Source\PSoC6\pdl\middleware\usb_dev/cy_usb_dev.h **** *     <td>The initial version.</td>
 566:Generated_Source\PSoC6\pdl\middleware\usb_dev/cy_usb_dev.h **** *     <td></td>
ARM GAS  C:\Users\enes_\AppData\Local\Temp\cc1rwu0O.s 			page 38


 567:Generated_Source\PSoC6\pdl\middleware\usb_dev/cy_usb_dev.h **** *   </tr>
 568:Generated_Source\PSoC6\pdl\middleware\usb_dev/cy_usb_dev.h **** * </table>
 569:Generated_Source\PSoC6\pdl\middleware\usb_dev/cy_usb_dev.h **** *
 570:Generated_Source\PSoC6\pdl\middleware\usb_dev/cy_usb_dev.h **** ********************************************************************************
 571:Generated_Source\PSoC6\pdl\middleware\usb_dev/cy_usb_dev.h **** * \defgroup group_usb_device Device
 572:Generated_Source\PSoC6\pdl\middleware\usb_dev/cy_usb_dev.h **** * This section provides an API description for the core functionality of the 
 573:Generated_Source\PSoC6\pdl\middleware\usb_dev/cy_usb_dev.h **** * USB Device: initialization, status information, data transfers, and class 
 574:Generated_Source\PSoC6\pdl\middleware\usb_dev/cy_usb_dev.h **** * support.
 575:Generated_Source\PSoC6\pdl\middleware\usb_dev/cy_usb_dev.h **** * \{  
 576:Generated_Source\PSoC6\pdl\middleware\usb_dev/cy_usb_dev.h **** *    \defgroup group_usb_dev_macros Macros
 577:Generated_Source\PSoC6\pdl\middleware\usb_dev/cy_usb_dev.h **** *    \{   
 578:Generated_Source\PSoC6\pdl\middleware\usb_dev/cy_usb_dev.h **** *        \defgroup group_usb_dev_macros_device_descr Descriptors
 579:Generated_Source\PSoC6\pdl\middleware\usb_dev/cy_usb_dev.h **** *    \}
 580:Generated_Source\PSoC6\pdl\middleware\usb_dev/cy_usb_dev.h **** *     
 581:Generated_Source\PSoC6\pdl\middleware\usb_dev/cy_usb_dev.h **** *    \defgroup group_usb_dev_functions Functions
 582:Generated_Source\PSoC6\pdl\middleware\usb_dev/cy_usb_dev.h **** *    \{
 583:Generated_Source\PSoC6\pdl\middleware\usb_dev/cy_usb_dev.h **** *        \defgroup group_usb_dev_functions_common        Initialization Functions
 584:Generated_Source\PSoC6\pdl\middleware\usb_dev/cy_usb_dev.h **** *        \defgroup group_usb_dev_functions_service       Service Functions
 585:Generated_Source\PSoC6\pdl\middleware\usb_dev/cy_usb_dev.h **** *        \defgroup group_usb_dev_functions_data_transfer Data Transfer Functions
 586:Generated_Source\PSoC6\pdl\middleware\usb_dev/cy_usb_dev.h **** *        \defgroup group_usb_dev_functions_vendor_support Vendor Request Support Functions
 587:Generated_Source\PSoC6\pdl\middleware\usb_dev/cy_usb_dev.h **** *        \defgroup group_usb_dev_functions_class_support Class Support Functions
 588:Generated_Source\PSoC6\pdl\middleware\usb_dev/cy_usb_dev.h **** *     \}
 589:Generated_Source\PSoC6\pdl\middleware\usb_dev/cy_usb_dev.h **** *     
 590:Generated_Source\PSoC6\pdl\middleware\usb_dev/cy_usb_dev.h **** *     \defgroup group_usb_dev_data_structures Data Structures
 591:Generated_Source\PSoC6\pdl\middleware\usb_dev/cy_usb_dev.h **** *     \{
 592:Generated_Source\PSoC6\pdl\middleware\usb_dev/cy_usb_dev.h **** *         \defgroup group_usb_dev_structures_device       Device Information
 593:Generated_Source\PSoC6\pdl\middleware\usb_dev/cy_usb_dev.h **** *         \defgroup group_usb_dev_structures_device_descr Device Descriptors
 594:Generated_Source\PSoC6\pdl\middleware\usb_dev/cy_usb_dev.h **** *         \defgroup group_usb_dev_structures_control      Control Transfer
 595:Generated_Source\PSoC6\pdl\middleware\usb_dev/cy_usb_dev.h **** *         \defgroup group_usb_dev_structures_class        Class Support
 596:Generated_Source\PSoC6\pdl\middleware\usb_dev/cy_usb_dev.h **** *         \defgroup group_usb_dev_structures_func_ptr     Function Pointers
 597:Generated_Source\PSoC6\pdl\middleware\usb_dev/cy_usb_dev.h **** *     \}
 598:Generated_Source\PSoC6\pdl\middleware\usb_dev/cy_usb_dev.h **** *     
 599:Generated_Source\PSoC6\pdl\middleware\usb_dev/cy_usb_dev.h **** *     \defgroup group_usb_dev_enums Enumerated Types
 600:Generated_Source\PSoC6\pdl\middleware\usb_dev/cy_usb_dev.h **** * \}
 601:Generated_Source\PSoC6\pdl\middleware\usb_dev/cy_usb_dev.h **** *     
 602:Generated_Source\PSoC6\pdl\middleware\usb_dev/cy_usb_dev.h **** * \defgroup group_usb_dev_audio Audio Class
 603:Generated_Source\PSoC6\pdl\middleware\usb_dev/cy_usb_dev.h **** * \defgroup group_usb_dev_cdc CDC Class
 604:Generated_Source\PSoC6\pdl\middleware\usb_dev/cy_usb_dev.h **** * \defgroup group_usb_dev_hid HID Class
 605:Generated_Source\PSoC6\pdl\middleware\usb_dev/cy_usb_dev.h **** *
 606:Generated_Source\PSoC6\pdl\middleware\usb_dev/cy_usb_dev.h **** */
 607:Generated_Source\PSoC6\pdl\middleware\usb_dev/cy_usb_dev.h **** 
 608:Generated_Source\PSoC6\pdl\middleware\usb_dev/cy_usb_dev.h **** 
 609:Generated_Source\PSoC6\pdl\middleware\usb_dev/cy_usb_dev.h **** #if !defined(CY_USB_DEV_H)
 610:Generated_Source\PSoC6\pdl\middleware\usb_dev/cy_usb_dev.h **** #define CY_USB_DEV_H
 611:Generated_Source\PSoC6\pdl\middleware\usb_dev/cy_usb_dev.h **** 
 612:Generated_Source\PSoC6\pdl\middleware\usb_dev/cy_usb_dev.h **** #include <stdint.h>
 613:Generated_Source\PSoC6\pdl\middleware\usb_dev/cy_usb_dev.h **** #include <stddef.h>
 614:Generated_Source\PSoC6\pdl\middleware\usb_dev/cy_usb_dev.h **** #include <stdbool.h>
 615:Generated_Source\PSoC6\pdl\middleware\usb_dev/cy_usb_dev.h **** #include <string.h>
 616:Generated_Source\PSoC6\pdl\middleware\usb_dev/cy_usb_dev.h **** 
 617:Generated_Source\PSoC6\pdl\middleware\usb_dev/cy_usb_dev.h **** #include "cy_usbfs_dev_drv.h"
 618:Generated_Source\PSoC6\pdl\middleware\usb_dev/cy_usb_dev.h **** #include "cy_usb_dev_descr.h"
 619:Generated_Source\PSoC6\pdl\middleware\usb_dev/cy_usb_dev.h **** 
 620:Generated_Source\PSoC6\pdl\middleware\usb_dev/cy_usb_dev.h **** #if defined(__cplusplus)
 621:Generated_Source\PSoC6\pdl\middleware\usb_dev/cy_usb_dev.h **** extern "C" {
 622:Generated_Source\PSoC6\pdl\middleware\usb_dev/cy_usb_dev.h **** #endif
 623:Generated_Source\PSoC6\pdl\middleware\usb_dev/cy_usb_dev.h **** 
ARM GAS  C:\Users\enes_\AppData\Local\Temp\cc1rwu0O.s 			page 39


 624:Generated_Source\PSoC6\pdl\middleware\usb_dev/cy_usb_dev.h **** /**
 625:Generated_Source\PSoC6\pdl\middleware\usb_dev/cy_usb_dev.h **** * \addtogroup group_usb_dev_macros
 626:Generated_Source\PSoC6\pdl\middleware\usb_dev/cy_usb_dev.h **** * \{
 627:Generated_Source\PSoC6\pdl\middleware\usb_dev/cy_usb_dev.h **** */
 628:Generated_Source\PSoC6\pdl\middleware\usb_dev/cy_usb_dev.h **** 
 629:Generated_Source\PSoC6\pdl\middleware\usb_dev/cy_usb_dev.h **** /*******************************************************************************
 630:Generated_Source\PSoC6\pdl\middleware\usb_dev/cy_usb_dev.h **** *                          Middleware Version
 631:Generated_Source\PSoC6\pdl\middleware\usb_dev/cy_usb_dev.h **** *******************************************************************************/
 632:Generated_Source\PSoC6\pdl\middleware\usb_dev/cy_usb_dev.h **** 
 633:Generated_Source\PSoC6\pdl\middleware\usb_dev/cy_usb_dev.h **** /** USB Device Middleware major version */
 634:Generated_Source\PSoC6\pdl\middleware\usb_dev/cy_usb_dev.h **** #define CY_USB_DEV_VERSION_MAJOR  (1)
 635:Generated_Source\PSoC6\pdl\middleware\usb_dev/cy_usb_dev.h **** 
 636:Generated_Source\PSoC6\pdl\middleware\usb_dev/cy_usb_dev.h **** /** USB Device Middleware minor version */
 637:Generated_Source\PSoC6\pdl\middleware\usb_dev/cy_usb_dev.h **** #define CY_USB_DEV_VERSION_MINOR  (0)
 638:Generated_Source\PSoC6\pdl\middleware\usb_dev/cy_usb_dev.h **** 
 639:Generated_Source\PSoC6\pdl\middleware\usb_dev/cy_usb_dev.h **** /** USB Device Middleware identifier */
 640:Generated_Source\PSoC6\pdl\middleware\usb_dev/cy_usb_dev.h **** #define CY_USB_DEV_ID             CY_PDL_DRV_ID(0x08U)
 641:Generated_Source\PSoC6\pdl\middleware\usb_dev/cy_usb_dev.h **** 
 642:Generated_Source\PSoC6\pdl\middleware\usb_dev/cy_usb_dev.h **** /** Maximum number of interfaces (this equals to the maximum number of hardware 
 643:Generated_Source\PSoC6\pdl\middleware\usb_dev/cy_usb_dev.h **** * endpoints where each interface has at least one endpoint).
 644:Generated_Source\PSoC6\pdl\middleware\usb_dev/cy_usb_dev.h **** */
 645:Generated_Source\PSoC6\pdl\middleware\usb_dev/cy_usb_dev.h **** #define CY_USB_DEV_NUM_INTERFACES_MAX   CY_USBFS_DEV_DRV_NUM_EPS_MAX
 646:Generated_Source\PSoC6\pdl\middleware\usb_dev/cy_usb_dev.h **** 
 647:Generated_Source\PSoC6\pdl\middleware\usb_dev/cy_usb_dev.h **** /** USBFS Device endpoint 0 packet size */
 648:Generated_Source\PSoC6\pdl\middleware\usb_dev/cy_usb_dev.h **** #define CY_USB_DEV_EP0_PACKET_SIZE      CY_USBFS_DEV_DRV_EP0_BUFFER_SIZE
 649:Generated_Source\PSoC6\pdl\middleware\usb_dev/cy_usb_dev.h **** 
 650:Generated_Source\PSoC6\pdl\middleware\usb_dev/cy_usb_dev.h **** /** Length of serial string number generated from silicon ID */
 651:Generated_Source\PSoC6\pdl\middleware\usb_dev/cy_usb_dev.h **** #define CY_USB_DEV_SN_STRING_LENGTH         (32U)
 652:Generated_Source\PSoC6\pdl\middleware\usb_dev/cy_usb_dev.h **** 
 653:Generated_Source\PSoC6\pdl\middleware\usb_dev/cy_usb_dev.h **** /** Length of serial string number */
 654:Generated_Source\PSoC6\pdl\middleware\usb_dev/cy_usb_dev.h **** #define CY_USB_DEV_SN_STRING_DESR_LENGTH    (CY_USB_DEV_SN_STRING_LENGTH + 2U)    
 655:Generated_Source\PSoC6\pdl\middleware\usb_dev/cy_usb_dev.h **** /** \} group_usb_dev_macros */
 656:Generated_Source\PSoC6\pdl\middleware\usb_dev/cy_usb_dev.h **** 
 657:Generated_Source\PSoC6\pdl\middleware\usb_dev/cy_usb_dev.h **** 
 658:Generated_Source\PSoC6\pdl\middleware\usb_dev/cy_usb_dev.h **** /*******************************************************************************
 659:Generated_Source\PSoC6\pdl\middleware\usb_dev/cy_usb_dev.h **** *                              Enumerated Types
 660:Generated_Source\PSoC6\pdl\middleware\usb_dev/cy_usb_dev.h **** *******************************************************************************/
 661:Generated_Source\PSoC6\pdl\middleware\usb_dev/cy_usb_dev.h **** 
 662:Generated_Source\PSoC6\pdl\middleware\usb_dev/cy_usb_dev.h **** /**
 663:Generated_Source\PSoC6\pdl\middleware\usb_dev/cy_usb_dev.h **** * \addtogroup group_usb_dev_enums
 664:Generated_Source\PSoC6\pdl\middleware\usb_dev/cy_usb_dev.h **** * \{
 665:Generated_Source\PSoC6\pdl\middleware\usb_dev/cy_usb_dev.h **** */
 666:Generated_Source\PSoC6\pdl\middleware\usb_dev/cy_usb_dev.h **** 
 667:Generated_Source\PSoC6\pdl\middleware\usb_dev/cy_usb_dev.h **** /** USBFS Device return codes */
 668:Generated_Source\PSoC6\pdl\middleware\usb_dev/cy_usb_dev.h **** typedef enum
 669:Generated_Source\PSoC6\pdl\middleware\usb_dev/cy_usb_dev.h **** {
 670:Generated_Source\PSoC6\pdl\middleware\usb_dev/cy_usb_dev.h ****     /** Operation completed successfully */
 671:Generated_Source\PSoC6\pdl\middleware\usb_dev/cy_usb_dev.h ****     CY_USB_DEV_SUCCESS = 0U,
 672:Generated_Source\PSoC6\pdl\middleware\usb_dev/cy_usb_dev.h ****     
 673:Generated_Source\PSoC6\pdl\middleware\usb_dev/cy_usb_dev.h ****     /** One or more input parameters are invalid */
 674:Generated_Source\PSoC6\pdl\middleware\usb_dev/cy_usb_dev.h ****     CY_USB_DEV_BAD_PARAM           = (CY_USB_DEV_ID | CY_PDL_STATUS_ERROR | 1U),
 675:Generated_Source\PSoC6\pdl\middleware\usb_dev/cy_usb_dev.h ****     
 676:Generated_Source\PSoC6\pdl\middleware\usb_dev/cy_usb_dev.h ****     /** The request is not handled */
 677:Generated_Source\PSoC6\pdl\middleware\usb_dev/cy_usb_dev.h ****     CY_USB_DEV_REQUEST_NOT_HANDLED = (CY_USB_DEV_ID | CY_PDL_STATUS_ERROR | 2U),
 678:Generated_Source\PSoC6\pdl\middleware\usb_dev/cy_usb_dev.h **** 
 679:Generated_Source\PSoC6\pdl\middleware\usb_dev/cy_usb_dev.h ****     /** Timeout occurred for the operation  */
 680:Generated_Source\PSoC6\pdl\middleware\usb_dev/cy_usb_dev.h ****     CY_USB_DEV_TIMEOUT            = (CY_USB_DEV_ID | CY_PDL_STATUS_ERROR | 3U),
ARM GAS  C:\Users\enes_\AppData\Local\Temp\cc1rwu0O.s 			page 40


 681:Generated_Source\PSoC6\pdl\middleware\usb_dev/cy_usb_dev.h **** 
 682:Generated_Source\PSoC6\pdl\middleware\usb_dev/cy_usb_dev.h ****     /** The hardware is busy executing previous operation */
 683:Generated_Source\PSoC6\pdl\middleware\usb_dev/cy_usb_dev.h ****     CY_USB_DEV_DRV_HW_BUSY         = (CY_USB_DEV_ID | CY_PDL_STATUS_ERROR | 4U),
 684:Generated_Source\PSoC6\pdl\middleware\usb_dev/cy_usb_dev.h ****     
 685:Generated_Source\PSoC6\pdl\middleware\usb_dev/cy_usb_dev.h ****     /** The hardware is disabled */
 686:Generated_Source\PSoC6\pdl\middleware\usb_dev/cy_usb_dev.h ****     CY_USB_DEV_DRV_HW_DISABLED     = (CY_USB_DEV_ID | CY_PDL_STATUS_ERROR | 5U),
 687:Generated_Source\PSoC6\pdl\middleware\usb_dev/cy_usb_dev.h ****     
 688:Generated_Source\PSoC6\pdl\middleware\usb_dev/cy_usb_dev.h ****     /** The hardware error occurred during operation */
 689:Generated_Source\PSoC6\pdl\middleware\usb_dev/cy_usb_dev.h ****     CY_USB_DEV_DRV_HW_ERROR        = (CY_USB_DEV_ID | CY_PDL_STATUS_ERROR | 6U),
 690:Generated_Source\PSoC6\pdl\middleware\usb_dev/cy_usb_dev.h ****     
 691:Generated_Source\PSoC6\pdl\middleware\usb_dev/cy_usb_dev.h **** } cy_en_usb_dev_status_t; 
 692:Generated_Source\PSoC6\pdl\middleware\usb_dev/cy_usb_dev.h **** 
 693:Generated_Source\PSoC6\pdl\middleware\usb_dev/cy_usb_dev.h **** /** Device states */
 694:Generated_Source\PSoC6\pdl\middleware\usb_dev/cy_usb_dev.h **** typedef enum
 695:Generated_Source\PSoC6\pdl\middleware\usb_dev/cy_usb_dev.h **** {
 696:Generated_Source\PSoC6\pdl\middleware\usb_dev/cy_usb_dev.h ****     CY_USB_DEV_DISABLED,   /**< Device is disabled */
 697:Generated_Source\PSoC6\pdl\middleware\usb_dev/cy_usb_dev.h ****     CY_USB_DEV_ATTACHED,   /**< Device is attached */
 698:Generated_Source\PSoC6\pdl\middleware\usb_dev/cy_usb_dev.h ****     CY_USB_DEV_POWERED,    /**< Device is powered */
 699:Generated_Source\PSoC6\pdl\middleware\usb_dev/cy_usb_dev.h ****     CY_USB_DEV_DEFAULT,    /**< Device is in default state (after bus reset) */
 700:Generated_Source\PSoC6\pdl\middleware\usb_dev/cy_usb_dev.h ****     CY_USB_DEV_ADDRESS,    /**< Device received address */
 701:Generated_Source\PSoC6\pdl\middleware\usb_dev/cy_usb_dev.h ****     CY_USB_DEV_ADDRESSED,  /**< Device set address (device is ready to communicate using this addre
 702:Generated_Source\PSoC6\pdl\middleware\usb_dev/cy_usb_dev.h ****     CY_USB_DEV_CONFIGURED  /**< Device is configured (device is ready to communicate using data end
 703:Generated_Source\PSoC6\pdl\middleware\usb_dev/cy_usb_dev.h **** } cy_en_usb_dev_state_t;
 704:Generated_Source\PSoC6\pdl\middleware\usb_dev/cy_usb_dev.h **** 
 705:Generated_Source\PSoC6\pdl\middleware\usb_dev/cy_usb_dev.h **** /** Power Status */
 706:Generated_Source\PSoC6\pdl\middleware\usb_dev/cy_usb_dev.h **** typedef enum
 707:Generated_Source\PSoC6\pdl\middleware\usb_dev/cy_usb_dev.h **** {
 708:Generated_Source\PSoC6\pdl\middleware\usb_dev/cy_usb_dev.h ****     CY_USB_DEV_STATUS_BUS_POWERED,    /**< Device is bus powered */
 709:Generated_Source\PSoC6\pdl\middleware\usb_dev/cy_usb_dev.h ****     CY_USB_DEV_STATUS_SELF_POWERED    /**< Device is self powered */
 710:Generated_Source\PSoC6\pdl\middleware\usb_dev/cy_usb_dev.h **** } cy_en_usb_dev_power_status_t;
 711:Generated_Source\PSoC6\pdl\middleware\usb_dev/cy_usb_dev.h **** 
 712:Generated_Source\PSoC6\pdl\middleware\usb_dev/cy_usb_dev.h **** /** Callback events */
 713:Generated_Source\PSoC6\pdl\middleware\usb_dev/cy_usb_dev.h **** typedef enum
 714:Generated_Source\PSoC6\pdl\middleware\usb_dev/cy_usb_dev.h **** {
 715:Generated_Source\PSoC6\pdl\middleware\usb_dev/cy_usb_dev.h ****     CY_USB_DEV_EVENT_BUS_RESET,     /**< Bus Reset detected */
 716:Generated_Source\PSoC6\pdl\middleware\usb_dev/cy_usb_dev.h ****     CY_USB_DEV_EVENT_SET_CONFIG,    /**< SET_CONFIGURATION request received */
 717:Generated_Source\PSoC6\pdl\middleware\usb_dev/cy_usb_dev.h ****     CY_USB_DEV_EVENT_SET_INTERFACE  /**< SET_INTERFACE request received */
 718:Generated_Source\PSoC6\pdl\middleware\usb_dev/cy_usb_dev.h **** } cy_en_usb_dev_callback_events_t;
 719:Generated_Source\PSoC6\pdl\middleware\usb_dev/cy_usb_dev.h **** /** \} group_usb_dev_enums */
 720:Generated_Source\PSoC6\pdl\middleware\usb_dev/cy_usb_dev.h **** 
 721:Generated_Source\PSoC6\pdl\middleware\usb_dev/cy_usb_dev.h **** 
 722:Generated_Source\PSoC6\pdl\middleware\usb_dev/cy_usb_dev.h **** /*******************************************************************************
 723:Generated_Source\PSoC6\pdl\middleware\usb_dev/cy_usb_dev.h **** *                              Type Definitions
 724:Generated_Source\PSoC6\pdl\middleware\usb_dev/cy_usb_dev.h **** *******************************************************************************/
 725:Generated_Source\PSoC6\pdl\middleware\usb_dev/cy_usb_dev.h **** 
 726:Generated_Source\PSoC6\pdl\middleware\usb_dev/cy_usb_dev.h **** /**
 727:Generated_Source\PSoC6\pdl\middleware\usb_dev/cy_usb_dev.h **** * \addtogroup group_usb_dev_structures_control
 728:Generated_Source\PSoC6\pdl\middleware\usb_dev/cy_usb_dev.h **** * \{
 729:Generated_Source\PSoC6\pdl\middleware\usb_dev/cy_usb_dev.h **** */
 730:Generated_Source\PSoC6\pdl\middleware\usb_dev/cy_usb_dev.h **** 
 731:Generated_Source\PSoC6\pdl\middleware\usb_dev/cy_usb_dev.h **** /** Parsed bmRequest */
 732:Generated_Source\PSoC6\pdl\middleware\usb_dev/cy_usb_dev.h **** typedef struct
 733:Generated_Source\PSoC6\pdl\middleware\usb_dev/cy_usb_dev.h **** {
 734:Generated_Source\PSoC6\pdl\middleware\usb_dev/cy_usb_dev.h ****     uint8_t direction;  /**< Transfer direction */
 735:Generated_Source\PSoC6\pdl\middleware\usb_dev/cy_usb_dev.h ****     uint8_t type;       /**< Transfer type */
 736:Generated_Source\PSoC6\pdl\middleware\usb_dev/cy_usb_dev.h ****     uint8_t recipient;  /**< Transfer recipient */
 737:Generated_Source\PSoC6\pdl\middleware\usb_dev/cy_usb_dev.h **** } cy_stc_usb_dev_bm_request;
ARM GAS  C:\Users\enes_\AppData\Local\Temp\cc1rwu0O.s 			page 41


 738:Generated_Source\PSoC6\pdl\middleware\usb_dev/cy_usb_dev.h **** 
 739:Generated_Source\PSoC6\pdl\middleware\usb_dev/cy_usb_dev.h **** /** Store request */
 740:Generated_Source\PSoC6\pdl\middleware\usb_dev/cy_usb_dev.h **** typedef struct
 741:Generated_Source\PSoC6\pdl\middleware\usb_dev/cy_usb_dev.h **** {
 742:Generated_Source\PSoC6\pdl\middleware\usb_dev/cy_usb_dev.h ****     cy_stc_usb_dev_bm_request bmRequestType; /**< Request type */
 743:Generated_Source\PSoC6\pdl\middleware\usb_dev/cy_usb_dev.h ****     uint8_t  bRequest;  /**< Request value */
 744:Generated_Source\PSoC6\pdl\middleware\usb_dev/cy_usb_dev.h ****     uint16_t wValue;    /**< Request value (2 bytes) */ 
 745:Generated_Source\PSoC6\pdl\middleware\usb_dev/cy_usb_dev.h ****     uint16_t wIndex;    /**< Request index (2 bytes) */ 
 746:Generated_Source\PSoC6\pdl\middleware\usb_dev/cy_usb_dev.h ****     uint16_t wLength;   /**< Request length (2 bytes) */ 
 747:Generated_Source\PSoC6\pdl\middleware\usb_dev/cy_usb_dev.h **** } cy_stc_usb_dev_setup_packet_t;
 748:Generated_Source\PSoC6\pdl\middleware\usb_dev/cy_usb_dev.h **** 
 749:Generated_Source\PSoC6\pdl\middleware\usb_dev/cy_usb_dev.h **** /** Execute transfer use this structure */
 750:Generated_Source\PSoC6\pdl\middleware\usb_dev/cy_usb_dev.h **** typedef struct
 751:Generated_Source\PSoC6\pdl\middleware\usb_dev/cy_usb_dev.h **** {
 752:Generated_Source\PSoC6\pdl\middleware\usb_dev/cy_usb_dev.h ****     cy_stc_usb_dev_setup_packet_t setup;  /**< Request packet */
 753:Generated_Source\PSoC6\pdl\middleware\usb_dev/cy_usb_dev.h ****     uint8_t  *ptr;          /**< Pointer to data to transfer or space to store data */
 754:Generated_Source\PSoC6\pdl\middleware\usb_dev/cy_usb_dev.h ****     uint8_t  *buffer;       /**< Pointer to buffer to store data send from host to device during co
 755:Generated_Source\PSoC6\pdl\middleware\usb_dev/cy_usb_dev.h ****     uint16_t remaining;     /**< Number of bytes remaining to complete send or receive */
 756:Generated_Source\PSoC6\pdl\middleware\usb_dev/cy_usb_dev.h ****     uint16_t size;          /**< Number of bytes to send or receive */
 757:Generated_Source\PSoC6\pdl\middleware\usb_dev/cy_usb_dev.h ****     uint16_t bufferSize;    /**< Size of the buffer to store data */
 758:Generated_Source\PSoC6\pdl\middleware\usb_dev/cy_usb_dev.h ****     uint8_t  direction;     /**< Transfer direction */    
 759:Generated_Source\PSoC6\pdl\middleware\usb_dev/cy_usb_dev.h ****     bool     zlp;           /**< Defines whether zero length packet is needed to complete data stag
 760:Generated_Source\PSoC6\pdl\middleware\usb_dev/cy_usb_dev.h ****     bool     notify;        /**< Defines whether trigger callback that notifies end of data stage (
 761:Generated_Source\PSoC6\pdl\middleware\usb_dev/cy_usb_dev.h **** } cy_stc_usb_dev_control_transfer_t;
 762:Generated_Source\PSoC6\pdl\middleware\usb_dev/cy_usb_dev.h **** 
 763:Generated_Source\PSoC6\pdl\middleware\usb_dev/cy_usb_dev.h **** /** \} group_usb_dev_structures_control */
 764:Generated_Source\PSoC6\pdl\middleware\usb_dev/cy_usb_dev.h **** 
 765:Generated_Source\PSoC6\pdl\middleware\usb_dev/cy_usb_dev.h **** 
 766:Generated_Source\PSoC6\pdl\middleware\usb_dev/cy_usb_dev.h **** /** \cond INTERNAL */
 767:Generated_Source\PSoC6\pdl\middleware\usb_dev/cy_usb_dev.h **** /** Get compiler know what is cy_stc_usb_dev_context. 
 768:Generated_Source\PSoC6\pdl\middleware\usb_dev/cy_usb_dev.h **** * The cy_stc_usb_dev_context_t is defined below.
 769:Generated_Source\PSoC6\pdl\middleware\usb_dev/cy_usb_dev.h **** */
 770:Generated_Source\PSoC6\pdl\middleware\usb_dev/cy_usb_dev.h **** struct cy_stc_usb_dev_context;
 771:Generated_Source\PSoC6\pdl\middleware\usb_dev/cy_usb_dev.h **** /** \endcond */
 772:Generated_Source\PSoC6\pdl\middleware\usb_dev/cy_usb_dev.h **** 
 773:Generated_Source\PSoC6\pdl\middleware\usb_dev/cy_usb_dev.h **** 
 774:Generated_Source\PSoC6\pdl\middleware\usb_dev/cy_usb_dev.h **** /**
 775:Generated_Source\PSoC6\pdl\middleware\usb_dev/cy_usb_dev.h **** * \addtogroup group_usb_dev_structures_func_ptr
 776:Generated_Source\PSoC6\pdl\middleware\usb_dev/cy_usb_dev.h **** * \{
 777:Generated_Source\PSoC6\pdl\middleware\usb_dev/cy_usb_dev.h **** */
 778:Generated_Source\PSoC6\pdl\middleware\usb_dev/cy_usb_dev.h **** 
 779:Generated_Source\PSoC6\pdl\middleware\usb_dev/cy_usb_dev.h **** /**
 780:Generated_Source\PSoC6\pdl\middleware\usb_dev/cy_usb_dev.h **** * Pointer to a function that implements a callback for the following events: 
 781:Generated_Source\PSoC6\pdl\middleware\usb_dev/cy_usb_dev.h **** * Bus Reset detected, SET_CONFIGURATION request received and SET_INTERFACE request 
 782:Generated_Source\PSoC6\pdl\middleware\usb_dev/cy_usb_dev.h **** * received. The notified events are defined by event argument 
 783:Generated_Source\PSoC6\pdl\middleware\usb_dev/cy_usb_dev.h **** * (see \ref cy_en_usb_dev_callback_events_t).
 784:Generated_Source\PSoC6\pdl\middleware\usb_dev/cy_usb_dev.h **** * Only one event is notified when callback invoked. 
 785:Generated_Source\PSoC6\pdl\middleware\usb_dev/cy_usb_dev.h **** * This callback invoked in the USB interrupt handler context and must be short 
 786:Generated_Source\PSoC6\pdl\middleware\usb_dev/cy_usb_dev.h **** * as possible. \n
 787:Generated_Source\PSoC6\pdl\middleware\usb_dev/cy_usb_dev.h **** * Input arguments:
 788:Generated_Source\PSoC6\pdl\middleware\usb_dev/cy_usb_dev.h **** * * Bus Reset detected event: ignore wValue and wIndex arguments. 
 789:Generated_Source\PSoC6\pdl\middleware\usb_dev/cy_usb_dev.h **** * * SET_CONFIGURATION request received event: the wValue is new configuration 
 790:Generated_Source\PSoC6\pdl\middleware\usb_dev/cy_usb_dev.h **** *   value and wIndex can be ignored.
 791:Generated_Source\PSoC6\pdl\middleware\usb_dev/cy_usb_dev.h **** * * SET_CONFIGURATION request received event: the wValue is new alternative 
 792:Generated_Source\PSoC6\pdl\middleware\usb_dev/cy_usb_dev.h **** *   setting value and wIndex interface value to which alternate belongs. \n
 793:Generated_Source\PSoC6\pdl\middleware\usb_dev/cy_usb_dev.h **** *
 794:Generated_Source\PSoC6\pdl\middleware\usb_dev/cy_usb_dev.h **** * The returned status defines following operation: 
ARM GAS  C:\Users\enes_\AppData\Local\Temp\cc1rwu0O.s 			page 42


 795:Generated_Source\PSoC6\pdl\middleware\usb_dev/cy_usb_dev.h **** * * Bus Reset detected event: status is ignored and event processing is passed to 
 796:Generated_Source\PSoC6\pdl\middleware\usb_dev/cy_usb_dev.h **** *   class event handlers.
 797:Generated_Source\PSoC6\pdl\middleware\usb_dev/cy_usb_dev.h **** * * SET_CONFIGURATION or SET_INTERFACE received event: the returned status defines 
 798:Generated_Source\PSoC6\pdl\middleware\usb_dev/cy_usb_dev.h **** *   following request processing. If returned status fail the request is 
 799:Generated_Source\PSoC6\pdl\middleware\usb_dev/cy_usb_dev.h **** *   STALLed and event notification stops.
 800:Generated_Source\PSoC6\pdl\middleware\usb_dev/cy_usb_dev.h **** *   If returned status is success the event is notified to the appropriate class 
 801:Generated_Source\PSoC6\pdl\middleware\usb_dev/cy_usb_dev.h **** *   event handlers which status defines request response STALL or ACK.
 802:Generated_Source\PSoC6\pdl\middleware\usb_dev/cy_usb_dev.h **** */
 803:Generated_Source\PSoC6\pdl\middleware\usb_dev/cy_usb_dev.h **** typedef cy_en_usb_dev_status_t (* cy_cb_usb_dev_events_callback_t)(cy_en_usb_dev_callback_events_t 
 804:Generated_Source\PSoC6\pdl\middleware\usb_dev/cy_usb_dev.h ****                                                                    uint32_t wValue, uint32_t wIndex
 805:Generated_Source\PSoC6\pdl\middleware\usb_dev/cy_usb_dev.h ****                                                                    struct cy_stc_usb_dev_context *d
 806:Generated_Source\PSoC6\pdl\middleware\usb_dev/cy_usb_dev.h **** 
 807:Generated_Source\PSoC6\pdl\middleware\usb_dev/cy_usb_dev.h **** /**
 808:Generated_Source\PSoC6\pdl\middleware\usb_dev/cy_usb_dev.h **** * Pointer to a function that implements a timeout handler. The function accepts the
 809:Generated_Source\PSoC6\pdl\middleware\usb_dev/cy_usb_dev.h **** * number of milliseconds that remain to wait before timeout expires. 
 810:Generated_Source\PSoC6\pdl\middleware\usb_dev/cy_usb_dev.h **** * This returns the number of milliseconds remaining to wait minus the milliseconds
 811:Generated_Source\PSoC6\pdl\middleware\usb_dev/cy_usb_dev.h **** * that have elapsed inside the function.
 812:Generated_Source\PSoC6\pdl\middleware\usb_dev/cy_usb_dev.h **** */
 813:Generated_Source\PSoC6\pdl\middleware\usb_dev/cy_usb_dev.h **** typedef int32_t (* cy_fn_usb_dev_handle_timeout_ptr_t)(int32_t milliseconds);
 814:Generated_Source\PSoC6\pdl\middleware\usb_dev/cy_usb_dev.h **** 
 815:Generated_Source\PSoC6\pdl\middleware\usb_dev/cy_usb_dev.h **** /**
 816:Generated_Source\PSoC6\pdl\middleware\usb_dev/cy_usb_dev.h **** * Pointer to function that returns pointer to uint8_t array, which contains a serial number string
 817:Generated_Source\PSoC6\pdl\middleware\usb_dev/cy_usb_dev.h **** * and accepts the device context \ref cy_stc_usb_dev_context_t.
 818:Generated_Source\PSoC6\pdl\middleware\usb_dev/cy_usb_dev.h **** * This type is used to define a callback that returns serial number string.
 819:Generated_Source\PSoC6\pdl\middleware\usb_dev/cy_usb_dev.h **** */
 820:Generated_Source\PSoC6\pdl\middleware\usb_dev/cy_usb_dev.h **** typedef uint8_t * (* cy_fn_usb_dev_sn_string_ptr_t)(void);
 821:Generated_Source\PSoC6\pdl\middleware\usb_dev/cy_usb_dev.h **** 
 822:Generated_Source\PSoC6\pdl\middleware\usb_dev/cy_usb_dev.h **** /**
 823:Generated_Source\PSoC6\pdl\middleware\usb_dev/cy_usb_dev.h **** * Pointer to function that returns nothing and accepts a pointer to void and a pointer to \ref cy_s
 824:Generated_Source\PSoC6\pdl\middleware\usb_dev/cy_usb_dev.h **** * This type is used to define a callback that notifies the class about a bus reset event.
 825:Generated_Source\PSoC6\pdl\middleware\usb_dev/cy_usb_dev.h **** */
 826:Generated_Source\PSoC6\pdl\middleware\usb_dev/cy_usb_dev.h **** typedef void (* cy_cb_usb_dev_bus_reset_t)(void *classData, struct cy_stc_usb_dev_context *devConte
 827:Generated_Source\PSoC6\pdl\middleware\usb_dev/cy_usb_dev.h **** 
 828:Generated_Source\PSoC6\pdl\middleware\usb_dev/cy_usb_dev.h **** /**
 829:Generated_Source\PSoC6\pdl\middleware\usb_dev/cy_usb_dev.h **** * Pointer to function that returns the status of operation and accepts received configuration numbe
 830:Generated_Source\PSoC6\pdl\middleware\usb_dev/cy_usb_dev.h **** * pointer to class context, and pointer to device context \ref cy_stc_usb_dev_context_t.
 831:Generated_Source\PSoC6\pdl\middleware\usb_dev/cy_usb_dev.h **** * This type is used to define a callback that notifies the class about a set configuration request 
 832:Generated_Source\PSoC6\pdl\middleware\usb_dev/cy_usb_dev.h **** */
 833:Generated_Source\PSoC6\pdl\middleware\usb_dev/cy_usb_dev.h **** typedef cy_en_usb_dev_status_t (* cy_cb_usb_dev_set_config_t)(uint32_t configuration, void *classDa
 834:Generated_Source\PSoC6\pdl\middleware\usb_dev/cy_usb_dev.h ****                                                               struct cy_stc_usb_dev_context *devCon
 835:Generated_Source\PSoC6\pdl\middleware\usb_dev/cy_usb_dev.h **** 
 836:Generated_Source\PSoC6\pdl\middleware\usb_dev/cy_usb_dev.h **** /**
 837:Generated_Source\PSoC6\pdl\middleware\usb_dev/cy_usb_dev.h **** * Pointer to function that returns the status of operation and accepts received interface 
 838:Generated_Source\PSoC6\pdl\middleware\usb_dev/cy_usb_dev.h **** * alternate settings number, pointer to class context, and pointer to device context \ref cy_stc_us
 839:Generated_Source\PSoC6\pdl\middleware\usb_dev/cy_usb_dev.h **** * This type is used to define a callback that notifies the class about a set interface request even
 840:Generated_Source\PSoC6\pdl\middleware\usb_dev/cy_usb_dev.h **** */
 841:Generated_Source\PSoC6\pdl\middleware\usb_dev/cy_usb_dev.h **** typedef cy_en_usb_dev_status_t (* cy_cb_usb_dev_set_interface_t)(uint32_t interface, uint32_t alter
 842:Generated_Source\PSoC6\pdl\middleware\usb_dev/cy_usb_dev.h ****                                                                  void *classContext, 
 843:Generated_Source\PSoC6\pdl\middleware\usb_dev/cy_usb_dev.h ****                                                                  struct cy_stc_usb_dev_context *dev
 844:Generated_Source\PSoC6\pdl\middleware\usb_dev/cy_usb_dev.h **** 
 845:Generated_Source\PSoC6\pdl\middleware\usb_dev/cy_usb_dev.h **** /**
 846:Generated_Source\PSoC6\pdl\middleware\usb_dev/cy_usb_dev.h **** * Pointer to function that returns the status of operation and accepts pointer to received control 
 847:Generated_Source\PSoC6\pdl\middleware\usb_dev/cy_usb_dev.h **** * number, pointer to class context, and pointer to device context \ref cy_stc_usb_dev_context_t.
 848:Generated_Source\PSoC6\pdl\middleware\usb_dev/cy_usb_dev.h **** * This type is used to define a callback that notifies the class about a request received event.
 849:Generated_Source\PSoC6\pdl\middleware\usb_dev/cy_usb_dev.h **** */
 850:Generated_Source\PSoC6\pdl\middleware\usb_dev/cy_usb_dev.h **** typedef cy_en_usb_dev_status_t (* cy_cb_usb_dev_request_received_t)(cy_stc_usb_dev_control_transfer
 851:Generated_Source\PSoC6\pdl\middleware\usb_dev/cy_usb_dev.h ****                                                                     void *classContext, 
ARM GAS  C:\Users\enes_\AppData\Local\Temp\cc1rwu0O.s 			page 43


 852:Generated_Source\PSoC6\pdl\middleware\usb_dev/cy_usb_dev.h ****                                                                     struct cy_stc_usb_dev_context *
 853:Generated_Source\PSoC6\pdl\middleware\usb_dev/cy_usb_dev.h **** 
 854:Generated_Source\PSoC6\pdl\middleware\usb_dev/cy_usb_dev.h **** /**
 855:Generated_Source\PSoC6\pdl\middleware\usb_dev/cy_usb_dev.h **** * Pointer to function that returns status of operation and accepts pointer to received control tran
 856:Generated_Source\PSoC6\pdl\middleware\usb_dev/cy_usb_dev.h **** * number, pointer to class context, and pointer to device context \ref cy_stc_usb_dev_context_t.
 857:Generated_Source\PSoC6\pdl\middleware\usb_dev/cy_usb_dev.h **** * This type is used to define a callback that notifies the class that a request completed (data is 
 858:Generated_Source\PSoC6\pdl\middleware\usb_dev/cy_usb_dev.h **** * response for current request) event.
 859:Generated_Source\PSoC6\pdl\middleware\usb_dev/cy_usb_dev.h **** */
 860:Generated_Source\PSoC6\pdl\middleware\usb_dev/cy_usb_dev.h **** typedef cy_en_usb_dev_status_t (* cy_cb_usb_dev_request_cmplt_t)(cy_stc_usb_dev_control_transfer_t 
 861:Generated_Source\PSoC6\pdl\middleware\usb_dev/cy_usb_dev.h ****                                                                 void *classContext, 
 862:Generated_Source\PSoC6\pdl\middleware\usb_dev/cy_usb_dev.h ****                                                                 struct cy_stc_usb_dev_context *devC
 863:Generated_Source\PSoC6\pdl\middleware\usb_dev/cy_usb_dev.h **** 
 864:Generated_Source\PSoC6\pdl\middleware\usb_dev/cy_usb_dev.h **** /** \} group_usb_dev_structures_func_ptr */
 865:Generated_Source\PSoC6\pdl\middleware\usb_dev/cy_usb_dev.h **** 
 866:Generated_Source\PSoC6\pdl\middleware\usb_dev/cy_usb_dev.h **** /**
 867:Generated_Source\PSoC6\pdl\middleware\usb_dev/cy_usb_dev.h **** * \addtogroup group_usb_dev_structures_class
 868:Generated_Source\PSoC6\pdl\middleware\usb_dev/cy_usb_dev.h **** * \{
 869:Generated_Source\PSoC6\pdl\middleware\usb_dev/cy_usb_dev.h **** */
 870:Generated_Source\PSoC6\pdl\middleware\usb_dev/cy_usb_dev.h **** 
 871:Generated_Source\PSoC6\pdl\middleware\usb_dev/cy_usb_dev.h **** /** Class support definition - each class must provide this structure */
 872:Generated_Source\PSoC6\pdl\middleware\usb_dev/cy_usb_dev.h **** typedef struct
 873:Generated_Source\PSoC6\pdl\middleware\usb_dev/cy_usb_dev.h **** {
 874:Generated_Source\PSoC6\pdl\middleware\usb_dev/cy_usb_dev.h ****     /** Called after bus reset is serviced. Initialize Class here */
 875:Generated_Source\PSoC6\pdl\middleware\usb_dev/cy_usb_dev.h ****     cy_cb_usb_dev_bus_reset_t busReset;
 876:Generated_Source\PSoC6\pdl\middleware\usb_dev/cy_usb_dev.h **** 
 877:Generated_Source\PSoC6\pdl\middleware\usb_dev/cy_usb_dev.h ****     /**
 878:Generated_Source\PSoC6\pdl\middleware\usb_dev/cy_usb_dev.h ****     * Called after Set Configuration request is received.
 879:Generated_Source\PSoC6\pdl\middleware\usb_dev/cy_usb_dev.h ****     * The endpoint available for this configuration must be configured here.
 880:Generated_Source\PSoC6\pdl\middleware\usb_dev/cy_usb_dev.h ****     * Returns status of the event processing.
 881:Generated_Source\PSoC6\pdl\middleware\usb_dev/cy_usb_dev.h ****     */
 882:Generated_Source\PSoC6\pdl\middleware\usb_dev/cy_usb_dev.h ****     cy_cb_usb_dev_set_config_t setConfiguration;
 883:Generated_Source\PSoC6\pdl\middleware\usb_dev/cy_usb_dev.h **** 
 884:Generated_Source\PSoC6\pdl\middleware\usb_dev/cy_usb_dev.h ****     /**
 885:Generated_Source\PSoC6\pdl\middleware\usb_dev/cy_usb_dev.h ****     * Called after Set Interface request is received.
 886:Generated_Source\PSoC6\pdl\middleware\usb_dev/cy_usb_dev.h ****     * Probably the endpoint configuration requires correction here.
 887:Generated_Source\PSoC6\pdl\middleware\usb_dev/cy_usb_dev.h ****     * Returns status of the event processing.
 888:Generated_Source\PSoC6\pdl\middleware\usb_dev/cy_usb_dev.h ****     */
 889:Generated_Source\PSoC6\pdl\middleware\usb_dev/cy_usb_dev.h ****     cy_cb_usb_dev_set_interface_t setInterface;
 890:Generated_Source\PSoC6\pdl\middleware\usb_dev/cy_usb_dev.h **** 
 891:Generated_Source\PSoC6\pdl\middleware\usb_dev/cy_usb_dev.h ****     /**
 892:Generated_Source\PSoC6\pdl\middleware\usb_dev/cy_usb_dev.h ****     * This function is called when a setup packet was received from the USB Host but 
 893:Generated_Source\PSoC6\pdl\middleware\usb_dev/cy_usb_dev.h ****     * was not recognized. Therefore, it might require the user to do the class processing.
 894:Generated_Source\PSoC6\pdl\middleware\usb_dev/cy_usb_dev.h ****     */
 895:Generated_Source\PSoC6\pdl\middleware\usb_dev/cy_usb_dev.h ****     cy_cb_usb_dev_request_received_t requestReceived;
 896:Generated_Source\PSoC6\pdl\middleware\usb_dev/cy_usb_dev.h **** 
 897:Generated_Source\PSoC6\pdl\middleware\usb_dev/cy_usb_dev.h ****     /**
 898:Generated_Source\PSoC6\pdl\middleware\usb_dev/cy_usb_dev.h ****     * This function is called when the USB Device received data from the USB Host 
 899:Generated_Source\PSoC6\pdl\middleware\usb_dev/cy_usb_dev.h ****     * as part of current request processing. The requestReceivedHandle function 
 900:Generated_Source\PSoC6\pdl\middleware\usb_dev/cy_usb_dev.h ****     * must enable notification to trigger this event. This makes sense only when CDC 
 901:Generated_Source\PSoC6\pdl\middleware\usb_dev/cy_usb_dev.h ****     * request processing requires a data stage.
 902:Generated_Source\PSoC6\pdl\middleware\usb_dev/cy_usb_dev.h ****     */
 903:Generated_Source\PSoC6\pdl\middleware\usb_dev/cy_usb_dev.h ****     cy_cb_usb_dev_request_cmplt_t requestCompleted;
 904:Generated_Source\PSoC6\pdl\middleware\usb_dev/cy_usb_dev.h **** 
 905:Generated_Source\PSoC6\pdl\middleware\usb_dev/cy_usb_dev.h **** } cy_stc_usb_dev_class_t;
 906:Generated_Source\PSoC6\pdl\middleware\usb_dev/cy_usb_dev.h **** 
 907:Generated_Source\PSoC6\pdl\middleware\usb_dev/cy_usb_dev.h **** 
 908:Generated_Source\PSoC6\pdl\middleware\usb_dev/cy_usb_dev.h **** /** Class linked list element. It includes class and class data pointers 
ARM GAS  C:\Users\enes_\AppData\Local\Temp\cc1rwu0O.s 			page 44


 909:Generated_Source\PSoC6\pdl\middleware\usb_dev/cy_usb_dev.h **** * and  pointer to the next class linked list element. 
 910:Generated_Source\PSoC6\pdl\middleware\usb_dev/cy_usb_dev.h **** */
 911:Generated_Source\PSoC6\pdl\middleware\usb_dev/cy_usb_dev.h **** typedef struct cy_stc_usb_dev_class_ll_item
 912:Generated_Source\PSoC6\pdl\middleware\usb_dev/cy_usb_dev.h **** {
 913:Generated_Source\PSoC6\pdl\middleware\usb_dev/cy_usb_dev.h ****     /** Next item in the class driver linked list */
 914:Generated_Source\PSoC6\pdl\middleware\usb_dev/cy_usb_dev.h ****     struct cy_stc_usb_dev_class_ll_item *next;
 915:Generated_Source\PSoC6\pdl\middleware\usb_dev/cy_usb_dev.h **** 
 916:Generated_Source\PSoC6\pdl\middleware\usb_dev/cy_usb_dev.h ****     /** Pointer to the class structure */
 917:Generated_Source\PSoC6\pdl\middleware\usb_dev/cy_usb_dev.h ****     cy_stc_usb_dev_class_t *class;
 918:Generated_Source\PSoC6\pdl\middleware\usb_dev/cy_usb_dev.h **** 
 919:Generated_Source\PSoC6\pdl\middleware\usb_dev/cy_usb_dev.h ****     /** Pointer to the class data (context) */
 920:Generated_Source\PSoC6\pdl\middleware\usb_dev/cy_usb_dev.h ****     void *classData;
 921:Generated_Source\PSoC6\pdl\middleware\usb_dev/cy_usb_dev.h **** 
 922:Generated_Source\PSoC6\pdl\middleware\usb_dev/cy_usb_dev.h **** } cy_stc_usb_dev_class_ll_item_t;
 923:Generated_Source\PSoC6\pdl\middleware\usb_dev/cy_usb_dev.h **** /** \} group_usb_dev_structures_class */
 924:Generated_Source\PSoC6\pdl\middleware\usb_dev/cy_usb_dev.h **** 
 925:Generated_Source\PSoC6\pdl\middleware\usb_dev/cy_usb_dev.h **** 
 926:Generated_Source\PSoC6\pdl\middleware\usb_dev/cy_usb_dev.h **** /**
 927:Generated_Source\PSoC6\pdl\middleware\usb_dev/cy_usb_dev.h **** * \addtogroup group_usb_dev_data_structures
 928:Generated_Source\PSoC6\pdl\middleware\usb_dev/cy_usb_dev.h **** * \{
 929:Generated_Source\PSoC6\pdl\middleware\usb_dev/cy_usb_dev.h **** */
 930:Generated_Source\PSoC6\pdl\middleware\usb_dev/cy_usb_dev.h **** /** USB Device configuration structure */
 931:Generated_Source\PSoC6\pdl\middleware\usb_dev/cy_usb_dev.h **** typedef struct
 932:Generated_Source\PSoC6\pdl\middleware\usb_dev/cy_usb_dev.h **** {
 933:Generated_Source\PSoC6\pdl\middleware\usb_dev/cy_usb_dev.h ****     /** Pointer to the buffer to store data received from the USB Host through
 934:Generated_Source\PSoC6\pdl\middleware\usb_dev/cy_usb_dev.h ****     * Endpoint 0. The buffer size must be large enough to store received data 
 935:Generated_Source\PSoC6\pdl\middleware\usb_dev/cy_usb_dev.h ****     * for all supported requests.
 936:Generated_Source\PSoC6\pdl\middleware\usb_dev/cy_usb_dev.h ****     */
 937:Generated_Source\PSoC6\pdl\middleware\usb_dev/cy_usb_dev.h ****     uint8_t  *ep0Buffer; 
 938:Generated_Source\PSoC6\pdl\middleware\usb_dev/cy_usb_dev.h ****     
 939:Generated_Source\PSoC6\pdl\middleware\usb_dev/cy_usb_dev.h ****     /** Buffer size for Endpoint 0 */
 940:Generated_Source\PSoC6\pdl\middleware\usb_dev/cy_usb_dev.h ****     uint16_t  ep0BufferSize;
 941:Generated_Source\PSoC6\pdl\middleware\usb_dev/cy_usb_dev.h **** 
 942:Generated_Source\PSoC6\pdl\middleware\usb_dev/cy_usb_dev.h **** } cy_stc_usb_dev_config_t;
 943:Generated_Source\PSoC6\pdl\middleware\usb_dev/cy_usb_dev.h **** 
 944:Generated_Source\PSoC6\pdl\middleware\usb_dev/cy_usb_dev.h **** 
 945:Generated_Source\PSoC6\pdl\middleware\usb_dev/cy_usb_dev.h **** /** USB Device context structure. 
 946:Generated_Source\PSoC6\pdl\middleware\usb_dev/cy_usb_dev.h **** * All fields for the USB Device context structure are internal. Firmware never 
 947:Generated_Source\PSoC6\pdl\middleware\usb_dev/cy_usb_dev.h **** * reads or writes these values. Firmware allocates the structure and provides 
 948:Generated_Source\PSoC6\pdl\middleware\usb_dev/cy_usb_dev.h **** * the address of the structure to the middleware in function calls. Firmware 
 949:Generated_Source\PSoC6\pdl\middleware\usb_dev/cy_usb_dev.h **** * must ensure that the defined instance of this structure remains in scope while
 950:Generated_Source\PSoC6\pdl\middleware\usb_dev/cy_usb_dev.h **** * the middleware is in use.
 951:Generated_Source\PSoC6\pdl\middleware\usb_dev/cy_usb_dev.h **** */
 952:Generated_Source\PSoC6\pdl\middleware\usb_dev/cy_usb_dev.h **** typedef struct cy_stc_usb_dev_context
 953:Generated_Source\PSoC6\pdl\middleware\usb_dev/cy_usb_dev.h **** {
 954:Generated_Source\PSoC6\pdl\middleware\usb_dev/cy_usb_dev.h ****     /** \cond INTERNAL*/
 955:Generated_Source\PSoC6\pdl\middleware\usb_dev/cy_usb_dev.h **** 
 956:Generated_Source\PSoC6\pdl\middleware\usb_dev/cy_usb_dev.h ****     /** Device state */
 957:Generated_Source\PSoC6\pdl\middleware\usb_dev/cy_usb_dev.h ****     volatile cy_en_usb_dev_state_t state;
 958:Generated_Source\PSoC6\pdl\middleware\usb_dev/cy_usb_dev.h ****     
 959:Generated_Source\PSoC6\pdl\middleware\usb_dev/cy_usb_dev.h ****     /** Configuration changed status */
 960:Generated_Source\PSoC6\pdl\middleware\usb_dev/cy_usb_dev.h ****     volatile bool configChanged;
 961:Generated_Source\PSoC6\pdl\middleware\usb_dev/cy_usb_dev.h **** 
 962:Generated_Source\PSoC6\pdl\middleware\usb_dev/cy_usb_dev.h ****     /** Device status */
 963:Generated_Source\PSoC6\pdl\middleware\usb_dev/cy_usb_dev.h ****     volatile uint8_t status;
 964:Generated_Source\PSoC6\pdl\middleware\usb_dev/cy_usb_dev.h ****     
 965:Generated_Source\PSoC6\pdl\middleware\usb_dev/cy_usb_dev.h ****     /** Device address */
ARM GAS  C:\Users\enes_\AppData\Local\Temp\cc1rwu0O.s 			page 45


 966:Generated_Source\PSoC6\pdl\middleware\usb_dev/cy_usb_dev.h ****     volatile uint8_t address;
 967:Generated_Source\PSoC6\pdl\middleware\usb_dev/cy_usb_dev.h ****     
 968:Generated_Source\PSoC6\pdl\middleware\usb_dev/cy_usb_dev.h ****     /** Device configuration */
 969:Generated_Source\PSoC6\pdl\middleware\usb_dev/cy_usb_dev.h ****     volatile uint8_t configuration;
 970:Generated_Source\PSoC6\pdl\middleware\usb_dev/cy_usb_dev.h ****     
 971:Generated_Source\PSoC6\pdl\middleware\usb_dev/cy_usb_dev.h ****     /** Device interface alternate settings */
 972:Generated_Source\PSoC6\pdl\middleware\usb_dev/cy_usb_dev.h ****     volatile uint8_t alternate[CY_USB_DEV_NUM_INTERFACES_MAX];
 973:Generated_Source\PSoC6\pdl\middleware\usb_dev/cy_usb_dev.h **** 
 974:Generated_Source\PSoC6\pdl\middleware\usb_dev/cy_usb_dev.h ****     /** Storage for serial number string descriptor (constructed from silicon ID) */
 975:Generated_Source\PSoC6\pdl\middleware\usb_dev/cy_usb_dev.h ****     uint8_t serialNumDescr[CY_USB_DEV_SN_STRING_DESR_LENGTH];    
 976:Generated_Source\PSoC6\pdl\middleware\usb_dev/cy_usb_dev.h **** 
 977:Generated_Source\PSoC6\pdl\middleware\usb_dev/cy_usb_dev.h ****     /** Pointer to function that implements timeout in milliseconds */
 978:Generated_Source\PSoC6\pdl\middleware\usb_dev/cy_usb_dev.h ****     cy_fn_usb_dev_handle_timeout_ptr_t handleTimeout;
 979:Generated_Source\PSoC6\pdl\middleware\usb_dev/cy_usb_dev.h **** 
 980:Generated_Source\PSoC6\pdl\middleware\usb_dev/cy_usb_dev.h ****     /** Control transfer data */
 981:Generated_Source\PSoC6\pdl\middleware\usb_dev/cy_usb_dev.h ****     cy_stc_usb_dev_control_transfer_t ControlTransfer;
 982:Generated_Source\PSoC6\pdl\middleware\usb_dev/cy_usb_dev.h ****     
 983:Generated_Source\PSoC6\pdl\middleware\usb_dev/cy_usb_dev.h ****     /** Pointers to structure that describes device */
 984:Generated_Source\PSoC6\pdl\middleware\usb_dev/cy_usb_dev.h ****     const cy_stc_usb_dev_device_t *devDescriptors;
 985:Generated_Source\PSoC6\pdl\middleware\usb_dev/cy_usb_dev.h ****     
 986:Generated_Source\PSoC6\pdl\middleware\usb_dev/cy_usb_dev.h ****     /** Pointer to function that returns serial string */
 987:Generated_Source\PSoC6\pdl\middleware\usb_dev/cy_usb_dev.h ****     cy_fn_usb_dev_sn_string_ptr_t getSerialNumString;
 988:Generated_Source\PSoC6\pdl\middleware\usb_dev/cy_usb_dev.h **** 
 989:Generated_Source\PSoC6\pdl\middleware\usb_dev/cy_usb_dev.h ****     /** Callback for events: bus reset, set configuration ans set interface */
 990:Generated_Source\PSoC6\pdl\middleware\usb_dev/cy_usb_dev.h ****     cy_cb_usb_dev_events_callback_t eventsCallback;
 991:Generated_Source\PSoC6\pdl\middleware\usb_dev/cy_usb_dev.h **** 
 992:Generated_Source\PSoC6\pdl\middleware\usb_dev/cy_usb_dev.h ****     /** Vendor-Specific callback to handle Setup packet received event */
 993:Generated_Source\PSoC6\pdl\middleware\usb_dev/cy_usb_dev.h ****     cy_cb_usb_dev_request_received_t vndRequestReceived;
 994:Generated_Source\PSoC6\pdl\middleware\usb_dev/cy_usb_dev.h ****     
 995:Generated_Source\PSoC6\pdl\middleware\usb_dev/cy_usb_dev.h ****     /** Vendor-Specific callback to handle notification that OUT stage is completed */
 996:Generated_Source\PSoC6\pdl\middleware\usb_dev/cy_usb_dev.h ****     cy_cb_usb_dev_request_cmplt_t vndRequestCompleted;
 997:Generated_Source\PSoC6\pdl\middleware\usb_dev/cy_usb_dev.h **** 
 998:Generated_Source\PSoC6\pdl\middleware\usb_dev/cy_usb_dev.h ****     /** Pointer to linked list of class structures */
 999:Generated_Source\PSoC6\pdl\middleware\usb_dev/cy_usb_dev.h ****     cy_stc_usb_dev_class_ll_item_t *classRoot;
1000:Generated_Source\PSoC6\pdl\middleware\usb_dev/cy_usb_dev.h **** 
1001:Generated_Source\PSoC6\pdl\middleware\usb_dev/cy_usb_dev.h ****     /** Pointer to driver base address */
1002:Generated_Source\PSoC6\pdl\middleware\usb_dev/cy_usb_dev.h ****     USBFS_Type *drvBase;
1003:Generated_Source\PSoC6\pdl\middleware\usb_dev/cy_usb_dev.h ****     
1004:Generated_Source\PSoC6\pdl\middleware\usb_dev/cy_usb_dev.h ****     /** Pointer to driver context */
1005:Generated_Source\PSoC6\pdl\middleware\usb_dev/cy_usb_dev.h ****     struct cy_stc_usbfs_dev_drv_context *drvContext;
1006:Generated_Source\PSoC6\pdl\middleware\usb_dev/cy_usb_dev.h **** 
1007:Generated_Source\PSoC6\pdl\middleware\usb_dev/cy_usb_dev.h ****     /** \endcond */
1008:Generated_Source\PSoC6\pdl\middleware\usb_dev/cy_usb_dev.h **** } cy_stc_usb_dev_context_t;
1009:Generated_Source\PSoC6\pdl\middleware\usb_dev/cy_usb_dev.h **** /** \} group_usb_dev_data_structures */
1010:Generated_Source\PSoC6\pdl\middleware\usb_dev/cy_usb_dev.h **** 
1011:Generated_Source\PSoC6\pdl\middleware\usb_dev/cy_usb_dev.h **** 
1012:Generated_Source\PSoC6\pdl\middleware\usb_dev/cy_usb_dev.h **** /*******************************************************************************
1013:Generated_Source\PSoC6\pdl\middleware\usb_dev/cy_usb_dev.h **** *                            Function Prototypes
1014:Generated_Source\PSoC6\pdl\middleware\usb_dev/cy_usb_dev.h **** *******************************************************************************/
1015:Generated_Source\PSoC6\pdl\middleware\usb_dev/cy_usb_dev.h **** 
1016:Generated_Source\PSoC6\pdl\middleware\usb_dev/cy_usb_dev.h **** /**
1017:Generated_Source\PSoC6\pdl\middleware\usb_dev/cy_usb_dev.h **** * \addtogroup group_usb_dev_functions_common
1018:Generated_Source\PSoC6\pdl\middleware\usb_dev/cy_usb_dev.h **** * \{
1019:Generated_Source\PSoC6\pdl\middleware\usb_dev/cy_usb_dev.h **** */
1020:Generated_Source\PSoC6\pdl\middleware\usb_dev/cy_usb_dev.h **** cy_en_usb_dev_status_t Cy_USB_Dev_Init(USBFS_Type *base,
1021:Generated_Source\PSoC6\pdl\middleware\usb_dev/cy_usb_dev.h ****                                        struct cy_stc_usbfs_dev_drv_config const *drvConfig,
1022:Generated_Source\PSoC6\pdl\middleware\usb_dev/cy_usb_dev.h ****                                        struct cy_stc_usbfs_dev_drv_context      *drvContext,
ARM GAS  C:\Users\enes_\AppData\Local\Temp\cc1rwu0O.s 			page 46


1023:Generated_Source\PSoC6\pdl\middleware\usb_dev/cy_usb_dev.h ****                                        cy_stc_usb_dev_device_t  const *device,
1024:Generated_Source\PSoC6\pdl\middleware\usb_dev/cy_usb_dev.h ****                                        cy_stc_usb_dev_config_t  const *config,
1025:Generated_Source\PSoC6\pdl\middleware\usb_dev/cy_usb_dev.h ****                                        cy_stc_usb_dev_context_t       *context);
1026:Generated_Source\PSoC6\pdl\middleware\usb_dev/cy_usb_dev.h **** 
1027:Generated_Source\PSoC6\pdl\middleware\usb_dev/cy_usb_dev.h **** void Cy_USB_Dev_DeInit(cy_stc_usb_dev_context_t *context);
1028:Generated_Source\PSoC6\pdl\middleware\usb_dev/cy_usb_dev.h **** cy_en_usb_dev_status_t Cy_USB_Dev_Connect(bool blocking, int32_t timeout, 
1029:Generated_Source\PSoC6\pdl\middleware\usb_dev/cy_usb_dev.h ****                                           cy_stc_usb_dev_context_t *context);
1030:Generated_Source\PSoC6\pdl\middleware\usb_dev/cy_usb_dev.h **** void Cy_USB_Dev_Disconnect(cy_stc_usb_dev_context_t *context);
1031:Generated_Source\PSoC6\pdl\middleware\usb_dev/cy_usb_dev.h **** /** \} group_usb_dev_functions_common */
1032:Generated_Source\PSoC6\pdl\middleware\usb_dev/cy_usb_dev.h **** 
1033:Generated_Source\PSoC6\pdl\middleware\usb_dev/cy_usb_dev.h **** 
1034:Generated_Source\PSoC6\pdl\middleware\usb_dev/cy_usb_dev.h **** /**
1035:Generated_Source\PSoC6\pdl\middleware\usb_dev/cy_usb_dev.h **** * \addtogroup group_usb_dev_functions_service
1036:Generated_Source\PSoC6\pdl\middleware\usb_dev/cy_usb_dev.h **** * \{
1037:Generated_Source\PSoC6\pdl\middleware\usb_dev/cy_usb_dev.h **** */
1038:Generated_Source\PSoC6\pdl\middleware\usb_dev/cy_usb_dev.h **** __STATIC_INLINE void Cy_USB_Dev_RegisterEventsCallback(cy_cb_usb_dev_events_callback_t callback,
1039:Generated_Source\PSoC6\pdl\middleware\usb_dev/cy_usb_dev.h ****                                                        cy_stc_usb_dev_context_t *context);
1040:Generated_Source\PSoC6\pdl\middleware\usb_dev/cy_usb_dev.h **** 
1041:Generated_Source\PSoC6\pdl\middleware\usb_dev/cy_usb_dev.h **** __STATIC_INLINE uint32_t Cy_USB_Dev_GetConfiguration     (cy_stc_usb_dev_context_t const *context);
1042:Generated_Source\PSoC6\pdl\middleware\usb_dev/cy_usb_dev.h **** __STATIC_INLINE uint32_t Cy_USB_Dev_GetAlternateSettings (uint32_t interface,
1043:Generated_Source\PSoC6\pdl\middleware\usb_dev/cy_usb_dev.h ****                                                           cy_stc_usb_dev_context_t const *context);
